 MSO97CRh

 Timestamp is 318fe34c (Tue May 07 16:57:00 1996)

 Preferred load address is 10000000

 Start         Length     Name                   Class
 0001:00000000 00173760H .text                   CODE
 0001:00173760 00004c50H .text$_glue             CODE
 0001:001783ac 00000680H SdmFixed                CODE
 0002:00000000 000139acH .data                   DATA
 0002:000139ac 00000004H .CRT$XCA                DATA
 0002:000139b0 00000050H .CRT$XCU                DATA
 0002:00013a00 00000004H .CRT$XCZ                DATA
 0002:00013a04 00000004H .CRT$XIA                DATA
 0002:00013a08 00000008H .CRT$XIC                DATA
 0002:00013a10 00000004H .CRT$XIZ                DATA
 0002:00013a14 00000004H .CRT$XPA                DATA
 0002:00013a18 00000004H .CRT$XPZ                DATA
 0002:00013a1c 00000004H .CRT$XTA                DATA
 0002:00013a20 00000004H .CRT$XTZ                DATA
 0002:00013a24 00000000H .drectve                DATA
 0002:00013a24 00000000H .ppcshl                 DATA
 0002:00013a24 0001b938H .rdata                  DATA
 0002:0002f360 000060beH .bss                    DATA
 0003:00000000 00028a2cH .ppcldr                 DATA
 0004:00000000 0000003cH ;;afp0                  DATA
 0005:00000000 00000110H .debug$E                DATA
 0005:00000110 00000000H .debug$F                DATA
 0005:00000110 00000038H .debug$H                DATA
 0005:ffe26000 00000000H .debug$P                DATA
 0005:ffe26000 00000000H .debug$S                DATA
 0005:ffe26000 00000000H .debug$T                DATA

  Address         Publics by Value              Rva+Base   Lib:Object

 0002:000139fc       ._$E2                      1018d9fc   fcbu.obj
 0002:0002875c       .?MyGetNextEvent@@YAFFPAUEventRecord@@@Z 101a275c   playhook.obj
 0002:000139b8       ._$E23                     1018d9b8   globals.obj
 0002:000139b8       ._$E17                     1018d9b8   globals.obj
 0002:000139b8       ._$E11                     1018d9b8   globals.obj
 0002:000139ec       ._$E12                     1018d9ec   tbuser.obj
 0002:000139b8       ._$E14                     1018d9b8   globals.obj
 0002:000139b8       ._$E20                     1018d9b8   globals.obj
 0002:000139b8       ._$E8                      1018d9b8   globals.obj
 0002:000139ec       ._$E9                      1018d9ec   tbuser.obj
 0002:000139b8       ._$E5                      1018d9b8   globals.obj
 0002:00012d08       .__EdTxMeas                1018cd08   msowlm:wlmedit.obj
 0002:000139f8       ._$E6                      1018d9f8   tbutil.obj
 0001:00000000       __pcd_tbl_MsoFCreateWebToolbarHelper 10001000 f hl.obj
 0001:00000008       __nep_MsoFCreateWebToolbarHelper 10001008 f hl.obj
 0001:00000010       __fh_MsoFCreateWebToolbarHelper 10001010 f hl.obj
 0001:00000012       _MsoFCreateWebToolbarHelper 10001012 f hl.obj
 0001:0000002c       __pcd_tbl?Create@WTBH@@SAPAV1@PAUMSOINST@@PAUIMsoWebToolbarHelperUser@@PAUIMsoToolbarSet@@@Z 1000102c f hl.obj
 0001:00000040       __nep?Create@WTBH@@SAPAV1@PAUMSOINST@@PAUIMsoWebToolbarHelperUser@@PAUIMsoToolbarSet@@@Z 10001040 f hl.obj
 0001:00000048       __fh?Create@WTBH@@SAPAV1@PAUMSOINST@@PAUIMsoWebToolbarHelperUser@@PAUIMsoToolbarSet@@@Z 10001048 f hl.obj
 0001:0000004a       ?Create@WTBH@@SAPAV1@PAUMSOINST@@PAUIMsoWebToolbarHelperUser@@PAUIMsoToolbarSet@@@Z 1000104a f hl.obj
 0001:0000006c       __pcd_tbl?FInit@WTBH@@QAAHPAUMSOINST@@PAUIMsoWebToolbarHelperUser@@PAUIMsoToolbarSet@@@Z 1000106c f hl.obj
 0001:00000078       __nep?FInit@WTBH@@QAAHPAUMSOINST@@PAUIMsoWebToolbarHelperUser@@PAUIMsoToolbarSet@@@Z 10001078 f hl.obj
 0001:00000080       __fh?FInit@WTBH@@QAAHPAUMSOINST@@PAUIMsoWebToolbarHelperUser@@PAUIMsoToolbarSet@@@Z 10001080 f hl.obj
 0001:00000082       ?FInit@WTBH@@QAAHPAUMSOINST@@PAUIMsoWebToolbarHelperUser@@PAUIMsoToolbarSet@@@Z 10001082 f hl.obj
 0001:000000a8       __pcd_tbl?FInit@URLREG@@QAAHXZ 100010a8 f hl.obj
 0001:000000ac       __nep?FInit@URLREG@@QAAHXZ 100010ac f hl.obj
 0001:000000b4       __fh?FInit@URLREG@@QAAHXZ  100010b4 f hl.obj
 0001:000000b6       ?FInit@URLREG@@QAAHXZ      100010b6 f hl.obj
 0001:000000c4       __pcd_tbl?FInit@WFBU@@QAAHPAVWTBH@@HPBG@Z 100010c4 f hl.obj
 0001:000000d0       __nep?FInit@WFBU@@QAAHPAVWTBH@@HPBG@Z 100010d0 f hl.obj
 0001:000000d8       __fh?FInit@WFBU@@QAAHPAVWTBH@@HPBG@Z 100010d8 f hl.obj
 0001:000000da       ?FInit@WFBU@@QAAHPAVWTBH@@HPBG@Z 100010da f hl.obj
 0001:0000010c       __pcd_tbl?SetFlags@TBS@@UAAXI@Z 1000110c f tbs.obj
 0001:00000110       __nep?SetFlags@TBS@@UAAXI@Z 10001110 f tbs.obj
 0001:00000118       __fh?SetFlags@TBS@@UAAXI@Z 10001118 f tbs.obj
 0001:0000011a       ?SetFlags@TBS@@UAAXI@Z     1000111a f tbs.obj
 0001:00000194       __pcd_tbl?SetNoRedrawBars@TBS@@QAAXH@Z 10001194 f tbs.obj
 0001:00000198       __nep?SetNoRedrawBars@TBS@@QAAXH@Z 10001198 f tbs.obj
 0001:000001a0       __fh?SetNoRedrawBars@TBS@@QAAXH@Z 100011a0 f tbs.obj
 0001:000001a2       ?SetNoRedrawBars@TBS@@QAAXH@Z 100011a2 f tbs.obj
 0001:00000210       _MsoFAllocMemCore          10001210 f kjalloc.obj
 0001:0000029c       ?FPvAlloc@@YAHPAPAXHH@Z    1000129c f kjalloc.obj
 0001:00000f60       _MsoCchSzLen               10001f60 f kjstr.obj
 0001:00000fd0       _MsoCpRgchToRgwch          10001fd0 f kjstr.obj
 0001:00001244       ?LoadPsttIdsl@@YAHIPAUHINSTANCE__@@PBUMSOSTT@@GPAEHE@Z 10002244 f kjstr.obj
 0001:000017c8       ?SimpleDecompressToWtz@@YAHPBEGPAGHE@Z 100027c8 f kjstr.obj
 0001:000018a8       _MsoFMarkMemCore           100028a8 f kjalloc.obj
 0001:000019dc       _MsoReleaseMemCore         100029dc f kjalloc.obj
 0001:00001a38       ?PhbFromHp@@YAPAUmsohb@@PBX@Z 10002a38 f kjalloc.obj
 0001:00001c0c       _MsoFInitPx                10002c0c f kjplex.obj
 0001:00001cfc       __pcd_tbl_memmove          10002cfc f office.obj
 0001:00001cfc       __nep_memmove              10002cfc f office.obj
 0001:00001d04       __fh_memmove               10002d04 f office.obj
 0001:00001d06       _memmove                   10002d06 f office.obj
 0001:00001d34       _MsoIAppendPx              10002d34 f kjplex.obj
 0001:00001f14       _MsoFRgwchEqual            10002f14 f kjstr.obj
 0001:00001f74       _MsoCompareStringW         10002f74 f kjstr.obj
 0001:00004054       ?LongCompareStringW@@YAHPAUloc_hash_s@@KPBGH1H@Z 10005054 f kjstr.obj
 0001:000062ec       __MsoPvFree                100072ec f kjalloc.obj
 0001:000065d4       ?FFindAndUnlink@@YAHPAUmsohb@@PAUmsofb@@@Z 100075d4 f kjalloc.obj
 0001:00006670       __pcd_tbl_MsoFGetTextExtentPointW 10007670 f util.obj
 0001:00006678       __nep_MsoFGetTextExtentPointW 10007678 f util.obj
 0001:00006680       __fh_MsoFGetTextExtentPointW 10007680 f util.obj
 0001:00006682       _MsoFGetTextExtentPointW   10007682 f util.obj
 0001:0000669c       __pcd_tbl?MsgType@@YAHI@Z  1000769c f tbclass.obj
 0001:0000669c       __nep?MsgType@@YAHI@Z      1000769c f tbclass.obj
 0001:000066a4       __fh?MsgType@@YAHI@Z       100076a4 f tbclass.obj
 0001:000066a6       ?MsgType@@YAHI@Z           100076a6 f tbclass.obj
 0001:00006708       _MsoRgwchToRgch            10007708 f kjstr.obj
 0001:00006778       _MsoRgwchToCpRgch          10007778 f kjstr.obj
 0001:00006a00       ?PfbSearchHb2@@YAPAUmsofb@@PAUmsohb@@H@Z 10007a00 f kjalloc.obj
 0001:00006b94       ?PfbReallocHb@@YAPAUmsofb@@IHI@Z 10007b94 f kjalloc.obj
 0001:00006d5c       ?CbReallocSb@@YAHIHH@Z     10007d5c f kjalloc.obj
 0001:00006e8c       _MsoCchWzLen               10007e8c f kjstr.obj
 0001:00006f0c       ?FEnsureOfficeSettingsObject@@YAHPAPAUIMsoPref@@@Z 10007f0c f office.obj
 0001:00006fe4       ?LoadSttIdsl@@YAHIPAUHINSTANCE__@@GGPAEHE@Z 10007fe4 f kjstr.obj
 0001:000070f8       ?PsmFromDg@@YAPAUMSOSM@@H@Z 100080f8 f kjalloc.obj
 0001:000071b0       _MsoFSharedLock            100081b0 f kjalloc.obj
 0001:00007200       ?PsmFromHp@@YAPAUMSOSM@@PAX@Z 10008200 f kjalloc.obj
 0001:00007250       ?DgFromHp@@YAHPAX@Z        10008250 f kjalloc.obj
 0001:00007388       ?SbFromHbShared@@YAHPAUmsohb@@@Z 10008388 f kjalloc.obj
 0001:0000740c       ?PvLock@MSOSM@@QAAPAXXZ    1000840c f shmem.obj
 0001:0000745c       _MsoFSharedUnlock          1000845c f kjalloc.obj
 0001:000074b0       ?Unlock@MSOSM@@QAAXXZ      100084b0 f shmem.obj
 0001:00007504       __pcd_tbl_FLoadIntlWtz     10008504 f util.obj
 0001:00007510       __nep_FLoadIntlWtz         10008510 f util.obj
 0001:00007518       __fh_FLoadIntlWtz          10008518 f util.obj
 0001:0000751a       _FLoadIntlWtz              1000851a f util.obj
 0001:0000754c       __pcd_tbl?TctGet@TBCB@@UAAHXZ 1000854c f tbbtn.obj
 0001:0000754c       __nep?TctGet@TBCB@@UAAHXZ  1000854c f tbbtn.obj
 0001:00007554       __fh?TctGet@TBCB@@UAAHXZ   10008554 f tbbtn.obj
 0001:00007556       ?TctGet@TBCB@@UAAHXZ       10008556 f tbbtn.obj
 0001:00007558       __nep?TbidGet@TB@@UAAHXZ   10008558 f tb.obj
 0001:00007558       __pcd_tbl?TbidGet@TB@@UAAHXZ 10008558 f tb.obj
 0001:00007560       __fh?TbidGet@TB@@UAAHXZ    10008560 f tb.obj
 0001:00007562       ?TbidGet@TB@@UAAHXZ        10008562 f tb.obj
 0001:00007568       __nep_MsoTraceSz           10008568 f util.obj
 0001:00007568       __pcd_tbl_MsoTraceSz       10008568 f util.obj
 0001:00007570       __fh_MsoTraceSz            10008570 f util.obj
 0001:00007572       _MsoTraceSz                10008572 f util.obj
 0001:00007574       __nep?TbosGetOleStatus@TBS@@UAAHXZ 10008574 f tbs.obj
 0001:00007574       __pcd_tbl?TbosGetOleStatus@TBS@@UAAHXZ 10008574 f tbs.obj
 0001:0000757c       __fh?TbosGetOleStatus@TBS@@UAAHXZ 1000857c f tbs.obj
 0001:0000757e       ?TbosGetOleStatus@TBS@@UAAHXZ 1000857e f tbs.obj
 0001:0000759c       __pcd_tbl?TBWndProc@@YAJPAUHWND__@@IIJ@Z 1000859c f tb.obj
 0001:000075e4       __nep?TBWndProc@@YAJPAUHWND__@@IIJ@Z 100085e4 f tb.obj
 0001:000075ec       __fh?TBWndProc@@YAJPAUHWND__@@IIJ@Z 100085ec f tb.obj
 0001:000075ee       ?TBWndProc@@YAJPAUHWND__@@IIJ@Z 100085ee f tb.obj
 0001:0000788c       __pcd_tbl?QueryInterface@TBUBASE@@UAAJABUGUID@@PAPAX@Z 1000888c f base.obj
 0001:00007890       __nep?QueryInterface@TBUBASE@@UAAJABUGUID@@PAPAX@Z 10008890 f base.obj
 0001:00007898       __fh?QueryInterface@TBUBASE@@UAAJABUGUID@@PAPAX@Z 10008898 f base.obj
 0001:0000789a       ?QueryInterface@TBUBASE@@UAAJABUGUID@@PAPAX@Z 1000889a f base.obj
 0001:000078a4       __pcd_tbl?FPtbFromSite@@YAHPAUIMsoControlSite@@PAPAVTB@@@Z 100088a4 f tb.obj
 0001:000078a4       __nep?FPtbFromSite@@YAHPAUIMsoControlSite@@PAPAVTB@@@Z 100088a4 f tb.obj
 0001:000078ac       __fh?FPtbFromSite@@YAHPAUIMsoControlSite@@PAPAVTB@@@Z 100088ac f tb.obj
 0001:000078ae       ?FPtbFromSite@@YAHPAUIMsoControlSite@@PAPAVTB@@@Z 100088ae f tb.obj
 0001:000078c0       __pcd_tbl?QueryInterface@CTLSITE@@UAAJABUGUID@@PAPAX@Z 100088c0 f tb.obj
 0001:000078c0       __nep?QueryInterface@CTLSITE@@UAAJABUGUID@@PAPAX@Z 100088c0 f tb.obj
 0001:000078c8       __fh?QueryInterface@CTLSITE@@UAAJABUGUID@@PAPAX@Z 100088c8 f tb.obj
 0001:000078ca       ?QueryInterface@CTLSITE@@UAAJABUGUID@@PAPAX@Z 100088ca f tb.obj
 0001:000078d8       __pcd_tbl?FGetDisplayedText@TBC@@IAAHPAU_msoceo@@PAGH@Z 100088d8 f tbctrl.obj
 0001:000078d8       __nep?FGetDisplayedText@TBC@@IAAHPAU_msoceo@@PAGH@Z 100088d8 f tbctrl.obj
 0001:000078e0       __fh?FGetDisplayedText@TBC@@IAAHPAU_msoceo@@PAGH@Z 100088e0 f tbctrl.obj
 0001:000078e2       ?FGetDisplayedText@TBC@@IAAHPAU_msoceo@@PAGH@Z 100088e2 f tbctrl.obj
 0001:00007904       __pcd_tbl?GetLabel@TBC@@UAAXPAGH@Z 10008904 f tbctrl.obj
 0001:00007910       __nep?GetLabel@TBC@@UAAXPAGH@Z 10008910 f tbctrl.obj
 0001:00007918       __fh?GetLabel@TBC@@UAAXPAGH@Z 10008918 f tbctrl.obj
 0001:0000791b       ?GetLabel@TBC@@UAAXPAGH@Z  1000891b f tbctrl.obj
 0001:00007984       __pcd_tbl_MsoGetLabelFromTcid 10008984 f tbctrl.obj
 0001:00007988       __nep_MsoGetLabelFromTcid  10008988 f tbctrl.obj
 0001:00007990       __fh_MsoGetLabelFromTcid   10008990 f tbctrl.obj
 0001:00007992       _MsoGetLabelFromTcid       10008992 f tbctrl.obj
 0001:000079d8       _FLockPrivateShrGlobals    100089d8 f shmem.obj
 0001:00007a94       _UnlockPrivateShrGlobals   10008a94 f shmem.obj
 0001:00007b04       __pcd_tbl?AddRef@SCM_Unk@@UAAKXZ 10008b04 f cistdmgr.obj
 0001:00007b04       __nep?AddRef@SCM_Unk@@UAAKXZ 10008b04 f cistdmgr.obj
 0001:00007b0c       __fh?AddRef@SCM_Unk@@UAAKXZ 10008b0c f cistdmgr.obj
 0001:00007b0e       ?AddRef@SCM_Unk@@UAAKXZ    10008b0e f cistdmgr.obj
 0001:00007b18       __pcd_tbl?Release@SCM_Unk@@UAAKXZ 10008b18 f cistdmgr.obj
 0001:00007b20       __nep?Release@SCM_Unk@@UAAKXZ 10008b20 f cistdmgr.obj
 0001:00007b28       __fh?Release@SCM_Unk@@UAAKXZ 10008b28 f cistdmgr.obj
 0001:00007b2a       ?Release@SCM_Unk@@UAAKXZ   10008b2a f cistdmgr.obj
 0001:00007b3c       __pcd_tbl?RemoveCompFromNormIdleList@SCM@@AAAXPAVSCMI@@@Z 10008b3c f ciidle.obj
 0001:00007b40       __nep?RemoveCompFromNormIdleList@SCM@@AAAXPAVSCMI@@@Z 10008b40 f ciidle.obj
 0001:00007b48       __fh?RemoveCompFromNormIdleList@SCM@@AAAXPAVSCMI@@@Z 10008b48 f ciidle.obj
 0001:00007b4a       ?RemoveCompFromNormIdleList@SCM@@AAAXPAVSCMI@@@Z 10008b4a f ciidle.obj
 0001:00007ba4       __pcd_tbl?RemoveCompFromPeriodicIdleList@SCM@@AAAXPAVSCMI@@K@Z 10008ba4 f ciidle.obj
 0001:00007bb0       __nep?RemoveCompFromPeriodicIdleList@SCM@@AAAXPAVSCMI@@K@Z 10008bb0 f ciidle.obj
 0001:00007bb8       __fh?RemoveCompFromPeriodicIdleList@SCM@@AAAXPAVSCMI@@K@Z 10008bb8 f ciidle.obj
 0001:00007bba       ?RemoveCompFromPeriodicIdleList@SCM@@AAAXPAVSCMI@@K@Z 10008bba f ciidle.obj
 0001:00007c04       __nep?UpdateActiveNotifCompInfo@SCM@@AAAXKK@Z 10008c04 f cistdmgr.obj
 0001:00007c04       __pcd_tbl?UpdateActiveNotifCompInfo@SCM@@AAAXKK@Z 10008c04 f cistdmgr.obj
 0001:00007c0c       __fh?UpdateActiveNotifCompInfo@SCM@@AAAXKK@Z 10008c0c f cistdmgr.obj
 0001:00007c0e       ?UpdateActiveNotifCompInfo@SCM@@AAAXKK@Z 10008c0e f cistdmgr.obj
 0001:00007c68       __pcd_tbl?FReleaseComponent@SCM@@AAAHPAVSCMI@@HH@Z 10008c68 f cistdmgr.obj
 0001:00007c74       __nep?FReleaseComponent@SCM@@AAAHPAVSCMI@@HH@Z 10008c74 f cistdmgr.obj
 0001:00007c7c       __fh?FReleaseComponent@SCM@@AAAHPAVSCMI@@HH@Z 10008c7c f cistdmgr.obj
 0001:00007c7e       ?FReleaseComponent@SCM@@AAAHPAVSCMI@@HH@Z 10008c7e f cistdmgr.obj
 0001:00007c94       __pcd_tbl?FSetWtz255@@YAHPAPAGPBG@Z 10008c94 f util.obj
 0001:00007ca0       __nep?FSetWtz255@@YAHPAPAGPBG@Z 10008ca0 f util.obj
 0001:00007ca8       __fh?FSetWtz255@@YAHPAPAGPBG@Z 10008ca8 f util.obj
 0001:00007caa       ?FSetWtz255@@YAHPAPAGPBG@Z 10008caa f util.obj
 0001:00007d00       __nep?SetCtlModified@CTLSITE@@UAAXH@Z 10008d00 f tb.obj
 0001:00007d00       __pcd_tbl?SetCtlModified@CTLSITE@@UAAXH@Z 10008d00 f tb.obj
 0001:00007d08       __fh?SetCtlModified@CTLSITE@@UAAXH@Z 10008d08 f tb.obj
 0001:00007d0a       ?SetCtlModified@CTLSITE@@UAAXH@Z 10008d0a f tb.obj
 0001:00007d18       __pcd_tbl?CDockedToolbars@TBS@@QAAHXZ 10008d18 f tbs.obj
 0001:00007d18       __nep?CDockedToolbars@TBS@@QAAHXZ 10008d18 f tbs.obj
 0001:00007d20       __fh?CDockedToolbars@TBS@@QAAHXZ 10008d20 f tbs.obj
 0001:00007d22       ?CDockedToolbars@TBS@@QAAHXZ 10008d22 f tbs.obj
 0001:00007d60       __pcd_tbl?PpvClientGet@TBS@@UAAPAPAXXZ 10008d60 f tbs.obj
 0001:00007d60       __nep?PpvClientGet@TBS@@UAAPAPAXXZ 10008d60 f tbs.obj
 0001:00007d68       __fh?PpvClientGet@TBS@@UAAPAPAXXZ 10008d68 f tbs.obj
 0001:00007d6a       ?PpvClientGet@TBS@@UAAPAPAXXZ 10008d6a f tbs.obj
 0001:00007d70       __nep?NotifyTbAction@TB@@AAAXH@Z 10008d70 f tb.obj
 0001:00007d70       __pcd_tbl?NotifyTbAction@TB@@AAAXH@Z 10008d70 f tb.obj
 0001:00007d78       __fh?NotifyTbAction@TB@@AAAXH@Z 10008d78 f tb.obj
 0001:00007d7a       ?NotifyTbAction@TB@@AAAXH@Z 10008d7a f tb.obj
 0001:00007dc4       __nep?PitbsuGetToolbarSetUser@TBS@@UAAPAUIMsoToolbarSetUser@@XZ 10008dc4 f tbs.obj
 0001:00007dc4       __pcd_tbl?PitbsuGetToolbarSetUser@TBS@@UAAPAUIMsoToolbarSetUser@@XZ 10008dc4 f tbs.obj
 0001:00007dcc       __fh?PitbsuGetToolbarSetUser@TBS@@UAAPAUIMsoToolbarSetUser@@XZ 10008dcc f tbs.obj
 0001:00007dce       ?PitbsuGetToolbarSetUser@TBS@@UAAPAUIMsoToolbarSetUser@@XZ 10008dce f tbs.obj
 0001:00007dd8       __pcd_tbl?ReflowDockedTB@TBS@@AAAXPAVTB@@HPAUtagRECT@@HH@Z 10008dd8 f tbs.obj
 0001:00007dfc       __nep?ReflowDockedTB@TBS@@AAAXPAVTB@@HPAUtagRECT@@HH@Z 10008dfc f tbs.obj
 0001:00007e04       __fh?ReflowDockedTB@TBS@@AAAXPAVTB@@HPAUtagRECT@@HH@Z 10008e04 f tbs.obj
 0001:00007e07       ?ReflowDockedTB@TBS@@AAAXPAVTB@@HPAUtagRECT@@HH@Z 10008e07 f tbs.obj
 0001:0000818c       __nep?IfnOrientedFont@@YAHHH@Z 1000918c f tbutil.obj
 0001:0000818c       __pcd_tbl?IfnOrientedFont@@YAHHH@Z 1000918c f tbutil.obj
 0001:00008194       __fh?IfnOrientedFont@@YAHHH@Z 10009194 f tbutil.obj
 0001:00008196       ?IfnOrientedFont@@YAHHH@Z  10009196 f tbutil.obj
 0001:000081c0       _MsoWtzCopy                100091c0 f kjstr.obj
 0001:0000823c       __pcd_tbl?TooldockWndProc@@YAJPAUHWND__@@IIJ@Z 1000923c f tbs.obj
 0001:00008258       __nep?TooldockWndProc@@YAJPAUHWND__@@IIJ@Z 10009258 f tbs.obj
 0001:00008260       __fh?TooldockWndProc@@YAJPAUHWND__@@IIJ@Z 10009260 f tbs.obj
 0001:00008262       ?TooldockWndProc@@YAJPAUHWND__@@IIJ@Z 10009262 f tbs.obj
 0001:00008308       __nep?TcidGet@TBC@@UAAHXZ  10009308 f tbbtn.obj
 0001:00008308       __pcd_tbl?TcidGet@TBC@@UAAHXZ 10009308 f tbbtn.obj
 0001:00008310       __fh?TcidGet@TBC@@UAAHXZ   10009310 f tbbtn.obj
 0001:00008312       ?TcidGet@TBC@@UAAHXZ       10009312 f tbbtn.obj
 0001:00008318       __pcd_tbl?GetOrientedTextSize@@YAXPAU_msoctlenv@@PAGPAUtagSIZE@@H@Z 10009318 f tbctrl.obj
 0001:00008334       __nep?GetOrientedTextSize@@YAXPAU_msoctlenv@@PAGPAUtagSIZE@@H@Z 10009334 f tbctrl.obj
 0001:0000833c       __fh?GetOrientedTextSize@@YAXPAU_msoctlenv@@PAGPAUtagSIZE@@H@Z 1000933c f tbctrl.obj
 0001:0000833f       ?GetOrientedTextSize@@YAXPAU_msoctlenv@@PAGPAUtagSIZE@@H@Z 1000933f f tbctrl.obj
 0001:00008384       __pcd_tbl_MsoPwchStripAmpersandsWtz 10009384 f tbutil.obj
 0001:00008384       __nep_MsoPwchStripAmpersandsWtz 10009384 f tbutil.obj
 0001:0000838c       __fh_MsoPwchStripAmpersandsWtz 1000938c f tbutil.obj
 0001:0000838e       _MsoPwchStripAmpersandsWtz 1000938e f tbutil.obj
 0001:000083c8       __pcd_tbl_HobjSelectUI     100093c8 f util.obj
 0001:000083cc       __nep_HobjSelectUI         100093cc f util.obj
 0001:000083d4       __fh_HobjSelectUI          100093d4 f util.obj
 0001:000083d6       _HobjSelectUI              100093d6 f util.obj
 0001:000083e0       __pcd_tbl?GetTbDC@TB@@AAAPAUHDC__@@PAUHWND__@@@Z 100093e0 f tb.obj
 0001:000083e4       __nep?GetTbDC@TB@@AAAPAUHDC__@@PAUHWND__@@@Z 100093e4 f tb.obj
 0001:000083ec       __fh?GetTbDC@TB@@AAAPAUHDC__@@PAUHWND__@@@Z 100093ec f tb.obj
 0001:000083ee       ?GetTbDC@TB@@AAAPAUHDC__@@PAUHWND__@@@Z 100093ee f tb.obj
 0001:00008408       __pcd_tbl?PicuGetControlUser@TBCM@@UAAPAUIMsoControlUser@@XZ 10009408 f tbmenctl.obj
 0001:00008408       __nep?PicuGetControlUser@TBCM@@UAAPAUIMsoControlUser@@XZ 10009408 f tbmenctl.obj
 0001:00008410       __fh?PicuGetControlUser@TBCM@@UAAPAUIMsoControlUser@@XZ 10009410 f tbmenctl.obj
 0001:00008412       ?PicuGetControlUser@TBCM@@UAAPAUIMsoControlUser@@XZ 10009412 f tbmenctl.obj
 0001:00008418       __pcd_tbl?FFindToolbarInternal@TBS@@QAAHHPBGPAPAUIMsoToolbar@@HH@Z 10009418 f tbs.obj
 0001:00008428       __nep?FFindToolbarInternal@TBS@@QAAHHPBGPAPAUIMsoToolbar@@HH@Z 10009428 f tbs.obj
 0001:00008430       __fh?FFindToolbarInternal@TBS@@QAAHHPBGPAPAUIMsoToolbar@@HH@Z 10009430 f tbs.obj
 0001:00008433       ?FFindToolbarInternal@TBS@@QAAHHPBGPAPAUIMsoToolbar@@HH@Z 10009433 f tbs.obj
 0001:00008514       __nep?PitbsGetToolbarSet@TB@@UAAPAUIMsoToolbarSet@@XZ 10009514 f tb.obj
 0001:00008514       __pcd_tbl?PitbsGetToolbarSet@TB@@UAAPAUIMsoToolbarSet@@XZ 10009514 f tb.obj
 0001:0000851c       __fh?PitbsGetToolbarSet@TB@@UAAPAUIMsoToolbarSet@@XZ 1000951c f tb.obj
 0001:0000851e       ?PitbsGetToolbarSet@TB@@UAAPAUIMsoToolbarSet@@XZ 1000951e f tb.obj
 0001:00008524       __nep?FEnabledInCust@TBC@@QAAHXZ 10009524 f tbctrl.obj
 0001:00008524       __pcd_tbl?FEnabledInCust@TBC@@QAAHXZ 10009524 f tbctrl.obj
 0001:0000852c       __fh?FEnabledInCust@TBC@@QAAHXZ 1000952c f tbctrl.obj
 0001:0000852e       ?FEnabledInCust@TBC@@QAAHXZ 1000952e f tbctrl.obj
 0001:00008550       __pcd_tbl?FPtbsFromSite@@YAHPAUIMsoControlSite@@PAPAVTBS@@@Z 10009550 f tb.obj
 0001:00008554       __nep?FPtbsFromSite@@YAHPAUIMsoControlSite@@PAPAVTBS@@@Z 10009554 f tb.obj
 0001:0000855c       __fh?FPtbsFromSite@@YAHPAUIMsoControlSite@@PAPAVTBS@@@Z 1000955c f tb.obj
 0001:0000855e       ?FPtbsFromSite@@YAHPAUIMsoControlSite@@PAPAVTBS@@@Z 1000955e f tb.obj
 0001:00008574       __pcd_tbl?FGetPopup@TBCM@@IAAHH@Z 10009574 f tbmenu.obj
 0001:00008588       __nep?FGetPopup@TBCM@@IAAHH@Z 10009588 f tbmenu.obj
 0001:00008590       __fh?FGetPopup@TBCM@@IAAHH@Z 10009590 f tbmenu.obj
 0001:00008592       ?FGetPopup@TBCM@@IAAHH@Z   10009592 f tbmenu.obj
 0001:000085e0       __pcd_tbl?TctGet@TBCDD@@UAAHXZ 100095e0 f tbdropdn.obj
 0001:000085e0       __nep?TctGet@TBCDD@@UAAHXZ 100095e0 f tbdropdn.obj
 0001:000085e8       __fh?TctGet@TBCDD@@UAAHXZ  100095e8 f tbdropdn.obj
 0001:000085ea       ?TctGet@TBCDD@@UAAHXZ      100095ea f tbdropdn.obj
 0001:00008618       __pcd_tbl?LProcessInputMsg@TB@@UAAJPAUHWND__@@IIJ@Z 10009618 f tb.obj
 0001:00008730       __nep?LProcessInputMsg@TB@@UAAJPAUHWND__@@IIJ@Z 10009730 f tb.obj
 0001:00008738       __fh?LProcessInputMsg@TB@@UAAJPAUHWND__@@IIJ@Z 10009738 f tb.obj
 0001:0000873b       ?LProcessInputMsg@TB@@UAAJPAUHWND__@@IIJ@Z 1000973b f tb.obj
 0001:000094bc       __nep_MsoFGetHelpMode      1000a4bc f office.obj
 0001:000094bc       __pcd_tbl_MsoFGetHelpMode  1000a4bc f office.obj
 0001:000094c4       __fh_MsoFGetHelpMode       1000a4c4 f office.obj
 0001:000094c6       _MsoFGetHelpMode           1000a4c6 f office.obj
 0001:000094cc       __pcd_tbl?IctlControlFromMessage@TB@@QAAHPAUHWND__@@IIJPAU_msoctlenv@@PAUtagPOINT@@PAH@Z 1000a4cc f tb.obj
 0001:000094dc       __nep?IctlControlFromMessage@TB@@QAAHPAUHWND__@@IIJPAU_msoctlenv@@PAUtagPOINT@@PAH@Z 1000a4dc f tb.obj
 0001:000094e4       __fh?IctlControlFromMessage@TB@@QAAHPAUHWND__@@IIJPAU_msoctlenv@@PAUtagPOINT@@PAH@Z 1000a4e4 f tb.obj
 0001:000094e6       ?IctlControlFromMessage@TB@@QAAHPAUHWND__@@IIJPAU_msoctlenv@@PAUtagPOINT@@PAH@Z 1000a4e6 f tb.obj
 0001:00009520       __pcd_tbl?IctlControlFromPoint@TB@@QAAHUtagPOINT@@PAU_msoctlenv@@PAH@Z 1000a520 f tb.obj
 0001:00009530       __nep?IctlControlFromPoint@TB@@QAAHUtagPOINT@@PAU_msoctlenv@@PAH@Z 1000a530 f tb.obj
 0001:00009538       __fh?IctlControlFromPoint@TB@@QAAHUtagPOINT@@PAU_msoctlenv@@PAH@Z 1000a538 f tb.obj
 0001:0000953a       ?IctlControlFromPoint@TB@@QAAHUtagPOINT@@PAU_msoctlenv@@PAH@Z 1000a53a f tb.obj
 0001:000095ec       __pcd_tbl?PicInUseFromIctl@TB@@IAAPAUIMsoControl@@H@Z 1000a5ec f tb.obj
 0001:000095f0       __nep?PicInUseFromIctl@TB@@IAAPAUIMsoControl@@H@Z 1000a5f0 f tb.obj
 0001:000095f8       __fh?PicInUseFromIctl@TB@@IAAPAUIMsoControl@@H@Z 1000a5f8 f tb.obj
 0001:000095fa       ?PicInUseFromIctl@TB@@IAAPAUIMsoControl@@H@Z 1000a5fa f tb.obj
 0001:0000961c       __nep?PicInUse@TB@@QAAPAUIMsoControl@@PAU2@@Z 1000a61c f tb.obj
 0001:0000961c       __pcd_tbl?PicInUse@TB@@QAAPAUIMsoControl@@PAU2@@Z 1000a61c f tb.obj
 0001:00009624       __fh?PicInUse@TB@@QAAPAUIMsoControl@@PAU2@@Z 1000a624 f tb.obj
 0001:00009626       ?PicInUse@TB@@QAAPAUIMsoControl@@PAU2@@Z 1000a626 f tb.obj
 0001:0000964c       __pcd_tbl?ReleaseTbDC@TB@@AAAXPAUHWND__@@PAUHDC__@@@Z 1000a64c f tb.obj
 0001:00009650       __nep?ReleaseTbDC@TB@@AAAXPAUHWND__@@PAUHDC__@@@Z 1000a650 f tb.obj
 0001:00009658       __fh?ReleaseTbDC@TB@@AAAXPAUHWND__@@PAUHDC__@@@Z 1000a658 f tb.obj
 0001:0000965a       ?ReleaseTbDC@TB@@AAAXPAUHWND__@@PAUHDC__@@@Z 1000a65a f tb.obj
 0001:00009670       __pcd_tbl?UpdateDockBW@TBS@@AAAXHH@Z 1000a670 f tbs.obj
 0001:00009674       __nep?UpdateDockBW@TBS@@AAAXHH@Z 1000a674 f tbs.obj
 0001:0000967c       __fh?UpdateDockBW@TBS@@AAAXHH@Z 1000a67c f tbs.obj
 0001:0000967e       ?UpdateDockBW@TBS@@AAAXHH@Z 1000a67e f tbs.obj
 0001:000096bc       __pcd_tbl?SetWindowPosTB@@YAHPAVTBS@@PAUHWND__@@1HHHHI@Z 1000a6bc f tbutil.obj
 0001:000096d0       __nep?SetWindowPosTB@@YAHPAVTBS@@PAUHWND__@@1HHHHI@Z 1000a6d0 f tbutil.obj
 0001:000096d8       __fh?SetWindowPosTB@@YAHPAVTBS@@PAUHWND__@@1HHHHI@Z 1000a6d8 f tbutil.obj
 0001:000096da       ?SetWindowPosTB@@YAHPAVTBS@@PAUHWND__@@1HHHHI@Z 1000a6da f tbutil.obj
 0001:00009728       __nep?FIsInCustCmdBarList@TB@@QAAHXZ 1000a728 f tb.obj
 0001:00009728       __pcd_tbl?FIsInCustCmdBarList@TB@@QAAHXZ 1000a728 f tb.obj
 0001:00009730       __fh?FIsInCustCmdBarList@TB@@QAAHXZ 1000a730 f tb.obj
 0001:00009732       ?FIsInCustCmdBarList@TB@@QAAHXZ 1000a732 f tb.obj
 0001:00009774       __pcd_tbl?RedisplayDocks@TBS@@AAAXPBURect@@@Z 1000a774 f tbs.obj
 0001:0000979c       __nep?RedisplayDocks@TBS@@AAAXPBURect@@@Z 1000a79c f tbs.obj
 0001:000097a4       __fh?RedisplayDocks@TBS@@AAAXPBURect@@@Z 1000a7a4 f tbs.obj
 0001:000097a6       ?RedisplayDocks@TBS@@AAAXPBURect@@@Z 1000a7a6 f tbs.obj
 0001:00009980       ?ReflowDockAreas@TBS@@AAAXQAHHH@Z 1000a980 f tbs.obj
 0001:0000a1f4       _MsoEmptyPx                1000b1f4 f kjplex.obj
 0001:0000a284       __pcd_tbl_MsoDestroyIPref  1000b284 f util.obj
 0001:0000a28c       __nep_MsoDestroyIPref      1000b28c f util.obj
 0001:0000a294       __fh_MsoDestroyIPref       1000b294 f util.obj
 0001:0000a296       _MsoDestroyIPref           1000b296 f util.obj
 0001:0000a2a0       _MsoDeletePx               1000b2a0 f kjplex.obj
 0001:0000a324       _MsoFRemovePx              1000b324 f kjplex.obj
 0001:0000a498       _MsoFCompactPx             1000b498 f kjplex.obj
 0001:0000a584       __pcd_tbl?TctGet@TBCMC@@UAAHXZ 1000b584 f tbmenctl.obj
 0001:0000a584       __nep?TctGet@TBCMC@@UAAHXZ 1000b584 f tbmenctl.obj
 0001:0000a58c       __fh?TctGet@TBCMC@@UAAHXZ  1000b58c f tbmenctl.obj
 0001:0000a58e       ?TctGet@TBCMC@@UAAHXZ      1000b58e f tbmenctl.obj
 0001:0000a5a0       __pcd_tbl?TbctGet@TBC@@UAAHXZ 1000b5a0 f tbctrl.obj
 0001:0000a5a0       __nep?TbctGet@TBC@@UAAHXZ  1000b5a0 f tbctrl.obj
 0001:0000a5a8       __fh?TbctGet@TBC@@UAAHXZ   1000b5a8 f tbctrl.obj
 0001:0000a5aa       ?TbctGet@TBC@@UAAHXZ       1000b5aa f tbctrl.obj
 0001:0000a5b0       __pcd_tbl?FAttachDropdown@TB@@QAAHPAVTBCM@@H@Z 1000b5b0 f tb.obj
 0001:0000a5b8       __nep?FAttachDropdown@TB@@QAAHPAVTBCM@@H@Z 1000b5b8 f tb.obj
 0001:0000a5c0       __fh?FAttachDropdown@TB@@QAAHPAVTBCM@@H@Z 1000b5c0 f tb.obj
 0001:0000a5c2       ?FAttachDropdown@TB@@QAAHPAVTBCM@@H@Z 1000b5c2 f tb.obj
 0001:0000a628       _MsoSzToWtz                1000b628 f kjstr.obj
 0001:0000a6b8       ?FMmpFindExact@@YAHPBX0@Z  1000b6b8 f kjalloc.obj
 0001:0000a724       ?RecordEvent@CMsoOLDocBaseImpIOLDoc2@@UAAJKPBXPAUGUID@@@Z 1000b724 f dmuOLDoc.obj
 0001:0000ad74       ?FIsAnODMADocument@CMsoOLDocBase@@UAAHXZ 1000bd74 f dmuOLDoc.obj
 0001:0000ada4       ?GetLoggingState@CMsoOLDocBaseImpIOLDoc2@@UBAJXZ 1000bda4 f dmuOLDoc.obj
 0001:0000ae20       _MsoPpvAllocCore           1000be20 f kjppv.obj
 0001:0000af28       _MsoFreePpv                1000bf28 f kjppv.obj
 0001:0000afa0       _MsoFLoadWzFromPstt        1000bfa0 f kjstr.obj
 0001:0000b040       __pcd_tbl_MsoNCActivate    1000c040 f tbclass.obj
 0001:0000b044       __nep_MsoNCActivate        1000c044 f tbclass.obj
 0001:0000b04c       __fh_MsoNCActivate         1000c04c f tbclass.obj
 0001:0000b04e       _MsoNCActivate             1000c04e f tbclass.obj
 0001:0000b07c       __pcd_tbl?Activate@TBS@@UAAXXZ 1000c07c f tbs.obj
 0001:0000b0a8       __nep?Activate@TBS@@UAAXXZ 1000c0a8 f tbs.obj
 0001:0000b0b0       __fh?Activate@TBS@@UAAXXZ  1000c0b0 f tbs.obj
 0001:0000b0b3       ?Activate@TBS@@UAAXXZ      1000c0b3 f tbs.obj
 0001:0000b2c0       __pcd_tbl?FIsToolbarWindow@@YAHPAUHWND__@@@Z 1000c2c0 f tbutil.obj
 0001:0000b2c8       __nep?FIsToolbarWindow@@YAHPAUHWND__@@@Z 1000c2c8 f tbutil.obj
 0001:0000b2d0       __fh?FIsToolbarWindow@@YAHPAUHWND__@@@Z 1000c2d0 f tbutil.obj
 0001:0000b2d2       ?FIsToolbarWindow@@YAHPAUHWND__@@@Z 1000c2d2 f tbutil.obj
 0001:0000b2f8       __pcd_tbl?SetModified@TB@@QAAXH@Z 1000c2f8 f tb.obj
 0001:0000b2f8       __nep?SetModified@TB@@QAAXH@Z 1000c2f8 f tb.obj
 0001:0000b300       __fh?SetModified@TB@@QAAXH@Z 1000c300 f tb.obj
 0001:0000b302       ?SetModified@TB@@QAAXH@Z   1000c302 f tb.obj
 0001:0000b314       __nep?FixupGaps@@YAXPAU_ctlinfocache@@HHPAU_reflowinfo@@@Z 1000c314 f tb.obj
 0001:0000b314       __pcd_tbl?FixupGaps@@YAXPAU_ctlinfocache@@HHPAU_reflowinfo@@@Z 1000c314 f tb.obj
 0001:0000b31c       __fh?FixupGaps@@YAXPAU_ctlinfocache@@HHPAU_reflowinfo@@@Z 1000c31c f tb.obj
 0001:0000b31e       ?FixupGaps@@YAXPAU_ctlinfocache@@HHPAU_reflowinfo@@@Z 1000c31e f tb.obj
 0001:0000b3ac       __pcd_tbl?UpdateDxyDockPri@TB@@IAAXHPAU_ctlinfocache@@HH@Z 1000c3ac f tb.obj
 0001:0000b3b0       __nep?UpdateDxyDockPri@TB@@IAAXHPAU_ctlinfocache@@HH@Z 1000c3b0 f tb.obj
 0001:0000b3b8       __fh?UpdateDxyDockPri@TB@@IAAXHPAU_ctlinfocache@@HH@Z 1000c3b8 f tb.obj
 0001:0000b3bb       ?UpdateDxyDockPri@TB@@IAAXHPAU_ctlinfocache@@HH@Z 1000c3bb f tb.obj
 0001:0000b54c       __pcd_tbl?GetDockDxy@TBS@@AAAHH@Z 1000c54c f tbs.obj
 0001:0000b54c       __nep?GetDockDxy@TBS@@AAAHH@Z 1000c54c f tbs.obj
 0001:0000b554       __fh?GetDockDxy@TBS@@AAAHH@Z 1000c554 f tbs.obj
 0001:0000b556       ?GetDockDxy@TBS@@AAAHH@Z   1000c556 f tbs.obj
 0001:0000b5b4       __pcd_tbl?AdjustNeighbors@TBS@@AAAHPAVTB@@HPAUtagRECT@@PAPAV2@H2HHHHH@Z 1000c5b4 f tbs.obj
 0001:0000b5e8       __nep?AdjustNeighbors@TBS@@AAAHPAVTB@@HPAUtagRECT@@PAPAV2@H2HHHHH@Z 1000c5e8 f tbs.obj
 0001:0000b5f0       __fh?AdjustNeighbors@TBS@@AAAHPAVTB@@HPAUtagRECT@@PAPAV2@H2HHHHH@Z 1000c5f0 f tbs.obj
 0001:0000b5f3       ?AdjustNeighbors@TBS@@AAAHPAVTB@@HPAUtagRECT@@PAPAV2@H2HHHHH@Z 1000c5f3 f tbs.obj
 0001:0000c8cc       __nep?DxySumRow@@YAHHPAPAVTB@@PAH@Z 1000d8cc f tbs.obj
 0001:0000c8cc       __pcd_tbl?DxySumRow@@YAHHPAPAVTB@@PAH@Z 1000d8cc f tbs.obj
 0001:0000c8d4       __fh?DxySumRow@@YAHHPAPAVTB@@PAH@Z 1000d8d4 f tbs.obj
 0001:0000c8d6       ?DxySumRow@@YAHHPAPAVTB@@PAH@Z 1000d8d6 f tbs.obj
 0001:0000c990       __pcd_tbl?SetupScrollArrows@TB@@IAAXPAUtagRECT@@@Z 1000d990 f tb.obj
 0001:0000c9a4       __nep?SetupScrollArrows@TB@@IAAXPAUtagRECT@@@Z 1000d9a4 f tb.obj
 0001:0000c9ac       __fh?SetupScrollArrows@TB@@IAAXPAUtagRECT@@@Z 1000d9ac f tb.obj
 0001:0000c9af       ?SetupScrollArrows@TB@@IAAXPAUtagRECT@@@Z 1000d9af f tb.obj
 0001:0000cb74       __pcd_tbl?AdjustControls@TB@@QAAXPAUtagRECT@@HH@Z 1000db74 f tb.obj
 0001:0000cb74       __nep?AdjustControls@TB@@QAAXPAUtagRECT@@HH@Z 1000db74 f tb.obj
 0001:0000cb7c       __fh?AdjustControls@TB@@QAAXPAUtagRECT@@HH@Z 1000db7c f tb.obj
 0001:0000cb7e       ?AdjustControls@TB@@QAAXPAUtagRECT@@HH@Z 1000db7e f tb.obj
 0001:0000cc2c       __pcd_tbl?FInit@TBCDD@@UAAHPAXPAUIMsoControlUser@@PAUIMsoControlSite@@@Z 1000dc2c f tbdropdn.obj
 0001:0000cc48       __nep?FInit@TBCDD@@UAAHPAXPAUIMsoControlUser@@PAUIMsoControlSite@@@Z 1000dc48 f tbdropdn.obj
 0001:0000cc50       __fh?FInit@TBCDD@@UAAHPAXPAUIMsoControlUser@@PAUIMsoControlSite@@@Z 1000dc50 f tbdropdn.obj
 0001:0000cc52       ?FInit@TBCDD@@UAAHPAXPAUIMsoControlUser@@PAUIMsoControlSite@@@Z 1000dc52 f tbdropdn.obj
 0001:0000ccc0       __pcd_tbl?MsoCreateFontFromResource@@YAPAUHFONT__@@HPAUHINSTANCE__@@@Z 1000dcc0 f sdmdlg.obj
 0001:0000cce0       __nep?MsoCreateFontFromResource@@YAPAUHFONT__@@HPAUHINSTANCE__@@@Z 1000dce0 f sdmdlg.obj
 0001:0000cce8       __fh?MsoCreateFontFromResource@@YAPAUHFONT__@@HPAUHINSTANCE__@@@Z 1000dce8 f sdmdlg.obj
 0001:0000cceb       ?MsoCreateFontFromResource@@YAPAUHFONT__@@HPAUHINSTANCE__@@@Z 1000dceb f sdmdlg.obj
 0001:0000cdf0       _MsoCchLoadSzFromPstt      1000ddf0 f kjstr.obj
 0001:0000ce94       __pcd_tbl?CbQueryProfileBlob@SET@@UAAHPBG0PAEH1HH@Z 1000de94 f util.obj
 0001:0000ceb4       __nep?CbQueryProfileBlob@SET@@UAAHPBG0PAEH1HH@Z 1000deb4 f util.obj
 0001:0000cebc       __fh?CbQueryProfileBlob@SET@@UAAHPBG0PAEH1HH@Z 1000debc f util.obj
 0001:0000cebf       ?CbQueryProfileBlob@SET@@UAAHPBG0PAEH1HH@Z 1000debf f util.obj
 0001:0000cf04       __nep?FInit@TBCODD@@UAAHPAXPAUIMsoControlUser@@PAUIMsoControlSite@@@Z 1000df04 f tbdropdn.obj
 0001:0000cf04       __pcd_tbl?FInit@TBCODD@@UAAHPAXPAUIMsoControlUser@@PAUIMsoControlSite@@@Z 1000df04 f tbdropdn.obj
 0001:0000cf0c       __fh?FInit@TBCODD@@UAAHPAXPAUIMsoControlUser@@PAUIMsoControlSite@@@Z 1000df0c f tbdropdn.obj
 0001:0000cf0e       ?FInit@TBCODD@@UAAHPAXPAUIMsoControlUser@@PAUIMsoControlSite@@@Z 1000df0e f tbdropdn.obj
 0001:0000cf18       __nep?DragInfoSave@TB@@QAAXXZ 1000df18 f tb.obj
 0001:0000cf18       __pcd_tbl?DragInfoSave@TB@@QAAXXZ 1000df18 f tb.obj
 0001:0000cf20       __fh?DragInfoSave@TB@@QAAXXZ 1000df20 f tb.obj
 0001:0000cf22       ?DragInfoSave@TB@@QAAXXZ   1000df22 f tb.obj
 0001:0000cf5c       __pcd_tbl?FInitialize@TFC@@UAAHPAU_SYSTEMTIME@@@Z 1000df5c f fc.obj
 0001:0000cf60       __nep?FInitialize@TFC@@UAAHPAU_SYSTEMTIME@@@Z 1000df60 f fc.obj
 0001:0000cf68       __fh?FInitialize@TFC@@UAAHPAU_SYSTEMTIME@@@Z 1000df68 f fc.obj
 0001:0000cf6a       ?FInitialize@TFC@@UAAHPAU_SYSTEMTIME@@@Z 1000df6a f fc.obj
 0001:0000d03c       __pcd_tbl?FDoGlobalAsstInit@@YAHPAVTFC@@PAUHWND__@@@Z 1000e03c f fc.obj
 0001:0000d078       __nep?FDoGlobalAsstInit@@YAHPAVTFC@@PAUHWND__@@@Z 1000e078 f fc.obj
 0001:0000d080       __fh?FDoGlobalAsstInit@@YAHPAVTFC@@PAUHWND__@@@Z 1000e080 f fc.obj
 0001:0000d083       ?FDoGlobalAsstInit@@YAHPAVTFC@@PAUHWND__@@@Z 1000e083 f fc.obj
 0001:0000d29c       __nep?AddRef@FC_Component@@UAAKXZ 1000e29c f fc.obj
 0001:0000d29c       __pcd_tbl?AddRef@FC_Component@@UAAKXZ 1000e29c f fc.obj
 0001:0000d2a4       __fh?AddRef@FC_Component@@UAAKXZ 1000e2a4 f fc.obj
 0001:0000d2a6       ?AddRef@FC_Component@@UAAKXZ 1000e2a6 f fc.obj
 0001:0000d2cc       __pcd_tbl?CalcAsstMetrics@@YAXH@Z 1000e2cc f fc.obj
 0001:0000d2d8       __nep?CalcAsstMetrics@@YAXH@Z 1000e2d8 f fc.obj
 0001:0000d2e0       __fh?CalcAsstMetrics@@YAXH@Z 1000e2e0 f fc.obj
 0001:0000d2e2       ?CalcAsstMetrics@@YAXH@Z   1000e2e2 f fc.obj
 0001:0000d3b4       __pcd_tbl_ForceAsstOnScreen 1000e3b4 f fc.obj
 0001:0000d3d0       __nep_ForceAsstOnScreen    1000e3d0 f fc.obj
 0001:0000d3d8       __fh_ForceAsstOnScreen     1000e3d8 f fc.obj
 0001:0000d3da       _ForceAsstOnScreen         1000e3da f fc.obj
 0001:0000d470       __pcd_tbl_MsoFCreateGenericContainer 1000e470 f tb.obj
 0001:0000d484       __nep_MsoFCreateGenericContainer 1000e484 f tb.obj
 0001:0000d48c       __fh_MsoFCreateGenericContainer 1000e48c f tb.obj
 0001:0000d48e       _MsoFCreateGenericContainer 1000e48e f tb.obj
 0001:0000d4dc       __pcd_tbl?FInitControlContainer@TB@@QAAHPAXPAUHWND__@@KPAPAUIMsoControlSite@@PAPAU2@@Z 1000e4dc f tb.obj
 0001:0000d4f0       __nep?FInitControlContainer@TB@@QAAHPAXPAUHWND__@@KPAPAUIMsoControlSite@@PAPAU2@@Z 1000e4f0 f tb.obj
 0001:0000d4f8       __fh?FInitControlContainer@TB@@QAAHPAXPAUHWND__@@KPAPAUIMsoControlSite@@PAPAU2@@Z 1000e4f8 f tb.obj
 0001:0000d4fb       ?FInitControlContainer@TB@@QAAHPAXPAUHWND__@@KPAPAUIMsoControlSite@@PAPAU2@@Z 1000e4fb f tb.obj
 0001:0000d560       __pcd_tbl?FSetVisible@TB@@UAAHH@Z 1000e560 f tb.obj
 0001:0000d574       __nep?FSetVisible@TB@@UAAHH@Z 1000e574 f tb.obj
 0001:0000d57c       __fh?FSetVisible@TB@@UAAHH@Z 1000e57c f tb.obj
 0001:0000d57e       ?FSetVisible@TB@@UAAHH@Z   1000e57e f tb.obj
 0001:0000d684       _MsoWchToLowerLid          1000e684 f kjstr.obj
 0001:0000d818       _MsoCbSizePpv              1000e818 f kjppv.obj
 0001:0000d884       _MsoCbSizePv               1000e884 f kjalloc.obj
 0001:0000d8d4       _MsoFPpvRealloc            1000e8d4 f kjppv.obj
 0001:0000d960       _MsoPvRealloc              1000e960 f kjalloc.obj
 0001:0000da28       __pcd_tbl_MsoLocalTemplatesPath 1000ea28 f wgnewdlg.obj
 0001:0000da3c       __nep_MsoLocalTemplatesPath 1000ea3c f wgnewdlg.obj
 0001:0000da44       __fh_MsoLocalTemplatesPath 1000ea44 f wgnewdlg.obj
 0001:0000da47       _MsoLocalTemplatesPath     1000ea47 f wgnewdlg.obj
 0001:0000daa0       __pcd_tbl_MsoWzGetKey      1000eaa0 f wgfile.obj
 0001:0000daa8       __nep_MsoWzGetKey          1000eaa8 f wgfile.obj
 0001:0000dab0       __fh_MsoWzGetKey           1000eab0 f wgfile.obj
 0001:0000dab2       _MsoWzGetKey               1000eab2 f wgfile.obj
 0001:0000dad0       _MsoSzIndexRight           1000ead0 f kjstr.obj
 0001:0000dbac       __pcd_tbl_MsoFGetFontSettings 1000ebac f tbutil.obj
 0001:0000dbb0       __nep_MsoFGetFontSettings  1000ebb0 f tbutil.obj
 0001:0000dbb8       __fh_MsoFGetFontSettings   1000ebb8 f tbutil.obj
 0001:0000dbba       _MsoFGetFontSettings       1000ebba f tbutil.obj
 0001:0000dbfc       _MsoGetStringTypeExW       1000ebfc f kjstr.obj
 0001:0000dd6c       __nep_MsoUpdateStartup     1000ed6c f splash.obj
 0001:0000dd6c       __pcd_tbl_MsoUpdateStartup 1000ed6c f splash.obj
 0001:0000dd74       __fh_MsoUpdateStartup      1000ed74 f splash.obj
 0001:0000dd76       _MsoUpdateStartup          1000ed76 f splash.obj
 0001:0000dd7c       __pcd_tbl_MsoHwndDlgCur    1000ed7c f office.obj
 0001:0000dd7c       __nep_MsoHwndDlgCur        1000ed7c f office.obj
 0001:0000dd84       __fh_MsoHwndDlgCur         1000ed84 f office.obj
 0001:0000dd86       _MsoHwndDlgCur             1000ed86 f office.obj
 0001:0000dd90       __pcd_tbl_MsoGetToolbarMetrics 1000ed90 f tbutil.obj
 0001:0000dd94       __nep_MsoGetToolbarMetrics 1000ed94 f tbutil.obj
 0001:0000dd9c       __fh_MsoGetToolbarMetrics  1000ed9c f tbutil.obj
 0001:0000dd9e       _MsoGetToolbarMetrics      1000ed9e f tbutil.obj
 0001:0000ddb0       __pcd_tbl_MsoSharedTemplatesPath 1000edb0 f wgnewdlg.obj
 0001:0000ddcc       __nep_MsoSharedTemplatesPath 1000edcc f wgnewdlg.obj
 0001:0000ddd4       __fh_MsoSharedTemplatesPath 1000edd4 f wgnewdlg.obj
 0001:0000ddd7       _MsoSharedTemplatesPath    1000edd7 f wgnewdlg.obj
 0001:0000de30       __nep_MsoFCbSumInfoString  1000ee30 f wgsinfo.obj
 0001:0000de30       __pcd_tbl_MsoFCbSumInfoString 1000ee30 f wgsinfo.obj
 0001:0000de38       __fh_MsoFCbSumInfoString   1000ee38 f wgsinfo.obj
 0001:0000de3a       _MsoFCbSumInfoString       1000ee3a f wgsinfo.obj
 0001:0000de60       __pcd_tbl_MsoFSumInfoSetString 1000ee60 f wgsinfo.obj
 0001:0000de6c       __nep_MsoFSumInfoSetString 1000ee6c f wgsinfo.obj
 0001:0000de74       __fh_MsoFSumInfoSetString  1000ee74 f wgsinfo.obj
 0001:0000de76       _MsoFSumInfoSetString      1000ee76 f wgsinfo.obj
 0001:0000dec4       __pcd_tbl?LpwtzUpdateString@@YAPAGPAPAGPBGH@Z 1000eec4 f wgprpmsc.obj
 0001:0000ded4       __nep?LpwtzUpdateString@@YAPAGPAPAGPBGH@Z 1000eed4 f wgprpmsc.obj
 0001:0000dedc       __fh?LpwtzUpdateString@@YAPAGPAPAGPBGH@Z 1000eedc f wgprpmsc.obj
 0001:0000dede       ?LpwtzUpdateString@@YAPAGPAPAGPBGH@Z 1000eede f wgprpmsc.obj
 0001:0000df28       __nep?PitbuGetToolbarUser@TBSUBASE@@UAAPAUIMsoToolbarUser@@PAUIMsoToolbarSet@@PAPAXHPAG@Z 1000ef28 f globals.obj
 0001:0000df28       __pcd_tbl?PitbuGetToolbarUser@TBSUBASE@@UAAPAUIMsoToolbarUser@@PAUIMsoToolbarSet@@PAPAXHPAG@Z 1000ef28 f globals.obj
 0001:0000df30       __fh?PitbuGetToolbarUser@TBSUBASE@@UAAPAUIMsoToolbarUser@@PAUIMsoToolbarSet@@PAPAXHPAG@Z 1000ef30 f globals.obj
 0001:0000df32       ?PitbuGetToolbarUser@TBSUBASE@@UAAPAUIMsoToolbarUser@@PAUIMsoToolbarSet@@PAPAXHPAG@Z 1000ef32 f globals.obj
 0001:0000df34       __pcd_tbl_MsoFLookupAutoCorrectReplacement 1000ef34 f wgautcor.obj
 0001:0000df3c       __nep_MsoFLookupAutoCorrectReplacement 1000ef3c f wgautcor.obj
 0001:0000df44       __fh_MsoFLookupAutoCorrectReplacement 1000ef44 f wgautcor.obj
 0001:0000df46       _MsoFLookupAutoCorrectReplacement 1000ef46 f wgautcor.obj
 0001:0000df64       __pcd_tbl?EnsureAutoCorrectInited@@YAPAU_acorrect@@PAUMSOINST@@@Z 1000ef64 f wgautcor.obj
 0001:0000df74       __nep?EnsureAutoCorrectInited@@YAPAU_acorrect@@PAUMSOINST@@@Z 1000ef74 f wgautcor.obj
 0001:0000df7c       __fh?EnsureAutoCorrectInited@@YAPAU_acorrect@@PAUMSOINST@@@Z 1000ef7c f wgautcor.obj
 0001:0000df7e       ?EnsureAutoCorrectInited@@YAPAU_acorrect@@PAUMSOINST@@@Z 1000ef7e f wgautcor.obj
 0001:0000e010       __pcd_tbl_MsoLoadAutoCorrectSettings 1000f010 f wgautcor.obj
 0001:0000e028       __nep_MsoLoadAutoCorrectSettings 1000f028 f wgautcor.obj
 0001:0000e030       __fh_MsoLoadAutoCorrectSettings 1000f030 f wgautcor.obj
 0001:0000e032       _MsoLoadAutoCorrectSettings 1000f032 f wgautcor.obj
 0001:0000e0a4       __pcd_tbl?HKeyOpenAutoCorrect@@YAKXZ 1000f0a4 f wgautcor.obj
 0001:0000e0b0       __nep?HKeyOpenAutoCorrect@@YAKXZ 1000f0b0 f wgautcor.obj
 0001:0000e0b8       __fh?HKeyOpenAutoCorrect@@YAKXZ 1000f0b8 f wgautcor.obj
 0001:0000e0bb       ?HKeyOpenAutoCorrect@@YAKXZ 1000f0bb f wgautcor.obj
 0001:0000e0d4       __pcd_tbl?InternalFLoadAutoCorrect@@YAHPAUMSOINST@@PBDP6AH0PAGJ2JFPAJ@ZP6AH0H2HF@ZPAPAG6PAKHPAH@Z 1000f0d4 f wgautcor.obj
 0001:0000e118       __nep?InternalFLoadAutoCorrect@@YAHPAUMSOINST@@PBDP6AH0PAGJ2JFPAJ@ZP6AH0H2HF@ZPAPAG6PAKHPAH@Z 1000f118 f wgautcor.obj
 0001:0000e120       __fh?InternalFLoadAutoCorrect@@YAHPAUMSOINST@@PBDP6AH0PAGJ2JFPAJ@ZP6AH0H2HF@ZPAPAG6PAKHPAH@Z 1000f120 f wgautcor.obj
 0001:0000e123       ?InternalFLoadAutoCorrect@@YAHPAUMSOINST@@PBDP6AH0PAGJ2JFPAJ@ZP6AH0H2HF@ZPAPAG6PAKHPAH@Z 1000f123 f wgautcor.obj
 0001:0000e530       __pcd_tbl?FAllocAutoCorrectPls@@YAHPAUMSOINST@@@Z 1000f530 f wgautcor.obj
 0001:0000e538       __nep?FAllocAutoCorrectPls@@YAHPAUMSOINST@@@Z 1000f538 f wgautcor.obj
 0001:0000e540       __fh?FAllocAutoCorrectPls@@YAHPAUMSOINST@@@Z 1000f540 f wgautcor.obj
 0001:0000e542       ?FAllocAutoCorrectPls@@YAHPAUMSOINST@@@Z 1000f542 f wgautcor.obj
 0001:0000e564       __pcd_tbl?_PacreplNew@@YAPAU_acrepl@@PAU_acorrect@@HH@Z 1000f564 f wgautcor.obj
 0001:0000e568       __nep?_PacreplNew@@YAPAU_acrepl@@PAU_acorrect@@HH@Z 1000f568 f wgautcor.obj
 0001:0000e570       __fh?_PacreplNew@@YAPAU_acrepl@@PAU_acorrect@@HH@Z 1000f570 f wgautcor.obj
 0001:0000e572       ?_PacreplNew@@YAPAU_acrepl@@PAU_acorrect@@HH@Z 1000f572 f wgautcor.obj
 0001:0000e5e0       __pcd_tbl_MsoCbChopHp      1000f5e0 f kjalloc.obj
 0001:0000e5ec       __nep_MsoCbChopHp          1000f5ec f kjalloc.obj
 0001:0000e5f4       __fh_MsoCbChopHp           1000f5f4 f kjalloc.obj
 0001:0000e5f6       _MsoCbChopHp               1000f5f6 f kjalloc.obj
 0001:0000e644       ?FMmpFindInside@@YAHPBX0@Z 1000f644 f kjalloc.obj
 0001:0000e6e0       _MsoLookupWtzFromPstt      1000f6e0 f kjstr.obj
 0001:0000e74c       _MsoLookupPsttRgwch        1000f74c f kjstr.obj
 0001:0000edd8       _MsoSgnRgwchCompareLoc     1000fdd8 f kjstr.obj
 0001:0000ee88       _MsoIdslMacFromStt         1000fe88 f kjstr.obj
 0001:0000ef78       _MsoLookupSt               1000ff78 f kjstr.obj
 0001:0000f014       ?LookupSttRgwch@@YAHPAUHINSTANCE__@@GHPBG@Z 10010014 f kjstr.obj
 0001:0000f11c       _MsoLookupWzFromPstt       1001011c f kjstr.obj
 0001:0000f1a0       __pcd_tbl?SetTcid@TBCB@@UAAXH@Z 100101a0 f tbbtn.obj
 0001:0000f1a4       __nep?SetTcid@TBCB@@UAAXH@Z 100101a4 f tbbtn.obj
 0001:0000f1ac       __fh?SetTcid@TBCB@@UAAXH@Z 100101ac f tbbtn.obj
 0001:0000f1ae       ?SetTcid@TBCB@@UAAXH@Z     100101ae f tbbtn.obj
 0001:0000f1c4       __nep?FInit@TBCTH@@UAAHPAXPAUIMsoControlUser@@PAUIMsoControlSite@@@Z 100101c4 f tbtear.obj
 0001:0000f1c4       __pcd_tbl?FInit@TBCTH@@UAAHPAXPAUIMsoControlUser@@PAUIMsoControlSite@@@Z 100101c4 f tbtear.obj
 0001:0000f1cc       __fh?FInit@TBCTH@@UAAHPAXPAUIMsoControlUser@@PAUIMsoControlSite@@@Z 100101cc f tbtear.obj
 0001:0000f1ce       ?FInit@TBCTH@@UAAHPAXPAUIMsoControlUser@@PAUIMsoControlSite@@@Z 100101ce f tbtear.obj
 0001:0000f1d8       __pcd_tbl_MsoAutoCorrectListCount 100101d8 f wgautcor.obj
 0001:0000f1dc       __nep_MsoAutoCorrectListCount 100101dc f wgautcor.obj
 0001:0000f1e4       __fh_MsoAutoCorrectListCount 100101e4 f wgautcor.obj
 0001:0000f1e6       _MsoAutoCorrectListCount   100101e6 f wgautcor.obj
 0001:0000f1fc       __pcd_tbl_MsoFGetAutoCorrectBuffers 100101fc f wgautcor.obj
 0001:0000f200       __nep_MsoFGetAutoCorrectBuffers 10010200 f wgautcor.obj
 0001:0000f208       __fh_MsoFGetAutoCorrectBuffers 10010208 f wgautcor.obj
 0001:0000f20a       _MsoFGetAutoCorrectBuffers 1001020a f wgautcor.obj
 0001:0000f224       _MsoStToSz                 10010224 f kjstr.obj
 0001:0000f2bc       __pcd_tbl?KillAllTracking@TBComponentTrack@@QAAXXZ 100102bc f tbcomp.obj
 0001:0000f2bc       __nep?KillAllTracking@TBComponentTrack@@QAAXXZ 100102bc f tbcomp.obj
 0001:0000f2c4       __fh?KillAllTracking@TBComponentTrack@@QAAXXZ 100102c4 f tbcomp.obj
 0001:0000f2c6       ?KillAllTracking@TBComponentTrack@@QAAXXZ 100102c6 f tbcomp.obj
 0001:0000f2dc       __pcd_tbl_HdlgGetFocus     100102dc f sdmit1.obj
 0001:0000f2dc       __nep_HdlgGetFocus         100102dc f sdmit1.obj
 0001:0000f2e4       __fh_HdlgGetFocus          100102e4 f sdmit1.obj
 0001:0000f2e6       _HdlgGetFocus              100102e6 f sdmit1.obj
 0001:0000f2f4       __pcd_tbl_MsoInitDgvfdsc   100102f4 f util.obj
 0001:0000f2f4       __nep_MsoInitDgvfdsc       100102f4 f util.obj
 0001:0000f2fc       __fh_MsoInitDgvfdsc        100102fc f util.obj
 0001:0000f2fe       _MsoInitDgvfdsc            100102fe f util.obj
 0001:0000f308       _MsoCreateIOLDocTempFromWzDisplayName 10010308 f dmuOLDoc.obj
 0001:0000f3ec       ?ClearPath@CMsoOLDocPath@@QAAXXZ 100103ec f dmuOLDoc.obj
 0001:0000f428       ?MakePIMsoOLDocument2@CMsoOLDocNew@@UAAJXZ 10010428 f dmuOLDoc.obj
 0001:0000f4e0       __pcd_tbl?FAddAWDatabase@TFC@@UAAHPAGH@Z 100104e0 f fc.obj
 0001:0000f4e4       __nep?FAddAWDatabase@TFC@@UAAHPAGH@Z 100104e4 f fc.obj
 0001:0000f4ec       __fh?FAddAWDatabase@TFC@@UAAHPAGH@Z 100104ec f fc.obj
 0001:0000f4ee       ?FAddAWDatabase@TFC@@UAAHPAGH@Z 100104ee f fc.obj
 0001:0000f4f8       __pcd_tbl_FAddAWDb         100104f8 f isearch.obj
 0001:0000f514       __nep_FAddAWDb             10010514 f isearch.obj
 0001:0000f51c       __fh_FAddAWDb              1001051c f isearch.obj
 0001:0000f51e       _FAddAWDb                  1001051e f isearch.obj
 0001:0000f568       _MsoFUseCountAllocPx       10010568 f kjplex.obj
 0001:0000f5f4       _MsoIAppendUniquePx        100105f4 f kjplex.obj
 0001:0000f6a0       _MsoParseIntWz             100106a0 f kjstr.obj
 0001:0000f6f4       _MsoFSpaceWch              100106f4 f kjstr.obj
 0001:0000f77c       _MsoFDigitWch              1001077c f kjstr.obj
 0001:0000f85c       __pcd_tbl_MsoBeginBoot     1001085c f office.obj
 0001:0000f85c       __nep_MsoBeginBoot         1001085c f office.obj
 0001:0000f864       __fh_MsoBeginBoot          10010864 f office.obj
 0001:0000f866       _MsoBeginBoot              10010866 f office.obj
 0001:0000f870       __pcd_tbl_MsoInitShrGlobal 10010870 f office.obj
 0001:0000f888       __nep_MsoInitShrGlobal     10010888 f office.obj
 0001:0000f890       __fh_MsoInitShrGlobal      10010890 f office.obj
 0001:0000f892       _MsoInitShrGlobal          10010892 f office.obj
 0001:0000f8b4       __pcd_tbl_MsoSetLocale     100108b4 f office.obj
 0001:0000f8b8       __nep_MsoSetLocale         100108b8 f office.obj
 0001:0000f8c0       __fh_MsoSetLocale          100108c0 f office.obj
 0001:0000f8c2       _MsoSetLocale              100108c2 f office.obj
 0001:0000f8dc       __pcd_tbl_MsoFCreateIPref  100108dc f util.obj
 0001:0000f8f4       __nep_MsoFCreateIPref      100108f4 f util.obj
 0001:0000f8fc       __fh_MsoFCreateIPref       100108fc f util.obj
 0001:0000f8ff       _MsoFCreateIPref           100108ff f util.obj
 0001:0000f97c       __pcd_tbl?UpdateSysColors@@YAXHI@Z 1001097c f office.obj
 0001:0000f9a0       __nep?UpdateSysColors@@YAXHI@Z 100109a0 f office.obj
 0001:0000f9a8       __fh?UpdateSysColors@@YAXHI@Z 100109a8 f office.obj
 0001:0000f9ab       ?UpdateSysColors@@YAXHI@Z  100109ab f office.obj
 0001:0000fc90       _MsoFLockShrGlobals        10010c90 f shmem.obj
 0001:0000fd38       _MsoUnlockShrGlobals       10010d38 f shmem.obj
 0001:0000fda8       __pcd_tbl?CalcSysm@@YAXXZ  10010da8 f tbs.obj
 0001:0000fdd8       __nep?CalcSysm@@YAXXZ      10010dd8 f tbs.obj
 0001:0000fde0       __fh?CalcSysm@@YAXXZ       10010de0 f tbs.obj
 0001:0000fde3       ?CalcSysm@@YAXXZ           10010de3 f tbs.obj
 0001:0000ff30       __pcd_tbl?_FInit@SET@@AAAHH@Z 10010f30 f util.obj
 0001:0000ff50       __nep?_FInit@SET@@AAAHH@Z  10010f50 f util.obj
 0001:0000ff58       __fh?_FInit@SET@@AAAHH@Z   10010f58 f util.obj
 0001:0000ff5a       ?_FInit@SET@@AAAHH@Z       10010f5a f util.obj
 0001:0000ffe8       __pcd_tbl_MsoFShowStartup  10010fe8 f splash.obj
 0001:0000fff8       __nep_MsoFShowStartup      10010ff8 f splash.obj
 0001:00010000       __fh_MsoFShowStartup       10011000 f splash.obj
 0001:00010002       _MsoFShowStartup           10011002 f splash.obj
 0001:00010070       __pcd_tbl?SplashClass@@YAXPAUtagWNDCLASSA@@@Z 10011070 f splash.obj
 0001:00010074       __nep?SplashClass@@YAXPAUtagWNDCLASSA@@@Z 10011074 f splash.obj
 0001:0001007c       __fh?SplashClass@@YAXPAUtagWNDCLASSA@@@Z 1001107c f splash.obj
 0001:0001007e       ?SplashClass@@YAXPAUtagWNDCLASSA@@@Z 1001107e f splash.obj
 0001:00010098       _MsoWzAppend               10011098 f kjstr.obj
 0001:00010124       __pcd_tbl_MsoFInitOffice   10011124 f office.obj
 0001:00010194       __nep_MsoFInitOffice       10011194 f office.obj
 0001:0001019c       __fh_MsoFInitOffice        1001119c f office.obj
 0001:0001019f       _MsoFInitOffice            1001119f f office.obj
 0001:000103c4       _FEnsureMso5Intl           100113c4 f office.obj
 0001:00010448       __pcd_tbl?LoadMsoIntlDll@@YAXXZ 10011448 f office.obj
 0001:00010458       __nep?LoadMsoIntlDll@@YAXXZ 10011458 f office.obj
 0001:00010460       __fh?LoadMsoIntlDll@@YAXXZ 10011460 f office.obj
 0001:00010463       ?LoadMsoIntlDll@@YAXXZ     10011463 f office.obj
 0001:0001049c       __pcd_tbl?SmcInitPrivateShrGlobals@@YAHXZ 1001149c f shmem.obj
 0001:000104bc       __nep?SmcInitPrivateShrGlobals@@YAHXZ 100114bc f shmem.obj
 0001:000104c4       __fh?SmcInitPrivateShrGlobals@@YAHXZ 100114c4 f shmem.obj
 0001:000104c6       ?SmcInitPrivateShrGlobals@@YAHXZ 100114c6 f shmem.obj
 0001:000105f4       __pcd_tbl?PnstbAlloc@@YAPAUNSTB@@XZ 100115f4 f shmem.obj
 0001:00010604       __nep?PnstbAlloc@@YAPAUNSTB@@XZ 10011604 f shmem.obj
 0001:0001060c       __fh?PnstbAlloc@@YAPAUNSTB@@XZ 1001160c f shmem.obj
 0001:0001060e       ?PnstbAlloc@@YAPAUNSTB@@XZ 1001160e f shmem.obj
 0001:00010648       __pcd_tbl?InitSounds@@YAXXZ 10011648 f sound.obj
 0001:00010648       __nep?InitSounds@@YAXXZ    10011648 f sound.obj
 0001:00010650       __fh?InitSounds@@YAXXZ     10011650 f sound.obj
 0001:00010652       ?InitSounds@@YAXXZ         10011652 f sound.obj
 0001:0001066c       __pcd_tbl_MsoFSetHMsoinstOfSdm 1001166c f sdmit1.obj
 0001:0001066c       __nep_MsoFSetHMsoinstOfSdm 1001166c f sdmit1.obj
 0001:00010674       __fh_MsoFSetHMsoinstOfSdm  10011674 f sdmit1.obj
 0001:00010676       _MsoFSetHMsoinstOfSdm      10011676 f sdmit1.obj
 0001:00010688       __pcd_tbl_MsoFCreateITFC   10011688 f fc.obj
 0001:00010698       __nep_MsoFCreateITFC       10011698 f fc.obj
 0001:000106a0       __fh_MsoFCreateITFC        100116a0 f fc.obj
 0001:000106a2       _MsoFCreateITFC            100116a2 f fc.obj
 0001:000106d0       __nep_MsoFSubstituteTahomaLogfont 100116d0 f tbutil.obj
 0001:000106d0       __pcd_tbl_MsoFSubstituteTahomaLogfont 100116d0 f tbutil.obj
 0001:000106d8       __fh_MsoFSubstituteTahomaLogfont 100116d8 f tbutil.obj
 0001:000106da       _MsoFSubstituteTahomaLogfont 100116da f tbutil.obj
 0001:000106ec       __pcd_tbl_MsoFCreateStdComponentManager 100116ec f cistdmgr.obj
 0001:000106fc       __nep_MsoFCreateStdComponentManager 100116fc f cistdmgr.obj
 0001:00010704       __fh_MsoFCreateStdComponentManager 10011704 f cistdmgr.obj
 0001:00010706       _MsoFCreateStdComponentManager 10011706 f cistdmgr.obj
 0001:000107b4       __nep?FInitClass@SCM@@SAHXZ 100117b4 f cistdmgr.obj
 0001:000107b4       __pcd_tbl?FInitClass@SCM@@SAHXZ 100117b4 f cistdmgr.obj
 0001:000107bc       __fh?FInitClass@SCM@@SAHXZ 100117bc f cistdmgr.obj
 0001:000107be       ?FInitClass@SCM@@SAHXZ     100117be f cistdmgr.obj
 0001:000107f0       __pcd_tbl?QueryInterface@SCM_Unk@@UAAJABUGUID@@PAPAX@Z 100117f0 f cistdmgr.obj
 0001:000107f0       __nep?QueryInterface@SCM_Unk@@UAAJABUGUID@@PAPAX@Z 100117f0 f cistdmgr.obj
 0001:000107f8       __fh?QueryInterface@SCM_Unk@@UAAJABUGUID@@PAPAX@Z 100117f8 f cistdmgr.obj
 0001:000107fa       ?QueryInterface@SCM_Unk@@UAAJABUGUID@@PAPAX@Z 100117fa f cistdmgr.obj
 0001:00010884       __pcd_tbl?AddRef@SCM_MsoStdCompMgr@@UAAKXZ 10011884 f cistdmgr.obj
 0001:00010884       __nep?AddRef@SCM_MsoStdCompMgr@@UAAKXZ 10011884 f cistdmgr.obj
 0001:0001088c       __fh?AddRef@SCM_MsoStdCompMgr@@UAAKXZ 1001188c f cistdmgr.obj
 0001:0001088e       ?AddRef@SCM_MsoStdCompMgr@@UAAKXZ 1001188e f cistdmgr.obj
 0001:0001089c       __pcd_tbl_MsoFCreateToolbarSet 1001189c f tbs.obj
 0001:000108b0       __nep_MsoFCreateToolbarSet 100118b0 f tbs.obj
 0001:000108b8       __fh_MsoFCreateToolbarSet  100118b8 f tbs.obj
 0001:000108ba       _MsoFCreateToolbarSet      100118ba f tbs.obj
 0001:000108f0       __pcd_tbl?EnsureTBBtnSizeInited2@@YAXXZ 100118f0 f tbctrl.obj
 0001:000108fc       __nep?EnsureTBBtnSizeInited2@@YAXXZ 100118fc f tbctrl.obj
 0001:00010904       __fh?EnsureTBBtnSizeInited2@@YAXXZ 10011904 f tbctrl.obj
 0001:00010906       ?EnsureTBBtnSizeInited2@@YAXXZ 10011906 f tbctrl.obj
 0001:00010948       __pcd_tbl?SetDeferActivation@TBS@@UAAXH@Z 10011948 f tbs.obj
 0001:00010948       __nep?SetDeferActivation@TBS@@UAAXH@Z 10011948 f tbs.obj
 0001:00010950       __fh?SetDeferActivation@TBS@@UAAXH@Z 10011950 f tbs.obj
 0001:00010952       ?SetDeferActivation@TBS@@UAAXH@Z 10011952 f tbs.obj
 0001:0001095c       __nep?FCreateTBComponent@@YAHPAPAVTBComponent@@PAV1@@Z 1001195c f tbcomp.obj
 0001:0001095c       __pcd_tbl?FCreateTBComponent@@YAHPAPAVTBComponent@@PAV1@@Z 1001195c f tbcomp.obj
 0001:00010964       __fh?FCreateTBComponent@@YAHPAPAVTBComponent@@PAV1@@Z 10011964 f tbcomp.obj
 0001:00010966       ?FCreateTBComponent@@YAHPAPAVTBComponent@@PAV1@@Z 10011966 f tbcomp.obj
 0001:00010978       __pcd_tbl?FInit@TBComponent@@UAAHXZ 10011978 f tbcomp.obj
 0001:00010980       __nep?FInit@TBComponent@@UAAHXZ 10011980 f tbcomp.obj
 0001:00010988       __fh?FInit@TBComponent@@UAAHXZ 10011988 f tbcomp.obj
 0001:0001098a       ?FInit@TBComponent@@UAAHXZ 1001198a f tbcomp.obj
 0001:000109b8       __pcd_tbl?BuildCrInfo@TBComponent@@QAAXPAU_MSOCRINFO@@@Z 100119b8 f tbcomp.obj
 0001:000109b8       __nep?BuildCrInfo@TBComponent@@QAAXPAU_MSOCRINFO@@@Z 100119b8 f tbcomp.obj
 0001:000109c0       __fh?BuildCrInfo@TBComponent@@QAAXPAU_MSOCRINFO@@@Z 100119c0 f tbcomp.obj
 0001:000109c2       ?BuildCrInfo@TBComponent@@QAAXPAU_MSOCRINFO@@@Z 100119c2 f tbcomp.obj
 0001:000109e4       __pcd_tbl?Grfcrf@TBComponentTrack@@UAAKXZ 100119e4 f tbcomp.obj
 0001:000109e4       __nep?Grfcrf@TBComponentTrack@@UAAKXZ 100119e4 f tbcomp.obj
 0001:000109ec       __fh?Grfcrf@TBComponentTrack@@UAAKXZ 100119ec f tbcomp.obj
 0001:000109ee       ?Grfcrf@TBComponentTrack@@UAAKXZ 100119ee f tbcomp.obj
 0001:000109f0       __nep?Grfcadvf@TBComponentTrack@@UAAKXZ 100119f0 f tbcomp.obj
 0001:000109f0       __pcd_tbl?Grfcadvf@TBComponentTrack@@UAAKXZ 100119f0 f tbcomp.obj
 0001:000109f8       __fh?Grfcadvf@TBComponentTrack@@UAAKXZ 100119f8 f tbcomp.obj
 0001:000109fa       ?Grfcadvf@TBComponentTrack@@UAAKXZ 100119fa f tbcomp.obj
 0001:000109fc       __pcd_tbl?FCreateWindow@SCM@@AAAHXZ 100119fc f cistdmgr.obj
 0001:00010a08       __nep?FCreateWindow@SCM@@AAAHXZ 10011a08 f cistdmgr.obj
 0001:00010a10       __fh?FCreateWindow@SCM@@AAAHXZ 10011a10 f cistdmgr.obj
 0001:00010a12       ?FCreateWindow@SCM@@AAAHXZ 10011a12 f cistdmgr.obj
 0001:00010a4c       __nep?CompMgrClass@@YAXPAUtagWNDCLASSA@@@Z 10011a4c f cistdmgr.obj
 0001:00010a4c       __pcd_tbl?CompMgrClass@@YAXPAUtagWNDCLASSA@@@Z 10011a4c f cistdmgr.obj
 0001:00010a54       __fh?CompMgrClass@@YAXPAUtagWNDCLASSA@@@Z 10011a54 f cistdmgr.obj
 0001:00010a56       ?CompMgrClass@@YAXPAUtagWNDCLASSA@@@Z 10011a56 f cistdmgr.obj
 0001:00010a64       __nep?AddRef@COMPBASE@@UAAKXZ 10011a64 f tbbtn.obj
 0001:00010a64       __pcd_tbl?AddRef@COMPBASE@@UAAKXZ 10011a64 f tbbtn.obj
 0001:00010a6c       __fh?AddRef@COMPBASE@@UAAKXZ 10011a6c f tbbtn.obj
 0001:00010a6e       ?AddRef@COMPBASE@@UAAKXZ   10011a6e f tbbtn.obj
 0001:00010aa0       __pcd_tbl?UpdateTbm@@YAXXZ 10011aa0 f tbutil.obj
 0001:00010aa4       __nep?UpdateTbm@@YAXXZ     10011aa4 f tbutil.obj
 0001:00010aac       __fh?UpdateTbm@@YAXXZ      10011aac f tbutil.obj
 0001:00010aae       ?UpdateTbm@@YAXXZ          10011aae f tbutil.obj
 0001:00010b1c       __pcd_tbl?CmdBarDockClass@@YAXPAUtagWNDCLASSA@@@Z 10011b1c f office.obj
 0001:00010b1c       __nep?CmdBarDockClass@@YAXPAUtagWNDCLASSA@@@Z 10011b1c f office.obj
 0001:00010b24       __fh?CmdBarDockClass@@YAXPAUtagWNDCLASSA@@@Z 10011b24 f office.obj
 0001:00010b26       ?CmdBarDockClass@@YAXPAUtagWNDCLASSA@@@Z 10011b26 f office.obj
 0001:00010b40       __pcd_tbl?Grfcrf@TBComponentAppModal@@UAAKXZ 10011b40 f tbcomp.obj
 0001:00010b40       __nep?Grfcrf@TBComponentAppModal@@UAAKXZ 10011b40 f tbcomp.obj
 0001:00010b48       __fh?Grfcrf@TBComponentAppModal@@UAAKXZ 10011b48 f tbcomp.obj
 0001:00010b4a       ?Grfcrf@TBComponentAppModal@@UAAKXZ 10011b4a f tbcomp.obj
 0001:00010b4c       __nep?Grfcadvf@TBComponentAppModal@@UAAKXZ 10011b4c f tbcomp.obj
 0001:00010b4c       __pcd_tbl?Grfcadvf@TBComponentAppModal@@UAAKXZ 10011b4c f tbcomp.obj
 0001:00010b54       __fh?Grfcadvf@TBComponentAppModal@@UAAKXZ 10011b54 f tbcomp.obj
 0001:00010b56       ?Grfcadvf@TBComponentAppModal@@UAAKXZ 10011b56 f tbcomp.obj
 0001:00010b5c       __pcd_tbl?AddHtc@@YAXPAVTBS@@@Z 10011b5c f tbclass.obj
 0001:00010b60       __nep?AddHtc@@YAXPAVTBS@@@Z 10011b60 f tbclass.obj
 0001:00010b68       __fh?AddHtc@@YAXPAVTBS@@@Z 10011b68 f tbclass.obj
 0001:00010b6a       ?AddHtc@@YAXPAVTBS@@@Z     10011b6a f tbclass.obj
 0001:00010ba8       __pcd_tbl?PtbcuSpecial@@YAPAVTBCUSPECIALBASE@@XZ 10011ba8 f tb.obj
 0001:00010ba8       __nep?PtbcuSpecial@@YAPAVTBCUSPECIALBASE@@XZ 10011ba8 f tb.obj
 0001:00010bb0       __fh?PtbcuSpecial@@YAPAVTBCUSPECIALBASE@@XZ 10011bb0 f tb.obj
 0001:00010bb2       ?PtbcuSpecial@@YAPAVTBCUSPECIALBASE@@XZ 10011bb2 f tb.obj
 0001:00010bc8       __pcd_tbl?FSetSpecialControls@TB@@AAAHHPAPAUIMsoControl@@@Z 10011bc8 f tb.obj
 0001:00010bcc       __nep?FSetSpecialControls@TB@@AAAHHPAPAUIMsoControl@@@Z 10011bcc f tb.obj
 0001:00010bd4       __fh?FSetSpecialControls@TB@@AAAHHPAPAUIMsoControl@@@Z 10011bd4 f tb.obj
 0001:00010bd6       ?FSetSpecialControls@TB@@AAAHHPAPAUIMsoControl@@@Z 10011bd6 f tb.obj
 0001:00010c20       __pcd_tbl?CmdBarClass@@YAXPAUtagWNDCLASSA@@@Z 10011c20 f office.obj
 0001:00010c20       __nep?CmdBarClass@@YAXPAUtagWNDCLASSA@@@Z 10011c20 f office.obj
 0001:00010c28       __fh?CmdBarClass@@YAXPAUtagWNDCLASSA@@@Z 10011c28 f office.obj
 0001:00010c2a       ?CmdBarClass@@YAXPAUtagWNDCLASSA@@@Z 10011c2a f office.obj
 0001:00010c40       _MsoWzMarkSz               10011c40 f kjstr.obj
 0001:00010d10       __pcd_tbl_MsoDecryptCDInfo 10011d10 f cmcdinfo.obj
 0001:00010d24       __nep_MsoDecryptCDInfo     10011d24 f cmcdinfo.obj
 0001:00010d2c       __fh_MsoDecryptCDInfo      10011d2c f cmcdinfo.obj
 0001:00010d2e       _MsoDecryptCDInfo          10011d2e f cmcdinfo.obj
 0001:00010d50       __pcd_tbl_MsoFInitPlayback 10011d50 f playhook.obj
 0001:00010d58       __nep_MsoFInitPlayback     10011d58 f playhook.obj
 0001:00010d60       __fh_MsoFInitPlayback      10011d60 f playhook.obj
 0001:00010d62       _MsoFInitPlayback          10011d62 f playhook.obj
 0001:00010d70       __pcd_tbl?PushAfter@@YAXHPAPAVTB@@HPAHHH@Z 10011d70 f tbs.obj
 0001:00010d74       __nep?PushAfter@@YAXHPAPAVTB@@HPAHHH@Z 10011d74 f tbs.obj
 0001:00010d7c       __fh?PushAfter@@YAXHPAPAVTB@@HPAHHH@Z 10011d7c f tbs.obj
 0001:00010d7e       ?PushAfter@@YAXHPAPAVTB@@HPAHHH@Z 10011d7e f tbs.obj
 0001:00010e64       __pcd_tbl?PushBefore@@YAXHPAPAVTB@@HPAHHH@Z 10011e64 f tbs.obj
 0001:00010e68       __nep?PushBefore@@YAXHPAPAVTB@@HPAHHH@Z 10011e68 f tbs.obj
 0001:00010e70       __fh?PushBefore@@YAXHPAPAVTB@@HPAHHH@Z 10011e70 f tbs.obj
 0001:00010e72       ?PushBefore@@YAXHPAPAVTB@@HPAHHH@Z 10011e72 f tbs.obj
 0001:00010f5c       _MsoFReallocMemCore        10011f5c f kjalloc.obj
 0001:000110ac       __pcd_tbl_MsoFOfficeCreateAndInitObjects 100120ac f wgpropio.obj
 0001:000110bc       __nep_MsoFOfficeCreateAndInitObjects 100120bc f wgpropio.obj
 0001:000110c4       __fh_MsoFOfficeCreateAndInitObjects 100120c4 f wgpropio.obj
 0001:000110c6       _MsoFOfficeCreateAndInitObjects 100120c6 f wgpropio.obj
 0001:000110f0       __pcd_tbl_MsoOfficeDirtySIObj 100120f0 f wgsinfo.obj
 0001:000110f0       __nep_MsoOfficeDirtySIObj  100120f0 f wgsinfo.obj
 0001:000110f8       __fh_MsoOfficeDirtySIObj   100120f8 f wgsinfo.obj
 0001:000110fa       _MsoOfficeDirtySIObj       100120fa f wgsinfo.obj
 0001:00011100       __pcd_tbl?FGetToolbar@TBS@@UAAHHPAPAUIMsoToolbar@@@Z 10012100 f tbs.obj
 0001:00011100       __nep?FGetToolbar@TBS@@UAAHHPAPAUIMsoToolbar@@@Z 10012100 f tbs.obj
 0001:00011108       __fh?FGetToolbar@TBS@@UAAHHPAPAUIMsoToolbar@@@Z 10012108 f tbs.obj
 0001:0001110a       ?FGetToolbar@TBS@@UAAHHPAPAUIMsoToolbar@@@Z 1001210a f tbs.obj
 0001:0001111c       __pcd_tbl?FcsGet@TFC@@UAAHXZ 1001211c f fc.obj
 0001:00011120       __nep?FcsGet@TFC@@UAAHXZ   10012120 f fc.obj
 0001:00011128       __fh?FcsGet@TFC@@UAAHXZ    10012128 f fc.obj
 0001:0001112a       ?FcsGet@TFC@@UAAHXZ        1001212a f fc.obj
 0001:0001112c       __nep?FcsGetTFC@@YAHXZ     1001212c f fc.obj
 0001:0001112c       __pcd_tbl?FcsGetTFC@@YAHXZ 1001212c f fc.obj
 0001:00011134       __fh?FcsGetTFC@@YAHXZ      10012134 f fc.obj
 0001:00011136       ?FcsGetTFC@@YAHXZ          10012136 f fc.obj
 0001:0001113c       __pcd_tbl?FGetProperties@TB@@UAAHPAU_msotbp@@H@Z 1001213c f tb.obj
 0001:00011140       __nep?FGetProperties@TB@@UAAHPAU_msotbp@@H@Z 10012140 f tb.obj
 0001:00011148       __fh?FGetProperties@TB@@UAAHPAU_msotbp@@H@Z 10012148 f tb.obj
 0001:0001114a       ?FGetProperties@TB@@UAAHPAU_msotbp@@H@Z 1001214a f tb.obj
 0001:00011190       __pcd_tbl?FSetProperties@TB@@UAAHPBU_msotbp@@H@Z 10012190 f tb.obj
 0001:000111b0       __nep?FSetProperties@TB@@UAAHPBU_msotbp@@H@Z 100121b0 f tb.obj
 0001:000111b8       __fh?FSetProperties@TB@@UAAHPBU_msotbp@@H@Z 100121b8 f tb.obj
 0001:000111bb       ?FSetProperties@TB@@UAAHPBU_msotbp@@H@Z 100121bb f tb.obj
 0001:000115f4       __nep?PibuGet@TFC@@UAAPAXXZ 100125f4 f fcbu.obj
 0001:000115f4       __pcd_tbl?PibuGet@TFC@@UAAPAXXZ 100125f4 f fcbu.obj
 0001:000115fc       __fh?PibuGet@TFC@@UAAPAXXZ 100125fc f fcbu.obj
 0001:000115fe       ?PibuGet@TFC@@UAAPAXXZ     100125fe f fcbu.obj
 0001:00011614       __pcd_tbl?SetInitializationComplete@TBS@@UAAXXZ 10012614 f tbs.obj
 0001:00011614       __nep?SetInitializationComplete@TBS@@UAAXXZ 10012614 f tbs.obj
 0001:0001161c       __fh?SetInitializationComplete@TBS@@UAAXXZ 1001261c f tbs.obj
 0001:0001161e       ?SetInitializationComplete@TBS@@UAAXXZ 1001261e f tbs.obj
 0001:00011658       _MsoWzToSz                 10012658 f kjstr.obj
 0001:000116d8       _MsoFAllocPx               100126d8 f kjplex.obj
 0001:000117b4       ?WzTruncCopy@@YAXPAGPBGI@Z 100127b4 f kjstr.obj
 0001:0001187c       _MsoSzToWz                 1001287c f kjstr.obj
 0001:000118fc       _MsoWzCchCopy              100128fc f kjstr.obj
 0001:0001196c       __pcd_tbl_MsoFReadInfo     1001296c f wgusrdef.obj
 0001:0001198c       __nep_MsoFReadInfo         1001298c f wgusrdef.obj
 0001:00011994       __fh_MsoFReadInfo          10012994 f wgusrdef.obj
 0001:00011997       _MsoFReadInfo              10012997 f wgusrdef.obj
 0001:00011ac4       __pcd_tbl?FWriteProfileString@SET@@UAAHPBG0PAGH@Z 10012ac4 f util.obj
 0001:00011ad0       __nep?FWriteProfileString@SET@@UAAHPBG0PAGH@Z 10012ad0 f util.obj
 0001:00011ad8       __fh?FWriteProfileString@SET@@UAAHPBG0PAGH@Z 10012ad8 f util.obj
 0001:00011adb       ?FWriteProfileString@SET@@UAAHPBG0PAGH@Z 10012adb f util.obj
 0001:00011b04       ?AddToGlobalList@CMsoOLDocBase@@AAAXXZ 10012b04 f dmuOLDoc.obj
 0001:00011b40       ?FInSaveOperation@CMsoOLDocBase@@SAHXZ 10012b40 f dmuOLDoc.obj
 0001:00011ba8       _MsoioloptGet              10012ba8 f dmuOLDoc.obj
 0001:00011be0       ?QueryInterface@CMsoOLDocBase@@UAAJABUGUID@@PAPAX@Z 10012be0 f dmuOLDoc.obj
 0001:00011d54       ?AddRef@CMsoOLDocBaseImpIOLDoc2@@UAAKXZ 10012d54 f dmuOLDoc.obj
 0001:00011db8       ?AddRef@CMsoOLDocBase@@UAAKXZ 10012db8 f dmuOLDoc.obj
 0001:00011df4       ?SetWoc@CMsoOLDocBase@@QAAXH@Z 10012df4 f dmuOLDoc.obj
 0001:00011e30       ?Open@CMsoOLDocBase@@UAAJH@Z 10012e30 f dmuOLDoc.obj
 0001:00011ed4       __pcd_tbl?LQueryProfileInt@SET@@UAAHPBG0HH@Z 10012ed4 f util.obj
 0001:00011ef0       __nep?LQueryProfileInt@SET@@UAAHPBG0HH@Z 10012ef0 f util.obj
 0001:00011ef8       __fh?LQueryProfileInt@SET@@UAAHPBG0HH@Z 10012ef8 f util.obj
 0001:00011efb       ?LQueryProfileInt@SET@@UAAHPBG0HH@Z 10012efb f util.obj
 0001:00011f34       __pcd_tbl?StartupWndProc@@YAJPAUHWND__@@IIJ@Z 10012f34 f splash.obj
 0001:00011f40       __nep?StartupWndProc@@YAJPAUHWND__@@IIJ@Z 10012f40 f splash.obj
 0001:00011f48       __fh?StartupWndProc@@YAJPAUHWND__@@IIJ@Z 10012f48 f splash.obj
 0001:00011f4b       ?StartupWndProc@@YAJPAUHWND__@@IIJ@Z 10012f4b f splash.obj
 0001:00011fe8       __pcd_tbl?CToolbars@TBS@@UAAHH@Z 10012fe8 f tbs.obj
 0001:00011fec       __nep?CToolbars@TBS@@UAAHH@Z 10012fec f tbs.obj
 0001:00011ff4       __fh?CToolbars@TBS@@UAAHH@Z 10012ff4 f tbs.obj
 0001:00011ff6       ?CToolbars@TBS@@UAAHH@Z    10012ff6 f tbs.obj
 0001:00012058       _MsoParseIntSz             10013058 f kjstr.obj
 0001:000120ac       _MsoFSpaceCh               100130ac f kjstr.obj
 0001:00012134       _MsoFDigitCh               10013134 f kjstr.obj
 0001:000121b4       __nep?AddRef@SCM_MsoCompMgr@@UAAKXZ 100131b4 f cistdmgr.obj
 0001:000121b4       __pcd_tbl?AddRef@SCM_MsoCompMgr@@UAAKXZ 100131b4 f cistdmgr.obj
 0001:000121bc       __fh?AddRef@SCM_MsoCompMgr@@UAAKXZ 100131bc f cistdmgr.obj
 0001:000121be       ?AddRef@SCM_MsoCompMgr@@UAAKXZ 100131be f cistdmgr.obj
 0001:000121cc       __pcd_tbl_MsoFGetComponentManager 100131cc f ci.obj
 0001:000121d0       __nep_MsoFGetComponentManager 100131d0 f ci.obj
 0001:000121d8       __fh_MsoFGetComponentManager 100131d8 f ci.obj
 0001:000121da       _MsoFGetComponentManager   100131da f ci.obj
 0001:000121e0       __pcd_tbl?FGetCompMgr@@YAHPAPAUIMsoComponentManager@@@Z 100131e0 f ci.obj
 0001:000121ec       __nep?FGetCompMgr@@YAHPAPAUIMsoComponentManager@@@Z 100131ec f ci.obj
 0001:000121f4       __fh?FGetCompMgr@@YAHPAPAUIMsoComponentManager@@@Z 100131f4 f ci.obj
 0001:000121f6       ?FGetCompMgr@@YAHPAPAUIMsoComponentManager@@@Z 100131f6 f ci.obj
 0001:00012234       __pcd_tbl?FRegisterComponent@SCM_MsoCompMgr@@UAAHPAUIMsoComponent@@PBU_MSOCRINFO@@PAK@Z 10013234 f cistdmgr.obj
 0001:00012238       __nep?FRegisterComponent@SCM_MsoCompMgr@@UAAHPAUIMsoComponent@@PBU_MSOCRINFO@@PAK@Z 10013238 f cistdmgr.obj
 0001:00012240       __fh?FRegisterComponent@SCM_MsoCompMgr@@UAAHPAUIMsoComponent@@PBU_MSOCRINFO@@PAK@Z 10013240 f cistdmgr.obj
 0001:00012242       ?FRegisterComponent@SCM_MsoCompMgr@@UAAHPAUIMsoComponent@@PBU_MSOCRINFO@@PAK@Z 10013242 f cistdmgr.obj
 0001:0001224c       __pcd_tbl?FRegisterDCMComp@SCM@@AAAHPAVDCM@@PAUIMsoComponent@@PBU_MSOCRINFO@@PAK@Z 1001324c f cistdmgr.obj
 0001:00012260       __nep?FRegisterDCMComp@SCM@@AAAHPAVDCM@@PAUIMsoComponent@@PBU_MSOCRINFO@@PAK@Z 10013260 f cistdmgr.obj
 0001:00012268       __fh?FRegisterDCMComp@SCM@@AAAHPAVDCM@@PAUIMsoComponent@@PBU_MSOCRINFO@@PAK@Z 10013268 f cistdmgr.obj
 0001:0001226a       ?FRegisterDCMComp@SCM@@AAAHPAVDCM@@PAUIMsoComponent@@PBU_MSOCRINFO@@PAK@Z 1001326a f cistdmgr.obj
 0001:000122a0       __pcd_tbl?Create@SCMI@@SAPAV1@PAVSCM@@PAVDCM@@PAUIMsoComponent@@@Z 100132a0 f cistdmgr.obj
 0001:000122b4       __nep?Create@SCMI@@SAPAV1@PAVSCM@@PAVDCM@@PAUIMsoComponent@@@Z 100132b4 f cistdmgr.obj
 0001:000122bc       __fh?Create@SCMI@@SAPAV1@PAVSCM@@PAVDCM@@PAUIMsoComponent@@@Z 100132bc f cistdmgr.obj
 0001:000122be       ?Create@SCMI@@SAPAV1@PAVSCM@@PAVDCM@@PAUIMsoComponent@@@Z 100132be f cistdmgr.obj
 0001:000122e8       __pcd_tbl?FInit@SCMI@@QAAHPAVSCM@@PAVDCM@@PAUIMsoComponent@@@Z 100132e8 f cistdmgr.obj
 0001:000122ec       __nep?FInit@SCMI@@QAAHPAVSCM@@PAVDCM@@PAUIMsoComponent@@@Z 100132ec f cistdmgr.obj
 0001:000122f4       __fh?FInit@SCMI@@QAAHPAVSCM@@PAVDCM@@PAUIMsoComponent@@@Z 100132f4 f cistdmgr.obj
 0001:000122f6       ?FInit@SCMI@@QAAHPAVSCM@@PAVDCM@@PAUIMsoComponent@@@Z 100132f6 f cistdmgr.obj
 0001:00012324       __pcd_tbl?FRegisterComp@SCM@@AAAHPAVSCMI@@PBU_MSOCRINFO@@@Z 10013324 f cistdmgr.obj
 0001:00012330       __nep?FRegisterComp@SCM@@AAAHPAVSCMI@@PBU_MSOCRINFO@@@Z 10013330 f cistdmgr.obj
 0001:00012338       __fh?FRegisterComp@SCM@@AAAHPAVSCMI@@PBU_MSOCRINFO@@@Z 10013338 f cistdmgr.obj
 0001:0001233a       ?FRegisterComp@SCM@@AAAHPAVSCMI@@PBU_MSOCRINFO@@@Z 1001333a f cistdmgr.obj
 0001:00012360       __pcd_tbl?FSetCompRegInfo@SCM@@AAAHPAVSCMI@@PBU_MSOCRINFO@@@Z 10013360 f cistdmgr.obj
 0001:00012370       __nep?FSetCompRegInfo@SCM@@AAAHPAVSCMI@@PBU_MSOCRINFO@@@Z 10013370 f cistdmgr.obj
 0001:00012378       __fh?FSetCompRegInfo@SCM@@AAAHPAVSCMI@@PBU_MSOCRINFO@@@Z 10013378 f cistdmgr.obj
 0001:0001237a       ?FSetCompRegInfo@SCM@@AAAHPAVSCMI@@PBU_MSOCRINFO@@@Z 1001337a f cistdmgr.obj
 0001:000123f0       __pcd_tbl?FUpdateCompIdleTimeSettings@SCM@@AAAHPAVSCMI@@K@Z 100133f0 f ciidle.obj
 0001:00012400       __nep?FUpdateCompIdleTimeSettings@SCM@@AAAHPAVSCMI@@K@Z 10013400 f ciidle.obj
 0001:00012408       __fh?FUpdateCompIdleTimeSettings@SCM@@AAAHPAVSCMI@@K@Z 10013408 f ciidle.obj
 0001:0001240a       ?FUpdateCompIdleTimeSettings@SCM@@AAAHPAVSCMI@@K@Z 1001340a f ciidle.obj
 0001:00012450       __pcd_tbl?FCreateToolbar@TBS@@UAAHHPBGPAXPBU_msotbp@@PAUIMsoToolbarUser@@PAPAUIMsoControlSite@@PAPAUIMsoToolbar@@@Z 10013450 f tbs.obj
 0001:00012468       __nep?FCreateToolbar@TBS@@UAAHHPBGPAXPBU_msotbp@@PAUIMsoToolbarUser@@PAPAUIMsoControlSite@@PAPAUIMsoToolbar@@@Z 10013468 f tbs.obj
 0001:00012470       __fh?FCreateToolbar@TBS@@UAAHHPBGPAXPBU_msotbp@@PAUIMsoToolbarUser@@PAPAUIMsoControlSite@@PAPAUIMsoToolbar@@@Z 10013470 f tbs.obj
 0001:00012472       ?FCreateToolbar@TBS@@UAAHHPBGPAXPBU_msotbp@@PAUIMsoToolbarUser@@PAPAUIMsoControlSite@@PAPAUIMsoToolbar@@@Z 10013472 f tbs.obj
 0001:00012504       __pcd_tbl?FInit@TBS@@QAAHHPAXPAUIMsoComponentManager@@@Z 10013504 f tbs.obj
 0001:0001253c       __nep?FInit@TBS@@QAAHHPAXPAUIMsoComponentManager@@@Z 1001353c f tbs.obj
 0001:00012544       __fh?FInit@TBS@@QAAHHPAXPAUIMsoComponentManager@@@Z 10013544 f tbs.obj
 0001:00012547       ?FInit@TBS@@QAAHHPAXPAUIMsoComponentManager@@@Z 10013547 f tbs.obj
 0001:000126ec       __pcd_tbl?FInit@TBCM@@UAAHPAXPAUIMsoControlUser@@PAUIMsoControlSite@@@Z 100136ec f tbmenu.obj
 0001:000126ec       __nep?FInit@TBCM@@UAAHPAXPAUIMsoControlUser@@PAUIMsoControlSite@@@Z 100136ec f tbmenu.obj
 0001:000126f4       __fh?FInit@TBCM@@UAAHPAXPAUIMsoControlUser@@PAUIMsoControlSite@@@Z 100136f4 f tbmenu.obj
 0001:000126f6       ?FInit@TBCM@@UAAHPAXPAUIMsoControlUser@@PAUIMsoControlSite@@@Z 100136f6 f tbmenu.obj
 0001:0001271c       __pcd_tbl?FAddPtb@TBS@@AAAHPAVTB@@@Z 1001371c f tbs.obj
 0001:00012724       __nep?FAddPtb@TBS@@AAAHPAVTB@@@Z 10013724 f tbs.obj
 0001:0001272c       __fh?FAddPtb@TBS@@AAAHPAVTB@@@Z 1001372c f tbs.obj
 0001:0001272e       ?FAddPtb@TBS@@AAAHPAVTB@@@Z 1001372e f tbs.obj
 0001:000127bc       __pcd_tbl?FShowTbInternal@TB@@QAAHPAUplacepopupinfo@@@Z 100137bc f tb.obj
 0001:00012854       __nep?FShowTbInternal@TB@@QAAHPAUplacepopupinfo@@@Z 10013854 f tb.obj
 0001:0001285c       __fh?FShowTbInternal@TB@@QAAHPAUplacepopupinfo@@@Z 1001385c f tb.obj
 0001:0001285f       ?FShowTbInternal@TB@@QAAHPAUplacepopupinfo@@@Z 1001385f f tb.obj
 0001:00012dc8       __pcd_tbl?FGetHwnd@TBS@@QAAHPAPAUHWND__@@HPAVTB@@@Z 10013dc8 f tbs.obj
 0001:00012de0       __nep?FGetHwnd@TBS@@QAAHPAPAUHWND__@@HPAVTB@@@Z 10013de0 f tbs.obj
 0001:00012de8       __fh?FGetHwnd@TBS@@QAAHPAPAUHWND__@@HPAVTB@@@Z 10013de8 f tbs.obj
 0001:00012deb       ?FGetHwnd@TBS@@QAAHPAPAUHWND__@@HPAVTB@@@Z 10013deb f tbs.obj
 0001:00012f38       __pcd_tbl?FCreateToolbarWindow@TB@@IAAHHPAPAUHWND__@@@Z 10013f38 f tb.obj
 0001:00012f48       __nep?FCreateToolbarWindow@TB@@IAAHHPAPAUHWND__@@@Z 10013f48 f tb.obj
 0001:00012f50       __fh?FCreateToolbarWindow@TB@@IAAHHPAPAUHWND__@@@Z 10013f50 f tb.obj
 0001:00012f53       ?FCreateToolbarWindow@TB@@IAAHHPAPAUHWND__@@@Z 10013f53 f tb.obj
 0001:00012ff4       __pcd_tbl?GetName@TB@@UAAXPAG@Z 10013ff4 f tb.obj
 0001:00012ff8       __nep?GetName@TB@@UAAXPAG@Z 10013ff8 f tb.obj
 0001:00013000       __fh?GetName@TB@@UAAXPAG@Z 10014000 f tb.obj
 0001:00013002       ?GetName@TB@@UAAXPAG@Z     10014002 f tb.obj
 0001:00013008       __pcd_tbl?GetNameInternal@TB@@QAAXPAGH@Z 10014008 f tb.obj
 0001:00013010       __nep?GetNameInternal@TB@@QAAXPAGH@Z 10014010 f tb.obj
 0001:00013018       __fh?GetNameInternal@TB@@QAAXPAGH@Z 10014018 f tb.obj
 0001:0001301a       ?GetNameInternal@TB@@QAAXPAGH@Z 1001401a f tb.obj
 0001:00013030       __pcd_tbl_MsoGetLabelFromTbid 10014030 f tb.obj
 0001:00013038       __nep_MsoGetLabelFromTbid  10014038 f tb.obj
 0001:00013040       __fh_MsoGetLabelFromTbid   10014040 f tb.obj
 0001:00013042       _MsoGetLabelFromTbid       10014042 f tb.obj
 0001:00013080       __pcd_tbl?DockTBAdd@TBS@@AAAXPAVTB@@HPAPAV2@H1HH0@Z 10014080 f tbs.obj
 0001:0001309c       __nep?DockTBAdd@TBS@@AAAXPAVTB@@HPAPAV2@H1HH0@Z 1001409c f tbs.obj
 0001:000130a4       __fh?DockTBAdd@TBS@@AAAXPAVTB@@HPAPAV2@H1HH0@Z 100140a4 f tbs.obj
 0001:000130a7       ?DockTBAdd@TBS@@AAAXPAVTB@@HPAPAV2@H1HH0@Z 100140a7 f tbs.obj
 0001:00013364       __pcd_tbl?CalcRectOrReflowToolbar@TB@@IAAXPAUtagRECT@@HHHHHH@Z 10014364 f tb.obj
 0001:000133a4       __nep?CalcRectOrReflowToolbar@TB@@IAAXPAUtagRECT@@HHHHHH@Z 100143a4 f tb.obj
 0001:000133ac       __fh?CalcRectOrReflowToolbar@TB@@IAAXPAUtagRECT@@HHHHHH@Z 100143ac f tb.obj
 0001:000133af       ?CalcRectOrReflowToolbar@TB@@IAAXPAUtagRECT@@HHHHHH@Z 100143af f tb.obj
 0001:0001431c       __pcd_tbl?FSetLabelInternal@TBC@@QAAHPBGPAH@Z 1001531c f tbctrl.obj
 0001:00014324       __nep?FSetLabelInternal@TBC@@QAAHPBGPAH@Z 10015324 f tbctrl.obj
 0001:0001432c       __fh?FSetLabelInternal@TBC@@QAAHPBGPAH@Z 1001532c f tbctrl.obj
 0001:0001432e       ?FSetLabelInternal@TBC@@QAAHPBGPAH@Z 1001532e f tbctrl.obj
 0001:00014368       __pcd_tbl?FSetLabel@TBCM@@UAAHPBG@Z 10015368 f tbmenu.obj
 0001:00014370       __nep?FSetLabel@TBCM@@UAAHPBG@Z 10015370 f tbmenu.obj
 0001:00014378       __fh?FSetLabel@TBCM@@UAAHPBG@Z 10015378 f tbmenu.obj
 0001:0001437a       ?FSetLabel@TBCM@@UAAHPBG@Z 1001537a f tbmenu.obj
 0001:00014398       _MsoFIsImeLang             10015398 f kjintl.obj
 0001:00014498       __pcd_tbl?FSetLabel@TBCB@@UAAHPBG@Z 10015498 f tbbtn.obj
 0001:0001449c       __nep?FSetLabel@TBCB@@UAAHPBG@Z 1001549c f tbbtn.obj
 0001:000144a4       __fh?FSetLabel@TBCB@@UAAHPBG@Z 100154a4 f tbbtn.obj
 0001:000144a6       ?FSetLabel@TBCB@@UAAHPBG@Z 100154a6 f tbbtn.obj
 0001:000144b8       __pcd_tbl?FGetAccelerator@TBCB@@UAAHPAG@Z 100154b8 f tbbtn.obj
 0001:000144bc       __nep?FGetAccelerator@TBCB@@UAAHPAG@Z 100154bc f tbbtn.obj
 0001:000144c4       __fh?FGetAccelerator@TBCB@@UAAHPAG@Z 100154c4 f tbbtn.obj
 0001:000144c6       ?FGetAccelerator@TBCB@@UAAHPAG@Z 100154c6 f tbbtn.obj
 0001:000144f0       __pcd_tbl?FSetAccelerator@TBCB@@QAAHPAG@Z 100154f0 f tbbtn.obj
 0001:000144f8       __nep?FSetAccelerator@TBCB@@QAAHPAG@Z 100154f8 f tbbtn.obj
 0001:00014500       __fh?FSetAccelerator@TBCB@@QAAHPAG@Z 10015500 f tbbtn.obj
 0001:00014502       ?FSetAccelerator@TBCB@@QAAHPAG@Z 10015502 f tbbtn.obj
 0001:00014534       __pcd_tbl?FForceRectOnScreen@@YAHPAUtagRECT@@H@Z 10015534 f util.obj
 0001:0001454c       __nep?FForceRectOnScreen@@YAHPAUtagRECT@@H@Z 1001554c f util.obj
 0001:00014554       __fh?FForceRectOnScreen@@YAHPAUtagRECT@@H@Z 10015554 f util.obj
 0001:00014556       ?FForceRectOnScreen@@YAHPAUtagRECT@@H@Z 10015556 f util.obj
 0001:0001463c       __pcd_tbl?FCreateGenericContainer@TBS@@UAAHPAUIMsoControlContainerUser@@PAXPAUHWND__@@KPAPAUIMsoControlSite@@PAPAUIMsoControlContainer@@PAPAU3@@Z 1001563c f tbs.obj
 0001:00014650       __nep?FCreateGenericContainer@TBS@@UAAHPAUIMsoControlContainerUser@@PAXPAUHWND__@@KPAPAUIMsoControlSite@@PAPAUIMsoControlContainer@@PAPAU3@@Z 10015650 f tbs.obj
 0001:00014658       __fh?FCreateGenericContainer@TBS@@UAAHPAUIMsoControlContainerUser@@PAXPAUHWND__@@KPAPAUIMsoControlSite@@PAPAUIMsoControlContainer@@PAPAU3@@Z 10015658 f tbs.obj
 0001:0001465a       ?FCreateGenericContainer@TBS@@UAAHPAUIMsoControlContainerUser@@PAXPAUHWND__@@KPAPAUIMsoControlSite@@PAPAUIMsoControlContainer@@PAPAU3@@Z 1001565a f tbs.obj
 0001:000146a4       __nep?FInit@TBCL@@UAAHPAXPAUIMsoControlUser@@PAUIMsoControlSite@@@Z 100156a4 f tblabel.obj
 0001:000146a4       __pcd_tbl?FInit@TBCL@@UAAHPAXPAUIMsoControlUser@@PAUIMsoControlSite@@@Z 100156a4 f tblabel.obj
 0001:000146ac       __fh?FInit@TBCL@@UAAHPAXPAUIMsoControlUser@@PAUIMsoControlSite@@@Z 100156ac f tblabel.obj
 0001:000146ae       ?FInit@TBCL@@UAAHPAXPAUIMsoControlUser@@PAUIMsoControlSite@@@Z 100156ae f tblabel.obj
 0001:000146b8       __pcd_tbl?FSetpitb@TBCM@@UAAHPAUIMsoToolbar@@@Z 100156b8 f tbmenu.obj
 0001:000146c0       __nep?FSetpitb@TBCM@@UAAHPAUIMsoToolbar@@@Z 100156c0 f tbmenu.obj
 0001:000146c8       __fh?FSetpitb@TBCM@@UAAHPAUIMsoToolbar@@@Z 100156c8 f tbmenu.obj
 0001:000146ca       ?FSetpitb@TBCM@@UAAHPAUIMsoToolbar@@@Z 100156ca f tbmenu.obj
 0001:000146f8       __pcd_tbl?FInit@TBCGA@@UAAHPAXPAUIMsoControlUser@@PAUIMsoControlSite@@@Z 100156f8 f tbgauge.obj
 0001:000146fc       __nep?FInit@TBCGA@@UAAHPAXPAUIMsoControlUser@@PAUIMsoControlSite@@@Z 100156fc f tbgauge.obj
 0001:00014704       __fh?FInit@TBCGA@@UAAHPAXPAUIMsoControlUser@@PAUIMsoControlSite@@@Z 10015704 f tbgauge.obj
 0001:00014707       ?FInit@TBCGA@@UAAHPAXPAUIMsoControlUser@@PAUIMsoControlSite@@@Z 10015707 f tbgauge.obj
 0001:00014738       __pcd_tbl_MsoFGetSoundState 10015738 f sound.obj
 0001:00014744       __nep_MsoFGetSoundState    10015744 f sound.obj
 0001:0001474c       __fh_MsoFGetSoundState     1001574c f sound.obj
 0001:0001474e       _MsoFGetSoundState         1001574e f sound.obj
 0001:0001478c       __pcd_tbl?PopupInCust@TBS@@QAAXPAVTB@@HHHPAPAV2@@Z 1001578c f tb.obj
 0001:000147bc       __nep?PopupInCust@TBS@@QAAXPAVTB@@HHHPAPAV2@@Z 100157bc f tb.obj
 0001:000147c4       __fh?PopupInCust@TBS@@QAAXPAVTB@@HHHPAPAV2@@Z 100157c4 f tb.obj
 0001:000147c6       ?PopupInCust@TBS@@QAAXPAVTB@@HHHPAPAV2@@Z 100157c6 f tb.obj
 0001:00014908       __pcd_tbl?EnsureSelCtlVisible@TBS@@QAAXXZ 10015908 f tbs.obj
 0001:00014914       __nep?EnsureSelCtlVisible@TBS@@QAAXXZ 10015914 f tbs.obj
 0001:0001491c       __fh?EnsureSelCtlVisible@TBS@@QAAXXZ 1001591c f tbs.obj
 0001:0001491e       ?EnsureSelCtlVisible@TBS@@QAAXXZ 1001591e f tbs.obj
 0001:0001493c       __pcd_tbl?HrResizeBorder@TBS@@UAAJPBURect@@@Z 1001593c f tbs.obj
 0001:00014940       __nep?HrResizeBorder@TBS@@UAAJPBURect@@@Z 10015940 f tbs.obj
 0001:00014948       __fh?HrResizeBorder@TBS@@UAAJPBURect@@@Z 10015948 f tbs.obj
 0001:0001494a       ?HrResizeBorder@TBS@@UAAJPBURect@@@Z 1001594a f tbs.obj
 0001:00014998       __pcd_tbl_MsoDestroyStartup 10015998 f splash.obj
 0001:000149a0       __nep_MsoDestroyStartup    100159a0 f splash.obj
 0001:000149a8       __fh_MsoDestroyStartup     100159a8 f splash.obj
 0001:000149aa       _MsoDestroyStartup         100159aa f splash.obj
 0001:000149d0       __pcd_tbl?FFindToolbar@TBS@@UAAHHPBGPAPAUIMsoToolbar@@@Z 100159d0 f tbs.obj
 0001:000149d4       __nep?FFindToolbar@TBS@@UAAHHPBGPAPAUIMsoToolbar@@@Z 100159d4 f tbs.obj
 0001:000149dc       __fh?FFindToolbar@TBS@@UAAHHPBGPAPAUIMsoToolbar@@@Z 100159dc f tbs.obj
 0001:000149de       ?FFindToolbar@TBS@@UAAHHPBGPAPAUIMsoToolbar@@@Z 100159de f tbs.obj
 0001:000149e8       __nep?SetTbct@TBC@@UAAXH@Z 100159e8 f tbctrl.obj
 0001:000149e8       __pcd_tbl?SetTbct@TBC@@UAAXH@Z 100159e8 f tbctrl.obj
 0001:000149f0       __fh?SetTbct@TBC@@UAAXH@Z  100159f0 f tbctrl.obj
 0001:000149f2       ?SetTbct@TBC@@UAAXH@Z      100159f2 f tbctrl.obj
 0001:00014a0c       __pcd_tbl?OnWmActivateApp@SCM@@AAAXHK@Z 10015a0c f cistdmgr.obj
 0001:00014a14       __nep?OnWmActivateApp@SCM@@AAAXHK@Z 10015a14 f cistdmgr.obj
 0001:00014a1c       __fh?OnWmActivateApp@SCM@@AAAXHK@Z 10015a1c f cistdmgr.obj
 0001:00014a1e       ?OnWmActivateApp@SCM@@AAAXHK@Z 10015a1e f cistdmgr.obj
 0001:00014ae0       __pcd_tbl?OnAppActivate@COMPBASE@@UAAXHK@Z 10015ae0 f tbbtn.obj
 0001:00014ae0       __nep?OnAppActivate@COMPBASE@@UAAXHK@Z 10015ae0 f tbbtn.obj
 0001:00014ae8       __fh?OnAppActivate@COMPBASE@@UAAXHK@Z 10015ae8 f tbbtn.obj
 0001:00014aea       ?OnAppActivate@COMPBASE@@UAAXHK@Z 10015aea f tbbtn.obj
 0001:00014aec       __nep?OnAppActivate@TBComponentAppModal@@UAAXHK@Z 10015aec f tbcomp.obj
 0001:00014aec       __pcd_tbl?OnAppActivate@TBComponentAppModal@@UAAXHK@Z 10015aec f tbcomp.obj
 0001:00014af4       __fh?OnAppActivate@TBComponentAppModal@@UAAXHK@Z 10015af4 f tbcomp.obj
 0001:00014af6       ?OnAppActivate@TBComponentAppModal@@UAAXHK@Z 10015af6 f tbcomp.obj
 0001:00014afc       __pcd_tbl?FOnHostActivate@SCM_MsoStdCompMgr@@UAAHXZ 10015afc f cistdmgr.obj
 0001:00014b00       __nep?FOnHostActivate@SCM_MsoStdCompMgr@@UAAHXZ 10015b00 f cistdmgr.obj
 0001:00014b08       __fh?FOnHostActivate@SCM_MsoStdCompMgr@@UAAHXZ 10015b08 f cistdmgr.obj
 0001:00014b0a       ?FOnHostActivate@SCM_MsoStdCompMgr@@UAAHXZ 10015b0a f cistdmgr.obj
 0001:00014b14       __pcd_tbl?FOnActivate@SCM@@AAAHPAVSCMI@@H@Z 10015b14 f cistdmgr.obj
 0001:00014b20       __nep?FOnActivate@SCM@@AAAHPAVSCMI@@H@Z 10015b20 f cistdmgr.obj
 0001:00014b28       __fh?FOnActivate@SCM@@AAAHPAVSCMI@@H@Z 10015b28 f cistdmgr.obj
 0001:00014b2a       ?FOnActivate@SCM@@AAAHPAVSCMI@@H@Z 10015b2a f cistdmgr.obj
 0001:00014be0       __pcd_tbl?WndProc@SCM@@SAJPAUHWND__@@IIJ@Z 10015be0 f cistdmgr.obj
 0001:00014bec       __nep?WndProc@SCM@@SAJPAUHWND__@@IIJ@Z 10015bec f cistdmgr.obj
 0001:00014bf4       __fh?WndProc@SCM@@SAJPAUHWND__@@IIJ@Z 10015bf4 f cistdmgr.obj
 0001:00014bf6       ?WndProc@SCM@@SAJPAUHWND__@@IIJ@Z 10015bf6 f cistdmgr.obj
 0001:00014c0c       __pcd_tbl_MsoFSetComponentManager 10015c0c f ci.obj
 0001:00014c10       __nep_MsoFSetComponentManager 10015c10 f ci.obj
 0001:00014c18       __fh_MsoFSetComponentManager 10015c18 f ci.obj
 0001:00014c1a       _MsoFSetComponentManager   10015c1a f ci.obj
 0001:00014c24       __pcd_tbl?FSetCompMgr@@YAHPAUIMsoComponentManager@@@Z 10015c24 f ci.obj
 0001:00014c30       __nep?FSetCompMgr@@YAHPAUIMsoComponentManager@@@Z 10015c30 f ci.obj
 0001:00014c38       __fh?FSetCompMgr@@YAHPAUIMsoComponentManager@@@Z 10015c38 f ci.obj
 0001:00014c3a       ?FSetCompMgr@@YAHPAUIMsoComponentManager@@@Z 10015c3a f ci.obj
 0001:00014c74       __pcd_tbl?CompTbF@@YAHPAPAVTB@@0@Z 10015c74 f tbs.obj
 0001:00014c78       __nep?CompTbF@@YAHPAPAVTB@@0@Z 10015c78 f tbs.obj
 0001:00014c80       __fh?CompTbF@@YAHPAPAVTB@@0@Z 10015c80 f tbs.obj
 0001:00014c82       ?CompTbF@@YAHPAPAVTB@@0@Z  10015c82 f tbs.obj
 0001:00014c94       __pcd_tbl_MsoGetValidTBPos 10015c94 f tbs.obj
 0001:00014c98       __nep_MsoGetValidTBPos     10015c98 f tbs.obj
 0001:00014ca0       __fh_MsoGetValidTBPos      10015ca0 f tbs.obj
 0001:00014ca2       _MsoGetValidTBPos          10015ca2 f tbs.obj
 0001:00014d20       __pcd_tbl_MsoGetScreenRect 10015d20 f tbutil.obj
 0001:00014d38       __nep_MsoGetScreenRect     10015d38 f tbutil.obj
 0001:00014d40       __fh_MsoGetScreenRect      10015d40 f tbutil.obj
 0001:00014d42       _MsoGetScreenRect          10015d42 f tbutil.obj
 0001:00014dd0       __pcd_tbl?FIsTBCMCustomizable@@YAHPAUIMsoControl@@@Z 10015dd0 f tb.obj
 0001:00014de0       __nep?FIsTBCMCustomizable@@YAHPAUIMsoControl@@@Z 10015de0 f tb.obj
 0001:00014de8       __fh?FIsTBCMCustomizable@@YAHPAUIMsoControl@@@Z 10015de8 f tb.obj
 0001:00014dea       ?FIsTBCMCustomizable@@YAHPAUIMsoControl@@@Z 10015dea f tb.obj
 0001:00014e10       __nep?FIsMenu@TBCM@@UAAHXZ 10015e10 f tbmenctl.obj
 0001:00014e10       __pcd_tbl?FIsMenu@TBCM@@UAAHXZ 10015e10 f tbmenctl.obj
 0001:00014e18       __fh?FIsMenu@TBCM@@UAAHXZ  10015e18 f tbmenctl.obj
 0001:00014e1a       ?FIsMenu@TBCM@@UAAHXZ      10015e1a f tbmenctl.obj
 0001:00014e1c       _MsoMultiByteToWideChar    10015e1c f kjstr.obj
 0001:000153a4       _MsoFSzEqual               100163a4 f kjstr.obj
 0001:00015430       _MsoFRgchEqual             10016430 f kjstr.obj
 0001:00015490       _MsoSgnRgchCompare         10016490 f kjstr.obj
 0001:0001569c       _MsoFInsertPx              1001669c f kjplex.obj
 0001:00015784       _MsoIInsertSortPx          10016784 f kjplex.obj
 0001:00015834       _MsoFLookupSortPx          10016834 f kjplex.obj
 0001:00015930       __nep?FMDIControlsVisible@TB@@QAAHXZ 10016930 f tb.obj
 0001:00015930       __pcd_tbl?FMDIControlsVisible@TB@@QAAHXZ 10016930 f tb.obj
 0001:00015938       __fh?FMDIControlsVisible@TB@@QAAHXZ 10016938 f tb.obj
 0001:0001593a       ?FMDIControlsVisible@TB@@QAAHXZ 1001693a f tb.obj
 0001:0001593c       __pcd_tbl?FGetMDIWindows@TBS@@QAAHPAPAUHWND__@@0PAH@Z 1001693c f tbs.obj
 0001:00015944       __nep?FGetMDIWindows@TBS@@QAAHPAPAUHWND__@@0PAH@Z 10016944 f tbs.obj
 0001:0001594c       __fh?FGetMDIWindows@TBS@@QAAHPAPAUHWND__@@0PAH@Z 1001694c f tbs.obj
 0001:0001594e       ?FGetMDIWindows@TBS@@QAAHPAPAUHWND__@@0PAH@Z 1001694e f tbs.obj
 0001:000159ac       __pcd_tbl?QuerySize@TBCMC@@UAAXPAU_msoctlenv@@PAH111@Z 100169ac f tbmenctl.obj
 0001:000159b4       __nep?QuerySize@TBCMC@@UAAXPAU_msoctlenv@@PAH111@Z 100169b4 f tbmenctl.obj
 0001:000159bc       __fh?QuerySize@TBCMC@@UAAXPAU_msoctlenv@@PAH111@Z 100169bc f tbmenctl.obj
 0001:000159be       ?QuerySize@TBCMC@@UAAXPAU_msoctlenv@@PAH111@Z 100169be f tbmenctl.obj
 0001:00015a20       __pcd_tbl?FEnabled@TBCMUCUST@@EAAHPAUIMsoControl@@PAPAX@Z 10016a20 f tbcust.obj
 0001:00015a24       __nep?FEnabled@TBCMUCUST@@EAAHPAUIMsoControl@@PAPAX@Z 10016a24 f tbcust.obj
 0001:00015a2c       __fh?FEnabled@TBCMUCUST@@EAAHPAUIMsoControl@@PAPAX@Z 10016a2c f tbcust.obj
 0001:00015a2e       ?FEnabled@TBCMUCUST@@EAAHPAUIMsoControl@@PAPAX@Z 10016a2e f tbcust.obj
 0001:00015a64       __nep?PicuGetControlUser@TBCB@@UAAPAUIMsoControlUser@@XZ 10016a64 f tbbtn.obj
 0001:00015a64       __pcd_tbl?PicuGetControlUser@TBCB@@UAAPAUIMsoControlUser@@XZ 10016a64 f tbbtn.obj
 0001:00015a6c       __fh?PicuGetControlUser@TBCB@@UAAPAUIMsoControlUser@@XZ 10016a6c f tbbtn.obj
 0001:00015a6e       ?PicuGetControlUser@TBCB@@UAAPAUIMsoControlUser@@XZ 10016a6e f tbbtn.obj
 0001:00015a74       __pcd_tbl?QuerySize@TBCB@@UAAXPAU_msoctlenv@@PAH111@Z 10016a74 f tbbtn.obj
 0001:00015aa0       __nep?QuerySize@TBCB@@UAAXPAU_msoctlenv@@PAH111@Z 10016aa0 f tbbtn.obj
 0001:00015aa8       __fh?QuerySize@TBCB@@UAAXPAU_msoctlenv@@PAH111@Z 10016aa8 f tbbtn.obj
 0001:00015aab       ?QuerySize@TBCB@@UAAXPAU_msoctlenv@@PAH111@Z 10016aab f tbbtn.obj
 0001:00015cbc       __pcd_tbl?FUpdate@TBCB@@UAAHPAU_msoctlenv@@HHPAH@Z 10016cbc f tbbtn.obj
 0001:00015cbc       __nep?FUpdate@TBCB@@UAAHPAU_msoctlenv@@HHPAH@Z 10016cbc f tbbtn.obj
 0001:00015cc4       __fh?FUpdate@TBCB@@UAAHPAU_msoctlenv@@HHPAH@Z 10016cc4 f tbbtn.obj
 0001:00015cc6       ?FUpdate@TBCB@@UAAHPAU_msoctlenv@@HHPAH@Z 10016cc6 f tbbtn.obj
 0001:00015d74       __nep?FAutoVisible@TBCDDOCX@@UAAHPAUIMsoControl@@PAPAX@Z 10016d74 f tbcddocx.obj
 0001:00015d74       __pcd_tbl?FAutoVisible@TBCDDOCX@@UAAHPAUIMsoControl@@PAPAX@Z 10016d74 f tbcddocx.obj
 0001:00015d7c       __fh?FAutoVisible@TBCDDOCX@@UAAHPAUIMsoControl@@PAPAX@Z 10016d7c f tbcddocx.obj
 0001:00015d7e       ?FAutoVisible@TBCDDOCX@@UAAHPAUIMsoControl@@PAPAX@Z 10016d7e f tbcddocx.obj
 0001:00015d80       __nep?PicuGetControlUser@TBCDD@@UAAPAUIMsoControlUser@@XZ 10016d80 f tbdropdn.obj
 0001:00015d80       __pcd_tbl?PicuGetControlUser@TBCDD@@UAAPAUIMsoControlUser@@XZ 10016d80 f tbdropdn.obj
 0001:00015d88       __fh?PicuGetControlUser@TBCDD@@UAAPAUIMsoControlUser@@XZ 10016d88 f tbdropdn.obj
 0001:00015d8a       ?PicuGetControlUser@TBCDD@@UAAPAUIMsoControlUser@@XZ 10016d8a f tbdropdn.obj
 0001:00015d90       __pcd_tbl?QuerySize@TBCDD@@UAAXPAU_msoctlenv@@PAH111@Z 10016d90 f tbdropdn.obj
 0001:00015da8       __nep?QuerySize@TBCDD@@UAAXPAU_msoctlenv@@PAH111@Z 10016da8 f tbdropdn.obj
 0001:00015db0       __fh?QuerySize@TBCDD@@UAAXPAU_msoctlenv@@PAH111@Z 10016db0 f tbdropdn.obj
 0001:00015db3       ?QuerySize@TBCDD@@UAAXPAU_msoctlenv@@PAH111@Z 10016db3 f tbdropdn.obj
 0001:00015ef0       __nep?FConstrainSize@TBC@@UAAHPAU_msoctlenv@@H@Z 10016ef0 f tbctrl.obj
 0001:00015ef0       __pcd_tbl?FConstrainSize@TBC@@UAAHPAU_msoctlenv@@H@Z 10016ef0 f tbctrl.obj
 0001:00015ef8       __fh?FConstrainSize@TBC@@UAAHPAU_msoctlenv@@H@Z 10016ef8 f tbctrl.obj
 0001:00015efa       ?FConstrainSize@TBC@@UAAHPAU_msoctlenv@@H@Z 10016efa f tbctrl.obj
 0001:00015f78       __nep?FUpdate@TBCDDOCX@@UAAHPAUIMsoControl@@PAPAX@Z 10016f78 f tbcddocx.obj
 0001:00015f78       __pcd_tbl?FUpdate@TBCDDOCX@@UAAHPAUIMsoControl@@PAPAX@Z 10016f78 f tbcddocx.obj
 0001:00015f80       __fh?FUpdate@TBCDDOCX@@UAAHPAUIMsoControl@@PAPAX@Z 10016f80 f tbcddocx.obj
 0001:00015f82       ?FUpdate@TBCDDOCX@@UAAHPAUIMsoControl@@PAPAX@Z 10016f82 f tbcddocx.obj
 0001:00015f90       _MsoFLoadWtzFromPstt       10016f90 f kjstr.obj
 0001:00016030       __pcd_tbl?PtbContainer@TBCM@@QAAPAVTB@@XZ 10017030 f tbmenu.obj
 0001:00016034       __nep?PtbContainer@TBCM@@QAAPAVTB@@XZ 10017034 f tbmenu.obj
 0001:0001603c       __fh?PtbContainer@TBCM@@QAAPAVTB@@XZ 1001703c f tbmenu.obj
 0001:0001603e       ?PtbContainer@TBCM@@QAAPAVTB@@XZ 1001703e f tbmenu.obj
 0001:00016044       __pcd_tbl?FUpdate@TBCODD@@UAAHPAU_msoctlenv@@HHPAH@Z 10017044 f tbdropdn.obj
 0001:0001604c       __nep?FUpdate@TBCODD@@UAAHPAU_msoctlenv@@HHPAH@Z 1001704c f tbdropdn.obj
 0001:00016054       __fh?FUpdate@TBCODD@@UAAHPAU_msoctlenv@@HHPAH@Z 10017054 f tbdropdn.obj
 0001:00016056       ?FUpdate@TBCODD@@UAAHPAU_msoctlenv@@HHPAH@Z 10017056 f tbdropdn.obj
 0001:000160f4       _MsoFWtzEqual              100170f4 f kjstr.obj
 0001:0001618c       __nep?FAutoVisible@TBBUBASE@@UAAHPAUIMsoControl@@PAPAX@Z 1001718c f hl.obj
 0001:0001618c       __pcd_tbl?FAutoVisible@TBBUBASE@@UAAHPAUIMsoControl@@PAPAX@Z 1001718c f hl.obj
 0001:00016194       __fh?FAutoVisible@TBBUBASE@@UAAHPAUIMsoControl@@PAPAX@Z 10017194 f hl.obj
 0001:00016196       ?FAutoVisible@TBBUBASE@@UAAHPAUIMsoControl@@PAPAX@Z 10017196 f hl.obj
 0001:00016198       __pcd_tbl?FEnabled@TBBUBASE@@UAAHPAUIMsoControl@@PAPAX@Z 10017198 f hl.obj
 0001:00016198       __nep?FEnabled@TBBUBASE@@UAAHPAUIMsoControl@@PAPAX@Z 10017198 f hl.obj
 0001:000161a0       __fh?FEnabled@TBBUBASE@@UAAHPAUIMsoControl@@PAPAX@Z 100171a0 f hl.obj
 0001:000161a2       ?FEnabled@TBBUBASE@@UAAHPAUIMsoControl@@PAPAX@Z 100171a2 f hl.obj
 0001:000161a4       __pcd_tbl?Tbbs@AsstButtonUser@@UAAIPAUIMsoControl@@PAPAX@Z 100171a4 f fcbu.obj
 0001:000161a4       __nep?Tbbs@AsstButtonUser@@UAAIPAUIMsoControl@@PAPAX@Z 100171a4 f fcbu.obj
 0001:000161ac       __fh?Tbbs@AsstButtonUser@@UAAIPAUIMsoControl@@PAPAX@Z 100171ac f fcbu.obj
 0001:000161ae       ?Tbbs@AsstButtonUser@@UAAIPAUIMsoControl@@PAPAX@Z 100171ae f fcbu.obj
 0001:000161e0       __pcd_tbl?FSetButtonFaceTcid@TBCB@@UAAHH@Z 100171e0 f tbbtn.obj
 0001:000161e4       __nep?FSetButtonFaceTcid@TBCB@@UAAHH@Z 100171e4 f tbbtn.obj
 0001:000161ec       __fh?FSetButtonFaceTcid@TBCB@@UAAHH@Z 100171ec f tbbtn.obj
 0001:000161ee       ?FSetButtonFaceTcid@TBCB@@UAAHH@Z 100171ee f tbbtn.obj
 0001:00016204       __pcd_tbl?SetIBtnFace@TBCB@@QAAXPAU_msoctlenv@@H@Z 10017204 f tbbtn.obj
 0001:00016208       __nep?SetIBtnFace@TBCB@@QAAXPAU_msoctlenv@@H@Z 10017208 f tbbtn.obj
 0001:00016210       __fh?SetIBtnFace@TBCB@@QAAXPAU_msoctlenv@@H@Z 10017210 f tbbtn.obj
 0001:00016212       ?SetIBtnFace@TBCB@@QAAXPAU_msoctlenv@@H@Z 10017212 f tbbtn.obj
 0001:00016248       __pcd_tbl?TctGet@TBCL@@UAAHXZ 10017248 f tblabel.obj
 0001:00016248       __nep?TctGet@TBCL@@UAAHXZ  10017248 f tblabel.obj
 0001:00016250       __fh?TctGet@TBCL@@UAAHXZ   10017250 f tblabel.obj
 0001:00016252       ?TctGet@TBCL@@UAAHXZ       10017252 f tblabel.obj
 0001:00016258       __pcd_tbl?PicuGetControlUser@TBCL@@UAAPAUIMsoControlUser@@XZ 10017258 f tblabel.obj
 0001:00016258       __nep?PicuGetControlUser@TBCL@@UAAPAUIMsoControlUser@@XZ 10017258 f tblabel.obj
 0001:00016260       __fh?PicuGetControlUser@TBCL@@UAAPAUIMsoControlUser@@XZ 10017260 f tblabel.obj
 0001:00016262       ?PicuGetControlUser@TBCL@@UAAPAUIMsoControlUser@@XZ 10017262 f tblabel.obj
 0001:0001626c       __pcd_tbl?QuerySize@TBCL@@UAAXPAU_msoctlenv@@PAH111@Z 1001726c f tblabel.obj
 0001:00016274       __nep?QuerySize@TBCL@@UAAXPAU_msoctlenv@@PAH111@Z 10017274 f tblabel.obj
 0001:0001627c       __fh?QuerySize@TBCL@@UAAXPAU_msoctlenv@@PAH111@Z 1001727c f tblabel.obj
 0001:0001627f       ?QuerySize@TBCL@@UAAXPAU_msoctlenv@@PAH111@Z 1001727f f tblabel.obj
 0001:000162fc       __nep?FLabelDisplayed@TBCL@@UAAHPAU_msoceo@@@Z 100172fc f tblabel.obj
 0001:000162fc       __pcd_tbl?FLabelDisplayed@TBCL@@UAAHPAU_msoceo@@@Z 100172fc f tblabel.obj
 0001:00016304       __fh?FLabelDisplayed@TBCL@@UAAHPAU_msoceo@@@Z 10017304 f tblabel.obj
 0001:00016306       ?FLabelDisplayed@TBCL@@UAAHPAU_msoceo@@@Z 10017306 f tblabel.obj
 0001:00016308       __nep?PicuGetControlUser@TBCGA@@UAAPAUIMsoControlUser@@XZ 10017308 f tbgauge.obj
 0001:00016308       __pcd_tbl?PicuGetControlUser@TBCGA@@UAAPAUIMsoControlUser@@XZ 10017308 f tbgauge.obj
 0001:00016310       __fh?PicuGetControlUser@TBCGA@@UAAPAUIMsoControlUser@@XZ 10017310 f tbgauge.obj
 0001:00016312       ?PicuGetControlUser@TBCGA@@UAAPAUIMsoControlUser@@XZ 10017312 f tbgauge.obj
 0001:00016318       __pcd_tbl?QuerySize@TBCGA@@UAAXPAU_msoctlenv@@PAH111@Z 10017318 f tbgauge.obj
 0001:00016318       __nep?QuerySize@TBCGA@@UAAXPAU_msoctlenv@@PAH111@Z 10017318 f tbgauge.obj
 0001:00016320       __fh?QuerySize@TBCGA@@UAAXPAU_msoctlenv@@PAH111@Z 10017320 f tbgauge.obj
 0001:00016322       ?QuerySize@TBCGA@@UAAXPAU_msoctlenv@@PAH111@Z 10017322 f tbgauge.obj
 0001:00016370       __pcd_tbl?FUpdate@TBCGA@@UAAHPAU_msoctlenv@@HHPAH@Z 10017370 f tbgauge.obj
 0001:00016374       __nep?FUpdate@TBCGA@@UAAHPAU_msoctlenv@@HHPAH@Z 10017374 f tbgauge.obj
 0001:0001637c       __fh?FUpdate@TBCGA@@UAAHPAU_msoctlenv@@HHPAH@Z 1001737c f tbgauge.obj
 0001:0001637f       ?FUpdate@TBCGA@@UAAHPAU_msoctlenv@@HHPAH@Z 1001737f f tbgauge.obj
 0001:000163f4       __pcd_tbl?FUpdate@TBCMC@@UAAHPAU_msoctlenv@@HHPAH@Z 100173f4 f tbmenctl.obj
 0001:000163f8       __nep?FUpdate@TBCMC@@UAAHPAU_msoctlenv@@HHPAH@Z 100173f8 f tbmenctl.obj
 0001:00016400       __fh?FUpdate@TBCMC@@UAAHPAU_msoctlenv@@HHPAH@Z 10017400 f tbmenctl.obj
 0001:00016402       ?FUpdate@TBCMC@@UAAHPAU_msoctlenv@@HHPAH@Z 10017402 f tbmenctl.obj
 0001:000164d0       ?FUpdate@TBS@@UAAHH@Z      100174d0 f tbs.obj
 0001:00016d48       __pcd_tbl?CompTbR@@YAHPAPAVTB@@0@Z 10017d48 f tbs.obj
 0001:00016d4c       __nep?CompTbR@@YAHPAPAVTB@@0@Z 10017d4c f tbs.obj
 0001:00016d54       __fh?CompTbR@@YAHPAPAVTB@@0@Z 10017d54 f tbs.obj
 0001:00016d56       ?CompTbR@@YAHPAPAVTB@@0@Z  10017d56 f tbs.obj
 0001:00016d5c       __pcd_tbl?FFindCustomizeTb@TBS@@QAAHHPBGPAPAUIMsoToolbar@@@Z 10017d5c f tbs.obj
 0001:00016d64       __nep?FFindCustomizeTb@TBS@@QAAHHPBGPAPAUIMsoToolbar@@@Z 10017d64 f tbs.obj
 0001:00016d6c       __fh?FFindCustomizeTb@TBS@@QAAHHPBGPAPAUIMsoToolbar@@@Z 10017d6c f tbs.obj
 0001:00016d6f       ?FFindCustomizeTb@TBS@@QAAHHPBGPAPAUIMsoToolbar@@@Z 10017d6f f tbs.obj
 0001:00016dd8       _MsoWzToWtz                10017dd8 f kjstr.obj
 0001:00016e94       _MsoPvShAllocCore          10017e94 f kjalloc.obj
 0001:00016f18       ?PvShAlloc@KJShMemory@@UAAPAXHHK@Z 10017f18 f shmem.obj
 0001:0001716c       ?PvGetTaggedMem@@YAPAXHK@Z 1001816c f kjalloc.obj
 0001:0001722c       _MsoFSharedIsInitialized   1001822c f kjalloc.obj
 0001:0001729c       _MsoSharedSetInitialized   1001829c f kjalloc.obj
 0001:00017308       __pcd_tbl_CreateWindowRegExA 10018308 f util.obj
 0001:00017310       __nep_CreateWindowRegExA   10018310 f util.obj
 0001:00017318       __fh_CreateWindowRegExA    10018318 f util.obj
 0001:0001731a       _CreateWindowRegExA        1001831a f util.obj
 0001:00017360       ?PsmahGetTagShMem@@YAPAUMSOSMAH@@PAUmsohb@@K@Z 10018360 f kjalloc.obj
 0001:00017434       ?FIsFreeBlock@@YAHPAUmsohb@@PAX@Z 10018434 f kjalloc.obj
 0001:000174c0       _MsoWtzToSz                100184c0 f kjstr.obj
 0001:00017524       _MsoFResizePx              10018524 f kjplex.obj
 0001:000177c0       _MsoFreePv                 100187c0 f kjalloc.obj
 0001:00017818       _WlmDllMain                10018818 f wlmconn.obj
 0001:0001794c       __pcd_tbl?CompIntThreadAttach@@YAXK@Z 1001894c f ci.obj
 0001:0001795c       __nep?CompIntThreadAttach@@YAXK@Z 1001895c f ci.obj
 0001:00017964       __fh?CompIntThreadAttach@@YAXK@Z 10018964 f ci.obj
 0001:00017966       ?CompIntThreadAttach@@YAXK@Z 10018966 f ci.obj
 0001:0001798c       __pcd_tbl?InitTBCaches@@YAXXZ 1001898c f tbutil.obj
 0001:0001798c       __nep?InitTBCaches@@YAXXZ  1001898c f tbutil.obj
 0001:00017994       __fh?InitTBCaches@@YAXXZ   10018994 f tbutil.obj
 0001:00017996       ?InitTBCaches@@YAXXZ       10018996 f tbutil.obj
 0001:000179a0       __pcd_tbl?FLockNstbShrGlobals@@YAHPAPAUNSTB@@@Z 100189a0 f shmem.obj
 0001:000179ac       __nep?FLockNstbShrGlobals@@YAHPAPAUNSTB@@@Z 100189ac f shmem.obj
 0001:000179b4       __fh?FLockNstbShrGlobals@@YAHPAPAUNSTB@@@Z 100189b4 f shmem.obj
 0001:000179b6       ?FLockNstbShrGlobals@@YAHPAPAUNSTB@@@Z 100189b6 f shmem.obj
 0001:000179d0       __pcd_tbl?UnlockNstbShrGlobals@@YAXPAPAUNSTB@@@Z 100189d0 f shmem.obj
 0001:000179d4       __nep?UnlockNstbShrGlobals@@YAXPAPAUNSTB@@@Z 100189d4 f shmem.obj
 0001:000179dc       __fh?UnlockNstbShrGlobals@@YAXPAPAUNSTB@@@Z 100189dc f shmem.obj
 0001:000179de       ?UnlockNstbShrGlobals@@YAXPAPAUNSTB@@@Z 100189de f shmem.obj
 0001:000179e8       __pcd_tbl?Release@SCM_MsoCompMgr@@UAAKXZ 100189e8 f cistdmgr.obj
 0001:000179e8       __nep?Release@SCM_MsoCompMgr@@UAAKXZ 100189e8 f cistdmgr.obj
 0001:000179f0       __fh?Release@SCM_MsoCompMgr@@UAAKXZ 100189f0 f cistdmgr.obj
 0001:000179f2       ?Release@SCM_MsoCompMgr@@UAAKXZ 100189f2 f cistdmgr.obj
 0001:00017a00       ?SetVisible@TBS@@UAAXH@Z   10018a00 f tbs.obj
 0001:000180b0       _MsoFLookupPx              100190b0 f kjplex.obj
 0001:00018200       _MsoWideCharToMultiByte    10019200 f kjstr.obj
 0001:00018c34       _MsoLoadPstt               10019c34 f kjstr.obj
 0001:00018d10       _MsoSzMarkWz               10019d10 f kjstr.obj
 0001:00018de0       _MsoWchToUpperLid          10019de0 f kjstr.obj
 0001:00018e94       _MsoWchToUpperInvariant    10019e94 f kjstr.obj
 0001:00018fd8       ?POLDocBaseGet@CMsoOLDocBaseImpIOLDoc2@@UBAPAVCMsoOLDocBase@@XZ 10019fd8 f dmuOLDoc.obj
 0001:00019008       ?Release@CMsoOLDocBase@@UAAKXZ 1001a008 f dmuOLDoc.obj
 0001:00019078       ?BeginCmd@CMsoOLDocBaseImpIOLDoc2@@UAAJKPAPAUIMsoOLDocument@@@Z 1001a078 f dmuOLDoc.obj
 0001:000194dc       ?AttrGet@CMsoOLDocBaseImpIOLDoc2@@UBAKXZ 1001a4dc f dmuOLDoc.obj
 0001:00019544       _MsoIAppendNewPx           1001a544 f kjplex.obj
 0001:000195f8       _MsoWzCopy                 1001a5f8 f kjstr.obj
 0001:00019660       _MsoPvAllocCore            1001a660 f kjalloc.obj
 0001:000196fc       _MsoFWzEqual               1001a6fc f kjstr.obj
 0001:00019788       ?GetSortkey@@YAXGPAUsortkey_s@@@Z 1001a788 f kjstr.obj
 0001:00019d4c       _MsoRgchToRgwch            1001ad4c f kjstr.obj
 0001:00019dbc       __pcd_tbl?CchQueryProfileString@SET@@UAAHPBG00PAGHH@Z 1001adbc f util.obj
 0001:00019df0       __nep?CchQueryProfileString@SET@@UAAHPBG00PAGHH@Z 1001adf0 f util.obj
 0001:00019df8       __fh?CchQueryProfileString@SET@@UAAHPBG00PAGHH@Z 1001adf8 f util.obj
 0001:00019dfb       ?CchQueryProfileString@SET@@UAAHPBG00PAGHH@Z 1001adfb f util.obj
 0001:00019edc       __pcd_tbl?FHwndRecreate@TBCDD@@UAAHPAUHWND__@@@Z 1001aedc f tbdropdn.obj
 0001:00019f00       __nep?FHwndRecreate@TBCDD@@UAAHPAUHWND__@@@Z 1001af00 f tbdropdn.obj
 0001:00019f08       __fh?FHwndRecreate@TBCDD@@UAAHPAUHWND__@@@Z 1001af08 f tbdropdn.obj
 0001:00019f0a       ?FHwndRecreate@TBCDD@@UAAHPAUHWND__@@@Z 1001af0a f tbdropdn.obj
 0001:00019f80       __pcd_tbl_MsoPlaySound     1001af80 f sound.obj
 0001:00019f90       __nep_MsoPlaySound         1001af90 f sound.obj
 0001:00019f98       __fh_MsoPlaySound          1001af98 f sound.obj
 0001:00019f9a       _MsoPlaySound              1001af9a f sound.obj
 0001:00019fe0       __pcd_tbl?DrawBorder@TB@@IAAXPAUHDC__@@@Z 1001afe0 f tb.obj
 0001:00019fe8       __nep?DrawBorder@TB@@IAAXPAUHDC__@@@Z 1001afe8 f tb.obj
 0001:00019ff0       __fh?DrawBorder@TB@@IAAXPAUHDC__@@@Z 1001aff0 f tb.obj
 0001:00019ff2       ?DrawBorder@TB@@IAAXPAUHDC__@@@Z 1001aff2 f tb.obj
 0001:0001a03c       __pcd_tbl_MsoDrawOneBorder 1001b03c f tbutil.obj
 0001:0001a044       __nep_MsoDrawOneBorder     1001b044 f tbutil.obj
 0001:0001a04c       __fh_MsoDrawOneBorder      1001b04c f tbutil.obj
 0001:0001a04e       _MsoDrawOneBorder          1001b04e f tbutil.obj
 0001:0001a094       __pcd_tbl?DrawDockHandle@TB@@IAAXPAUHDC__@@PAUtagRECT@@@Z 1001b094 f tb.obj
 0001:0001a0b8       __nep?DrawDockHandle@TB@@IAAXPAUHDC__@@PAUtagRECT@@@Z 1001b0b8 f tb.obj
 0001:0001a0c0       __fh?DrawDockHandle@TB@@IAAXPAUHDC__@@PAUtagRECT@@@Z 1001b0c0 f tb.obj
 0001:0001a0c2       ?DrawDockHandle@TB@@IAAXPAUHDC__@@PAUtagRECT@@@Z 1001b0c2 f tb.obj
 0001:0001a15c       __pcd_tbl?MsoColorPatBlt@@YAXPAUHDC__@@HHHHK@Z 1001b15c f tbutil.obj
 0001:0001a168       __nep?MsoColorPatBlt@@YAXPAUHDC__@@HHHHK@Z 1001b168 f tbutil.obj
 0001:0001a170       __fh?MsoColorPatBlt@@YAXPAUHDC__@@HHHHK@Z 1001b170 f tbutil.obj
 0001:0001a172       ?MsoColorPatBlt@@YAXPAUHDC__@@HHHHK@Z 1001b172 f tbutil.obj
 0001:0001a190       __pcd_tbl?FGetFinalIconSize@@YAHPAU_msoctlenv@@HPAUtagRECT@@@Z 1001b190 f tbbtn.obj
 0001:0001a190       __nep?FGetFinalIconSize@@YAHPAU_msoctlenv@@HPAUtagRECT@@@Z 1001b190 f tbbtn.obj
 0001:0001a198       __fh?FGetFinalIconSize@@YAHPAU_msoctlenv@@HPAUtagRECT@@@Z 1001b198 f tbbtn.obj
 0001:0001a19a       ?FGetFinalIconSize@@YAHPAU_msoctlenv@@HPAUtagRECT@@@Z 1001b19a f tbbtn.obj
 0001:0001a214       __pcd_tbl?DrawSplitArrow@@YAXPAU_msoctlenv@@H@Z 1001b214 f tbbtn.obj
 0001:0001a228       __nep?DrawSplitArrow@@YAXPAU_msoctlenv@@H@Z 1001b228 f tbbtn.obj
 0001:0001a230       __fh?DrawSplitArrow@@YAXPAU_msoctlenv@@H@Z 1001b230 f tbbtn.obj
 0001:0001a232       ?DrawSplitArrow@@YAXPAU_msoctlenv@@H@Z 1001b232 f tbbtn.obj
 0001:0001a2f4       ?FDrawBStripAsDisabledButton@@YAHPAUHDC__@@PAUtagRECT@@PAUBSTRIP@@HH@Z 1001b2f4 f kjres.obj
 0001:0001a6b4       __pcd_tbl_MsoFGetSubBitmap 1001b6b4 f kjres.obj
 0001:0001a6dc       __nep_MsoFGetSubBitmap     1001b6dc f kjres.obj
 0001:0001a6e4       __fh_MsoFGetSubBitmap      1001b6e4 f kjres.obj
 0001:0001a6e7       _MsoFGetSubBitmap          1001b6e7 f kjres.obj
 0001:0001a870       ?CbGetDibSize@@YAHPBUtagBITMAPINFO@@@Z 1001b870 f kjres.obj
 0001:0001a988       __pcd_tbl?DrawControl@TBCG@@MAAXPAU_msoctlenv@@H@Z 1001b988 f tbgrid.obj
 0001:0001a998       __nep?DrawControl@TBCG@@MAAXPAU_msoctlenv@@H@Z 1001b998 f tbgrid.obj
 0001:0001a9a0       __fh?DrawControl@TBCG@@MAAXPAU_msoctlenv@@H@Z 1001b9a0 f tbgrid.obj
 0001:0001a9a3       ?DrawControl@TBCG@@MAAXPAU_msoctlenv@@H@Z 1001b9a3 f tbgrid.obj
 0001:0001aadc       __pcd_tbl_MsoFWndProcNeeded 1001badc f tbclass.obj
 0001:0001aae0       __nep_MsoFWndProcNeeded    1001bae0 f tbclass.obj
 0001:0001aae8       __fh_MsoFWndProcNeeded     1001bae8 f tbclass.obj
 0001:0001aaea       _MsoFWndProcNeeded         1001baea f tbclass.obj
 0001:0001aaf8       __pcd_tbl?GetArrowMetrics@@YAXPAUtagRECT@@@Z 1001baf8 f tbutil.obj
 0001:0001aafc       __nep?GetArrowMetrics@@YAXPAUtagRECT@@@Z 1001bafc f tbutil.obj
 0001:0001ab04       __fh?GetArrowMetrics@@YAXPAUtagRECT@@@Z 1001bb04 f tbutil.obj
 0001:0001ab06       ?GetArrowMetrics@@YAXPAUtagRECT@@@Z 1001bb06 f tbutil.obj
 0001:0001ab20       __pcd_tbl?GetOrientedFontHeight@@YAHHH@Z 1001bb20 f tbutil.obj
 0001:0001ab24       __nep?GetOrientedFontHeight@@YAHHH@Z 1001bb24 f tbutil.obj
 0001:0001ab2c       __fh?GetOrientedFontHeight@@YAHHH@Z 1001bb2c f tbutil.obj
 0001:0001ab2e       ?GetOrientedFontHeight@@YAHHH@Z 1001bb2e f tbutil.obj
 0001:0001ab44       __pcd_tbl?GetOrientedFontMetrics@@YAXHHPAU_fontcache@@@Z 1001bb44 f tbutil.obj
 0001:0001ab60       __nep?GetOrientedFontMetrics@@YAXHHPAU_fontcache@@@Z 1001bb60 f tbutil.obj
 0001:0001ab68       __fh?GetOrientedFontMetrics@@YAXHHPAU_fontcache@@@Z 1001bb68 f tbutil.obj
 0001:0001ab6a       ?GetOrientedFontMetrics@@YAXHHPAU_fontcache@@@Z 1001bb6a f tbutil.obj
 0001:0001abc0       __nep?FLabelDisplayed@TBCB@@UAAHPAU_msoceo@@@Z 1001bbc0 f tbbtn.obj
 0001:0001abc0       __pcd_tbl?FLabelDisplayed@TBCB@@UAAHPAU_msoceo@@@Z 1001bbc0 f tbbtn.obj
 0001:0001abc8       __fh?FLabelDisplayed@TBCB@@UAAHPAU_msoceo@@@Z 1001bbc8 f tbbtn.obj
 0001:0001abca       ?FLabelDisplayed@TBCB@@UAAHPAU_msoceo@@@Z 1001bbca f tbbtn.obj
 0001:0001abe0       __pcd_tbl?FEnabled@TBCB@@UAAHXZ 1001bbe0 f tbbtn.obj
 0001:0001abe4       __nep?FEnabled@TBCB@@UAAHXZ 1001bbe4 f tbbtn.obj
 0001:0001abec       __fh?FEnabled@TBCB@@UAAHXZ 1001bbec f tbbtn.obj
 0001:0001abee       ?FEnabled@TBCB@@UAAHXZ     1001bbee f tbbtn.obj
 0001:0001ac18       __pcd_tbl?FLabelDisplayed@TBCDD@@UAAHPAU_msoceo@@@Z 1001bc18 f tbdropdn.obj
 0001:0001ac18       __nep?FLabelDisplayed@TBCDD@@UAAHPAU_msoceo@@@Z 1001bc18 f tbdropdn.obj
 0001:0001ac20       __fh?FLabelDisplayed@TBCDD@@UAAHPAU_msoceo@@@Z 1001bc20 f tbdropdn.obj
 0001:0001ac22       ?FLabelDisplayed@TBCDD@@UAAHPAU_msoceo@@@Z 1001bc22 f tbdropdn.obj
 0001:0001ac30       __pcd_tbl?PtbParent@TB@@QAAPAV1@XZ 1001bc30 f tb.obj
 0001:0001ac34       __nep?PtbParent@TB@@QAAPAV1@XZ 1001bc34 f tb.obj
 0001:0001ac3c       __fh?PtbParent@TB@@QAAPAV1@XZ 1001bc3c f tb.obj
 0001:0001ac3e       ?PtbParent@TB@@QAAPAV1@XZ  1001bc3e f tb.obj
 0001:0001ac54       __nep?FIsLive@TB@@QAAHXZ   1001bc54 f tb.obj
 0001:0001ac54       __pcd_tbl?FIsLive@TB@@QAAHXZ 1001bc54 f tb.obj
 0001:0001ac5c       __fh?FIsLive@TB@@QAAHXZ    1001bc5c f tb.obj
 0001:0001ac5e       ?FIsLive@TB@@QAAHXZ        1001bc5e f tb.obj
 0001:0001ac78       __pcd_tbl?FWindowVisible@TB@@QAAHXZ 1001bc78 f tb.obj
 0001:0001ac80       __nep?FWindowVisible@TB@@QAAHXZ 1001bc80 f tb.obj
 0001:0001ac88       __fh?FWindowVisible@TB@@QAAHXZ 1001bc88 f tb.obj
 0001:0001ac8a       ?FWindowVisible@TB@@QAAHXZ 1001bc8a f tb.obj
 0001:0001ace8       __nep?TctGet@TBCGA@@UAAHXZ 1001bce8 f tbgauge.obj
 0001:0001ace8       __pcd_tbl?TctGet@TBCGA@@UAAHXZ 1001bce8 f tbgauge.obj
 0001:0001acf0       __fh?TctGet@TBCGA@@UAAHXZ  1001bcf0 f tbgauge.obj
 0001:0001acf2       ?TctGet@TBCGA@@UAAHXZ      1001bcf2 f tbgauge.obj
 0001:0001acf8       __pcd_tbl?TctGet@TBCODD@@UAAHXZ 1001bcf8 f tbdropdn.obj
 0001:0001acf8       __nep?TctGet@TBCODD@@UAAHXZ 1001bcf8 f tbdropdn.obj
 0001:0001ad00       __fh?TctGet@TBCODD@@UAAHXZ 1001bd00 f tbdropdn.obj
 0001:0001ad02       ?TctGet@TBCODD@@UAAHXZ     1001bd02 f tbdropdn.obj
 0001:0001ad18       __pcd_tbl?DrawToolbar@TB@@IAAXPAUHDC__@@PAUtagRECT@@@Z 1001bd18 f tb.obj
 0001:0001ad48       __nep?DrawToolbar@TB@@IAAXPAUHDC__@@PAUtagRECT@@@Z 1001bd48 f tb.obj
 0001:0001ad50       __fh?DrawToolbar@TB@@IAAXPAUHDC__@@PAUtagRECT@@@Z 1001bd50 f tb.obj
 0001:0001ad53       ?DrawToolbar@TB@@IAAXPAUHDC__@@PAUtagRECT@@@Z 1001bd53 f tb.obj
 0001:0001afd0       __nep?CrTbBkgd@@YAKPAU_msoceo@@@Z 1001bfd0 f tbutil.obj
 0001:0001afd0       __pcd_tbl?CrTbBkgd@@YAKPAU_msoceo@@@Z 1001bfd0 f tbutil.obj
 0001:0001afd8       __fh?CrTbBkgd@@YAKPAU_msoceo@@@Z 1001bfd8 f tbutil.obj
 0001:0001afda       ?CrTbBkgd@@YAKPAU_msoceo@@@Z 1001bfda f tbutil.obj
 0001:0001afec       __pcd_tbl_MsoColorFillRect 1001bfec f tbutil.obj
 0001:0001aff8       __nep_MsoColorFillRect     1001bff8 f tbutil.obj
 0001:0001b000       __fh_MsoColorFillRect      1001c000 f tbutil.obj
 0001:0001b002       _MsoColorFillRect          1001c002 f tbutil.obj
 0001:0001b014       __pcd_tbl?FDraw@TBCB@@UAAHPAU_msoctlenv@@@Z 1001c014 f tbbtn.obj
 0001:0001b018       __nep?FDraw@TBCB@@UAAHPAU_msoctlenv@@@Z 1001c018 f tbbtn.obj
 0001:0001b020       __fh?FDraw@TBCB@@UAAHPAU_msoctlenv@@@Z 1001c020 f tbbtn.obj
 0001:0001b022       ?FDraw@TBCB@@UAAHPAU_msoctlenv@@@Z 1001c022 f tbbtn.obj
 0001:0001b028       __pcd_tbl?FDrawInternal@TBCB@@QAAHPAU_msoctlenv@@H@Z 1001c028 f tbbtn.obj
 0001:0001b030       __nep?FDrawInternal@TBCB@@QAAHPAU_msoctlenv@@H@Z 1001c030 f tbbtn.obj
 0001:0001b038       __fh?FDrawInternal@TBCB@@QAAHPAU_msoctlenv@@H@Z 1001c038 f tbbtn.obj
 0001:0001b03a       ?FDrawInternal@TBCB@@QAAHPAU_msoctlenv@@H@Z 1001c03a f tbbtn.obj
 0001:0001b10c       __pcd_tbl?DrawControl@TBCB@@MAAXPAU_msoctlenv@@H@Z 1001c10c f tbbtn.obj
 0001:0001b158       __nep?DrawControl@TBCB@@MAAXPAU_msoctlenv@@H@Z 1001c158 f tbbtn.obj
 0001:0001b160       __fh?DrawControl@TBCB@@MAAXPAU_msoctlenv@@H@Z 1001c160 f tbbtn.obj
 0001:0001b163       ?DrawControl@TBCB@@MAAXPAU_msoctlenv@@H@Z 1001c163 f tbbtn.obj
 0001:0001b4e8       __pcd_tbl_DrawButtonEx     1001c4e8 f tbbtn.obj
 0001:0001b538       __nep_DrawButtonEx         1001c538 f tbbtn.obj
 0001:0001b540       __fh_DrawButtonEx          1001c540 f tbbtn.obj
 0001:0001b543       _DrawButtonEx              1001c543 f tbbtn.obj
 0001:0001bb68       __pcd_tbl?DrawButtonFrame@@YAXPAUHDC__@@PAU_msoceo@@PAUtagRECT@@H@Z 1001cb68 f tbbtn.obj
 0001:0001bb98       __nep?DrawButtonFrame@@YAXPAUHDC__@@PAU_msoceo@@PAUtagRECT@@H@Z 1001cb98 f tbbtn.obj
 0001:0001bba0       __fh?DrawButtonFrame@@YAXPAUHDC__@@PAU_msoceo@@PAUtagRECT@@H@Z 1001cba0 f tbbtn.obj
 0001:0001bba3       ?DrawButtonFrame@@YAXPAUHDC__@@PAU_msoceo@@PAUtagRECT@@H@Z 1001cba3 f tbbtn.obj
 0001:0001bd10       __pcd_tbl_FDrawFinalIconEx 1001cd10 f tbbtn.obj
 0001:0001bd30       __nep_FDrawFinalIconEx     1001cd30 f tbbtn.obj
 0001:0001bd38       __fh_FDrawFinalIconEx      1001cd38 f tbbtn.obj
 0001:0001bd3a       _FDrawFinalIconEx          1001cd3a f tbbtn.obj
 0001:0001bed0       __pcd_tbl_FFindBtnFaceLocal 1001ced0 f tbbtn.obj
 0001:0001bed4       __nep_FFindBtnFaceLocal    1001ced4 f tbbtn.obj
 0001:0001bedc       __fh_FFindBtnFaceLocal     1001cedc f tbbtn.obj
 0001:0001bede       _FFindBtnFaceLocal         1001cede f tbbtn.obj
 0001:0001bf00       __nep_MsoFGetInfoBStrip    1001cf00 f kjres.obj
 0001:0001bf00       __pcd_tbl_MsoFGetInfoBStrip 1001cf00 f kjres.obj
 0001:0001bf08       __fh_MsoFGetInfoBStrip     1001cf08 f kjres.obj
 0001:0001bf0a       _MsoFGetInfoBStrip         1001cf0a f kjres.obj
 0001:0001bf28       _MsoFDrawBStrip            1001cf28 f kjres.obj
 0001:0001bf9c       _MsoFStretchBStrip         1001cf9c f kjres.obj
 0001:0001c38c       __pcd_tbl_ChangeColors     1001d38c f sdmdrawm.obj
 0001:0001c38c       __nep_ChangeColors         1001d38c f sdmdrawm.obj
 0001:0001c394       __fh_ChangeColors          1001d394 f sdmdrawm.obj
 0001:0001c396       _ChangeColors              1001d396 f sdmdrawm.obj
 0001:0001c398       ?PvFindDIBits@@YAPBXPBUtagBITMAPINFO@@@Z 1001d398 f kjres.obj
 0001:0001c454       __nep?FDraw@TBCM@@UAAHPAU_msoctlenv@@@Z 1001d454 f tbmenu.obj
 0001:0001c454       __pcd_tbl?FDraw@TBCM@@UAAHPAU_msoctlenv@@@Z 1001d454 f tbmenu.obj
 0001:0001c45c       __fh?FDraw@TBCM@@UAAHPAU_msoctlenv@@@Z 1001d45c f tbmenu.obj
 0001:0001c45e       ?FDraw@TBCM@@UAAHPAU_msoctlenv@@@Z 1001d45e f tbmenu.obj
 0001:0001c470       __nep?FReadyToDrop@TBCM@@IAAHH@Z 1001d470 f tbmenu.obj
 0001:0001c470       __pcd_tbl?FReadyToDrop@TBCM@@IAAHH@Z 1001d470 f tbmenu.obj
 0001:0001c478       __fh?FReadyToDrop@TBCM@@IAAHH@Z 1001d478 f tbmenu.obj
 0001:0001c47a       ?FReadyToDrop@TBCM@@IAAHH@Z 1001d47a f tbmenu.obj
 0001:0001c48c       __pcd_tbl?GetOrientedArrowHeight@@YAHPBU_msoceo@@H@Z 1001d48c f tbutil.obj
 0001:0001c490       __nep?GetOrientedArrowHeight@@YAHPBU_msoceo@@H@Z 1001d490 f tbutil.obj
 0001:0001c498       __fh?GetOrientedArrowHeight@@YAHPBU_msoceo@@H@Z 1001d498 f tbutil.obj
 0001:0001c49a       ?GetOrientedArrowHeight@@YAHPBU_msoceo@@H@Z 1001d49a f tbutil.obj
 0001:0001c4c8       __pcd_tbl?DrawTransparentBitmap@@YAXPAUHDC__@@PAUtagRECT@@PAUHBITMAP__@@HHH@Z 1001d4c8 f tbbtn.obj
 0001:0001c4cc       __nep?DrawTransparentBitmap@@YAXPAUHDC__@@PAUtagRECT@@PAUHBITMAP__@@HHH@Z 1001d4cc f tbbtn.obj
 0001:0001c4d4       __fh?DrawTransparentBitmap@@YAXPAUHDC__@@PAUtagRECT@@PAUHBITMAP__@@HHH@Z 1001d4d4 f tbbtn.obj
 0001:0001c4d6       ?DrawTransparentBitmap@@YAXPAUHDC__@@PAUtagRECT@@PAUHBITMAP__@@HHH@Z 1001d4d6 f tbbtn.obj
 0001:0001c4fc       __pcd_tbl?DrawOrientedText@@YAXPAU_msoctlenv@@PAUtagRECT@@PAGKHH@Z 1001d4fc f tbctrl.obj
 0001:0001c548       __nep?DrawOrientedText@@YAXPAU_msoctlenv@@PAUtagRECT@@PAGKHH@Z 1001d548 f tbctrl.obj
 0001:0001c550       __fh?DrawOrientedText@@YAXPAU_msoctlenv@@PAUtagRECT@@PAGKHH@Z 1001d550 f tbctrl.obj
 0001:0001c553       ?DrawOrientedText@@YAXPAU_msoctlenv@@PAUtagRECT@@PAGKHH@Z 1001d553 f tbctrl.obj
 0001:0001c6d8       __pcd_tbl_MsoFLoadBStrip   1001d6d8 f kjres.obj
 0001:0001c6dc       __nep_MsoFLoadBStrip       1001d6dc f kjres.obj
 0001:0001c6e4       __fh_MsoFLoadBStrip        1001d6e4 f kjres.obj
 0001:0001c6e6       _MsoFLoadBStrip            1001d6e6 f kjres.obj
 0001:0001c6f0       _MsoFLoadBStripEx          1001d6f0 f kjres.obj
 0001:0001ca08       ?FLoadXBitMap@@YAHPAU_cbh@@PAUtagBITMAPINFO@@@Z 1001da08 f kjres.obj
 0001:0001cd58       ?FFillInHBitmap@@YAHPAUtagBITMAPINFO@@HHHHPAUBSTRIP@@@Z 1001dd58 f kjres.obj
 0001:0001cecc       __pcd_tbl?FVisible@TBS@@UAAHXZ 1001decc f tbs.obj
 0001:0001cecc       __nep?FVisible@TBS@@UAAHXZ 1001decc f tbs.obj
 0001:0001ced4       __fh?FVisible@TBS@@UAAHXZ  1001ded4 f tbs.obj
 0001:0001ced6       ?FVisible@TBS@@UAAHXZ      1001ded6 f tbs.obj
 0001:0001ceec       __pcd_tbl_FDoAmbientAnimTFC 1001deec f fc.obj
 0001:0001cef4       __nep_FDoAmbientAnimTFC    1001def4 f fc.obj
 0001:0001cefc       __fh_FDoAmbientAnimTFC     1001defc f fc.obj
 0001:0001cefe       _FDoAmbientAnimTFC         1001defe f fc.obj
 0001:0001cf60       ?GetDgShareName@@YAXPADH@Z 1001df60 f kjalloc.obj
 0001:0001cfe0       _MsoSzCopy                 1001dfe0 f kjstr.obj
 0001:0001d05c       _MsoSzDecodeUint           1001e05c f kjstr.obj
 0001:0001d104       ?PchDecodeUint@@YAPADPADIH@Z 1001e104 f kjstr.obj
 0001:0001d1ac       __pcd_tbl?SmcInit@MSOSM@@QAAHHPBDHHH@Z 1001e1ac f shmem.obj
 0001:0001d1cc       __nep?SmcInit@MSOSM@@QAAHHPBDHHH@Z 1001e1cc f shmem.obj
 0001:0001d1d4       __fh?SmcInit@MSOSM@@QAAHHPBDHHH@Z 1001e1d4 f shmem.obj
 0001:0001d1d6       ?SmcInit@MSOSM@@QAAHHPBDHHH@Z 1001e1d6 f shmem.obj
 0001:0001d284       __pcd_tbl_MsoFCreateControl 1001e284 f tbctrl.obj
 0001:0001d288       __nep_MsoFCreateControl    1001e288 f tbctrl.obj
 0001:0001d290       __fh_MsoFCreateControl     1001e290 f tbctrl.obj
 0001:0001d292       _MsoFCreateControl         1001e292 f tbctrl.obj
 0001:0001d2cc       __pcd_tbl?FNewControl@@YAHPAUMSOINST@@HHHHPAPAVTBC@@@Z 1001e2cc f tbctrl.obj
 0001:0001d304       __nep?FNewControl@@YAHPAUMSOINST@@HHHHPAPAVTBC@@@Z 1001e304 f tbctrl.obj
 0001:0001d30c       __fh?FNewControl@@YAHPAUMSOINST@@HHHHPAPAVTBC@@@Z 1001e30c f tbctrl.obj
 0001:0001d30f       ?FNewControl@@YAHPAUMSOINST@@HHHHPAPAVTBC@@@Z 1001e30f f tbctrl.obj
 0001:0001d518       __pcd_tbl?FInit@TBCB@@UAAHPAXPAUIMsoControlUser@@PAUIMsoControlSite@@@Z 1001e518 f tbbtn.obj
 0001:0001d518       __nep?FInit@TBCB@@UAAHPAXPAUIMsoControlUser@@PAUIMsoControlSite@@@Z 1001e518 f tbbtn.obj
 0001:0001d520       __fh?FInit@TBCB@@UAAHPAXPAUIMsoControlUser@@PAUIMsoControlSite@@@Z 1001e520 f tbbtn.obj
 0001:0001d522       ?FInit@TBCB@@UAAHPAXPAUIMsoControlUser@@PAUIMsoControlSite@@@Z 1001e522 f tbbtn.obj
 0001:0001d548       __pcd_tbl?FSetControls@TB@@UAAHHPAU_msotcr@@H@Z 1001e548 f tb.obj
 0001:0001d564       __nep?FSetControls@TB@@UAAHHPAU_msotcr@@H@Z 1001e564 f tb.obj
 0001:0001d56c       __fh?FSetControls@TB@@UAAHHPAU_msotcr@@H@Z 1001e56c f tb.obj
 0001:0001d56e       ?FSetControls@TB@@UAAHHPAU_msotcr@@H@Z 1001e56e f tb.obj
 0001:0001d5f0       __pcd_tbl?CopyTcrToCi@@YAXPAU_msotcr@@PAU_ctlinfo@@@Z 1001e5f0 f tb.obj
 0001:0001d5f4       __nep?CopyTcrToCi@@YAXPAU_msotcr@@PAU_ctlinfo@@@Z 1001e5f4 f tb.obj
 0001:0001d5fc       __fh?CopyTcrToCi@@YAXPAU_msotcr@@PAU_ctlinfo@@@Z 1001e5fc f tb.obj
 0001:0001d5fe       ?CopyTcrToCi@@YAXPAU_msotcr@@PAU_ctlinfo@@@Z 1001e5fe f tb.obj
 0001:0001d66c       __nep?FInitControls@TB@@AAAHXZ 1001e66c f tb.obj
 0001:0001d66c       __pcd_tbl?FInitControls@TB@@AAAHXZ 1001e66c f tb.obj
 0001:0001d674       __fh?FInitControls@TB@@AAAHXZ 1001e674 f tb.obj
 0001:0001d676       ?FInitControls@TB@@AAAHXZ  1001e676 f tb.obj
 0001:0001d6a8       __pcd_tbl?CControls@TB@@UAAHXZ 1001e6a8 f tb.obj
 0001:0001d6ac       __nep?CControls@TB@@UAAHXZ 1001e6ac f tb.obj
 0001:0001d6b4       __fh?CControls@TB@@UAAHXZ  1001e6b4 f tb.obj
 0001:0001d6b6       ?CControls@TB@@UAAHXZ      1001e6b6 f tb.obj
 0001:0001d6d0       __pcd_tbl?_FakeEditProc@@YAJPAUHWND__@@IIJ@Z 1001e6d0 f tbdropdn.obj
 0001:0001d71c       __nep?_FakeEditProc@@YAJPAUHWND__@@IIJ@Z 1001e71c f tbdropdn.obj
 0001:0001d724       __fh?_FakeEditProc@@YAJPAUHWND__@@IIJ@Z 1001e724 f tbdropdn.obj
 0001:0001d727       ?_FakeEditProc@@YAJPAUHWND__@@IIJ@Z 1001e727 f tbdropdn.obj
 0001:0001dbe4       __pcd_tbl?FDraw@TBCDD@@UAAHPAU_msoctlenv@@@Z 1001ebe4 f tbdropdn.obj
 0001:0001dc74       __nep?FDraw@TBCDD@@UAAHPAU_msoctlenv@@@Z 1001ec74 f tbdropdn.obj
 0001:0001dc7c       __fh?FDraw@TBCDD@@UAAHPAU_msoctlenv@@@Z 1001ec7c f tbdropdn.obj
 0001:0001dc7f       ?FDraw@TBCDD@@UAAHPAU_msoctlenv@@@Z 1001ec7f f tbdropdn.obj
 0001:0001e0d0       __pcd_tbl?GetDropdownRcs@TBCDD@@MAAXPAU_msoctlenv@@PAUtagRECT@@1@Z 1001f0d0 f tbdropdn.obj
 0001:0001e0d8       __nep?GetDropdownRcs@TBCDD@@MAAXPAU_msoctlenv@@PAUtagRECT@@1@Z 1001f0d8 f tbdropdn.obj
 0001:0001e0e0       __fh?GetDropdownRcs@TBCDD@@MAAXPAU_msoctlenv@@PAUtagRECT@@1@Z 1001f0e0 f tbdropdn.obj
 0001:0001e0e2       ?GetDropdownRcs@TBCDD@@MAAXPAU_msoctlenv@@PAUtagRECT@@1@Z 1001f0e2 f tbdropdn.obj
 0001:0001e15c       __nep_MsoPeekMessage       1001f15c f tbclass.obj
 0001:0001e15c       __pcd_tbl_MsoPeekMessage   1001f15c f tbclass.obj
 0001:0001e164       __fh_MsoPeekMessage        1001f164 f tbclass.obj
 0001:0001e166       _MsoPeekMessage            1001f166 f tbclass.obj
 0001:0001e170       __pcd_tbl__DoActivateAssist 1001f170 f fc.obj
 0001:0001e17c       __nep__DoActivateAssist    1001f17c f fc.obj
 0001:0001e184       __fh__DoActivateAssist     1001f184 f fc.obj
 0001:0001e186       __DoActivateAssist         1001f186 f fc.obj
 0001:0001e1a8       __pcd_tbl?FModal@TB@@QAAHXZ 1001f1a8 f tb.obj
 0001:0001e1b0       __nep?FModal@TB@@QAAHXZ    1001f1b0 f tb.obj
 0001:0001e1b8       __fh?FModal@TB@@QAAHXZ     1001f1b8 f tb.obj
 0001:0001e1ba       ?FModal@TB@@QAAHXZ         1001f1ba f tb.obj
 0001:0001e1ec       __pcd_tbl?FIsCustomizable@TB@@QAAHXZ 1001f1ec f tb.obj
 0001:0001e1f0       __nep?FIsCustomizable@TB@@QAAHXZ 1001f1f0 f tb.obj
 0001:0001e1f8       __fh?FIsCustomizable@TB@@QAAHXZ 1001f1f8 f tb.obj
 0001:0001e1fa       ?FIsCustomizable@TB@@QAAHXZ 1001f1fa f tb.obj
 0001:0001e218       __nep?FIsTbCustomizable@TBS@@QAAHPAVTB@@@Z 1001f218 f tbs.obj
 0001:0001e218       __pcd_tbl?FIsTbCustomizable@TBS@@QAAHPAVTB@@@Z 1001f218 f tbs.obj
 0001:0001e220       __fh?FIsTbCustomizable@TBS@@QAAHPAVTB@@@Z 1001f220 f tbs.obj
 0001:0001e222       ?FIsTbCustomizable@TBS@@QAAHPAVTB@@@Z 1001f222 f tbs.obj
 0001:0001e270       __pcd_tbl?FHideTb@TB@@QAAHXZ 1001f270 f tb.obj
 0001:0001e310       __nep?FHideTb@TB@@QAAHXZ   1001f310 f tb.obj
 0001:0001e318       __fh?FHideTb@TB@@QAAHXZ    1001f318 f tb.obj
 0001:0001e31b       ?FHideTb@TB@@QAAHXZ        1001f31b f tb.obj
 0001:0001e748       __pcd_tbl?ForceOffTimerIfParent@@YAXPAVTB@@@Z 1001f748 f tbmenu.obj
 0001:0001e750       __nep?ForceOffTimerIfParent@@YAXPAVTB@@@Z 1001f750 f tbmenu.obj
 0001:0001e758       __fh?ForceOffTimerIfParent@@YAXPAVTB@@@Z 1001f758 f tbmenu.obj
 0001:0001e75a       ?ForceOffTimerIfParent@@YAXPAVTB@@@Z 1001f75a f tbmenu.obj
 0001:0001e76c       __pcd_tbl?FRequestFocus@TB@@UAAHHI@Z 1001f76c f tb.obj
 0001:0001e7dc       __nep?FRequestFocus@TB@@UAAHHI@Z 1001f7dc f tb.obj
 0001:0001e7e4       __fh?FRequestFocus@TB@@UAAHHI@Z 1001f7e4 f tb.obj
 0001:0001e7e7       ?FRequestFocus@TB@@UAAHHI@Z 1001f7e7 f tb.obj
 0001:0001ec3c       __pcd_tbl?FActive@TB@@QAAHXZ 1001fc3c f tb.obj
 0001:0001ec44       __nep?FActive@TB@@QAAHXZ   1001fc44 f tb.obj
 0001:0001ec4c       __fh?FActive@TB@@QAAHXZ    1001fc4c f tb.obj
 0001:0001ec4e       ?FActive@TB@@QAAHXZ        1001fc4e f tb.obj
 0001:0001ecb0       __nep?FIsMenuBar@TB@@QAAHXZ 1001fcb0 f tb.obj
 0001:0001ecb0       __pcd_tbl?FIsMenuBar@TB@@QAAHXZ 1001fcb0 f tb.obj
 0001:0001ecb8       __fh?FIsMenuBar@TB@@QAAHXZ 1001fcb8 f tb.obj
 0001:0001ecba       ?FIsMenuBar@TB@@QAAHXZ     1001fcba f tb.obj
 0001:0001ecc8       __pcd_tbl?DelRefToAllCtlInTb@TB@@QAAXXZ 1001fcc8 f tb.obj
 0001:0001eccc       __nep?DelRefToAllCtlInTb@TB@@QAAXXZ 1001fccc f tb.obj
 0001:0001ecd4       __fh?DelRefToAllCtlInTb@TB@@QAAXXZ 1001fcd4 f tb.obj
 0001:0001ecd6       ?DelRefToAllCtlInTb@TB@@QAAXXZ 1001fcd6 f tb.obj
 0001:0001ed18       __pcd_tbl?DeleteRefToCtl@TB@@QAAXPAUIMsoControl@@@Z 1001fd18 f tb.obj
 0001:0001ed1c       __nep?DeleteRefToCtl@TB@@QAAXPAUIMsoControl@@@Z 1001fd1c f tb.obj
 0001:0001ed24       __fh?DeleteRefToCtl@TB@@QAAXPAUIMsoControl@@@Z 1001fd24 f tb.obj
 0001:0001ed26       ?DeleteRefToCtl@TB@@QAAXPAUIMsoControl@@@Z 1001fd26 f tb.obj
 0001:0001ed68       __pcd_tbl?FreeTbControls@TB@@QAAXXZ 1001fd68 f tb.obj
 0001:0001ed70       __nep?FreeTbControls@TB@@QAAXXZ 1001fd70 f tb.obj
 0001:0001ed78       __fh?FreeTbControls@TB@@QAAXXZ 1001fd78 f tb.obj
 0001:0001ed7a       ?FreeTbControls@TB@@QAAXXZ 1001fd7a f tb.obj
 0001:0001edf4       __pcd_tbl?Free@TBCB@@UAAXXZ 1001fdf4 f tbbtn.obj
 0001:0001ee00       __nep?Free@TBCB@@UAAXXZ    1001fe00 f tbbtn.obj
 0001:0001ee08       __fh?Free@TBCB@@UAAXXZ     1001fe08 f tbbtn.obj
 0001:0001ee0a       ?Free@TBCB@@UAAXXZ         1001fe0a f tbbtn.obj
 0001:0001ee44       __pcd_tbl?HinstGet@CTLSITE@@UAAPAPAUMSOINST@@XZ 1001fe44 f tb.obj
 0001:0001ee44       __nep?HinstGet@CTLSITE@@UAAPAPAUMSOINST@@XZ 1001fe44 f tb.obj
 0001:0001ee4c       __fh?HinstGet@CTLSITE@@UAAPAPAUMSOINST@@XZ 1001fe4c f tb.obj
 0001:0001ee4e       ?HinstGet@CTLSITE@@UAAPAPAUMSOINST@@XZ 1001fe4e f tb.obj
 0001:0001ee54       __pcd_tbl?InvalOAObjects@@YAXPAUMSOINST@@PAX@Z 1001fe54 f oautil.obj
 0001:0001ee54       __nep?InvalOAObjects@@YAXPAUMSOINST@@PAX@Z 1001fe54 f oautil.obj
 0001:0001ee5c       __fh?InvalOAObjects@@YAXPAUMSOINST@@PAX@Z 1001fe5c f oautil.obj
 0001:0001ee5e       ?InvalOAObjects@@YAXPAUMSOINST@@PAX@Z 1001fe5e f oautil.obj
 0001:0001ee74       __pcd_tbl?Delete@TBS@@UAAXXZ 1001fe74 f tbs.obj
 0001:0001ee78       __nep?Delete@TBS@@UAAXXZ   1001fe78 f tbs.obj
 0001:0001ee80       __fh?Delete@TBS@@UAAXXZ    1001fe80 f tbs.obj
 0001:0001ee82       ?Delete@TBS@@UAAXXZ        1001fe82 f tbs.obj
 0001:0001ef38       __pcd_tbl?FCustomize@TBS@@UAAHH@Z 1001ff38 f tbs.obj
 0001:0001ef44       __nep?FCustomize@TBS@@UAAHH@Z 1001ff44 f tbs.obj
 0001:0001ef4c       __fh?FCustomize@TBS@@UAAHH@Z 1001ff4c f tbs.obj
 0001:0001ef4e       ?FCustomize@TBS@@UAAHH@Z   1001ff4e f tbs.obj
 0001:0001ef9c       __pcd_tbl?FRemovePtb@TBS@@AAAHPAVTB@@@Z 1001ff9c f tbs.obj
 0001:0001efa4       __nep?FRemovePtb@TBS@@AAAHPAVTB@@@Z 1001ffa4 f tbs.obj
 0001:0001efac       __fh?FRemovePtb@TBS@@AAAHPAVTB@@@Z 1001ffac f tbs.obj
 0001:0001efae       ?FRemovePtb@TBS@@AAAHPAVTB@@@Z 1001ffae f tbs.obj
 0001:0001f06c       __pcd_tbl?PtbTopmostParent@TB@@QAAPAV1@XZ 1002006c f tb.obj
 0001:0001f070       __nep?PtbTopmostParent@TB@@QAAPAV1@XZ 10020070 f tb.obj
 0001:0001f078       __fh?PtbTopmostParent@TB@@QAAPAV1@XZ 10020078 f tb.obj
 0001:0001f07a       ?PtbTopmostParent@TB@@QAAPAV1@XZ 1002007a f tb.obj
 0001:0001f088       __pcd_tbl?DockTBRemove@TBS@@AAAXPAVTB@@HPAPAV2@H10@Z 10020088 f tbs.obj
 0001:0001f0a4       __nep?DockTBRemove@TBS@@AAAXPAVTB@@HPAPAV2@H10@Z 100200a4 f tbs.obj
 0001:0001f0ac       __fh?DockTBRemove@TBS@@AAAXPAVTB@@HPAPAV2@H10@Z 100200ac f tbs.obj
 0001:0001f0ae       ?DockTBRemove@TBS@@AAAXPAVTB@@HPAPAV2@H10@Z 100200ae f tbs.obj
 0001:0001f240       __pcd_tbl?PushRows@@YAXPAPAVTB@@HHHHH@Z 10020240 f tbs.obj
 0001:0001f244       __nep?PushRows@@YAXPAPAVTB@@HHHHH@Z 10020244 f tbs.obj
 0001:0001f24c       __fh?PushRows@@YAXPAPAVTB@@HHHHH@Z 1002024c f tbs.obj
 0001:0001f24e       ?PushRows@@YAXPAPAVTB@@HHHHH@Z 1002024e f tbs.obj
 0001:0001f2dc       __pcd_tbl?SetTBPos@TBS@@QAAXH@Z 100202dc f tbs.obj
 0001:0001f2f0       __nep?SetTBPos@TBS@@QAAXH@Z 100202f0 f tbs.obj
 0001:0001f2f8       __fh?SetTBPos@TBS@@QAAXH@Z 100202f8 f tbs.obj
 0001:0001f2fa       ?SetTBPos@TBS@@QAAXH@Z     100202fa f tbs.obj
 0001:0001f374       __pcd_tbl?FReleaseHwnd@TBS@@QAAHPAPAUHWND__@@@Z 10020374 f tbs.obj
 0001:0001f384       __nep?FReleaseHwnd@TBS@@QAAHPAPAUHWND__@@@Z 10020384 f tbs.obj
 0001:0001f38c       __fh?FReleaseHwnd@TBS@@QAAHPAPAUHWND__@@@Z 1002038c f tbs.obj
 0001:0001f38e       ?FReleaseHwnd@TBS@@QAAHPAPAUHWND__@@@Z 1002038e f tbs.obj
 0001:0001f41c       __pcd_tbl?Free@TBCDD@@UAAXXZ 1002041c f tbdropdn.obj
 0001:0001f420       __nep?Free@TBCDD@@UAAXXZ   10020420 f tbdropdn.obj
 0001:0001f428       __fh?Free@TBCDD@@UAAXXZ    10020428 f tbdropdn.obj
 0001:0001f42a       ?Free@TBCDD@@UAAXXZ        1002042a f tbdropdn.obj
 0001:0001f45c       __pcd_tbl?Free@TBCM@@UAAXXZ 1002045c f tbmenu.obj
 0001:0001f468       __nep?Free@TBCM@@UAAXXZ    10020468 f tbmenu.obj
 0001:0001f470       __fh?Free@TBCM@@UAAXXZ     10020470 f tbmenu.obj
 0001:0001f472       ?Free@TBCM@@UAAXXZ         10020472 f tbmenu.obj
 0001:0001f4a8       __pcd_tbl?NotifyDelete@TBMUBASE@@UAAXPAUIMsoControl@@PAPAX@Z 100204a8 f hl.obj
 0001:0001f4a8       __nep?NotifyDelete@TBMUBASE@@UAAXPAUIMsoControl@@PAPAX@Z 100204a8 f hl.obj
 0001:0001f4b0       __fh?NotifyDelete@TBMUBASE@@UAAXPAUIMsoControl@@PAPAX@Z 100204b0 f hl.obj
 0001:0001f4b2       ?NotifyDelete@TBMUBASE@@UAAXPAUIMsoControl@@PAPAX@Z 100204b2 f hl.obj
 0001:0001f4b4       __pcd_tbl?Delete@TBComponent@@UAAXXZ 100204b4 f tbcomp.obj
 0001:0001f4b4       __nep?Delete@TBComponent@@UAAXXZ 100204b4 f tbcomp.obj
 0001:0001f4bc       __fh?Delete@TBComponent@@UAAXXZ 100204bc f tbcomp.obj
 0001:0001f4be       ?Delete@TBComponent@@UAAXXZ 100204be f tbcomp.obj
 0001:0001f4e4       __pcd_tbl?FRevokeComponent@SCM_MsoCompMgr@@UAAHK@Z 100204e4 f cistdmgr.obj
 0001:0001f4f0       __nep?FRevokeComponent@SCM_MsoCompMgr@@UAAHK@Z 100204f0 f cistdmgr.obj
 0001:0001f4f8       __fh?FRevokeComponent@SCM_MsoCompMgr@@UAAHK@Z 100204f8 f cistdmgr.obj
 0001:0001f4fa       ?FRevokeComponent@SCM_MsoCompMgr@@UAAHK@Z 100204fa f cistdmgr.obj
 0001:0001f510       __pcd_tbl?PSCMIFromCompID@SCM@@AAAPAVSCMI@@K@Z 10020510 f cistdmgr.obj
 0001:0001f514       __nep?PSCMIFromCompID@SCM@@AAAPAVSCMI@@K@Z 10020514 f cistdmgr.obj
 0001:0001f51c       __fh?PSCMIFromCompID@SCM@@AAAPAVSCMI@@K@Z 1002051c f cistdmgr.obj
 0001:0001f51e       ?PSCMIFromCompID@SCM@@AAAPAVSCMI@@K@Z 1002051e f cistdmgr.obj
 0001:0001f538       __pcd_tbl?RevokeComp@SCM@@AAAXPAVSCMI@@@Z 10020538 f cistdmgr.obj
 0001:0001f550       __nep?RevokeComp@SCM@@AAAXPAVSCMI@@@Z 10020550 f cistdmgr.obj
 0001:0001f558       __fh?RevokeComp@SCM@@AAAXPAVSCMI@@@Z 10020558 f cistdmgr.obj
 0001:0001f55a       ?RevokeComp@SCM@@AAAXPAVSCMI@@@Z 1002055a f cistdmgr.obj
 0001:0001f5a8       __pcd_tbl?RemoveCompFromMainPlex@SCM@@AAAXPAVSCMI@@HH@Z 100205a8 f cistdmgr.obj
 0001:0001f5b4       __nep?RemoveCompFromMainPlex@SCM@@AAAXPAVSCMI@@HH@Z 100205b4 f cistdmgr.obj
 0001:0001f5bc       __fh?RemoveCompFromMainPlex@SCM@@AAAXPAVSCMI@@HH@Z 100205bc f cistdmgr.obj
 0001:0001f5be       ?RemoveCompFromMainPlex@SCM@@AAAXPAVSCMI@@HH@Z 100205be f cistdmgr.obj
 0001:0001f5f8       __pcd_tbl?NCompare@SCMI@@SAHPAPBV1@0@Z 100205f8 f cistdmgr.obj
 0001:0001f5f8       __nep?NCompare@SCMI@@SAHPAPBV1@0@Z 100205f8 f cistdmgr.obj
 0001:0001f600       __fh?NCompare@SCMI@@SAHPAPBV1@0@Z 10020600 f cistdmgr.obj
 0001:0001f602       ?NCompare@SCMI@@SAHPAPBV1@0@Z 10020602 f cistdmgr.obj
 0001:0001f614       __nep?Release@COMPBASE@@UAAKXZ 10020614 f base.obj
 0001:0001f614       __pcd_tbl?Release@COMPBASE@@UAAKXZ 10020614 f base.obj
 0001:0001f61c       __fh?Release@COMPBASE@@UAAKXZ 1002061c f base.obj
 0001:0001f61e       ?Release@COMPBASE@@UAAKXZ  1002061e f base.obj
 0001:0001f63c       __pcd_tbl?RemoveHtc@@YAXPAVTBS@@@Z 1002063c f tbclass.obj
 0001:0001f640       __nep?RemoveHtc@@YAXPAVTBS@@@Z 10020640 f tbclass.obj
 0001:0001f648       __fh?RemoveHtc@@YAXPAVTBS@@@Z 10020648 f tbclass.obj
 0001:0001f64a       ?RemoveHtc@@YAXPAVTBS@@@Z  1002064a f tbclass.obj
 0001:0001f698       __pcd_tbl?FWriteProfileInt@SET@@UAAHPBG0HH@Z 10020698 f util.obj
 0001:0001f69c       __nep?FWriteProfileInt@SET@@UAAHPBG0HH@Z 1002069c f util.obj
 0001:0001f6a4       __fh?FWriteProfileInt@SET@@UAAHPBG0HH@Z 100206a4 f util.obj
 0001:0001f6a6       ?FWriteProfileInt@SET@@UAAHPBG0HH@Z 100206a6 f util.obj
 0001:0001f6bc       __pcd_tbl?FQueryTerminate@SCM_MsoStdCompMgr@@UAAHH@Z 100206bc f cistdmgr.obj
 0001:0001f6c0       __nep?FQueryTerminate@SCM_MsoStdCompMgr@@UAAHH@Z 100206c0 f cistdmgr.obj
 0001:0001f6c8       __fh?FQueryTerminate@SCM_MsoStdCompMgr@@UAAHH@Z 100206c8 f cistdmgr.obj
 0001:0001f6ca       ?FQueryTerminate@SCM_MsoStdCompMgr@@UAAHH@Z 100206ca f cistdmgr.obj
 0001:0001f6d0       __pcd_tbl?DoTerminate@SCM@@AAAXH@Z 100206d0 f cistdmgr.obj
 0001:0001f6f0       __nep?DoTerminate@SCM@@AAAXH@Z 100206f0 f cistdmgr.obj
 0001:0001f6f8       __fh?DoTerminate@SCM@@AAAXH@Z 100206f8 f cistdmgr.obj
 0001:0001f6fb       ?DoTerminate@SCM@@AAAXH@Z  100206fb f cistdmgr.obj
 0001:0001f834       __pcd_tbl?DeleteBlankPlexItems@SCM@@AAAXXZ 10020834 f cistdmgr.obj
 0001:0001f83c       __nep?DeleteBlankPlexItems@SCM@@AAAXXZ 1002083c f cistdmgr.obj
 0001:0001f844       __fh?DeleteBlankPlexItems@SCM@@AAAXXZ 10020844 f cistdmgr.obj
 0001:0001f846       ?DeleteBlankPlexItems@SCM@@AAAXXZ 10020846 f cistdmgr.obj
 0001:0001f8c8       __pcd_tbl_EndSdm           100208c8 f sdmdlg.obj
 0001:0001f8d0       __nep_EndSdm               100208d0 f sdmdlg.obj
 0001:0001f8d8       __fh_EndSdm                100208d8 f sdmdlg.obj
 0001:0001f8da       _EndSdm                    100208da f sdmdlg.obj
 0001:0001f8f0       __pcd_tbl_MsoDestroyITFC   100208f0 f fc.obj
 0001:0001f8f8       __nep_MsoDestroyITFC       100208f8 f fc.obj
 0001:0001f900       __fh_MsoDestroyITFC        10020900 f fc.obj
 0001:0001f902       _MsoDestroyITFC            10020902 f fc.obj
 0001:0001f90c       __pcd_tbl?DestroyBalloons@TFC@@QAAXXZ 1002090c f fc.obj
 0001:0001f914       __nep?DestroyBalloons@TFC@@QAAXXZ 10020914 f fc.obj
 0001:0001f91c       __fh?DestroyBalloons@TFC@@QAAXXZ 1002091c f fc.obj
 0001:0001f91e       ?DestroyBalloons@TFC@@QAAXXZ 1002091e f fc.obj
 0001:0001f950       _MsoFreePx                 10020950 f kjplex.obj
 0001:0001fa24       __pcd_tbl?DoProcessAsstTerm@@YAXXZ 10020a24 f fc.obj
 0001:0001fa4c       __nep?DoProcessAsstTerm@@YAXXZ 10020a4c f fc.obj
 0001:0001fa54       __fh?DoProcessAsstTerm@@YAXXZ 10020a54 f fc.obj
 0001:0001fa56       ?DoProcessAsstTerm@@YAXXZ  10020a56 f fc.obj
 0001:0001fb24       __pcd_tbl?DestroyProcessBalloons@@YAXXZ 10020b24 f fc.obj
 0001:0001fb30       __nep?DestroyProcessBalloons@@YAXXZ 10020b30 f fc.obj
 0001:0001fb38       __fh?DestroyProcessBalloons@@YAXXZ 10020b38 f fc.obj
 0001:0001fb3a       ?DestroyProcessBalloons@@YAXXZ 10020b3a f fc.obj
 0001:0001fbd8       __pcd_tbl?FreeTipPhraseCache@@YAXXZ 10020bd8 f fctpcach.obj
 0001:0001fbe0       __nep?FreeTipPhraseCache@@YAXXZ 10020be0 f fctpcach.obj
 0001:0001fbe8       __fh?FreeTipPhraseCache@@YAXXZ 10020be8 f fctpcach.obj
 0001:0001fbea       ?FreeTipPhraseCache@@YAXXZ 10020bea f fctpcach.obj
 0001:0001fc50       __pcd_tbl_CloseBalloonEngine 10020c50 f fcballn.obj
 0001:0001fc70       __nep_CloseBalloonEngine   10020c70 f fcballn.obj
 0001:0001fc78       __fh_CloseBalloonEngine    10020c78 f fcballn.obj
 0001:0001fc7a       _CloseBalloonEngine        10020c7a f fcballn.obj
 0001:0001fd18       __pcd_tbl?CloseAWBalloonEngine@@YAXXZ 10020d18 f fcblnaw.obj
 0001:0001fd20       __nep?CloseAWBalloonEngine@@YAXXZ 10020d20 f fcblnaw.obj
 0001:0001fd28       __fh?CloseAWBalloonEngine@@YAXXZ 10020d28 f fcblnaw.obj
 0001:0001fd2a       ?CloseAWBalloonEngine@@YAXXZ 10020d2a f fcblnaw.obj
 0001:0001fd50       __pcd_tbl?CloseTipBalloonEngine@@YAXXZ 10020d50 f fcblnt.obj
 0001:0001fd54       __nep?CloseTipBalloonEngine@@YAXXZ 10020d54 f fcblnt.obj
 0001:0001fd5c       __fh?CloseTipBalloonEngine@@YAXXZ 10020d5c f fcblnt.obj
 0001:0001fd5e       ?CloseTipBalloonEngine@@YAXXZ 10020d5e f fcblnt.obj
 0001:0001fd74       __pcd_tbl?DestroyFCBU@@YAXXZ 10020d74 f fcbu.obj
 0001:0001fd78       __nep?DestroyFCBU@@YAXXZ   10020d78 f fcbu.obj
 0001:0001fd80       __fh?DestroyFCBU@@YAXXZ    10020d80 f fcbu.obj
 0001:0001fd82       ?DestroyFCBU@@YAXXZ        10020d82 f fcbu.obj
 0001:0001fd90       _MsoShFreePv               10020d90 f kjalloc.obj
 0001:0001fe04       __nep?FIsMySharedMem@KJShMemory@@UAAHPAX@Z 10020e04 f shmem.obj
 0001:0001fe04       __pcd_tbl?FIsMySharedMem@KJShMemory@@UAAHPAX@Z 10020e04 f shmem.obj
 0001:0001fe0c       __fh?FIsMySharedMem@KJShMemory@@UAAHPAX@Z 10020e0c f shmem.obj
 0001:0001fe0e       ?FIsMySharedMem@KJShMemory@@UAAHPAX@Z 10020e0e f shmem.obj
 0001:0001fe10       ?ShFreePv@KJShMemory@@UAAXPAX@Z 10020e10 f shmem.obj
 0001:0001fe90       ?FreeSb@@YAXI@Z            10020e90 f kjalloc.obj
 0001:0001ffb0       __pcd_tbl_MsoUninitOffice  10020fb0 f office.obj
 0001:0002000c       __nep_MsoUninitOffice      1002100c f office.obj
 0001:00020014       __fh_MsoUninitOffice       10021014 f office.obj
 0001:00020016       _MsoUninitOffice           10021016 f office.obj
 0001:000201e4       __pcd_tbl?MsoFreeAutoCorrect@@YAXPAUMSOINST@@@Z 100211e4 f wgautcor.obj
 0001:000201f4       __nep?MsoFreeAutoCorrect@@YAXPAUMSOINST@@@Z 100211f4 f wgautcor.obj
 0001:000201fc       __fh?MsoFreeAutoCorrect@@YAXPAUMSOINST@@@Z 100211fc f wgautcor.obj
 0001:000201fe       ?MsoFreeAutoCorrect@@YAXPAUMSOINST@@@Z 100211fe f wgautcor.obj
 0001:000202bc       __pcd_tbl_MsoFreeBStrip    100212bc f kjres.obj
 0001:000202c0       __nep_MsoFreeBStrip        100212c0 f kjres.obj
 0001:000202c8       __fh_MsoFreeBStrip         100212c8 f kjres.obj
 0001:000202ca       _MsoFreeBStrip             100212ca f kjres.obj
 0001:000202d0       __pcd_tbl?FreeSounds@@YAXXZ 100212d0 f sound.obj
 0001:000202e0       __nep?FreeSounds@@YAXXZ    100212e0 f sound.obj
 0001:000202e8       __fh?FreeSounds@@YAXXZ     100212e8 f sound.obj
 0001:000202ea       ?FreeSounds@@YAXXZ         100212ea f sound.obj
 0001:0002030c       __pcd_tbl?FlushSounds@@YAXXZ 1002130c f sound.obj
 0001:00020310       __nep?FlushSounds@@YAXXZ   10021310 f sound.obj
 0001:00020318       __fh?FlushSounds@@YAXXZ    10021318 f sound.obj
 0001:0002031a       ?FlushSounds@@YAXXZ        1002131a f sound.obj
 0001:00020344       __pcd_tbl?DisconnectOAObjects@@YAXPAUMSOINST@@@Z 10021344 f oautil.obj
 0001:0002034c       __nep?DisconnectOAObjects@@YAXPAUMSOINST@@@Z 1002134c f oautil.obj
 0001:00020354       __fh?DisconnectOAObjects@@YAXPAUMSOINST@@@Z 10021354 f oautil.obj
 0001:00020356       ?DisconnectOAObjects@@YAXPAUMSOINST@@@Z 10021356 f oautil.obj
 0001:00020388       __pcd_tbl?COAObjects@@YAKPAUMSOINST@@@Z 10021388 f oautil.obj
 0001:0002038c       __nep?COAObjects@@YAKPAUMSOINST@@@Z 1002138c f oautil.obj
 0001:00020394       __fh?COAObjects@@YAKPAUMSOINST@@@Z 10021394 f oautil.obj
 0001:00020396       ?COAObjects@@YAKPAUMSOINST@@@Z 10021396 f oautil.obj
 0001:000203a8       __pcd_tbl?UninitPrivateShrGlobals@@YAXXZ 100213a8 f shmem.obj
 0001:000203b8       __nep?UninitPrivateShrGlobals@@YAXXZ 100213b8 f shmem.obj
 0001:000203c0       __fh?UninitPrivateShrGlobals@@YAXXZ 100213c0 f shmem.obj
 0001:000203c2       ?UninitPrivateShrGlobals@@YAXXZ 100213c2 f shmem.obj
 0001:000203f0       __pcd_tbl?FreeTBCaches@@YAXXZ 100213f0 f tbutil.obj
 0001:000203f8       __nep?FreeTBCaches@@YAXXZ  100213f8 f tbutil.obj
 0001:00020400       __fh?FreeTBCaches@@YAXXZ   10021400 f tbutil.obj
 0001:00020402       ?FreeTBCaches@@YAXXZ       10021402 f tbutil.obj
 0001:00020434       __pcd_tbl?FreeOCX@@YAXXZ   10021434 f tbcddocx.obj
 0001:00020434       __nep?FreeOCX@@YAXXZ       10021434 f tbcddocx.obj
 0001:0002043c       __fh?FreeOCX@@YAXXZ        1002143c f tbcddocx.obj
 0001:0002043e       ?FreeOCX@@YAXXZ            1002143e f tbcddocx.obj
 0001:00020440       __pcd_tbl_MsoOleUninitialize 10021440 f util.obj
 0001:00020444       __nep_MsoOleUninitialize   10021444 f util.obj
 0001:0002044c       __fh_MsoOleUninitialize    1002144c f util.obj
 0001:0002044e       _MsoOleUninitialize        1002144e f util.obj
 0001:0002045c       __pcd_tbl?FreeAllModules@@YAXXZ 1002145c f kjmod.obj
 0001:00020460       __nep?FreeAllModules@@YAXXZ 10021460 f kjmod.obj
 0001:00020468       __fh?FreeAllModules@@YAXXZ 10021468 f kjmod.obj
 0001:0002046a       ?FreeAllModules@@YAXXZ     1002146a f kjmod.obj
 0001:00020478       __pcd_tbl_MsoFreeModule    10021478 f kjmod.obj
 0001:00020480       __nep_MsoFreeModule        10021480 f kjmod.obj
 0001:00020488       __fh_MsoFreeModule         10021488 f kjmod.obj
 0001:0002048a       _MsoFreeModule             1002148a f kjmod.obj
 0001:000204bc       __nep?GELTerminate@@YAXPAUMSOINST@@@Z 100214bc f gelbase.obj
 0001:000204bc       __pcd_tbl?GELTerminate@@YAXPAUMSOINST@@@Z 100214bc f gelbase.obj
 0001:000204c4       __fh?GELTerminate@@YAXPAUMSOINST@@@Z 100214c4 f gelbase.obj
 0001:000204c6       ?GELTerminate@@YAXPAUMSOINST@@@Z 100214c6 f gelbase.obj
 0001:000204e0       __pcd_tbl?Release@MSOSM@@QAAXXZ 100214e0 f shmem.obj
 0001:000204e4       __nep?Release@MSOSM@@QAAXXZ 100214e4 f shmem.obj
 0001:000204ec       __fh?Release@MSOSM@@QAAXXZ 100214ec f shmem.obj
 0001:000204ee       ?Release@MSOSM@@QAAXXZ     100214ee f shmem.obj
 0001:00020508       ?ClearShMemImpl@@YAXXZ     10021508 f shmem.obj
 0001:00020604       __pcd_tbl?Free@TBCGA@@UAAXXZ 10021604 f tbgauge.obj
 0001:00020608       __nep?Free@TBCGA@@UAAXXZ   10021608 f tbgauge.obj
 0001:00020610       __fh?Free@TBCGA@@UAAXXZ    10021610 f tbgauge.obj
 0001:00020612       ?Free@TBCGA@@UAAXXZ        10021612 f tbgauge.obj
 0001:00020640       __pcd_tbl?DetachDropdown@TBCM@@QAAXXZ 10021640 f tbmenu.obj
 0001:00020644       __nep?DetachDropdown@TBCM@@QAAXXZ 10021644 f tbmenu.obj
 0001:0002064c       __fh?DetachDropdown@TBCM@@QAAXXZ 1002164c f tbmenu.obj
 0001:0002064f       ?DetachDropdown@TBCM@@QAAXXZ 1002164f f tbmenu.obj
 0001:00020678       __nep?Release@SCM_MsoStdCompMgr@@UAAKXZ 10021678 f cistdmgr.obj
 0001:00020678       __pcd_tbl?Release@SCM_MsoStdCompMgr@@UAAKXZ 10021678 f cistdmgr.obj
 0001:00020680       __fh?Release@SCM_MsoStdCompMgr@@UAAKXZ 10021680 f cistdmgr.obj
 0001:00020682       ?Release@SCM_MsoStdCompMgr@@UAAKXZ 10021682 f cistdmgr.obj
 0001:00020690       __pcd_tbl?Terminate@TBComponentTrack@@UAAXXZ 10021690 f tbcomp.obj
 0001:00020698       __nep?Terminate@TBComponentTrack@@UAAXXZ 10021698 f tbcomp.obj
 0001:000206a0       __fh?Terminate@TBComponentTrack@@UAAXXZ 100216a0 f tbcomp.obj
 0001:000206a2       ?Terminate@TBComponentTrack@@UAAXXZ 100216a2 f tbcomp.obj
 0001:000206a8       __nep?FQueryTerminate@FC_Component@@UAAHH@Z 100216a8 f fc.obj
 0001:000206a8       __pcd_tbl?FQueryTerminate@FC_Component@@UAAHH@Z 100216a8 f fc.obj
 0001:000206b0       __fh?FQueryTerminate@FC_Component@@UAAHH@Z 100216b0 f fc.obj
 0001:000206b2       ?FQueryTerminate@FC_Component@@UAAHH@Z 100216b2 f fc.obj
 0001:000206b4       __pcd_tbl?Release@FC_Component@@UAAKXZ 100216b4 f fc.obj
 0001:000206b8       __nep?Release@FC_Component@@UAAKXZ 100216b8 f fc.obj
 0001:000206c0       __fh?Release@FC_Component@@UAAKXZ 100216c0 f fc.obj
 0001:000206c2       ?Release@FC_Component@@UAAKXZ 100216c2 f fc.obj
 0001:000206d4       __pcd_tbl_ClearAWDbList    100216d4 f isearch.obj
 0001:000206d8       __nep_ClearAWDbList        100216d8 f isearch.obj
 0001:000206e0       __fh_ClearAWDbList         100216e0 f isearch.obj
 0001:000206e2       _ClearAWDbList             100216e2 f isearch.obj
 0001:00020758       __pcd_tbl?SaveAssistanceSettings@@YAXPAU_rsg@@@Z 10021758 f fc.obj
 0001:00020760       __nep?SaveAssistanceSettings@@YAXPAU_rsg@@@Z 10021760 f fc.obj
 0001:00020768       __fh?SaveAssistanceSettings@@YAXPAU_rsg@@@Z 10021768 f fc.obj
 0001:0002076b       ?SaveAssistanceSettings@@YAXPAU_rsg@@@Z 1002176b f fc.obj
 0001:000208ac       __nep?FMDIChildProc@TBS@@UAAHPAUHWND__@@IIJPAJ@Z 100218ac f tbsys.obj
 0001:000208ac       __pcd_tbl?FMDIChildProc@TBS@@UAAHPAUHWND__@@IIJPAJ@Z 100218ac f tbsys.obj
 0001:000208b4       __fh?FMDIChildProc@TBS@@UAAHPAUHWND__@@IIJPAJ@Z 100218b4 f tbsys.obj
 0001:000208b6       ?FMDIChildProc@TBS@@UAAHPAUHWND__@@IIJPAJ@Z 100218b6 f tbsys.obj
 0001:000208b8       __pcd_tbl_MsoUninitPlayback 100218b8 f playhook.obj
 0001:000208c0       __nep_MsoUninitPlayback    100218c0 f playhook.obj
 0001:000208c8       __fh_MsoUninitPlayback     100218c8 f playhook.obj
 0001:000208ca       _MsoUninitPlayback         100218ca f playhook.obj
 0001:000208d4       __pcd_tbl_MsoDestroyKevt   100218d4 f playhook.obj
 0001:000208d8       __nep_MsoDestroyKevt       100218d8 f playhook.obj
 0001:000208e0       __fh_MsoDestroyKevt        100218e0 f playhook.obj
 0001:000208e2       _MsoDestroyKevt            100218e2 f playhook.obj
 0001:000208e8       ?Close@CMsoOLDocBase@@UAAJXZ 100218e8 f dmuOLDoc.obj
 0001:00020934       ?IsANewDocument@CMsoOLDocBaseImpIOLDoc2@@UAAJXZ 10021934 f dmuOLDoc.obj
 0001:000209b4       ?Release@CMsoOLDocBaseImpIOLDoc2@@UAAKXZ 100219b4 f dmuOLDoc.obj
 0001:00020a18       ?RemoveFromGlobalList@CMsoOLDocBase@@AAAXXZ 10021a18 f dmuOLDoc.obj
 0001:00020a8c       ?SetPIUnknownI@CMsoOLDocBase@@QAAXPAUIUnknown@@H@Z 10021a8c f dmuOLDoc.obj
 0001:00020af0       __pcd_tbl_SdmEndEng        10021af0 f sdmengm.obj
 0001:00020af8       __nep_SdmEndEng            10021af8 f sdmengm.obj
 0001:00020b00       __fh_SdmEndEng             10021b00 f sdmengm.obj
 0001:00020b02       _SdmEndEng                 10021b02 f sdmengm.obj
 0001:00020b14       __pcd_tbl_SdmEndDraw       10021b14 f sdmdrawm.obj
 0001:00020b18       __nep_SdmEndDraw           10021b18 f sdmdrawm.obj
 0001:00020b20       __fh_SdmEndDraw            10021b20 f sdmdrawm.obj
 0001:00020b22       _SdmEndDraw                10021b22 f sdmdrawm.obj
 0001:00020b34       __pcd_tbl_SdmClearRgw      10021b34 f sdmnglue.obj
 0001:00020b34       __nep_SdmClearRgw          10021b34 f sdmnglue.obj
 0001:00020b3c       __fh_SdmClearRgw           10021b3c f sdmnglue.obj
 0001:00020b3e       _SdmClearRgw               10021b3e f sdmnglue.obj
 0001:00020b5c       __pcd_tbl_MsoFHandledMessageNeeded 10021b5c f tbclass.obj
 0001:00020b5c       __nep_MsoFHandledMessageNeeded 10021b5c f tbclass.obj
 0001:00020b64       __fh_MsoFHandledMessageNeeded 10021b64 f tbclass.obj
 0001:00020b66       _MsoFHandledMessageNeeded  10021b66 f tbclass.obj
 0001:00020b74       __pcd_tbl?FGetControl@TB@@UAAHHPAU_msotcr@@@Z 10021b74 f tb.obj
 0001:00020b7c       __nep?FGetControl@TB@@UAAHHPAU_msotcr@@@Z 10021b7c f tb.obj
 0001:00020b84       __fh?FGetControl@TB@@UAAHHPAU_msotcr@@@Z 10021b84 f tb.obj
 0001:00020b86       ?FGetControl@TB@@UAAHHPAU_msotcr@@@Z 10021b86 f tb.obj
 0001:00020ba8       __pcd_tbl?CopyCiToTcr@@YAXPAU_ctlinfo@@PAU_msotcr@@@Z 10021ba8 f tb.obj
 0001:00020ba8       __nep?CopyCiToTcr@@YAXPAU_ctlinfo@@PAU_msotcr@@@Z 10021ba8 f tb.obj
 0001:00020bb0       __fh?CopyCiToTcr@@YAXPAU_ctlinfo@@PAU_msotcr@@@Z 10021bb0 f tb.obj
 0001:00020bb2       ?CopyCiToTcr@@YAXPAU_ctlinfo@@PAU_msotcr@@@Z 10021bb2 f tb.obj
 0001:00020bf8       __pcd_tbl?NotifySelect@TBCMC@@UAAXPAUIMsoControl@@@Z 10021bf8 f tbmenctl.obj
 0001:00020bf8       __nep?NotifySelect@TBCMC@@UAAXPAUIMsoControl@@@Z 10021bf8 f tbmenctl.obj
 0001:00020c00       __fh?NotifySelect@TBCMC@@UAAXPAUIMsoControl@@@Z 10021c00 f tbmenctl.obj
 0001:00020c02       ?NotifySelect@TBCMC@@UAAXPAUIMsoControl@@@Z 10021c02 f tbmenctl.obj
 0001:00020c2c       __nep_MsoFPlaybackPending  10021c2c f playhook.obj
 0001:00020c2c       __pcd_tbl_MsoFPlaybackPending 10021c2c f playhook.obj
 0001:00020c34       __fh_MsoFPlaybackPending   10021c34 f playhook.obj
 0001:00020c36       _MsoFPlaybackPending       10021c36 f playhook.obj
 0001:00020c48       __nep?Free@TBCTH@@UAAXXZ   10021c48 f tbtear.obj
 0001:00020c48       __pcd_tbl?Free@TBCTH@@UAAXXZ 10021c48 f tbtear.obj
 0001:00020c50       __fh?Free@TBCTH@@UAAXXZ    10021c50 f tbtear.obj
 0001:00020c52       ?Free@TBCTH@@UAAXXZ        10021c52 f tbtear.obj
 0001:00020c60       __nep?FSetPtbcb@TBCMC@@QAAHPAUIMsoControl@@@Z 10021c60 f tbmenctl.obj
 0001:00020c60       __pcd_tbl?FSetPtbcb@TBCMC@@QAAHPAUIMsoControl@@@Z 10021c60 f tbmenctl.obj
 0001:00020c68       __fh?FSetPtbcb@TBCMC@@QAAHPAUIMsoControl@@@Z 10021c68 f tbmenctl.obj
 0001:00020c6a       ?FSetPtbcb@TBCMC@@QAAHPAUIMsoControl@@@Z 10021c6a f tbmenctl.obj
 0001:00020c80       __pcd_tbl?DeleteAWDatabase@TFC@@UAAXPAG@Z 10021c80 f fc.obj
 0001:00020c84       __nep?DeleteAWDatabase@TFC@@UAAXPAG@Z 10021c84 f fc.obj
 0001:00020c8c       __fh?DeleteAWDatabase@TFC@@UAAXPAG@Z 10021c8c f fc.obj
 0001:00020c8e       ?DeleteAWDatabase@TFC@@UAAXPAG@Z 10021c8e f fc.obj
 0001:00020c94       __pcd_tbl_DeleteAWDb       10021c94 f isearch.obj
 0001:00020ca0       __nep_DeleteAWDb           10021ca0 f isearch.obj
 0001:00020ca8       __fh_DeleteAWDb            10021ca8 f isearch.obj
 0001:00020caa       _DeleteAWDb                10021caa f isearch.obj
 0001:00020cd0       __pcd_tbl?SgnAwfEqual@@YAHPAUAWF@@0@Z 10021cd0 f isearch.obj
 0001:00020cd4       __nep?SgnAwfEqual@@YAHPAUAWF@@0@Z 10021cd4 f isearch.obj
 0001:00020cdc       __fh?SgnAwfEqual@@YAHPAUAWF@@0@Z 10021cdc f isearch.obj
 0001:00020cde       ?SgnAwfEqual@@YAHPAUAWF@@0@Z 10021cde f isearch.obj
 0001:00020ce8       _MsoSgnWtzCompare          10021ce8 f kjstr.obj
 0001:00020d68       __nep?DxyHitTest@TBC@@UAAHPAU_msoctlenv@@HH@Z 10021d68 f tbctrl.obj
 0001:00020d68       __pcd_tbl?DxyHitTest@TBC@@UAAHPAU_msoctlenv@@HH@Z 10021d68 f tbctrl.obj
 0001:00020d70       __fh?DxyHitTest@TBC@@UAAHPAU_msoctlenv@@HH@Z 10021d70 f tbctrl.obj
 0001:00020d72       ?DxyHitTest@TBC@@UAAHPAU_msoctlenv@@HH@Z 10021d72 f tbctrl.obj
 0001:00020db4       __pcd_tbl?FWrongWindow@TB@@QAAHUtagPOINT@@@Z 10021db4 f tb.obj
 0001:00020dc0       __nep?FWrongWindow@TB@@QAAHUtagPOINT@@@Z 10021dc0 f tb.obj
 0001:00020dc8       __fh?FWrongWindow@TB@@QAAHUtagPOINT@@@Z 10021dc8 f tb.obj
 0001:00020dca       ?FWrongWindow@TB@@QAAHUtagPOINT@@@Z 10021dca f tb.obj
 0001:00020dec       __pcd_tbl?FDisabled@TBC@@UAAHXZ 10021dec f tbctrl.obj
 0001:00020dec       __nep?FDisabled@TBC@@UAAHXZ 10021dec f tbctrl.obj
 0001:00020df4       __fh?FDisabled@TBC@@UAAHXZ 10021df4 f tbctrl.obj
 0001:00020df6       ?FDisabled@TBC@@UAAHXZ     10021df6 f tbctrl.obj
 0001:00020dfc       __nep?FAutoEnabled@TBC@@UAAHXZ 10021dfc f tbctrl.obj
 0001:00020dfc       __pcd_tbl?FAutoEnabled@TBC@@UAAHXZ 10021dfc f tbctrl.obj
 0001:00020e04       __fh?FAutoEnabled@TBC@@UAAHXZ 10021e04 f tbctrl.obj
 0001:00020e06       ?FAutoEnabled@TBC@@UAAHXZ  10021e06 f tbctrl.obj
 0001:00020e24       __pcd_tbl?LInputEvent@TBCMC@@UAAJPAU_msoctlenv@@IIJ@Z 10021e24 f tbmenctl.obj
 0001:00020e38       __nep?LInputEvent@TBCMC@@UAAJPAU_msoctlenv@@IIJ@Z 10021e38 f tbmenctl.obj
 0001:00020e40       __fh?LInputEvent@TBCMC@@UAAJPAU_msoctlenv@@IIJ@Z 10021e40 f tbmenctl.obj
 0001:00020e42       ?LInputEvent@TBCMC@@UAAJPAU_msoctlenv@@IIJ@Z 10021e42 f tbmenctl.obj
 0001:00020f78       __pcd_tbl?DrawDropItem@TBCODD@@MAAXPAUHDC__@@PAUtagRECT@@HHH@Z 10021f78 f tbdropdn.obj
 0001:00020f94       __nep?DrawDropItem@TBCODD@@MAAXPAUHDC__@@PAUtagRECT@@HHH@Z 10021f94 f tbdropdn.obj
 0001:00020f9c       __fh?DrawDropItem@TBCODD@@MAAXPAUHDC__@@PAUtagRECT@@HHH@Z 10021f9c f tbdropdn.obj
 0001:00020f9e       ?DrawDropItem@TBCODD@@MAAXPAUHDC__@@PAUtagRECT@@HHH@Z 10021f9e f tbdropdn.obj
 0001:00021040       __pcd_tbl?FDraw@TBCGA@@UAAHPAU_msoctlenv@@@Z 10022040 f tbgauge.obj
 0001:00021068       __nep?FDraw@TBCGA@@UAAHPAU_msoctlenv@@@Z 10022068 f tbgauge.obj
 0001:00021070       __fh?FDraw@TBCGA@@UAAHPAU_msoctlenv@@@Z 10022070 f tbgauge.obj
 0001:00021073       ?FDraw@TBCGA@@UAAHPAU_msoctlenv@@@Z 10022073 f tbgauge.obj
 0001:000212f4       __pcd_tbl?PatBltHV@TBCGA@@AAAXPAU_msoctlenv@@HHHHK@Z 100222f4 f tbgauge.obj
 0001:000212f8       __nep?PatBltHV@TBCGA@@AAAXPAU_msoctlenv@@HHHHK@Z 100222f8 f tbgauge.obj
 0001:00021300       __fh?PatBltHV@TBCGA@@AAAXPAU_msoctlenv@@HHHHK@Z 10022300 f tbgauge.obj
 0001:00021302       ?PatBltHV@TBCGA@@AAAXPAU_msoctlenv@@HHHHK@Z 10022302 f tbgauge.obj
 0001:0002131c       __pcd_tbl?FrameRectHV@TBCGA@@AAAXPAU_msoctlenv@@PAUtagRECT@@PAUHBRUSH__@@@Z 1002231c f tbgauge.obj
 0001:00021324       __nep?FrameRectHV@TBCGA@@AAAXPAU_msoctlenv@@PAUtagRECT@@PAUHBRUSH__@@@Z 10022324 f tbgauge.obj
 0001:0002132c       __fh?FrameRectHV@TBCGA@@AAAXPAU_msoctlenv@@PAUtagRECT@@PAUHBRUSH__@@@Z 1002232c f tbgauge.obj
 0001:0002132e       ?FrameRectHV@TBCGA@@AAAXPAU_msoctlenv@@PAUtagRECT@@PAUHBRUSH__@@@Z 1002232e f tbgauge.obj
 0001:00021348       __pcd_tbl?MicroScrollPaint@TBCGA@@AAAXPAU_msoctlenv@@PAUtagRECT@@H@Z 10022348 f tbgauge.obj
 0001:00021368       __nep?MicroScrollPaint@TBCGA@@AAAXPAU_msoctlenv@@PAUtagRECT@@H@Z 10022368 f tbgauge.obj
 0001:00021370       __fh?MicroScrollPaint@TBCGA@@AAAXPAU_msoctlenv@@PAUtagRECT@@H@Z 10022370 f tbgauge.obj
 0001:00021372       ?MicroScrollPaint@TBCGA@@AAAXPAU_msoctlenv@@PAUtagRECT@@H@Z 10022372 f tbgauge.obj
 0001:000214f8       __nep_MsoEndBoot           100224f8 f office.obj
 0001:000214f8       __pcd_tbl_MsoEndBoot       100224f8 f office.obj
 0001:00021500       __fh_MsoEndBoot            10022500 f office.obj
 0001:00021502       _MsoEndBoot                10022502 f office.obj
 0001:00021508       __pcd_tbl?FDrawInternal@TBCMC@@UAAHPAU_msoctlenv@@H@Z 10022508 f tbmenctl.obj
 0001:00021528       __nep?FDrawInternal@TBCMC@@UAAHPAU_msoctlenv@@H@Z 10022528 f tbmenctl.obj
 0001:00021530       __fh?FDrawInternal@TBCMC@@UAAHPAU_msoctlenv@@H@Z 10022530 f tbmenctl.obj
 0001:00021533       ?FDrawInternal@TBCMC@@UAAHPAU_msoctlenv@@H@Z 10022533 f tbmenctl.obj
 0001:00021778       __pcd_tbl?FLabelDisplayed@TBCMC@@UAAHPAU_msoceo@@@Z 10022778 f tbmenctl.obj
 0001:00021778       __nep?FLabelDisplayed@TBCMC@@UAAHPAU_msoceo@@@Z 10022778 f tbmenctl.obj
 0001:00021780       __fh?FLabelDisplayed@TBCMC@@UAAHPAU_msoceo@@@Z 10022780 f tbmenctl.obj
 0001:00021782       ?FLabelDisplayed@TBCMC@@UAAHPAU_msoceo@@@Z 10022782 f tbmenctl.obj
 0001:00021788       __pcd_tbl_MsoTbbodRenderPaintColorIcon 10022788 f tbswatch.obj
 0001:00021794       __nep_MsoTbbodRenderPaintColorIcon 10022794 f tbswatch.obj
 0001:0002179c       __fh_MsoTbbodRenderPaintColorIcon 1002279c f tbswatch.obj
 0001:0002179e       _MsoTbbodRenderPaintColorIcon 1002279e f tbswatch.obj
 0001:000217c4       __pcd_tbl_MsoGetPaintRectangle 100227c4 f tbswatch.obj
 0001:000217c4       __nep_MsoGetPaintRectangle 100227c4 f tbswatch.obj
 0001:000217cc       __fh_MsoGetPaintRectangle  100227cc f tbswatch.obj
 0001:000217ce       _MsoGetPaintRectangle      100227ce f tbswatch.obj
 0001:000217e4       __pcd_tbl_MsoRenderSolidPaintRectangle 100227e4 f tbswatch.obj
 0001:000217ec       __nep_MsoRenderSolidPaintRectangle 100227ec f tbswatch.obj
 0001:000217f4       __fh_MsoRenderSolidPaintRectangle 100227f4 f tbswatch.obj
 0001:000217f6       _MsoRenderSolidPaintRectangle 100227f6 f tbswatch.obj
 0001:00021830       __pcd_tbl?GelFillRect@@YAXPAUHDC__@@PAUtagRECT@@K@Z 10022830 f tbswatch.obj
 0001:00021844       __nep?GelFillRect@@YAXPAUHDC__@@PAUtagRECT@@K@Z 10022844 f tbswatch.obj
 0001:0002184c       __fh?GelFillRect@@YAXPAUHDC__@@PAUtagRECT@@K@Z 1002284c f tbswatch.obj
 0001:0002184e       ?GelFillRect@@YAXPAUHDC__@@PAUtagRECT@@K@Z 1002284e f tbswatch.obj
 0001:00021890       _MsoHpalFromHdc            10022890 f geldcutl.obj
 0001:0002192c       _MsoDcInfo                 1002292c f geldcutl.obj
 0001:00021b2c       _BDepthFromHdc             10022b2c f geldcutl.obj
 0001:00021be8       __pcd_tbl_MsoFIsHpalHalftone 10022be8 f gelhpal.obj
 0001:00021be8       __nep_MsoFIsHpalHalftone   10022be8 f gelhpal.obj
 0001:00021bf0       __fh_MsoFIsHpalHalftone    10022bf0 f gelhpal.obj
 0001:00021bf2       _MsoFIsHpalHalftone        10022bf2 f gelhpal.obj
 0001:00021bfc       __pcd_tbl_MsoHbrCreateBrush 10022bfc f gelhbrsh.obj
 0001:00021c10       __nep_MsoHbrCreateBrush    10022c10 f gelhbrsh.obj
 0001:00021c18       __fh_MsoHbrCreateBrush     10022c18 f gelhbrsh.obj
 0001:00021c1b       _MsoHbrCreateBrush         10022c1b f gelhbrsh.obj
 0001:00021cfc       __pcd_tbl_MsoHbrDither     10022cfc f gelhbrsh.obj
 0001:00021d08       __nep_MsoHbrDither         10022d08 f gelhbrsh.obj
 0001:00021d10       __fh_MsoHbrDither          10022d10 f gelhbrsh.obj
 0001:00021d12       _MsoHbrDither              10022d12 f gelhbrsh.obj
 0001:00021d20       __nep_MsoMpSbPs            10022d20 f kjalloc.obj
 0001:00021d20       __pcd_tbl_MsoMpSbPs        10022d20 f kjalloc.obj
 0001:00021d28       __fh_MsoMpSbPs             10022d28 f kjalloc.obj
 0001:00021d2a       _MsoMpSbPs                 10022d2a f kjalloc.obj
 0001:00021d30       __nep_MsoPSbMic            10022d30 f kjalloc.obj
 0001:00021d30       __pcd_tbl_MsoPSbMic        10022d30 f kjalloc.obj
 0001:00021d38       __fh_MsoPSbMic             10022d38 f kjalloc.obj
 0001:00021d3a       _MsoPSbMic                 10022d3a f kjalloc.obj
 0001:00021d44       __pcd_tbl_MsoHpalOffice    10022d44 f gelhpal.obj
 0001:00021d54       __nep_MsoHpalOffice        10022d54 f gelhpal.obj
 0001:00021d5c       __fh_MsoHpalOffice         10022d5c f gelhpal.obj
 0001:00021d5e       _MsoHpalOffice             10022d5e f gelhpal.obj
 0001:00021d78       __pcd_tbl_MsoHpalCreate    10022d78 f gelhpal.obj
 0001:00021d80       __nep_MsoHpalCreate        10022d80 f gelhpal.obj
 0001:00021d88       __fh_MsoHpalCreate         10022d88 f gelhpal.obj
 0001:00021d8a       _MsoHpalCreate             10022d8a f gelhpal.obj
 0001:00021d9c       __pcd_tbl_MsoOSType        10022d9c f gelcpu.obj
 0001:00021d9c       __nep_MsoOSType            10022d9c f gelcpu.obj
 0001:00021da4       __fh_MsoOSType             10022da4 f gelcpu.obj
 0001:00021da6       _MsoOSType                 10022da6 f gelcpu.obj
 0001:00021dac       __nep_MsoSetToolbarCursorMode 10022dac f tb.obj
 0001:00021dac       __pcd_tbl_MsoSetToolbarCursorMode 10022dac f tb.obj
 0001:00021db4       __fh_MsoSetToolbarCursorMode 10022db4 f tb.obj
 0001:00021db6       _MsoSetToolbarCursorMode   10022db6 f tb.obj
 0001:00021dc4       __pcd_tbl_MsoDwOFCCanPostDoc 10022dc4 f wgpstdoc.obj
 0001:00021dc4       __nep_MsoDwOFCCanPostDoc   10022dc4 f wgpstdoc.obj
 0001:00021dcc       __fh_MsoDwOFCCanPostDoc    10022dcc f wgpstdoc.obj
 0001:00021dce       _MsoDwOFCCanPostDoc        10022dce f wgpstdoc.obj
 0001:00021dd0       __nep?QueryInterface@SCM_MsoStdCompMgr@@UAAJABUGUID@@PAPAX@Z 10022dd0 f cistdmgr.obj
 0001:00021dd0       __pcd_tbl?QueryInterface@SCM_MsoStdCompMgr@@UAAJABUGUID@@PAPAX@Z 10022dd0 f cistdmgr.obj
 0001:00021dd8       __fh?QueryInterface@SCM_MsoStdCompMgr@@UAAJABUGUID@@PAPAX@Z 10022dd8 f cistdmgr.obj
 0001:00021dda       ?QueryInterface@SCM_MsoStdCompMgr@@UAAJABUGUID@@PAPAX@Z 10022dda f cistdmgr.obj
 0001:00021de8       __pcd_tbl?FCreateSubComponentManager@SCM_MsoCompMgr@@UAAHPAUIUnknown@@0ABUGUID@@PAPAX@Z 10022de8 f cistdmgr.obj
 0001:00021df0       __nep?FCreateSubComponentManager@SCM_MsoCompMgr@@UAAHPAUIUnknown@@0ABUGUID@@PAPAX@Z 10022df0 f cistdmgr.obj
 0001:00021df8       __fh?FCreateSubComponentManager@SCM_MsoCompMgr@@UAAHPAUIUnknown@@0ABUGUID@@PAPAX@Z 10022df8 f cistdmgr.obj
 0001:00021dfa       ?FCreateSubComponentManager@SCM_MsoCompMgr@@UAAHPAUIUnknown@@0ABUGUID@@PAPAX@Z 10022dfa f cistdmgr.obj
 0001:00021e18       __pcd_tbl?Create@DCM@@SAPAV1@PAVSCM@@PAV1@PAUIUnknown@@2ABUGUID@@PAPAX@Z 10022e18 f cidcm.obj
 0001:00021e2c       __nep?Create@DCM@@SAPAV1@PAVSCM@@PAV1@PAUIUnknown@@2ABUGUID@@PAPAX@Z 10022e2c f cidcm.obj
 0001:00021e34       __fh?Create@DCM@@SAPAV1@PAVSCM@@PAV1@PAUIUnknown@@2ABUGUID@@PAPAX@Z 10022e34 f cidcm.obj
 0001:00021e36       ?Create@DCM@@SAPAV1@PAVSCM@@PAV1@PAUIUnknown@@2ABUGUID@@PAPAX@Z 10022e36 f cidcm.obj
 0001:00021e68       __pcd_tbl?FInit@DCM@@QAAHPAVSCM@@PAV1@PAUIUnknown@@2ABUGUID@@PAPAX@Z 10022e68 f cidcm.obj
 0001:00021e70       __nep?FInit@DCM@@QAAHPAVSCM@@PAV1@PAUIUnknown@@2ABUGUID@@PAPAX@Z 10022e70 f cidcm.obj
 0001:00021e78       __fh?FInit@DCM@@QAAHPAVSCM@@PAV1@PAUIUnknown@@2ABUGUID@@PAPAX@Z 10022e78 f cidcm.obj
 0001:00021e7a       ?FInit@DCM@@QAAHPAVSCM@@PAV1@PAUIUnknown@@2ABUGUID@@PAPAX@Z 10022e7a f cidcm.obj
 0001:00021f34       __nep?QueryInterface@DCM_Unk@@UAAJABUGUID@@PAPAX@Z 10022f34 f cidcm.obj
 0001:00021f34       __pcd_tbl?QueryInterface@DCM_Unk@@UAAJABUGUID@@PAPAX@Z 10022f34 f cidcm.obj
 0001:00021f3c       __fh?QueryInterface@DCM_Unk@@UAAJABUGUID@@PAPAX@Z 10022f3c f cidcm.obj
 0001:00021f3e       ?QueryInterface@DCM_Unk@@UAAJABUGUID@@PAPAX@Z 10022f3e f cidcm.obj
 0001:00021fac       __nep?AddRef@DCM@@UAAKXZ   10022fac f cidcm.obj
 0001:00021fac       __pcd_tbl?AddRef@DCM@@UAAKXZ 10022fac f cidcm.obj
 0001:00021fb4       __fh?AddRef@DCM@@UAAKXZ    10022fb4 f cidcm.obj
 0001:00021fb6       ?AddRef@DCM@@UAAKXZ        10022fb6 f cidcm.obj
 0001:00021fc4       __pcd_tbl?AddRef@DCM_Unk@@UAAKXZ 10022fc4 f cidcm.obj
 0001:00021fc4       __nep?AddRef@DCM_Unk@@UAAKXZ 10022fc4 f cidcm.obj
 0001:00021fcc       __fh?AddRef@DCM_Unk@@UAAKXZ 10022fcc f cidcm.obj
 0001:00021fce       ?AddRef@DCM_Unk@@UAAKXZ    10022fce f cidcm.obj
 0001:00021fd8       __pcd_tbl?FRegisterWithParentCM@DCM@@AAAHPAVSCM@@PAV1@@Z 10022fd8 f cidcm.obj
 0001:00021fdc       __nep?FRegisterWithParentCM@DCM@@AAAHPAVSCM@@PAV1@@Z 10022fdc f cidcm.obj
 0001:00021fe4       __fh?FRegisterWithParentCM@DCM@@AAAHPAVSCM@@PAV1@@Z 10022fe4 f cidcm.obj
 0001:00021fe6       ?FRegisterWithParentCM@DCM@@AAAHPAVSCM@@PAV1@@Z 10022fe6 f cidcm.obj
 0001:00022018       __pcd_tbl?FRegisterDCM@SCM@@QAAHPAVDCM@@@Z 10023018 f cistdmgr.obj
 0001:0002202c       __nep?FRegisterDCM@SCM@@QAAHPAVDCM@@@Z 1002302c f cistdmgr.obj
 0001:00022034       __fh?FRegisterDCM@SCM@@QAAHPAVDCM@@@Z 10023034 f cistdmgr.obj
 0001:00022036       ?FRegisterDCM@SCM@@QAAHPAVDCM@@@Z 10023036 f cistdmgr.obj
 0001:00022090       __pcd_tbl?FRegisterComponent@DCM@@UAAHPAUIMsoComponent@@PBU_MSOCRINFO@@PAK@Z 10023090 f cidcm.obj
 0001:00022098       __nep?FRegisterComponent@DCM@@UAAHPAUIMsoComponent@@PBU_MSOCRINFO@@PAK@Z 10023098 f cidcm.obj
 0001:000220a0       __fh?FRegisterComponent@DCM@@UAAHPAUIMsoComponent@@PBU_MSOCRINFO@@PAK@Z 100230a0 f cidcm.obj
 0001:000220a2       ?FRegisterComponent@DCM@@UAAHPAUIMsoComponent@@PBU_MSOCRINFO@@PAK@Z 100230a2 f cidcm.obj
 0001:000220cc       __pcd_tbl?FSetUserDocks@TBS@@UAAHPAUHWND__@@000@Z 100230cc f tbs.obj
 0001:000220d0       __nep?FSetUserDocks@TBS@@UAAHPAUHWND__@@000@Z 100230d0 f tbs.obj
 0001:000220d8       __fh?FSetUserDocks@TBS@@UAAHPAUHWND__@@000@Z 100230d8 f tbs.obj
 0001:000220da       ?FSetUserDocks@TBS@@UAAHPAUHWND__@@000@Z 100230da f tbs.obj
 0001:00022108       __pcd_tbl?FGetControlUser@TBC@@UAAHPAPAUIMsoControlUser@@@Z 10023108 f tbbtn.obj
 0001:00022108       __nep?FGetControlUser@TBC@@UAAHPAPAUIMsoControlUser@@@Z 10023108 f tbbtn.obj
 0001:00022110       __fh?FGetControlUser@TBC@@UAAHPAPAUIMsoControlUser@@@Z 10023110 f tbbtn.obj
 0001:00022112       ?FGetControlUser@TBC@@UAAHPAPAUIMsoControlUser@@@Z 10023112 f tbbtn.obj
 0001:00022120       __pcd_tbl?PpvClientGet@TBC@@UAAPAPAXXZ 10023120 f tbctrl.obj
 0001:00022120       __nep?PpvClientGet@TBC@@UAAPAPAXXZ 10023120 f tbctrl.obj
 0001:00022128       __fh?PpvClientGet@TBC@@UAAPAPAXXZ 10023128 f tbctrl.obj
 0001:0002212a       ?PpvClientGet@TBC@@UAAPAPAXXZ 1002312a f tbctrl.obj
 0001:00022130       __pcd_tbl_MsoFSetTooltips  10023130 f util.obj
 0001:0002213c       __nep_MsoFSetTooltips      1002313c f util.obj
 0001:00022144       __fh_MsoFSetTooltips       10023144 f util.obj
 0001:00022146       _MsoFSetTooltips           10023146 f util.obj
 0001:00022168       __pcd_tbl?FDoAmbientAnim@TFC@@UAAHHHHH@Z 10023168 f fc.obj
 0001:00022170       __nep?FDoAmbientAnim@TFC@@UAAHHHHH@Z 10023170 f fc.obj
 0001:00022178       __fh?FDoAmbientAnim@TFC@@UAAHHHHH@Z 10023178 f fc.obj
 0001:0002217a       ?FDoAmbientAnim@TFC@@UAAHHHHH@Z 1002317a f fc.obj
 0001:00022198       __nep?FGetMainMenu@TBS@@QAAHPAPAVTB@@@Z 10023198 f tbs.obj
 0001:00022198       __pcd_tbl?FGetMainMenu@TBS@@QAAHPAPAVTB@@@Z 10023198 f tbs.obj
 0001:000221a0       __fh?FGetMainMenu@TBS@@QAAHPAPAVTB@@@Z 100231a0 f tbs.obj
 0001:000221a2       ?FGetMainMenu@TBS@@QAAHPAPAVTB@@@Z 100231a2 f tbs.obj
 0001:00022218       __nep_MsoOfficeDirtyDSIObj 10023218 f wgdocsum.obj
 0001:00022218       __pcd_tbl_MsoOfficeDirtyDSIObj 10023218 f wgdocsum.obj
 0001:00022220       __fh_MsoOfficeDirtyDSIObj  10023220 f wgdocsum.obj
 0001:00022222       _MsoOfficeDirtyDSIObj      10023222 f wgdocsum.obj
 0001:00022228       __nep_MsoOfficeDirtyUDObj  10023228 f wgusrdef.obj
 0001:00022228       __pcd_tbl_MsoOfficeDirtyUDObj 10023228 f wgusrdef.obj
 0001:00022230       __fh_MsoOfficeDirtyUDObj   10023230 f wgusrdef.obj
 0001:00022232       _MsoOfficeDirtyUDObj       10023232 f wgusrdef.obj
 0001:00022238       __pcd_tbl_MsoDwOfficeLoadProperties 10023238 f wgpropio.obj
 0001:0002223c       __nep_MsoDwOfficeLoadProperties 1002323c f wgpropio.obj
 0001:00022244       __fh_MsoDwOfficeLoadProperties 10023244 f wgpropio.obj
 0001:00022246       _MsoDwOfficeLoadProperties 10023246 f wgpropio.obj
 0001:00022250       __pcd_tbl_MsoDwLoadPropertiesCodePage 10023250 f wgpropio.obj
 0001:0002225c       __nep_MsoDwLoadPropertiesCodePage 1002325c f wgpropio.obj
 0001:00022264       __fh_MsoDwLoadPropertiesCodePage 10023264 f wgpropio.obj
 0001:00022266       _MsoDwLoadPropertiesCodePage 10023266 f wgpropio.obj
 0001:00022290       __pcd_tbl?DwLpstmReadHdrAndFID@@YAKPAPAUIStorage@@PAPAUIStream@@PAGPAKPAPAU_IDOFFSET@@PAPAU_SECTION@@@Z 10023290 f wgpropio.obj
 0001:000222a0       __nep?DwLpstmReadHdrAndFID@@YAKPAPAUIStorage@@PAPAUIStream@@PAGPAKPAPAU_IDOFFSET@@PAPAU_SECTION@@@Z 100232a0 f wgpropio.obj
 0001:000222a8       __fh?DwLpstmReadHdrAndFID@@YAKPAPAUIStorage@@PAPAUIStream@@PAGPAKPAPAU_IDOFFSET@@PAPAU_SECTION@@@Z 100232a8 f wgpropio.obj
 0001:000222aa       ?DwLpstmReadHdrAndFID@@YAKPAPAUIStorage@@PAPAUIStream@@PAGPAKPAPAU_IDOFFSET@@PAPAU_SECTION@@@Z 100232aa f wgpropio.obj
 0001:000222e8       __pcd_tbl?FLpstmLoadFmtIdSection@@YAHPAUIStream@@PAU_IDOFFSET@@K@Z 100232e8 f wgpropio.obj
 0001:000222e8       __nep?FLpstmLoadFmtIdSection@@YAHPAUIStream@@PAU_IDOFFSET@@K@Z 100232e8 f wgpropio.obj
 0001:000222f0       __fh?FLpstmLoadFmtIdSection@@YAHPAUIStream@@PAU_IDOFFSET@@K@Z 100232f0 f wgpropio.obj
 0001:000222f2       ?FLpstmLoadFmtIdSection@@YAHPAUIStream@@PAU_IDOFFSET@@K@Z 100232f2 f wgpropio.obj
 0001:00022380       __pcd_tbl?MsoFIsEqualGuid@@YAHABUGUID@@0@Z 10023380 f wgpropio.obj
 0001:00022380       __nep?MsoFIsEqualGuid@@YAHABUGUID@@0@Z 10023380 f wgpropio.obj
 0001:00022388       __fh?MsoFIsEqualGuid@@YAHABUGUID@@0@Z 10023388 f wgpropio.obj
 0001:0002238a       ?MsoFIsEqualGuid@@YAHABUGUID@@0@Z 1002338a f wgpropio.obj
 0001:000223c8       __pcd_tbl?FGetCodepage@@YAHPAUIStream@@PAU_PIDOFFSET@@KPAK@Z 100233c8 f wgpropio.obj
 0001:000223c8       __nep?FGetCodepage@@YAHPAUIStream@@PAU_PIDOFFSET@@KPAK@Z 100233c8 f wgpropio.obj
 0001:000223d0       __fh?FGetCodepage@@YAHPAUIStream@@PAU_PIDOFFSET@@KPAK@Z 100233d0 f wgpropio.obj
 0001:000223d2       ?FGetCodepage@@YAHPAUIStream@@PAU_PIDOFFSET@@KPAK@Z 100233d2 f wgpropio.obj
 0001:00022450       __pcd_tbl?GetActiveCodePage@@YAIXZ 10023450 f util.obj
 0001:00022458       __nep?GetActiveCodePage@@YAIXZ 10023458 f util.obj
 0001:00022460       __fh?GetActiveCodePage@@YAIXZ 10023460 f util.obj
 0001:00022462       ?GetActiveCodePage@@YAIXZ  10023462 f util.obj
 0001:0002248c       __pcd_tbl?FLpstmReadVT_LPSTR@@YAHPAUIStream@@PAPAGP6AHPADKKH@ZHH@Z 1002348c f wgstmio.obj
 0001:000224a0       __nep?FLpstmReadVT_LPSTR@@YAHPAUIStream@@PAPAGP6AHPADKKH@ZHH@Z 100234a0 f wgstmio.obj
 0001:000224a8       __fh?FLpstmReadVT_LPSTR@@YAHPAUIStream@@PAPAGP6AHPADKKH@ZHH@Z 100234a8 f wgstmio.obj
 0001:000224aa       ?FLpstmReadVT_LPSTR@@YAHPAUIStream@@PAPAGP6AHPADKKH@ZHH@Z 100234aa f wgstmio.obj
 0001:00022568       __pcd_tbl?VSumInfoSetPropBit@@YAXJPAE@Z 10023568 f wgsinfo.obj
 0001:00022568       __nep?VSumInfoSetPropBit@@YAXJPAE@Z 10023568 f wgsinfo.obj
 0001:00022570       __fh?VSumInfoSetPropBit@@YAXJPAE@Z 10023570 f wgsinfo.obj
 0001:00022572       ?VSumInfoSetPropBit@@YAXJPAE@Z 10023572 f wgsinfo.obj
 0001:000225b8       __pcd_tbl?DwLoadDocAndUser@@YAKPAU_DOCSUMINFO@@PAU_USERPROP@@PAUIStorage@@KHPAK@Z 100235b8 f wgpropio.obj
 0001:000225e0       __nep?DwLoadDocAndUser@@YAKPAU_DOCSUMINFO@@PAU_USERPROP@@PAUIStorage@@KHPAK@Z 100235e0 f wgpropio.obj
 0001:000225e8       __fh?DwLoadDocAndUser@@YAKPAU_DOCSUMINFO@@PAU_USERPROP@@PAUIStorage@@KHPAK@Z 100235e8 f wgpropio.obj
 0001:000225eb       ?DwLoadDocAndUser@@YAKPAU_DOCSUMINFO@@PAU_USERPROP@@PAUIStorage@@KHPAK@Z 100235eb f wgpropio.obj
 0001:00022814       __pcd_tbl_FreeUDData       10023814 f wgusrdef.obj
 0001:0002281c       __nep_FreeUDData           1002381c f wgusrdef.obj
 0001:00022824       __fh_FreeUDData            10023824 f wgusrdef.obj
 0001:00022826       _FreeUDData                10023826 f wgusrdef.obj
 0001:0002288c       __nep?FLpstmReadVT_BOOL@@YAHPAUIStream@@PAG@Z 1002388c f wgstmio.obj
 0001:0002288c       __pcd_tbl?FLpstmReadVT_BOOL@@YAHPAUIStream@@PAG@Z 1002388c f wgstmio.obj
 0001:00022894       __fh?FLpstmReadVT_BOOL@@YAHPAUIStream@@PAG@Z 10023894 f wgstmio.obj
 0001:00022896       ?FLpstmReadVT_BOOL@@YAHPAUIStream@@PAG@Z 10023896 f wgstmio.obj
 0001:000228cc       __pcd_tbl?FReadDocParts@@YAHPAUIStream@@PAU_DOCSUMINFO@@H@Z 100238cc f wgpropio.obj
 0001:000228d8       __nep?FReadDocParts@@YAHPAUIStream@@PAU_DOCSUMINFO@@H@Z 100238d8 f wgpropio.obj
 0001:000228e0       __fh?FReadDocParts@@YAHPAUIStream@@PAU_DOCSUMINFO@@H@Z 100238e0 f wgpropio.obj
 0001:000228e2       ?FReadDocParts@@YAHPAUIStream@@PAU_DOCSUMINFO@@H@Z 100238e2 f wgpropio.obj
 0001:0002291c       _MsoFInsertNewPx           1002391c f kjplex.obj
 0001:000229c0       __pcd_tbl?FReadAndInsertHeadingPairs@@YAHPAUIStream@@PAU_DOCSUMINFO@@@Z 100239c0 f wgpropio.obj
 0001:000229cc       __nep?FReadAndInsertHeadingPairs@@YAHPAUIStream@@PAU_DOCSUMINFO@@@Z 100239cc f wgpropio.obj
 0001:000229d4       __fh?FReadAndInsertHeadingPairs@@YAHPAUIStream@@PAU_DOCSUMINFO@@@Z 100239d4 f wgpropio.obj
 0001:000229d6       ?FReadAndInsertHeadingPairs@@YAHPAUIStream@@PAU_DOCSUMINFO@@@Z 100239d6 f wgpropio.obj
 0001:00022ac0       __pcd_tbl_MsoLpudiUserDefCreateIterator 10023ac0 f wgusrdef.obj
 0001:00022ac4       __nep_MsoLpudiUserDefCreateIterator 10023ac4 f wgusrdef.obj
 0001:00022acc       __fh_MsoLpudiUserDefCreateIterator 10023acc f wgusrdef.obj
 0001:00022ace       _MsoLpudiUserDefCreateIterator 10023ace f wgusrdef.obj
 0001:00022afc       __nep_MsoFDocSumShouldSave 10023afc f wgdocsum.obj
 0001:00022afc       __pcd_tbl_MsoFDocSumShouldSave 10023afc f wgdocsum.obj
 0001:00022b04       __fh_MsoFDocSumShouldSave  10023b04 f wgdocsum.obj
 0001:00022b06       _MsoFDocSumShouldSave      10023b06 f wgdocsum.obj
 0001:00022b10       __pcd_tbl_MsoFSumInfoShouldSave 10023b10 f wgsinfo.obj
 0001:00022b10       __nep_MsoFSumInfoShouldSave 10023b10 f wgsinfo.obj
 0001:00022b18       __fh_MsoFSumInfoShouldSave 10023b18 f wgsinfo.obj
 0001:00022b1a       _MsoFSumInfoShouldSave     10023b1a f wgsinfo.obj
 0001:00022b20       __nep_MsoFUserDefShouldSave 10023b20 f wgusrdef.obj
 0001:00022b20       __pcd_tbl_MsoFUserDefShouldSave 10023b20 f wgusrdef.obj
 0001:00022b28       __fh_MsoFUserDefShouldSave 10023b28 f wgusrdef.obj
 0001:00022b2a       _MsoFUserDefShouldSave     10023b2a f wgusrdef.obj
 0001:00022b30       __pcd_tbl_MsoFOfficeDestroyObjects 10023b30 f wgpropio.obj
 0001:00022b3c       __nep_MsoFOfficeDestroyObjects 10023b3c f wgpropio.obj
 0001:00022b44       __fh_MsoFOfficeDestroyObjects 10023b44 f wgpropio.obj
 0001:00022b46       _MsoFOfficeDestroyObjects  10023b46 f wgpropio.obj
 0001:00022b50       __pcd_tbl?FreeHeadPartPlex@@YAXPAU_DOCSUMINFO@@@Z 10023b50 f wgdocsum.obj
 0001:00022b58       __nep?FreeHeadPartPlex@@YAXPAU_DOCSUMINFO@@@Z 10023b58 f wgdocsum.obj
 0001:00022b60       __fh?FreeHeadPartPlex@@YAXPAU_DOCSUMINFO@@@Z 10023b60 f wgdocsum.obj
 0001:00022b62       ?FreeHeadPartPlex@@YAXPAU_DOCSUMINFO@@@Z 10023b62 f wgdocsum.obj
 0001:00022ba8       __nep?ITbdpGet@TBS@@UAAHXZ 10023ba8 f tbs.obj
 0001:00022ba8       __pcd_tbl?ITbdpGet@TBS@@UAAHXZ 10023ba8 f tbs.obj
 0001:00022bb0       __fh?ITbdpGet@TBS@@UAAHXZ  10023bb0 f tbs.obj
 0001:00022bb2       ?ITbdpGet@TBS@@UAAHXZ      10023bb2 f tbs.obj
 0001:00022bb8       __nep?FSaveNeeded@TBS@@UAAHXZ 10023bb8 f tbs.obj
 0001:00022bb8       __pcd_tbl?FSaveNeeded@TBS@@UAAHXZ 10023bb8 f tbs.obj
 0001:00022bc0       __fh?FSaveNeeded@TBS@@UAAHXZ 10023bc0 f tbs.obj
 0001:00022bc2       ?FSaveNeeded@TBS@@UAAHXZ   10023bc2 f tbs.obj
 0001:00022bf0       __nep?FSaveNeeded@TB@@UAAHXZ 10023bf0 f tb.obj
 0001:00022bf0       __pcd_tbl?FSaveNeeded@TB@@UAAHXZ 10023bf0 f tb.obj
 0001:00022bf8       __fh?FSaveNeeded@TB@@UAAHXZ 10023bf8 f tb.obj
 0001:00022bfa       ?FSaveNeeded@TB@@UAAHXZ    10023bfa f tb.obj
 0001:00022c20       __nep?TbcsChangeStatus@TB@@UAAHXZ 10023c20 f tb.obj
 0001:00022c20       __pcd_tbl?TbcsChangeStatus@TB@@UAAHXZ 10023c20 f tb.obj
 0001:00022c28       __fh?TbcsChangeStatus@TB@@UAAHXZ 10023c28 f tb.obj
 0001:00022c2a       ?TbcsChangeStatus@TB@@UAAHXZ 10023c2a f tb.obj
 0001:00022c50       __pcd_tbl?FSave@TBS@@UAAHPAUIStream@@H@Z 10023c50 f tbs.obj
 0001:00022c60       __nep?FSave@TBS@@UAAHPAUIStream@@H@Z 10023c60 f tbs.obj
 0001:00022c68       __fh?FSave@TBS@@UAAHPAUIStream@@H@Z 10023c68 f tbs.obj
 0001:00022c6b       ?FSave@TBS@@UAAHPAUIStream@@H@Z 10023c6b f tbs.obj
 0001:00022dbc       __nep?FillFv1@TBS@@AAAXPAUFV1@1@PAG@Z 10023dbc f tbs.obj
 0001:00022dbc       __pcd_tbl?FillFv1@TBS@@AAAXPAUFV1@1@PAG@Z 10023dbc f tbs.obj
 0001:00022dc4       __fh?FillFv1@TBS@@AAAXPAUFV1@1@PAG@Z 10023dc4 f tbs.obj
 0001:00022dc6       ?FillFv1@TBS@@AAAXPAUFV1@1@PAG@Z 10023dc6 f tbs.obj
 0001:00022e0c       __pcd_tbl?Write@FILESTREAM@@UAAJPBXKPAK@Z 10023e0c f tbutil.obj
 0001:00022e14       __nep?Write@FILESTREAM@@UAAJPBXKPAK@Z 10023e14 f tbutil.obj
 0001:00022e1c       __fh?Write@FILESTREAM@@UAAJPBXKPAK@Z 10023e1c f tbutil.obj
 0001:00022e1e       ?Write@FILESTREAM@@UAAJPBXKPAK@Z 10023e1e f tbutil.obj
 0001:00022e6c       __pcd_tbl?Stat@FILESTREAM@@UAAJPAUtagSTATSTG@@K@Z 10023e6c f tbutil.obj
 0001:00022e6c       __nep?Stat@FILESTREAM@@UAAJPAUtagSTATSTG@@K@Z 10023e6c f tbutil.obj
 0001:00022e74       __fh?Stat@FILESTREAM@@UAAJPAUtagSTATSTG@@K@Z 10023e74 f tbutil.obj
 0001:00022e76       ?Stat@FILESTREAM@@UAAJPAUtagSTATSTG@@K@Z 10023e76 f tbutil.obj
 0001:00022e80       __nep?Seek@FILESTREAM@@UAAJT_LARGE_INTEGER@@KPAT_ULARGE_INTEGER@@@Z 10023e80 f tbutil.obj
 0001:00022e80       __pcd_tbl?Seek@FILESTREAM@@UAAJT_LARGE_INTEGER@@KPAT_ULARGE_INTEGER@@@Z 10023e80 f tbutil.obj
 0001:00022e88       __fh?Seek@FILESTREAM@@UAAJT_LARGE_INTEGER@@KPAT_ULARGE_INTEGER@@@Z 10023e88 f tbutil.obj
 0001:00022e8a       ?Seek@FILESTREAM@@UAAJT_LARGE_INTEGER@@KPAT_ULARGE_INTEGER@@@Z 10023e8a f tbutil.obj
 0001:00022eb4       __pcd_tbl?CopyTo@FILESTREAM@@UAAJPAUIStream@@T_ULARGE_INTEGER@@PAT3@2@Z 10023eb4 f tbutil.obj
 0001:00022ebc       __nep?CopyTo@FILESTREAM@@UAAJPAUIStream@@T_ULARGE_INTEGER@@PAT3@2@Z 10023ebc f tbutil.obj
 0001:00022ec4       __fh?CopyTo@FILESTREAM@@UAAJPAUIStream@@T_ULARGE_INTEGER@@PAT3@2@Z 10023ec4 f tbutil.obj
 0001:00022ec6       ?CopyTo@FILESTREAM@@UAAJPAUIStream@@T_ULARGE_INTEGER@@PAT3@2@Z 10023ec6 f tbutil.obj
 0001:00022f08       __pcd_tbl?Read@FILESTREAM@@UAAJPAXKPAK@Z 10023f08 f tbutil.obj
 0001:00022f08       __nep?Read@FILESTREAM@@UAAJPAXKPAK@Z 10023f08 f tbutil.obj
 0001:00022f10       __fh?Read@FILESTREAM@@UAAJPAXKPAK@Z 10023f10 f tbutil.obj
 0001:00022f12       ?Read@FILESTREAM@@UAAJPAXKPAK@Z 10023f12 f tbutil.obj
 0001:00022f50       __pcd_tbl?Release@FILESTREAM@@UAAKXZ 10023f50 f tbutil.obj
 0001:00022f58       __nep?Release@FILESTREAM@@UAAKXZ 10023f58 f tbutil.obj
 0001:00022f60       __fh?Release@FILESTREAM@@UAAKXZ 10023f60 f tbutil.obj
 0001:00022f62       ?Release@FILESTREAM@@UAAKXZ 10023f62 f tbutil.obj
 0001:00022f78       __pcd_tbl?FWriteProfileBlob@SET@@UAAHPBG0PAEHH@Z 10023f78 f util.obj
 0001:00022f7c       __nep?FWriteProfileBlob@SET@@UAAHPBG0PAEHH@Z 10023f7c f util.obj
 0001:00022f84       __fh?FWriteProfileBlob@SET@@UAAHPBG0PAEHH@Z 10023f84 f util.obj
 0001:00022f86       ?FWriteProfileBlob@SET@@UAAHPBG0PAEHH@Z 10023f86 f util.obj
 0001:00022f98       __pcd_tbl?FRevokeComponent@DCM@@UAAHK@Z 10023f98 f cidcm.obj
 0001:00022f9c       __nep?FRevokeComponent@DCM@@UAAHK@Z 10023f9c f cidcm.obj
 0001:00022fa4       __fh?FRevokeComponent@DCM@@UAAHK@Z 10023fa4 f cidcm.obj
 0001:00022fa6       ?FRevokeComponent@DCM@@UAAHK@Z 10023fa6 f cidcm.obj
 0001:00022fc0       __pcd_tbl?Release@DCM@@UAAKXZ 10023fc0 f cidcm.obj
 0001:00022fc0       __nep?Release@DCM@@UAAKXZ  10023fc0 f cidcm.obj
 0001:00022fc8       __fh?Release@DCM@@UAAKXZ   10023fc8 f cidcm.obj
 0001:00022fca       ?Release@DCM@@UAAKXZ       10023fca f cidcm.obj
 0001:00022fd8       __pcd_tbl?Release@DCM_Unk@@UAAKXZ 10023fd8 f cidcm.obj
 0001:00022fe0       __nep?Release@DCM_Unk@@UAAKXZ 10023fe0 f cidcm.obj
 0001:00022fe8       __fh?Release@DCM_Unk@@UAAKXZ 10023fe8 f cidcm.obj
 0001:00022fea       ?Release@DCM_Unk@@UAAKXZ   10023fea f cidcm.obj
 0001:00023000       _MsoFHeapHp                10024000 f kjalloc.obj
 0001:00023084       __pcd_tbl_MsoNotesTerm     10024084 f wgntsfx.obj
 0001:00023084       __nep_MsoNotesTerm         10024084 f wgntsfx.obj
 0001:0002308c       __fh_MsoNotesTerm          1002408c f wgntsfx.obj
 0001:0002308e       _MsoNotesTerm              1002408e f wgntsfx.obj
 0001:00023090       __pcd_tbl?RevokeFromParentCM@DCM@@AAAXXZ 10024090 f cidcm.obj
 0001:000230a0       __nep?RevokeFromParentCM@DCM@@AAAXXZ 100240a0 f cidcm.obj
 0001:000230a8       __fh?RevokeFromParentCM@DCM@@AAAXXZ 100240a8 f cidcm.obj
 0001:000230aa       ?RevokeFromParentCM@DCM@@AAAXXZ 100240aa f cidcm.obj
 0001:000230f8       __pcd_tbl?RevokeDCM@SCM@@QAAXPAVDCM@@@Z 100240f8 f cistdmgr.obj
 0001:00023100       __nep?RevokeDCM@SCM@@QAAXPAVDCM@@@Z 10024100 f cistdmgr.obj
 0001:00023108       __fh?RevokeDCM@SCM@@QAAXPAVDCM@@@Z 10024108 f cistdmgr.obj
 0001:0002310a       ?RevokeDCM@SCM@@QAAXPAVDCM@@@Z 1002410a f cistdmgr.obj
 0001:00023134       __nep?NCompare@DCM@@SAHPAPBV1@0@Z 10024134 f cidcm.obj
 0001:00023134       __pcd_tbl?NCompare@DCM@@SAHPAPBV1@0@Z 10024134 f cidcm.obj
 0001:0002313c       __fh?NCompare@DCM@@SAHPAPBV1@0@Z 1002413c f cidcm.obj
 0001:0002313e       ?NCompare@DCM@@SAHPAPBV1@0@Z 1002413e f cidcm.obj
 0001:00023150       __pcd_tbl?Deactivate@TBS@@UAAXXZ 10024150 f tbs.obj
 0001:00023174       __nep?Deactivate@TBS@@UAAXXZ 10024174 f tbs.obj
 0001:0002317c       __fh?Deactivate@TBS@@UAAXXZ 1002417c f tbs.obj
 0001:0002317e       ?Deactivate@TBS@@UAAXXZ    1002417e f tbs.obj
 0001:000232b4       __nep?NotifyDelete@TBBUBASE@@UAAXPAUIMsoControl@@PAPAX@Z 100242b4 f hl.obj
 0001:000232b4       __pcd_tbl?NotifyDelete@TBBUBASE@@UAAXPAUIMsoControl@@PAPAX@Z 100242b4 f hl.obj
 0001:000232bc       __fh?NotifyDelete@TBBUBASE@@UAAXPAUIMsoControl@@PAPAX@Z 100242bc f hl.obj
 0001:000232be       ?NotifyDelete@TBBUBASE@@UAAXPAUIMsoControl@@PAPAX@Z 100242be f hl.obj
 0001:000232c4       __pcd_tbl_MsoUninitShrGlobals 100242c4 f shmem.obj
 0001:000232cc       __nep_MsoUninitShrGlobals  100242cc f shmem.obj
 0001:000232d4       __fh_MsoUninitShrGlobals   100242d4 f shmem.obj
 0001:000232d6       _MsoUninitShrGlobals       100242d6 f shmem.obj
 0001:00023314       __pcd_tbl?DestroySysColors@@YAXXZ 10024314 f office.obj
 0001:00023318       __nep?DestroySysColors@@YAXXZ 10024318 f office.obj
 0001:00023320       __fh?DestroySysColors@@YAXXZ 10024320 f office.obj
 0001:00023322       ?DestroySysColors@@YAXXZ   10024322 f office.obj
 0001:0002334c       __pcd_tbl?OnAppActivate@FC_Component@@UAAXHK@Z 1002434c f fc.obj
 0001:00023350       __nep?OnAppActivate@FC_Component@@UAAXHK@Z 10024350 f fc.obj
 0001:00023358       __fh?OnAppActivate@FC_Component@@UAAXHK@Z 10024358 f fc.obj
 0001:0002335a       ?OnAppActivate@FC_Component@@UAAXHK@Z 1002435a f fc.obj
 0001:0002336c       __pcd_tbl?OnAppOrOleActivate@@YAXHPAUHWND__@@H@Z 1002436c f fc.obj
 0001:00023374       __nep?OnAppOrOleActivate@@YAXHPAUHWND__@@H@Z 10024374 f fc.obj
 0001:0002337c       __fh?OnAppOrOleActivate@@YAXHPAUHWND__@@H@Z 1002437c f fc.obj
 0001:0002337e       ?OnAppOrOleActivate@@YAXHPAUHWND__@@H@Z 1002437e f fc.obj
 0001:000233b8       __nep?PtbMenuTracking@TBComponentTrack@@QAAPAVTB@@XZ 100243b8 f tbcomp.obj
 0001:000233b8       __pcd_tbl?PtbMenuTracking@TBComponentTrack@@QAAPAVTB@@XZ 100243b8 f tbcomp.obj
 0001:000233c0       __fh?PtbMenuTracking@TBComponentTrack@@QAAPAVTB@@XZ 100243c0 f tbcomp.obj
 0001:000233c2       ?PtbMenuTracking@TBComponentTrack@@QAAPAVTB@@XZ 100243c2 f tbcomp.obj
 0001:000233d4       __pcd_tbl?LRSysRequestEx@TBS@@UAAJHIJ@Z 100243d4 f tbs.obj
 0001:0002343c       __nep?LRSysRequestEx@TBS@@UAAJHIJ@Z 1002443c f tbs.obj
 0001:00023444       __fh?LRSysRequestEx@TBS@@UAAJHIJ@Z 10024444 f tbs.obj
 0001:00023447       ?LRSysRequestEx@TBS@@UAAJHIJ@Z 10024447 f tbs.obj
 0001:00023708       __pcd_tbl?FHandleMenuMsg@TBS@@UAAHPAUHWND__@@IIJ@Z 10024708 f tbs.obj
 0001:0002377c       __nep?FHandleMenuMsg@TBS@@UAAHPAUHWND__@@IIJ@Z 1002477c f tbs.obj
 0001:00023784       __fh?FHandleMenuMsg@TBS@@UAAHPAUHWND__@@IIJ@Z 10024784 f tbs.obj
 0001:00023787       ?FHandleMenuMsg@TBS@@UAAHPAUHWND__@@IIJ@Z 10024787 f tbs.obj
 0001:00023b04       __pcd_tbl?AppSysKeyboardHook@@YAJHIJ@Z 10024b04 f tbs.obj
 0001:00023b08       __nep?AppSysKeyboardHook@@YAJHIJ@Z 10024b08 f tbs.obj
 0001:00023b10       __fh?AppSysKeyboardHook@@YAJHIJ@Z 10024b10 f tbs.obj
 0001:00023b12       ?AppSysKeyboardHook@@YAJHIJ@Z 10024b12 f tbs.obj
 0001:00023b28       __pcd_tbl?FSetToolbarSet@WTBH@@UAAHPAUIMsoToolbarSet@@@Z 10024b28 f hl.obj
 0001:00023b28       __nep?FSetToolbarSet@WTBH@@UAAHPAUIMsoToolbarSet@@@Z 10024b28 f hl.obj
 0001:00023b30       __fh?FSetToolbarSet@WTBH@@UAAHPAUIMsoToolbarSet@@@Z 10024b30 f hl.obj
 0001:00023b32       ?FSetToolbarSet@WTBH@@UAAHPAUIMsoToolbarSet@@@Z 10024b32 f hl.obj
 0001:00023b38       __nep?Free@TBCL@@UAAXXZ    10024b38 f tblabel.obj
 0001:00023b38       __pcd_tbl?Free@TBCL@@UAAXXZ 10024b38 f tblabel.obj
 0001:00023b40       __fh?Free@TBCL@@UAAXXZ     10024b40 f tblabel.obj
 0001:00023b42       ?Free@TBCL@@UAAXXZ         10024b42 f tblabel.obj
 0001:00023b60       __pcd_tbl?Delete@WTBH@@UAAXXZ 10024b60 f hl.obj
 0001:00023b68       __nep?Delete@WTBH@@UAAXXZ  10024b68 f hl.obj
 0001:00023b70       __fh?Delete@WTBH@@UAAXXZ   10024b70 f hl.obj
 0001:00023b72       ?Delete@WTBH@@UAAXXZ       10024b72 f hl.obj
 0001:00023b8c       __pcd_tbl?ReleaseHlitemStack@WTBH@@QAAXXZ 10024b8c f hl.obj
 0001:00023b90       __nep?ReleaseHlitemStack@WTBH@@QAAXXZ 10024b90 f hl.obj
 0001:00023b98       __fh?ReleaseHlitemStack@WTBH@@QAAXXZ 10024b98 f hl.obj
 0001:00023b9a       ?ReleaseHlitemStack@WTBH@@QAAXXZ 10024b9a f hl.obj
 0001:00023bf4       __pcd_tbl?DeleteAllEntries@URLREG@@QAAXXZ 10024bf4 f hl.obj
 0001:00023bfc       __nep?DeleteAllEntries@URLREG@@QAAXXZ 10024bfc f hl.obj
 0001:00023c04       __fh?DeleteAllEntries@URLREG@@QAAXXZ 10024c04 f hl.obj
 0001:00023c06       ?DeleteAllEntries@URLREG@@QAAXXZ 10024c06 f hl.obj
 0001:00023c3c       __pcd_tbl_MsoFTermDlgs     10024c3c f sdmdlg.obj
 0001:00023c44       __nep_MsoFTermDlgs         10024c44 f sdmdlg.obj
 0001:00023c4c       __fh_MsoFTermDlgs          10024c4c f sdmdlg.obj
 0001:00023c4e       _MsoFTermDlgs              10024c4e f sdmdlg.obj
 0001:00023c5c       __pcd_tbl?FHandledMessage@TBS@@UAAHPAUtagMSG@@@Z 10024c5c f tbclass.obj
 0001:00023c70       __nep?FHandledMessage@TBS@@UAAHPAUtagMSG@@@Z 10024c70 f tbclass.obj
 0001:00023c78       __fh?FHandledMessage@TBS@@UAAHPAUtagMSG@@@Z 10024c78 f tbclass.obj
 0001:00023c7a       ?FHandledMessage@TBS@@UAAHPAUtagMSG@@@Z 10024c7a f tbclass.obj
 0001:00023cb4       __pcd_tbl?DrawArrow@@YAXPAU_msoctlenv@@PAUtagRECT@@HHH@Z 10024cb4 f tbbtn.obj
 0001:00023cbc       __nep?DrawArrow@@YAXPAU_msoctlenv@@PAUtagRECT@@HHH@Z 10024cbc f tbbtn.obj
 0001:00023cc4       __fh?DrawArrow@@YAXPAU_msoctlenv@@PAUtagRECT@@HHH@Z 10024cc4 f tbbtn.obj
 0001:00023cc6       ?DrawArrow@@YAXPAU_msoctlenv@@PAUtagRECT@@HHH@Z 10024cc6 f tbbtn.obj
 0001:00023ce8       __pcd_tbl?DrawDropItem@TBCDD@@MAAXPAUHDC__@@PAUtagRECT@@HHH@Z 10024ce8 f tbdropdn.obj
 0001:00023d24       __nep?DrawDropItem@TBCDD@@MAAXPAUHDC__@@PAUtagRECT@@HHH@Z 10024d24 f tbdropdn.obj
 0001:00023d2c       __fh?DrawDropItem@TBCDD@@MAAXPAUHDC__@@PAUtagRECT@@HHH@Z 10024d2c f tbdropdn.obj
 0001:00023d2f       ?DrawDropItem@TBCDD@@MAAXPAUHDC__@@PAUtagRECT@@HHH@Z 10024d2f f tbdropdn.obj
 0001:00023f24       __pcd_tbl?FDraw@TBCL@@UAAHPAU_msoctlenv@@@Z 10024f24 f tblabel.obj
 0001:00023f38       __nep?FDraw@TBCL@@UAAHPAU_msoctlenv@@@Z 10024f38 f tblabel.obj
 0001:00023f40       __fh?FDraw@TBCL@@UAAHPAU_msoctlenv@@@Z 10024f40 f tblabel.obj
 0001:00023f43       ?FDraw@TBCL@@UAAHPAU_msoctlenv@@@Z 10024f43 f tblabel.obj
 0001:00023fa4       __pcd_tbl?FDoIdle@SCM_MsoStdCompMgr@@UAAHK@Z 10024fa4 f cistdmgr.obj
 0001:00023fa8       __nep?FDoIdle@SCM_MsoStdCompMgr@@UAAHK@Z 10024fa8 f cistdmgr.obj
 0001:00023fb0       __fh?FDoIdle@SCM_MsoStdCompMgr@@UAAHK@Z 10024fb0 f cistdmgr.obj
 0001:00023fb2       ?FDoIdle@SCM_MsoStdCompMgr@@UAAHK@Z 10024fb2 f cistdmgr.obj
 0001:00023fb8       __nep?MarkCompsNeedNormIdleTimeNow@SCM@@AAAXK@Z 10024fb8 f ciidle.obj
 0001:00023fb8       __pcd_tbl?MarkCompsNeedNormIdleTimeNow@SCM@@AAAXK@Z 10024fb8 f ciidle.obj
 0001:00023fc0       __fh?MarkCompsNeedNormIdleTimeNow@SCM@@AAAXK@Z 10024fc0 f ciidle.obj
 0001:00023fc2       ?MarkCompsNeedNormIdleTimeNow@SCM@@AAAXK@Z 10024fc2 f ciidle.obj
 0001:00024044       __pcd_tbl?FUpdateAllCompIdleTimers@SCM@@AAAHHPAH@Z 10025044 f ciidle.obj
 0001:00024050       __nep?FUpdateAllCompIdleTimers@SCM@@AAAHHPAH@Z 10025050 f ciidle.obj
 0001:00024058       __fh?FUpdateAllCompIdleTimers@SCM@@AAAHHPAH@Z 10025058 f ciidle.obj
 0001:0002405a       ?FUpdateAllCompIdleTimers@SCM@@AAAHHPAH@Z 1002505a f ciidle.obj
 0001:000240c8       __pcd_tbl?FDoIdleLoop@SCM@@AAAHHKK@Z 100250c8 f ciidle.obj
 0001:000240dc       __nep?FDoIdleLoop@SCM@@AAAHHKK@Z 100250dc f ciidle.obj
 0001:000240e4       __fh?FDoIdleLoop@SCM@@AAAHHKK@Z 100250e4 f ciidle.obj
 0001:000240e6       ?FDoIdleLoop@SCM@@AAAHHKK@Z 100250e6 f ciidle.obj
 0001:00024228       __pcd_tbl?UnmarkCompsNeedNormIdleTimeNow@SCM@@AAAXK@Z 10025228 f ciidle.obj
 0001:00024228       __nep?UnmarkCompsNeedNormIdleTimeNow@SCM@@AAAXK@Z 10025228 f ciidle.obj
 0001:00024230       __fh?UnmarkCompsNeedNormIdleTimeNow@SCM@@AAAXK@Z 10025230 f ciidle.obj
 0001:00024232       ?UnmarkCompsNeedNormIdleTimeNow@SCM@@AAAXK@Z 10025232 f ciidle.obj
 0001:00024294       __pcd_tbl?FDoPriorityIdle@SCM@@AAAHH@Z 10025294 f ciidle.obj
 0001:0002429c       __nep?FDoPriorityIdle@SCM@@AAAHH@Z 1002529c f ciidle.obj
 0001:000242a4       __fh?FDoPriorityIdle@SCM@@AAAHH@Z 100252a4 f ciidle.obj
 0001:000242a6       ?FDoPriorityIdle@SCM@@AAAHH@Z 100252a6 f ciidle.obj
 0001:000242f4       __pcd_tbl?OnWaitForMessage@SCM_MsoStdCompMgr@@UAAXXZ 100252f4 f cistdmgr.obj
 0001:000242fc       __nep?OnWaitForMessage@SCM_MsoStdCompMgr@@UAAXXZ 100252fc f cistdmgr.obj
 0001:00024304       __fh?OnWaitForMessage@SCM_MsoStdCompMgr@@UAAXXZ 10025304 f cistdmgr.obj
 0001:00024306       ?OnWaitForMessage@SCM_MsoStdCompMgr@@UAAXXZ 10025306 f cistdmgr.obj
 0001:00024310       __pcd_tbl?FSetIdleTimer@SCM@@AAAHXZ 10025310 f ciidle.obj
 0001:00024320       __nep?FSetIdleTimer@SCM@@AAAHXZ 10025320 f ciidle.obj
 0001:00024328       __fh?FSetIdleTimer@SCM@@AAAHXZ 10025328 f ciidle.obj
 0001:0002432a       ?FSetIdleTimer@SCM@@AAAHXZ 1002532a f ciidle.obj
 0001:00024368       ?FIsURL@@YAHPBGPAH11@Z     10025368 f dmurl.obj
 0001:000244f8       _wcslen                    100254f8 f msowlm:wlmstr.obj
 0001:0002455c       __pcd_tbl_GetHFontSdm      1002555c f sdmapim.obj
 0001:00024560       __nep_GetHFontSdm          10025560 f sdmapim.obj
 0001:00024568       __fh_GetHFontSdm           10025568 f sdmapim.obj
 0001:0002456a       _GetHFontSdm               1002556a f sdmapim.obj
 0001:000245c4       __pcd_tbl_InternalFInitSdm 100255c4 f sdmit1.obj
 0001:000245d4       __nep_InternalFInitSdm     100255d4 f sdmit1.obj
 0001:000245dc       __fh_InternalFInitSdm      100255dc f sdmit1.obj
 0001:000245de       _InternalFInitSdm          100255de f sdmit1.obj
 0001:0002466c       _MsoFLoadWz                1002566c f kjstr.obj
 0001:000246f8       __pcd_tbl_FSdmInitEng      100256f8 f sdmengm.obj
 0001:00024714       __nep_FSdmInitEng          10025714 f sdmengm.obj
 0001:0002471c       __fh_FSdmInitEng           1002571c f sdmengm.obj
 0001:0002471e       _FSdmInitEng               1002571e f sdmengm.obj
 0001:000247a8       __pcd_tbl_FInitLbox        100257a8 f sdlbitm.obj
 0001:000247a8       __nep_FInitLbox            100257a8 f sdlbitm.obj
 0001:000247b0       __fh_FInitLbox             100257b0 f sdlbitm.obj
 0001:000247b2       _FInitLbox                 100257b2 f sdlbitm.obj
 0001:000247d0       __pcd_tbl_FSdmInitDraw     100257d0 f sdmdrawm.obj
 0001:000247f0       __nep_FSdmInitDraw         100257f0 f sdmdrawm.obj
 0001:000247f8       __fh_FSdmInitDraw          100257f8 f sdmdrawm.obj
 0001:000247fa       _FSdmInitDraw              100257fa f sdmdrawm.obj
 0001:00024918       ?FFarEastSystem@@YAHXZ     10025918 f kjintl.obj
 0001:00024998       _MsoFIsInFileSysWzPersistentName 10025998 f dmuOLDoc.obj
 0001:000249d4       _MsoCreateIOLDocFromWzPersistentName 100259d4 f dmuOLDoc.obj
 0001:00024b1c       _MsoFLoadSzFromPstt        10025b1c f kjstr.obj
 0001:00024bb8       _MsoFUnloadPstt            10025bb8 f kjstr.obj
 0001:00024c48       _MsoPIMsoOLDocumentFindWithWzPersistentName 10025c48 f dmuOLDoc.obj
 0001:00024c78       _MsoPIOLDocFindWithWzPersistentName 10025c78 f dmuOLDoc.obj
 0001:00024d24       _MsoRelPathToAbsPath       10025d24 f dmuOLDoc.obj
 0001:00024d68       _MsoMakeWzAbsFromWzBaseWzRel 10025d68 f dmuOLDoc.obj
 0001:00024edc       ?POLDocFindWithWzPersistentName@CMsoOLDocBase@@SAPAV1@PBG@Z 10025edc f dmuOLDoc.obj
 0001:00024fbc       _MsoWzPathFromWzQuotedPath 10025fbc f dmuOLDoc.obj
 0001:000250f8       _MsoWzLongPathFromWzPath   100260f8 f dmuOLDoc.obj
 0001:00025190       ?MakeIInterface@CMsoOLDocBase@@UAAJH@Z 10026190 f dmuOLDoc.obj
 0001:000252a4       ?CchGetGdn@CMsoOLDocBase@@QAAKH@Z 100262a4 f dmuOLDoc.obj
 0001:000252dc       ?GetWzPcchGdn@CMsoOLDocBaseImpIOLDoc2@@UAAJPAGPAKH@Z 100262dc f dmuOLDoc.obj
 0001:00025430       ?CchMaxGetGdn@CMsoOLDocBase@@SAKH@Z 10026430 f dmuOLDoc.obj
 0001:000254a4       ?CchGetWzGdn@CMsoOLDocBase@@QAAKPAGH@Z 100264a4 f dmuOLDoc.obj
 0001:0002551c       ?GetWzLeafFromWzPath@CMsoOLDocBase@@KAXPAGPBGHH@Z 1002651c f dmuOLDoc.obj
 0001:0002566c       ?DecompressToWz@@YAGIPAUHINSTANCE__@@PBEGPAEGE@Z 1002666c f kjstr.obj
 0001:00025b00       _MsoRgwchIndex             10026b00 f kjstr.obj
 0001:00025bbc       ?IsInFileSys@CMsoOLDocBaseImpIOLDoc2@@UAAJXZ 10026bbc f dmuOLDoc.obj
 0001:00025c3c       _MsoCchLoadWzFromPstt      10026c3c f kjstr.obj
 0001:00025ce0       __pcd_tbl_HdlgGetCur       10026ce0 f sdmit1.obj
 0001:00025ce0       __nep_HdlgGetCur           10026ce0 f sdmit1.obj
 0001:00025ce8       __fh_HdlgGetCur            10026ce8 f sdmit1.obj
 0001:00025cea       _HdlgGetCur                10026cea f sdmit1.obj
 0001:00025cf8       __pcd_tbl_MsoFPitbsFromHwndAndMsg 10026cf8 f tbclass.obj
 0001:00025d08       __nep_MsoFPitbsFromHwndAndMsg 10026d08 f tbclass.obj
 0001:00025d10       __fh_MsoFPitbsFromHwndAndMsg 10026d10 f tbclass.obj
 0001:00025d12       _MsoFPitbsFromHwndAndMsg   10026d12 f tbclass.obj
 0001:00025d44       __pcd_tbl?FPitbsFromHwnd@@YAHPAUHWND__@@HHPAPAUIMsoToolbarSet@@@Z 10026d44 f tbclass.obj
 0001:00025d44       __nep?FPitbsFromHwnd@@YAHPAUHWND__@@HHPAPAUIMsoToolbarSet@@@Z 10026d44 f tbclass.obj
 0001:00025d4c       __fh?FPitbsFromHwnd@@YAHPAUHWND__@@HHPAPAUIMsoToolbarSet@@@Z 10026d4c f tbclass.obj
 0001:00025d4e       ?FPitbsFromHwnd@@YAHPAUHWND__@@HHPAPAUIMsoToolbarSet@@@Z 10026d4e f tbclass.obj
 0001:00025d88       ?SetWzI@CMsoOLDocBase@@QAAJPBGH@Z 10026d88 f dmuOLDoc.obj
 0001:00025dd0       __pcd_tbl_MsoLoadModule    10026dd0 f kjmod.obj
 0001:00025df0       __nep_MsoLoadModule        10026df0 f kjmod.obj
 0001:00025df8       __fh_MsoLoadModule         10026df8 f kjmod.obj
 0001:00025dfb       _MsoLoadModule             10026dfb f kjmod.obj
 0001:00025ea0       __pcd_tbl??0CCUBASE@@QAA@XZ 10026ea0 f base.obj
 0001:00025ea0       __nep??0CCUBASE@@QAA@XZ    10026ea0 f base.obj
 0001:00025ea8       __fh??0CCUBASE@@QAA@XZ     10026ea8 f base.obj
 0001:00025eaa       ??0CCUBASE@@QAA@XZ         10026eaa f base.obj
 0001:00025ebc       __pcd_tbl?QueryInterface@CCUBASE@@UAAJABUGUID@@PAPAX@Z 10026ebc f base.obj
 0001:00025ec0       __nep?QueryInterface@CCUBASE@@UAAJABUGUID@@PAPAX@Z 10026ec0 f base.obj
 0001:00025ec8       __fh?QueryInterface@CCUBASE@@UAAJABUGUID@@PAPAX@Z 10026ec8 f base.obj
 0001:00025eca       ?QueryInterface@CCUBASE@@UAAJABUGUID@@PAPAX@Z 10026eca f base.obj
 0001:00025ed4       __nep?FDebugMessage@CCUBASE@@UAAHPAUMSOINST@@IIJ@Z 10026ed4 f base.obj
 0001:00025ed4       __pcd_tbl?FDebugMessage@CCUBASE@@UAAHPAUMSOINST@@IIJ@Z 10026ed4 f base.obj
 0001:00025edc       __fh?FDebugMessage@CCUBASE@@UAAHPAUMSOINST@@IIJ@Z 10026edc f base.obj
 0001:00025ede       ?FDebugMessage@CCUBASE@@UAAHPAUMSOINST@@IIJ@Z 10026ede f base.obj
 0001:00025ee0       __pcd_tbl?NotifyResize@CCUBASE@@UAAXPAPAXPAUIMsoControlContainer@@PAH2H@Z 10026ee0 f base.obj
 0001:00025ee0       __nep?NotifyResize@CCUBASE@@UAAXPAPAXPAUIMsoControlContainer@@PAH2H@Z 10026ee0 f base.obj
 0001:00025ee8       __fh?NotifyResize@CCUBASE@@UAAXPAPAXPAUIMsoControlContainer@@PAH2H@Z 10026ee8 f base.obj
 0001:00025eea       ?NotifyResize@CCUBASE@@UAAXPAPAXPAUIMsoControlContainer@@PAH2H@Z 10026eea f base.obj
 0001:00025efc       __pcd_tbl?QueryInterface@TBSUBASE@@UAAJABUGUID@@PAPAX@Z 10026efc f base.obj
 0001:00025f00       __nep?QueryInterface@TBSUBASE@@UAAJABUGUID@@PAPAX@Z 10026f00 f base.obj
 0001:00025f08       __fh?QueryInterface@TBSUBASE@@UAAJABUGUID@@PAPAX@Z 10026f08 f base.obj
 0001:00025f0a       ?QueryInterface@TBSUBASE@@UAAJABUGUID@@PAPAX@Z 10026f0a f base.obj
 0001:00025f14       __pcd_tbl?QueryInterface@TBBUBASE@@UAAJABUGUID@@PAPAX@Z 10026f14 f base.obj
 0001:00025f18       __nep?QueryInterface@TBBUBASE@@UAAJABUGUID@@PAPAX@Z 10026f18 f base.obj
 0001:00025f20       __fh?QueryInterface@TBBUBASE@@UAAJABUGUID@@PAPAX@Z 10026f20 f base.obj
 0001:00025f22       ?QueryInterface@TBBUBASE@@UAAJABUGUID@@PAPAX@Z 10026f22 f base.obj
 0001:00025f30       __pcd_tbl?QueryInterface@TBDDUBASE@@UAAJABUGUID@@PAPAX@Z 10026f30 f base.obj
 0001:00025f34       __nep?QueryInterface@TBDDUBASE@@UAAJABUGUID@@PAPAX@Z 10026f34 f base.obj
 0001:00025f3c       __fh?QueryInterface@TBDDUBASE@@UAAJABUGUID@@PAPAX@Z 10026f3c f base.obj
 0001:00025f3e       ?QueryInterface@TBDDUBASE@@UAAJABUGUID@@PAPAX@Z 10026f3e f base.obj
 0001:00025f4c       __pcd_tbl?QueryInterface@TBMUBASE@@UAAJABUGUID@@PAPAX@Z 10026f4c f base.obj
 0001:00025f50       __nep?QueryInterface@TBMUBASE@@UAAJABUGUID@@PAPAX@Z 10026f50 f base.obj
 0001:00025f58       __fh?QueryInterface@TBMUBASE@@UAAJABUGUID@@PAPAX@Z 10026f58 f base.obj
 0001:00025f5a       ?QueryInterface@TBMUBASE@@UAAJABUGUID@@PAPAX@Z 10026f5a f base.obj
 0001:00025f68       __pcd_tbl?QueryInterface@TBCSUBASE@@UAAJABUGUID@@PAPAX@Z 10026f68 f base.obj
 0001:00025f6c       __nep?QueryInterface@TBCSUBASE@@UAAJABUGUID@@PAPAX@Z 10026f6c f base.obj
 0001:00025f74       __fh?QueryInterface@TBCSUBASE@@UAAJABUGUID@@PAPAX@Z 10026f74 f base.obj
 0001:00025f76       ?QueryInterface@TBCSUBASE@@UAAJABUGUID@@PAPAX@Z 10026f76 f base.obj
 0001:00025f84       __pcd_tbl?QueryInterface@TBCUBASE@@UAAJABUGUID@@PAPAX@Z 10026f84 f base.obj
 0001:00025f88       __nep?QueryInterface@TBCUBASE@@UAAJABUGUID@@PAPAX@Z 10026f88 f base.obj
 0001:00025f90       __fh?QueryInterface@TBCUBASE@@UAAJABUGUID@@PAPAX@Z 10026f90 f base.obj
 0001:00025f92       ?QueryInterface@TBCUBASE@@UAAJABUGUID@@PAPAX@Z 10026f92 f base.obj
 0001:00025fbc       __nep?QueryInterface@COMPBASE@@UAAJABUGUID@@PAPAX@Z 10026fbc f base.obj
 0001:00025fbc       __pcd_tbl?QueryInterface@COMPBASE@@UAAJABUGUID@@PAPAX@Z 10026fbc f base.obj
 0001:00025fc4       __fh?QueryInterface@COMPBASE@@UAAJABUGUID@@PAPAX@Z 10026fc4 f base.obj
 0001:00025fc6       ?QueryInterface@COMPBASE@@UAAJABUGUID@@PAPAX@Z 10026fc6 f base.obj
 0001:00026018       __nep?FPreTranslateMessage@COMPBASE@@UAAHPAUtagMSG@@@Z 10027018 f base.obj
 0001:00026018       __pcd_tbl?FPreTranslateMessage@COMPBASE@@UAAHPAUtagMSG@@@Z 10027018 f base.obj
 0001:00026020       __fh?FPreTranslateMessage@COMPBASE@@UAAHPAUtagMSG@@@Z 10027020 f base.obj
 0001:00026022       ?FPreTranslateMessage@COMPBASE@@UAAHPAUtagMSG@@@Z 10027022 f base.obj
 0001:00026024       __pcd_tbl?FPreProcessMacEvent@COMPBASE@@UAAHPAUEventRecord@@@Z 10027024 f base.obj
 0001:00026024       __nep?FPreProcessMacEvent@COMPBASE@@UAAHPAUEventRecord@@@Z 10027024 f base.obj
 0001:0002602c       __fh?FPreProcessMacEvent@COMPBASE@@UAAHPAUEventRecord@@@Z 1002702c f base.obj
 0001:0002602e       ?FPreProcessMacEvent@COMPBASE@@UAAHPAUEventRecord@@@Z 1002702e f base.obj
 0001:00026030       __nep?OnEnterState@COMPBASE@@UAAXKH@Z 10027030 f base.obj
 0001:00026030       __pcd_tbl?OnEnterState@COMPBASE@@UAAXKH@Z 10027030 f base.obj
 0001:00026038       __fh?OnEnterState@COMPBASE@@UAAXKH@Z 10027038 f base.obj
 0001:0002603a       ?OnEnterState@COMPBASE@@UAAXKH@Z 1002703a f base.obj
 0001:0002603c       __nep?FDoIdle@COMPBASE@@UAAHK@Z 1002703c f base.obj
 0001:0002603c       __pcd_tbl?FDoIdle@COMPBASE@@UAAHK@Z 1002703c f base.obj
 0001:00026044       __fh?FDoIdle@COMPBASE@@UAAHK@Z 10027044 f base.obj
 0001:00026046       ?FDoIdle@COMPBASE@@UAAHK@Z 10027046 f base.obj
 0001:00026048       __nep?FContinueMessageLoop@COMPBASE@@UAAHKPAXPAUtagMSG@@@Z 10027048 f base.obj
 0001:00026048       __pcd_tbl?FContinueMessageLoop@COMPBASE@@UAAHKPAXPAUtagMSG@@@Z 10027048 f base.obj
 0001:00026050       __fh?FContinueMessageLoop@COMPBASE@@UAAHKPAXPAUtagMSG@@@Z 10027050 f base.obj
 0001:00026052       ?FContinueMessageLoop@COMPBASE@@UAAHKPAXPAUtagMSG@@@Z 10027052 f base.obj
 0001:00026054       __pcd_tbl?NotifyDelete@CCUBASE@@UAAXPAPAXPAUIMsoControlContainer@@@Z 10027054 f base.obj
 0001:00026054       __nep?NotifyDelete@CCUBASE@@UAAXPAPAXPAUIMsoControlContainer@@@Z 10027054 f base.obj
 0001:0002605c       __fh?NotifyDelete@CCUBASE@@UAAXPAPAXPAUIMsoControlContainer@@@Z 1002705c f base.obj
 0001:0002605e       ?NotifyDelete@CCUBASE@@UAAXPAPAXPAUIMsoControlContainer@@@Z 1002705e f base.obj
 0001:00026060       __nep?FWriteBeCompMgrs@@YAHJ@Z 10027060 f ci.obj
 0001:00026060       __pcd_tbl?FWriteBeCompMgrs@@YAHJ@Z 10027060 f ci.obj
 0001:00026068       __fh?FWriteBeCompMgrs@@YAHJ@Z 10027068 f ci.obj
 0001:0002606a       ?FWriteBeCompMgrs@@YAHJ@Z  1002706a f ci.obj
 0001:0002606c       __pcd_tbl?InitIdleTimer@SCMI@@QAAXH@Z 1002706c f ciidle.obj
 0001:00026070       __nep?InitIdleTimer@SCMI@@QAAXH@Z 10027070 f ciidle.obj
 0001:00026078       __fh?InitIdleTimer@SCMI@@QAAXH@Z 10027078 f ciidle.obj
 0001:0002607a       ?InitIdleTimer@SCMI@@QAAXH@Z 1002707a f ciidle.obj
 0001:000260b0       __nep?UninitIdleTimer@SCMI@@QAAXXZ 100270b0 f ciidle.obj
 0001:000260b0       __pcd_tbl?UninitIdleTimer@SCMI@@QAAXXZ 100270b0 f ciidle.obj
 0001:000260b8       __fh?UninitIdleTimer@SCMI@@QAAXXZ 100270b8 f ciidle.obj
 0001:000260ba       ?UninitIdleTimer@SCMI@@QAAXXZ 100270ba f ciidle.obj
 0001:000260ec       __pcd_tbl?FUpdateIdleTimerFiredState@SCMI@@QAAHPAH@Z 100270ec f ciidle.obj
 0001:000260f0       __nep?FUpdateIdleTimerFiredState@SCMI@@QAAHPAH@Z 100270f0 f ciidle.obj
 0001:000260f8       __fh?FUpdateIdleTimerFiredState@SCMI@@QAAHPAH@Z 100270f8 f ciidle.obj
 0001:000260fa       ?FUpdateIdleTimerFiredState@SCMI@@QAAHPAH@Z 100270fa f ciidle.obj
 0001:00026150       __nep?NNormalIdleCompare@SCMI@@SAHPAPBV1@0@Z 10027150 f ciidle.obj
 0001:00026150       __pcd_tbl?NNormalIdleCompare@SCMI@@SAHPAPBV1@0@Z 10027150 f ciidle.obj
 0001:00026158       __fh?NNormalIdleCompare@SCMI@@SAHPAPBV1@0@Z 10027158 f ciidle.obj
 0001:0002615a       ?NNormalIdleCompare@SCMI@@SAHPAPBV1@0@Z 1002715a f ciidle.obj
 0001:00026184       __pcd_tbl?NPeriodicIdleCompare@SCMI@@SAHPAPBV1@0@Z 10027184 f ciidle.obj
 0001:00026184       __nep?NPeriodicIdleCompare@SCMI@@SAHPAPBV1@0@Z 10027184 f ciidle.obj
 0001:0002618c       __fh?NPeriodicIdleCompare@SCMI@@SAHPAPBV1@0@Z 1002718c f ciidle.obj
 0001:0002618e       ?NPeriodicIdleCompare@SCMI@@SAHPAPBV1@0@Z 1002718e f ciidle.obj
 0001:000261cc       __pcd_tbl?FDoIdle@SCM@@AAAHK@Z 100271cc f ciidle.obj
 0001:000261e0       __nep?FDoIdle@SCM@@AAAHK@Z 100271e0 f ciidle.obj
 0001:000261e8       __fh?FDoIdle@SCM@@AAAHK@Z  100271e8 f ciidle.obj
 0001:000261ea       ?FDoIdle@SCM@@AAAHK@Z      100271ea f ciidle.obj
 0001:000262cc       __pcd_tbl?FDoTrackingIdle@SCM@@AAAHHKK@Z 100272cc f ciidle.obj
 0001:000262d8       __nep?FDoTrackingIdle@SCM@@AAAHHKK@Z 100272d8 f ciidle.obj
 0001:000262e0       __fh?FDoTrackingIdle@SCM@@AAAHHKK@Z 100272e0 f ciidle.obj
 0001:000262e2       ?FDoTrackingIdle@SCM@@AAAHHKK@Z 100272e2 f ciidle.obj
 0001:000263d0       __pcd_tbl?FContinueIdle@SCM@@AAAHXZ 100273d0 f ciidle.obj
 0001:000263d4       __nep?FContinueIdle@SCM@@AAAHXZ 100273d4 f ciidle.obj
 0001:000263dc       __fh?FContinueIdle@SCM@@AAAHXZ 100273dc f ciidle.obj
 0001:000263de       ?FContinueIdle@SCM@@AAAHXZ 100273de f ciidle.obj
 0001:00026424       __pcd_tbl?FAddCompToNormIdleList@SCM@@AAAHPAVSCMI@@@Z 10027424 f ciidle.obj
 0001:00026428       __nep?FAddCompToNormIdleList@SCM@@AAAHPAVSCMI@@@Z 10027428 f ciidle.obj
 0001:00026430       __fh?FAddCompToNormIdleList@SCM@@AAAHPAVSCMI@@@Z 10027430 f ciidle.obj
 0001:00026432       ?FAddCompToNormIdleList@SCM@@AAAHPAVSCMI@@@Z 10027432 f ciidle.obj
 0001:00026460       __pcd_tbl?FAddCompToPeriodicIdleList@SCM@@AAAHPAVSCMI@@K@Z 10027460 f ciidle.obj
 0001:0002646c       __nep?FAddCompToPeriodicIdleList@SCM@@AAAHPAVSCMI@@K@Z 1002746c f ciidle.obj
 0001:00026474       __fh?FAddCompToPeriodicIdleList@SCM@@AAAHPAVSCMI@@K@Z 10027474 f ciidle.obj
 0001:00026476       ?FAddCompToPeriodicIdleList@SCM@@AAAHPAVSCMI@@K@Z 10027476 f ciidle.obj
 0001:000264b8       __pcd_tbl?UpdatePeriodicIdleTimer@SCM@@AAAXHK@Z 100274b8 f ciidle.obj
 0001:000264c4       __nep?UpdatePeriodicIdleTimer@SCM@@AAAXHK@Z 100274c4 f ciidle.obj
 0001:000264cc       __fh?UpdatePeriodicIdleTimer@SCM@@AAAXHK@Z 100274cc f ciidle.obj
 0001:000264ce       ?UpdatePeriodicIdleTimer@SCM@@AAAXHK@Z 100274ce f ciidle.obj
 0001:00026504       __pcd_tbl?KillIdleTimer@SCM@@AAAXXZ 10027504 f ciidle.obj
 0001:0002650c       __nep?KillIdleTimer@SCM@@AAAXXZ 1002750c f ciidle.obj
 0001:00026514       __fh?KillIdleTimer@SCM@@AAAXXZ 10027514 f ciidle.obj
 0001:00026516       ?KillIdleTimer@SCM@@AAAXXZ 10027516 f ciidle.obj
 0001:00026538       __pcd_tbl?IdleTimerProc@SCM@@SAXPAUHWND__@@IIK@Z 10027538 f ciidle.obj
 0001:00026540       __nep?IdleTimerProc@SCM@@SAXPAUHWND__@@IIK@Z 10027540 f ciidle.obj
 0001:00026548       __fh?IdleTimerProc@SCM@@SAXPAUHWND__@@IIK@Z 10027548 f ciidle.obj
 0001:0002654a       ?IdleTimerProc@SCM@@SAXPAUHWND__@@IIK@Z 1002754a f ciidle.obj
 0001:00026560       __pcd_tbl?FGetTimeTillNextPeriodicIdleFiring@SCM@@AAAHPAK@Z 10027560 f ciidle.obj
 0001:00026564       __nep?FGetTimeTillNextPeriodicIdleFiring@SCM@@AAAHPAK@Z 10027564 f ciidle.obj
 0001:0002656c       __fh?FGetTimeTillNextPeriodicIdleFiring@SCM@@AAAHPAK@Z 1002756c f ciidle.obj
 0001:0002656e       ?FGetTimeTillNextPeriodicIdleFiring@SCM@@AAAHPAK@Z 1002756e f ciidle.obj
 0001:000265d8       __pcd_tbl?FSortPxIdle@SCM@@AAAHH@Z 100275d8 f ciidle.obj
 0001:000265dc       __nep?FSortPxIdle@SCM@@AAAHH@Z 100275dc f ciidle.obj
 0001:000265e4       __fh?FSortPxIdle@SCM@@AAAHH@Z 100275e4 f ciidle.obj
 0001:000265e6       ?FSortPxIdle@SCM@@AAAHH@Z  100275e6 f ciidle.obj
 0001:00026618       __nep??0SCMI@@QAA@XZ       10027618 f cistdmgr.obj
 0001:00026618       __pcd_tbl??0SCMI@@QAA@XZ   10027618 f cistdmgr.obj
 0001:00026620       __fh??0SCMI@@QAA@XZ        10027620 f cistdmgr.obj
 0001:00026622       ??0SCMI@@QAA@XZ            10027622 f cistdmgr.obj
 0001:0002664c       __nep??1SCMI@@QAA@XZ       1002764c f cistdmgr.obj
 0001:0002664c       __pcd_tbl??1SCMI@@QAA@XZ   1002764c f cistdmgr.obj
 0001:00026654       __fh??1SCMI@@QAA@XZ        10027654 f cistdmgr.obj
 0001:00026656       ??1SCMI@@QAA@XZ            10027656 f cistdmgr.obj
 0001:00026670       __nep?TellNewState@SCMI@@QAAXPAUCMStateChange@@@Z 10027670 f cistdmgr.obj
 0001:00026670       __pcd_tbl?TellNewState@SCMI@@QAAXPAUCMStateChange@@@Z 10027670 f cistdmgr.obj
 0001:00026678       __fh?TellNewState@SCMI@@QAAXPAUCMStateChange@@@Z 10027678 f cistdmgr.obj
 0001:0002667a       ?TellNewState@SCMI@@QAAXPAUCMStateChange@@@Z 1002767a f cistdmgr.obj
 0001:000266b8       __pcd_tbl?Create@SCM@@SAPAV1@PAUIUnknown@@PAUIMsoComponentHost@@PAPAU2@@Z 100276b8 f cistdmgr.obj
 0001:000266cc       __nep?Create@SCM@@SAPAV1@PAUIUnknown@@PAUIMsoComponentHost@@PAPAU2@@Z 100276cc f cistdmgr.obj
 0001:000266d4       __fh?Create@SCM@@SAPAV1@PAUIUnknown@@PAUIMsoComponentHost@@PAPAU2@@Z 100276d4 f cistdmgr.obj
 0001:000266d6       ?Create@SCM@@SAPAV1@PAUIUnknown@@PAUIMsoComponentHost@@PAPAU2@@Z 100276d6 f cistdmgr.obj
 0001:000266f4       ??0SCM@@QAA@XZ             100276f4 f cistdmgr.obj
 0001:0002681c       __nep?a@IUnknown@@UAAXXZ   1002781c f cistdmgr.obj
 0001:0002681c       __pcd_tbl?a@IUnknown@@UAAXXZ 1002781c f cistdmgr.obj
 0001:00026824       __fh?a@IUnknown@@UAAXXZ    10027824 f cistdmgr.obj
 0001:00026826       ?a@IUnknown@@UAAXXZ        10027826 f cistdmgr.obj
 0001:00026828       __nep?a@IMsoComponentManager@@UAAXXZ 10027828 f cistdmgr.obj
 0001:00026828       __pcd_tbl?a@IMsoComponentManager@@UAAXXZ 10027828 f cistdmgr.obj
 0001:00026830       __fh?a@IMsoComponentManager@@UAAXXZ 10027830 f cistdmgr.obj
 0001:00026832       ?a@IMsoComponentManager@@UAAXXZ 10027832 f cistdmgr.obj
 0001:00026834       __nep?a@IMsoStdComponentMgr@@UAAXXZ 10027834 f cistdmgr.obj
 0001:00026834       __pcd_tbl?a@IMsoStdComponentMgr@@UAAXXZ 10027834 f cistdmgr.obj
 0001:0002683c       __fh?a@IMsoStdComponentMgr@@UAAXXZ 1002783c f cistdmgr.obj
 0001:0002683e       ?a@IMsoStdComponentMgr@@UAAXXZ 1002783e f cistdmgr.obj
 0001:00026840       __pcd_tbl?FInit@SCM@@QAAHPAUIUnknown@@PAUIMsoComponentHost@@PAPAU2@@Z 10027840 f cistdmgr.obj
 0001:00026848       __nep?FInit@SCM@@QAAHPAUIUnknown@@PAUIMsoComponentHost@@PAPAU2@@Z 10027848 f cistdmgr.obj
 0001:00026850       __fh?FInit@SCM@@QAAHPAUIUnknown@@PAUIMsoComponentHost@@PAPAU2@@Z 10027850 f cistdmgr.obj
 0001:00026852       ?FInit@SCM@@QAAHPAUIUnknown@@PAUIMsoComponentHost@@PAPAU2@@Z 10027852 f cistdmgr.obj
 0001:00026890       ??1SCM@@QAA@XZ             10027890 f cistdmgr.obj
 0001:00026acc       __pcd_tbl?NotifyCompsOfActivationChange@SCM@@AAAXHHH@Z 10027acc f cistdmgr.obj
 0001:00026ad4       __nep?NotifyCompsOfActivationChange@SCM@@AAAXHHH@Z 10027ad4 f cistdmgr.obj
 0001:00026adc       __fh?NotifyCompsOfActivationChange@SCM@@AAAXHHH@Z 10027adc f cistdmgr.obj
 0001:00026adf       ?NotifyCompsOfActivationChange@SCM@@AAAXHHH@Z 10027adf f cistdmgr.obj
 0001:00026c4c       __pcd_tbl?FSetTrackingComp@SCM@@AAAHPAVSCMI@@H@Z 10027c4c f cistdmgr.obj
 0001:00026c50       __nep?FSetTrackingComp@SCM@@AAAHPAVSCMI@@H@Z 10027c50 f cistdmgr.obj
 0001:00026c58       __fh?FSetTrackingComp@SCM@@AAAHPAVSCMI@@H@Z 10027c58 f cistdmgr.obj
 0001:00026c5a       ?FSetTrackingComp@SCM@@AAAHPAVSCMI@@H@Z 10027c5a f cistdmgr.obj
 0001:00026ca8       __pcd_tbl?FQueryTerminate@SCM@@AAAHH@Z 10027ca8 f cistdmgr.obj
 0001:00026cb0       __nep?FQueryTerminate@SCM@@AAAHH@Z 10027cb0 f cistdmgr.obj
 0001:00026cb8       __fh?FQueryTerminate@SCM@@AAAHH@Z 10027cb8 f cistdmgr.obj
 0001:00026cba       ?FQueryTerminate@SCM@@AAAHH@Z 10027cba f cistdmgr.obj
 0001:00026d78       __nep?FCmIsInExclusionList@@YAHPAUIMsoComponentManager@@PAUCMStateChange@@@Z 10027d78 f cistdmgr.obj
 0001:00026d78       __pcd_tbl?FCmIsInExclusionList@@YAHPAUIMsoComponentManager@@PAUCMStateChange@@@Z 10027d78 f cistdmgr.obj
 0001:00026d80       __fh?FCmIsInExclusionList@@YAHPAUIMsoComponentManager@@PAUCMStateChange@@@Z 10027d80 f cistdmgr.obj
 0001:00026d82       ?FCmIsInExclusionList@@YAHPAUIMsoComponentManager@@PAUCMStateChange@@@Z 10027d82 f cistdmgr.obj
 0001:00026e0c       __pcd_tbl?OnEnterState@SCM@@AAAXPAVSCMI@@PAVDCM@@KKHKPAPAUIMsoComponentManager@@PAHK@Z 10027e0c f cistdmgr.obj
 0001:00026e2c       __nep?OnEnterState@SCM@@AAAXPAVSCMI@@PAVDCM@@KKHKPAPAUIMsoComponentManager@@PAHK@Z 10027e2c f cistdmgr.obj
 0001:00026e34       __fh?OnEnterState@SCM@@AAAXPAVSCMI@@PAVDCM@@KKHKPAPAUIMsoComponentManager@@PAHK@Z 10027e34 f cistdmgr.obj
 0001:00026e37       ?OnEnterState@SCM@@AAAXPAVSCMI@@PAVDCM@@KKHKPAPAUIMsoComponentManager@@PAHK@Z 10027e37 f cistdmgr.obj
 0001:00026fa8       __pcd_tbl?PropagateStateChangeInfo@SCM@@AAAXPAVDCM@@PAUCMStateChange@@@Z 10027fa8 f cistdmgr.obj
 0001:00026fbc       __nep?PropagateStateChangeInfo@SCM@@AAAXPAVDCM@@PAUCMStateChange@@@Z 10027fbc f cistdmgr.obj
 0001:00026fc4       __fh?PropagateStateChangeInfo@SCM@@AAAXPAVDCM@@PAUCMStateChange@@@Z 10027fc4 f cistdmgr.obj
 0001:00026fc6       ?PropagateStateChangeInfo@SCM@@AAAXPAVDCM@@PAUCMStateChange@@@Z 10027fc6 f cistdmgr.obj
 0001:0002705c       __nep?FUpdateStateCount@SCM@@AAAHKHPAVDCM@@PAK@Z 1002805c f cistdmgr.obj
 0001:0002705c       __pcd_tbl?FUpdateStateCount@SCM@@AAAHKHPAVDCM@@PAK@Z 1002805c f cistdmgr.obj
 0001:00027064       __fh?FUpdateStateCount@SCM@@AAAHKHPAVDCM@@PAK@Z 10028064 f cistdmgr.obj
 0001:00027066       ?FUpdateStateCount@SCM@@AAAHKHPAVDCM@@PAK@Z 10028066 f cistdmgr.obj
 0001:000270e0       __pcd_tbl?FInState@SCM@@AAAHK@Z 100280e0 f cistdmgr.obj
 0001:000270e0       __nep?FInState@SCM@@AAAHK@Z 100280e0 f cistdmgr.obj
 0001:000270e8       __fh?FInState@SCM@@AAAHK@Z 100280e8 f cistdmgr.obj
 0001:000270ea       ?FInState@SCM@@AAAHK@Z     100280ea f cistdmgr.obj
 0001:00027120       __pcd_tbl?TellHostNewState@SCM@@AAAXKH@Z 10028120 f cistdmgr.obj
 0001:00027120       __nep?TellHostNewState@SCM@@AAAXKH@Z 10028120 f cistdmgr.obj
 0001:00027128       __fh?TellHostNewState@SCM@@AAAXKH@Z 10028128 f cistdmgr.obj
 0001:0002712a       ?TellHostNewState@SCM@@AAAXKH@Z 1002812a f cistdmgr.obj
 0001:0002715c       __pcd_tbl?FPushMessageLoop@SCM@@AAAHPAVSCMI@@KPAX@Z 1002815c f cistdmgr.obj
 0001:00027178       __nep?FPushMessageLoop@SCM@@AAAHPAVSCMI@@KPAX@Z 10028178 f cistdmgr.obj
 0001:00027180       __fh?FPushMessageLoop@SCM@@AAAHPAVSCMI@@KPAX@Z 10028180 f cistdmgr.obj
 0001:00027182       ?FPushMessageLoop@SCM@@AAAHPAVSCMI@@KPAX@Z 10028182 f cistdmgr.obj
 0001:00027258       __pcd_tbl?FContinueMessageLoop@SCM@@AAAHPAUtagMSG@@@Z 10028258 f cistdmgr.obj
 0001:0002725c       __nep?FContinueMessageLoop@SCM@@AAAHPAUtagMSG@@@Z 1002825c f cistdmgr.obj
 0001:00027264       __fh?FContinueMessageLoop@SCM@@AAAHPAUtagMSG@@@Z 10028264 f cistdmgr.obj
 0001:00027266       ?FContinueMessageLoop@SCM@@AAAHPAUtagMSG@@@Z 10028266 f cistdmgr.obj
 0001:000272a4       __pcd_tbl?FAddSCMIToPlex@SCM@@CAHPAVSCMI@@PAPAVPXPSCMI@@HP6AHPBX2@ZPAH@Z 100282a4 f cistdmgr.obj
 0001:000272bc       __nep?FAddSCMIToPlex@SCM@@CAHPAVSCMI@@PAPAVPXPSCMI@@HP6AHPBX2@ZPAH@Z 100282bc f cistdmgr.obj
 0001:000272c4       __fh?FAddSCMIToPlex@SCM@@CAHPAVSCMI@@PAPAVPXPSCMI@@HP6AHPBX2@ZPAH@Z 100282c4 f cistdmgr.obj
 0001:000272c6       ?FAddSCMIToPlex@SCM@@CAHPAVSCMI@@PAPAVPXPSCMI@@HP6AHPBX2@ZPAH@Z 100282c6 f cistdmgr.obj
 0001:00027344       __pcd_tbl?RemoveSCMIFromPlex@SCM@@CAXPAVSCMI@@PAPAVPXPSCMI@@HP6AHPBX2@ZHPAH@Z 10028344 f cistdmgr.obj
 0001:00027358       __nep?RemoveSCMIFromPlex@SCM@@CAXPAVSCMI@@PAPAVPXPSCMI@@HP6AHPBX2@ZHPAH@Z 10028358 f cistdmgr.obj
 0001:00027360       __fh?RemoveSCMIFromPlex@SCM@@CAXPAVSCMI@@PAPAVPXPSCMI@@HP6AHPBX2@ZHPAH@Z 10028360 f cistdmgr.obj
 0001:00027362       ?RemoveSCMIFromPlex@SCM@@CAXPAVSCMI@@PAPAVPXPSCMI@@HP6AHPBX2@ZHPAH@Z 10028362 f cistdmgr.obj
 0001:000273cc       __pcd_tbl?SortSCMIPlex@SCM@@CAXPAVPXPSCMI@@P6AHPAPBVSCMI@@1@Z@Z 100283cc f cistdmgr.obj
 0001:000273d0       __nep?SortSCMIPlex@SCM@@CAXPAVPXPSCMI@@P6AHPAPBVSCMI@@1@Z@Z 100283d0 f cistdmgr.obj
 0001:000273d8       __fh?SortSCMIPlex@SCM@@CAXPAVPXPSCMI@@P6AHPAPBVSCMI@@1@Z@Z 100283d8 f cistdmgr.obj
 0001:000273da       ?SortSCMIPlex@SCM@@CAXPAVPXPSCMI@@P6AHPAPBVSCMI@@1@Z@Z 100283da f cistdmgr.obj
 0001:000273f8       __pcd_tbl?MoveSCMIToSortedPosInPx@SCM@@CAXHPAVPXPSCMI@@P6AHPAPBVSCMI@@1@Z@Z 100283f8 f cistdmgr.obj
 0001:000273fc       __nep?MoveSCMIToSortedPosInPx@SCM@@CAXHPAVPXPSCMI@@P6AHPAPBVSCMI@@1@Z@Z 100283fc f cistdmgr.obj
 0001:00027404       __fh?MoveSCMIToSortedPosInPx@SCM@@CAXHPAVPXPSCMI@@P6AHPAPBVSCMI@@1@Z@Z 10028404 f cistdmgr.obj
 0001:00027406       ?MoveSCMIToSortedPosInPx@SCM@@CAXHPAVPXPSCMI@@P6AHPAPBVSCMI@@1@Z@Z 10028406 f cistdmgr.obj
 0001:00027464       __pcd_tbl?QueryInterface@SCM_MsoCompMgr@@UAAJABUGUID@@PAPAX@Z 10028464 f cistdmgr.obj
 0001:00027464       __nep?QueryInterface@SCM_MsoCompMgr@@UAAJABUGUID@@PAPAX@Z 10028464 f cistdmgr.obj
 0001:0002746c       __fh?QueryInterface@SCM_MsoCompMgr@@UAAJABUGUID@@PAPAX@Z 1002846c f cistdmgr.obj
 0001:0002746e       ?QueryInterface@SCM_MsoCompMgr@@UAAJABUGUID@@PAPAX@Z 1002846e f cistdmgr.obj
 0001:0002747c       __nep?QueryService@SCM_MsoCompMgr@@UAAJABUGUID@@0PAPAX@Z 1002847c f cistdmgr.obj
 0001:0002747c       __pcd_tbl?QueryService@SCM_MsoCompMgr@@UAAJABUGUID@@0PAPAX@Z 1002847c f cistdmgr.obj
 0001:00027484       __fh?QueryService@SCM_MsoCompMgr@@UAAJABUGUID@@0PAPAX@Z 10028484 f cistdmgr.obj
 0001:00027486       ?QueryService@SCM_MsoCompMgr@@UAAJABUGUID@@0PAPAX@Z 10028486 f cistdmgr.obj
 0001:000274a4       __pcd_tbl?FDebugMessage@SCM_MsoCompMgr@@UAAHPAUMSOINST@@IIJ@Z 100284a4 f cistdmgr.obj
 0001:000274a4       __nep?FDebugMessage@SCM_MsoCompMgr@@UAAHPAUMSOINST@@IIJ@Z 100284a4 f cistdmgr.obj
 0001:000274ac       __fh?FDebugMessage@SCM_MsoCompMgr@@UAAHPAUMSOINST@@IIJ@Z 100284ac f cistdmgr.obj
 0001:000274ae       ?FDebugMessage@SCM_MsoCompMgr@@UAAHPAUMSOINST@@IIJ@Z 100284ae f cistdmgr.obj
 0001:000274b0       __pcd_tbl?FUpdateComponentRegistration@SCM_MsoCompMgr@@UAAHKPBU_MSOCRINFO@@@Z 100284b0 f cistdmgr.obj
 0001:000274c0       __nep?FUpdateComponentRegistration@SCM_MsoCompMgr@@UAAHKPBU_MSOCRINFO@@@Z 100284c0 f cistdmgr.obj
 0001:000274c8       __fh?FUpdateComponentRegistration@SCM_MsoCompMgr@@UAAHKPBU_MSOCRINFO@@@Z 100284c8 f cistdmgr.obj
 0001:000274ca       ?FUpdateComponentRegistration@SCM_MsoCompMgr@@UAAHKPBU_MSOCRINFO@@@Z 100284ca f cistdmgr.obj
 0001:000274ec       __pcd_tbl?FOnComponentActivate@SCM_MsoCompMgr@@UAAHK@Z 100284ec f cistdmgr.obj
 0001:000274f8       __nep?FOnComponentActivate@SCM_MsoCompMgr@@UAAHK@Z 100284f8 f cistdmgr.obj
 0001:00027500       __fh?FOnComponentActivate@SCM_MsoCompMgr@@UAAHK@Z 10028500 f cistdmgr.obj
 0001:00027502       ?FOnComponentActivate@SCM_MsoCompMgr@@UAAHK@Z 10028502 f cistdmgr.obj
 0001:0002751c       __pcd_tbl?FSetTrackingComponent@SCM_MsoCompMgr@@UAAHKH@Z 1002851c f cistdmgr.obj
 0001:00027528       __nep?FSetTrackingComponent@SCM_MsoCompMgr@@UAAHKH@Z 10028528 f cistdmgr.obj
 0001:00027530       __fh?FSetTrackingComponent@SCM_MsoCompMgr@@UAAHKH@Z 10028530 f cistdmgr.obj
 0001:00027532       ?FSetTrackingComponent@SCM_MsoCompMgr@@UAAHKH@Z 10028532 f cistdmgr.obj
 0001:0002754c       __pcd_tbl?OnComponentEnterState@SCM_MsoCompMgr@@UAAXKKKKPAPAUIMsoComponentManager@@K@Z 1002854c f cistdmgr.obj
 0001:0002755c       __nep?OnComponentEnterState@SCM_MsoCompMgr@@UAAXKKKKPAPAUIMsoComponentManager@@K@Z 1002855c f cistdmgr.obj
 0001:00027564       __fh?OnComponentEnterState@SCM_MsoCompMgr@@UAAXKKKKPAPAUIMsoComponentManager@@K@Z 10028564 f cistdmgr.obj
 0001:00027566       ?OnComponentEnterState@SCM_MsoCompMgr@@UAAXKKKKPAPAUIMsoComponentManager@@K@Z 10028566 f cistdmgr.obj
 0001:00027594       __pcd_tbl?FOnComponentExitState@SCM_MsoCompMgr@@UAAHKKKKPAPAUIMsoComponentManager@@@Z 10028594 f cistdmgr.obj
 0001:000275a8       __nep?FOnComponentExitState@SCM_MsoCompMgr@@UAAHKKKKPAPAUIMsoComponentManager@@@Z 100285a8 f cistdmgr.obj
 0001:000275b0       __fh?FOnComponentExitState@SCM_MsoCompMgr@@UAAHKKKKPAPAUIMsoComponentManager@@@Z 100285b0 f cistdmgr.obj
 0001:000275b2       ?FOnComponentExitState@SCM_MsoCompMgr@@UAAHKKKKPAPAUIMsoComponentManager@@@Z 100285b2 f cistdmgr.obj
 0001:000275e4       __pcd_tbl?FInState@SCM_MsoCompMgr@@UAAHKPAX@Z 100285e4 f cistdmgr.obj
 0001:000275e8       __nep?FInState@SCM_MsoCompMgr@@UAAHKPAX@Z 100285e8 f cistdmgr.obj
 0001:000275f0       __fh?FInState@SCM_MsoCompMgr@@UAAHKPAX@Z 100285f0 f cistdmgr.obj
 0001:000275f2       ?FInState@SCM_MsoCompMgr@@UAAHKPAX@Z 100285f2 f cistdmgr.obj
 0001:000275f8       __pcd_tbl?FContinueIdle@SCM_MsoCompMgr@@UAAHXZ 100285f8 f cistdmgr.obj
 0001:000275fc       __nep?FContinueIdle@SCM_MsoCompMgr@@UAAHXZ 100285fc f cistdmgr.obj
 0001:00027604       __fh?FContinueIdle@SCM_MsoCompMgr@@UAAHXZ 10028604 f cistdmgr.obj
 0001:00027606       ?FContinueIdle@SCM_MsoCompMgr@@UAAHXZ 10028606 f cistdmgr.obj
 0001:0002760c       __pcd_tbl?FPushMessageLoop@SCM_MsoCompMgr@@UAAHKKPAX@Z 1002860c f cistdmgr.obj
 0001:00027618       __nep?FPushMessageLoop@SCM_MsoCompMgr@@UAAHKKPAX@Z 10028618 f cistdmgr.obj
 0001:00027620       __fh?FPushMessageLoop@SCM_MsoCompMgr@@UAAHKKPAX@Z 10028620 f cistdmgr.obj
 0001:00027622       ?FPushMessageLoop@SCM_MsoCompMgr@@UAAHKKPAX@Z 10028622 f cistdmgr.obj
 0001:0002763c       __pcd_tbl?FGetParentComponentManager@SCM_MsoCompMgr@@UAAHPAPAUIMsoComponentManager@@@Z 1002863c f cistdmgr.obj
 0001:00027640       __nep?FGetParentComponentManager@SCM_MsoCompMgr@@UAAHPAPAUIMsoComponentManager@@@Z 10028640 f cistdmgr.obj
 0001:00027648       __fh?FGetParentComponentManager@SCM_MsoCompMgr@@UAAHPAPAUIMsoComponentManager@@@Z 10028648 f cistdmgr.obj
 0001:0002764a       ?FGetParentComponentManager@SCM_MsoCompMgr@@UAAHPAPAUIMsoComponentManager@@@Z 1002864a f cistdmgr.obj
 0001:00027658       __pcd_tbl?FGetActiveComponent@SCM_MsoCompMgr@@UAAHKPAPAUIMsoComponent@@PAU_MSOCRINFO@@K@Z 10028658 f cistdmgr.obj
 0001:0002765c       __nep?FGetActiveComponent@SCM_MsoCompMgr@@UAAHKPAPAUIMsoComponent@@PAU_MSOCRINFO@@K@Z 1002865c f cistdmgr.obj
 0001:00027664       __fh?FGetActiveComponent@SCM_MsoCompMgr@@UAAHKPAPAUIMsoComponent@@PAU_MSOCRINFO@@K@Z 10028664 f cistdmgr.obj
 0001:00027666       ?FGetActiveComponent@SCM_MsoCompMgr@@UAAHKPAPAUIMsoComponent@@PAU_MSOCRINFO@@K@Z 10028666 f cistdmgr.obj
 0001:000276cc       __pcd_tbl?FDebugMessage@SCM_MsoStdCompMgr@@UAAHPAUMSOINST@@IIJ@Z 100286cc f cistdmgr.obj
 0001:000276cc       __nep?FDebugMessage@SCM_MsoStdCompMgr@@UAAHPAUMSOINST@@IIJ@Z 100286cc f cistdmgr.obj
 0001:000276d4       __fh?FDebugMessage@SCM_MsoStdCompMgr@@UAAHPAUMSOINST@@IIJ@Z 100286d4 f cistdmgr.obj
 0001:000276d6       ?FDebugMessage@SCM_MsoStdCompMgr@@UAAHPAUMSOINST@@IIJ@Z 100286d6 f cistdmgr.obj
 0001:000276d8       __pcd_tbl?FSetHostInfo@SCM_MsoStdCompMgr@@UAAHPBU_MSOCHOSTINFO@@@Z 100286d8 f cistdmgr.obj
 0001:000276e0       __nep?FSetHostInfo@SCM_MsoStdCompMgr@@UAAHPBU_MSOCHOSTINFO@@@Z 100286e0 f cistdmgr.obj
 0001:000276e8       __fh?FSetHostInfo@SCM_MsoStdCompMgr@@UAAHPBU_MSOCHOSTINFO@@@Z 100286e8 f cistdmgr.obj
 0001:000276ea       ?FSetHostInfo@SCM_MsoStdCompMgr@@UAAHPBU_MSOCHOSTINFO@@@Z 100286ea f cistdmgr.obj
 0001:00027720       __pcd_tbl?FPreTranslateMessage@SCM_MsoStdCompMgr@@UAAHPAUtagMSG@@@Z 10028720 f cistdmgr.obj
 0001:00027730       __nep?FPreTranslateMessage@SCM_MsoStdCompMgr@@UAAHPAUtagMSG@@@Z 10028730 f cistdmgr.obj
 0001:00027738       __fh?FPreTranslateMessage@SCM_MsoStdCompMgr@@UAAHPAUtagMSG@@@Z 10028738 f cistdmgr.obj
 0001:0002773a       ?FPreTranslateMessage@SCM_MsoStdCompMgr@@UAAHPAUtagMSG@@@Z 1002873a f cistdmgr.obj
 0001:000277b0       __pcd_tbl?FPreProcessMacEvent@SCM_MsoStdCompMgr@@UAAHPAUEventRecord@@@Z 100287b0 f cistdmgr.obj
 0001:000277c0       __nep?FPreProcessMacEvent@SCM_MsoStdCompMgr@@UAAHPAUEventRecord@@@Z 100287c0 f cistdmgr.obj
 0001:000277c8       __fh?FPreProcessMacEvent@SCM_MsoStdCompMgr@@UAAHPAUEventRecord@@@Z 100287c8 f cistdmgr.obj
 0001:000277ca       ?FPreProcessMacEvent@SCM_MsoStdCompMgr@@UAAHPAUEventRecord@@@Z 100287ca f cistdmgr.obj
 0001:0002783c       __pcd_tbl?OnHostEnterState@SCM_MsoStdCompMgr@@UAAXKKPAPAUIMsoComponentManager@@K@Z 1002883c f cistdmgr.obj
 0001:00027840       __nep?OnHostEnterState@SCM_MsoStdCompMgr@@UAAXKKPAPAUIMsoComponentManager@@K@Z 10028840 f cistdmgr.obj
 0001:00027848       __fh?OnHostEnterState@SCM_MsoStdCompMgr@@UAAXKKPAPAUIMsoComponentManager@@K@Z 10028848 f cistdmgr.obj
 0001:0002784a       ?OnHostEnterState@SCM_MsoStdCompMgr@@UAAXKKPAPAUIMsoComponentManager@@K@Z 1002884a f cistdmgr.obj
 0001:00027858       __pcd_tbl?FOnHostExitState@SCM_MsoStdCompMgr@@UAAHKKPAPAUIMsoComponentManager@@@Z 10028858 f cistdmgr.obj
 0001:00027860       __nep?FOnHostExitState@SCM_MsoStdCompMgr@@UAAHKKPAPAUIMsoComponentManager@@@Z 10028860 f cistdmgr.obj
 0001:00027868       __fh?FOnHostExitState@SCM_MsoStdCompMgr@@UAAHKKPAPAUIMsoComponentManager@@@Z 10028868 f cistdmgr.obj
 0001:0002786a       ?FOnHostExitState@SCM_MsoStdCompMgr@@UAAHKKPAPAUIMsoComponentManager@@@Z 1002886a f cistdmgr.obj
 0001:0002787c       __pcd_tbl?FInState@SCM_MsoStdCompMgr@@UAAHKPAX@Z 1002887c f cistdmgr.obj
 0001:00027880       __nep?FInState@SCM_MsoStdCompMgr@@UAAHKPAX@Z 10028880 f cistdmgr.obj
 0001:00027888       __fh?FInState@SCM_MsoStdCompMgr@@UAAHKPAX@Z 10028888 f cistdmgr.obj
 0001:0002788a       ?FInState@SCM_MsoStdCompMgr@@UAAHKPAX@Z 1002888a f cistdmgr.obj
 0001:00027890       __pcd_tbl?FContinueMessageLoop@SCM_MsoStdCompMgr@@UAAHPAUtagMSG@@@Z 10028890 f cistdmgr.obj
 0001:00027894       __nep?FContinueMessageLoop@SCM_MsoStdCompMgr@@UAAHPAUtagMSG@@@Z 10028894 f cistdmgr.obj
 0001:0002789c       __fh?FContinueMessageLoop@SCM_MsoStdCompMgr@@UAAHPAUtagMSG@@@Z 1002889c f cistdmgr.obj
 0001:0002789e       ?FContinueMessageLoop@SCM_MsoStdCompMgr@@UAAHPAUtagMSG@@@Z 1002889e f cistdmgr.obj
 0001:000278a4       __pcd_tbl?Terminate@SCM_MsoStdCompMgr@@UAAXH@Z 100288a4 f cistdmgr.obj
 0001:000278a8       __nep?Terminate@SCM_MsoStdCompMgr@@UAAXH@Z 100288a8 f cistdmgr.obj
 0001:000278b0       __fh?Terminate@SCM_MsoStdCompMgr@@UAAXH@Z 100288b0 f cistdmgr.obj
 0001:000278b2       ?Terminate@SCM_MsoStdCompMgr@@UAAXH@Z 100288b2 f cistdmgr.obj
 0001:000278b8       __nep??0DCM@@QAA@XZ        100288b8 f cidcm.obj
 0001:000278b8       __pcd_tbl??0DCM@@QAA@XZ    100288b8 f cidcm.obj
 0001:000278c0       __fh??0DCM@@QAA@XZ         100288c0 f cidcm.obj
 0001:000278c2       ??0DCM@@QAA@XZ             100288c2 f cidcm.obj
 0001:000278f8       __pcd_tbl??1DCM@@QAA@XZ    100288f8 f cidcm.obj
 0001:000278fc       __nep??1DCM@@QAA@XZ        100288fc f cidcm.obj
 0001:00027904       __fh??1DCM@@QAA@XZ         10028904 f cidcm.obj
 0001:00027906       ??1DCM@@QAA@XZ             10028906 f cidcm.obj
 0001:00027928       __pcd_tbl?PrvTerminate@DCM@@QAAXXZ 10028928 f cidcm.obj
 0001:0002792c       __nep?PrvTerminate@DCM@@QAAXXZ 1002892c f cidcm.obj
 0001:00027934       __fh?PrvTerminate@DCM@@QAAXXZ 10028934 f cidcm.obj
 0001:00027936       ?PrvTerminate@DCM@@QAAXXZ  10028936 f cidcm.obj
 0001:0002793c       __pcd_tbl?PrvTellEnterState@DCM@@QAAXPAUCMStateChange@@@Z 1002893c f cidcm.obj
 0001:00027948       __nep?PrvTellEnterState@DCM@@QAAXPAUCMStateChange@@@Z 10028948 f cidcm.obj
 0001:00027950       __fh?PrvTellEnterState@DCM@@QAAXPAUCMStateChange@@@Z 10028950 f cidcm.obj
 0001:00027952       ?PrvTellEnterState@DCM@@QAAXPAUCMStateChange@@@Z 10028952 f cidcm.obj
 0001:00027978       __nep?UpdateStateCount@DCM@@AAAXKH@Z 10028978 f cidcm.obj
 0001:00027978       __pcd_tbl?UpdateStateCount@DCM@@AAAXKH@Z 10028978 f cidcm.obj
 0001:00027980       __fh?UpdateStateCount@DCM@@AAAXKH@Z 10028980 f cidcm.obj
 0001:00027982       ?UpdateStateCount@DCM@@AAAXKH@Z 10028982 f cidcm.obj
 0001:000279ec       __nep?QueryInterface@DCM@@UAAJABUGUID@@PAPAX@Z 100289ec f cidcm.obj
 0001:000279ec       __pcd_tbl?QueryInterface@DCM@@UAAJABUGUID@@PAPAX@Z 100289ec f cidcm.obj
 0001:000279f4       __fh?QueryInterface@DCM@@UAAJABUGUID@@PAPAX@Z 100289f4 f cidcm.obj
 0001:000279f6       ?QueryInterface@DCM@@UAAJABUGUID@@PAPAX@Z 100289f6 f cidcm.obj
 0001:00027a04       __pcd_tbl?QueryService@DCM@@UAAJABUGUID@@0PAPAX@Z 10028a04 f cidcm.obj
 0001:00027a04       __nep?QueryService@DCM@@UAAJABUGUID@@0PAPAX@Z 10028a04 f cidcm.obj
 0001:00027a0c       __fh?QueryService@DCM@@UAAJABUGUID@@0PAPAX@Z 10028a0c f cidcm.obj
 0001:00027a0e       ?QueryService@DCM@@UAAJABUGUID@@0PAPAX@Z 10028a0e f cidcm.obj
 0001:00027a34       __pcd_tbl?FDebugMessage@DCM@@UAAHPAUMSOINST@@IIJ@Z 10028a34 f cidcm.obj
 0001:00027a34       __nep?FDebugMessage@DCM@@UAAHPAUMSOINST@@IIJ@Z 10028a34 f cidcm.obj
 0001:00027a3c       __fh?FDebugMessage@DCM@@UAAHPAUMSOINST@@IIJ@Z 10028a3c f cidcm.obj
 0001:00027a3e       ?FDebugMessage@DCM@@UAAHPAUMSOINST@@IIJ@Z 10028a3e f cidcm.obj
 0001:00027a40       __pcd_tbl?FUpdateComponentRegistration@DCM@@UAAHKPBU_MSOCRINFO@@@Z 10028a40 f cidcm.obj
 0001:00027a44       __nep?FUpdateComponentRegistration@DCM@@UAAHKPBU_MSOCRINFO@@@Z 10028a44 f cidcm.obj
 0001:00027a4c       __fh?FUpdateComponentRegistration@DCM@@UAAHKPBU_MSOCRINFO@@@Z 10028a4c f cidcm.obj
 0001:00027a4e       ?FUpdateComponentRegistration@DCM@@UAAHKPBU_MSOCRINFO@@@Z 10028a4e f cidcm.obj
 0001:00027a68       __pcd_tbl?FOnComponentActivate@DCM@@UAAHK@Z 10028a68 f cidcm.obj
 0001:00027a6c       __nep?FOnComponentActivate@DCM@@UAAHK@Z 10028a6c f cidcm.obj
 0001:00027a74       __fh?FOnComponentActivate@DCM@@UAAHK@Z 10028a74 f cidcm.obj
 0001:00027a76       ?FOnComponentActivate@DCM@@UAAHK@Z 10028a76 f cidcm.obj
 0001:00027a90       __pcd_tbl?FSetTrackingComponent@DCM@@UAAHKH@Z 10028a90 f cidcm.obj
 0001:00027a94       __nep?FSetTrackingComponent@DCM@@UAAHKH@Z 10028a94 f cidcm.obj
 0001:00027a9c       __fh?FSetTrackingComponent@DCM@@UAAHKH@Z 10028a9c f cidcm.obj
 0001:00027a9e       ?FSetTrackingComponent@DCM@@UAAHKH@Z 10028a9e f cidcm.obj
 0001:00027ab8       __pcd_tbl?OnComponentEnterState@DCM@@UAAXKKKKPAPAUIMsoComponentManager@@K@Z 10028ab8 f cidcm.obj
 0001:00027ad4       __nep?OnComponentEnterState@DCM@@UAAXKKKKPAPAUIMsoComponentManager@@K@Z 10028ad4 f cidcm.obj
 0001:00027adc       __fh?OnComponentEnterState@DCM@@UAAXKKKKPAPAUIMsoComponentManager@@K@Z 10028adc f cidcm.obj
 0001:00027ade       ?OnComponentEnterState@DCM@@UAAXKKKKPAPAUIMsoComponentManager@@K@Z 10028ade f cidcm.obj
 0001:00027b68       __pcd_tbl?FOnComponentExitState@DCM@@UAAHKKKKPAPAUIMsoComponentManager@@@Z 10028b68 f cidcm.obj
 0001:00027b84       __nep?FOnComponentExitState@DCM@@UAAHKKKKPAPAUIMsoComponentManager@@@Z 10028b84 f cidcm.obj
 0001:00027b8c       __fh?FOnComponentExitState@DCM@@UAAHKKKKPAPAUIMsoComponentManager@@@Z 10028b8c f cidcm.obj
 0001:00027b8e       ?FOnComponentExitState@DCM@@UAAHKKKKPAPAUIMsoComponentManager@@@Z 10028b8e f cidcm.obj
 0001:00027c20       __nep?FInState@DCM@@UAAHKPAX@Z 10028c20 f cidcm.obj
 0001:00027c20       __pcd_tbl?FInState@DCM@@UAAHKPAX@Z 10028c20 f cidcm.obj
 0001:00027c28       __fh?FInState@DCM@@UAAHKPAX@Z 10028c28 f cidcm.obj
 0001:00027c2a       ?FInState@DCM@@UAAHKPAX@Z  10028c2a f cidcm.obj
 0001:00027c60       __pcd_tbl?FContinueIdle@DCM@@UAAHXZ 10028c60 f cidcm.obj
 0001:00027c64       __nep?FContinueIdle@DCM@@UAAHXZ 10028c64 f cidcm.obj
 0001:00027c6c       __fh?FContinueIdle@DCM@@UAAHXZ 10028c6c f cidcm.obj
 0001:00027c6e       ?FContinueIdle@DCM@@UAAHXZ 10028c6e f cidcm.obj
 0001:00027c88       __pcd_tbl?FPushMessageLoop@DCM@@UAAHKKPAX@Z 10028c88 f cidcm.obj
 0001:00027c8c       __nep?FPushMessageLoop@DCM@@UAAHKKPAX@Z 10028c8c f cidcm.obj
 0001:00027c94       __fh?FPushMessageLoop@DCM@@UAAHKKPAX@Z 10028c94 f cidcm.obj
 0001:00027c96       ?FPushMessageLoop@DCM@@UAAHKKPAX@Z 10028c96 f cidcm.obj
 0001:00027cb0       __pcd_tbl?FCreateSubComponentManager@DCM@@UAAHPAUIUnknown@@0ABUGUID@@PAPAX@Z 10028cb0 f cidcm.obj
 0001:00027cb8       __nep?FCreateSubComponentManager@DCM@@UAAHPAUIUnknown@@0ABUGUID@@PAPAX@Z 10028cb8 f cidcm.obj
 0001:00027cc0       __fh?FCreateSubComponentManager@DCM@@UAAHPAUIUnknown@@0ABUGUID@@PAPAX@Z 10028cc0 f cidcm.obj
 0001:00027cc2       ?FCreateSubComponentManager@DCM@@UAAHPAUIUnknown@@0ABUGUID@@PAPAX@Z 10028cc2 f cidcm.obj
 0001:00027cec       __pcd_tbl?FGetParentComponentManager@DCM@@UAAHPAPAUIMsoComponentManager@@@Z 10028cec f cidcm.obj
 0001:00027cf0       __nep?FGetParentComponentManager@DCM@@UAAHPAPAUIMsoComponentManager@@@Z 10028cf0 f cidcm.obj
 0001:00027cf8       __fh?FGetParentComponentManager@DCM@@UAAHPAPAUIMsoComponentManager@@@Z 10028cf8 f cidcm.obj
 0001:00027cfa       ?FGetParentComponentManager@DCM@@UAAHPAPAUIMsoComponentManager@@@Z 10028cfa f cidcm.obj
 0001:00027d3c       __pcd_tbl?FGetActiveComponent@DCM@@UAAHKPAPAUIMsoComponent@@PAU_MSOCRINFO@@K@Z 10028d3c f cidcm.obj
 0001:00027d40       __nep?FGetActiveComponent@DCM@@UAAHKPAPAUIMsoComponent@@PAU_MSOCRINFO@@K@Z 10028d40 f cidcm.obj
 0001:00027d48       __fh?FGetActiveComponent@DCM@@UAAHKPAPAUIMsoComponent@@PAU_MSOCRINFO@@K@Z 10028d48 f cidcm.obj
 0001:00027d4a       ?FGetActiveComponent@DCM@@UAAHKPAPAUIMsoComponent@@PAU_MSOCRINFO@@K@Z 10028d4a f cidcm.obj
 0001:00027d6c       __purecall                 10028d6c f dbassert.obj
 0001:00027db8       _MsoAlertSz                10028db8 f error.obj
 0001:00027f90       _MsoAlertWtz               10028f90 f error.obj
 0001:00028014       _MsoAlertIds               10029014 f error.obj
 0001:0002809c       _MsoAlertIdsSz1            1002909c f error.obj
 0001:00028144       _MsoAlertIdsWtz1           10029144 f error.obj
 0001:000281e0       _MsoAlertIdsSz2            100291e0 f error.obj
 0001:00028290       _MsoAlertIdsWtz2           10029290 f error.obj
 0001:00028340       _MsoAlertErr               10029340 f error.obj
 0001:000283d4       _MsoFStdError              100293d4 f error.obj
 0001:000284f0       _MsoOutOfMemory            100294f0 f error.obj
 0001:0002854c       __pcd_tbl?IGetNumEntries@URLREG@@QAAHXZ 1002954c f hl.obj
 0001:0002854c       __nep?IGetNumEntries@URLREG@@QAAHXZ 1002954c f hl.obj
 0001:00028554       __fh?IGetNumEntries@URLREG@@QAAHXZ 10029554 f hl.obj
 0001:00028556       ?IGetNumEntries@URLREG@@QAAHXZ 10029556 f hl.obj
 0001:0002855c       __pcd_tbl?GetText@WTBHDDUURL@@UAAXPAUIMsoControl@@PAPAXPAG@Z 1002955c f hl.obj
 0001:00028560       __nep?GetText@WTBHDDUURL@@UAAXPAUIMsoControl@@PAPAXPAG@Z 10029560 f hl.obj
 0001:00028568       __fh?GetText@WTBHDDUURL@@UAAXPAUIMsoControl@@PAPAXPAG@Z 10029568 f hl.obj
 0001:0002856a       ?GetText@WTBHDDUURL@@UAAXPAUIMsoControl@@PAPAXPAG@Z 1002956a f hl.obj
 0001:00028570       __pcd_tbl?GetDropItem@WTBHDDUURL@@UAAXPAUIMsoControl@@PAPAXPAGHPAH@Z 10029570 f hl.obj
 0001:00028574       __nep?GetDropItem@WTBHDDUURL@@UAAXPAUIMsoControl@@PAPAXPAGHPAH@Z 10029574 f hl.obj
 0001:0002857c       __fh?GetDropItem@WTBHDDUURL@@UAAXPAUIMsoControl@@PAPAXPAGHPAH@Z 1002957c f hl.obj
 0001:0002857e       ?GetDropItem@WTBHDDUURL@@UAAXPAUIMsoControl@@PAPAXPAGHPAH@Z 1002957e f hl.obj
 0001:00028588       __nep?CItems@WTBHDDUURL@@UAAHPAUIMsoControl@@PAPAXPAH2@Z 10029588 f hl.obj
 0001:00028588       __pcd_tbl?CItems@WTBHDDUURL@@UAAHPAUIMsoControl@@PAPAXPAH2@Z 10029588 f hl.obj
 0001:00028590       __fh?CItems@WTBHDDUURL@@UAAHPAUIMsoControl@@PAPAXPAH2@Z 10029590 f hl.obj
 0001:00028592       ?CItems@WTBHDDUURL@@UAAHPAUIMsoControl@@PAPAXPAH2@Z 10029592 f hl.obj
 0001:00028598       __pcd_tbl?ISelection@WTBHDDUURL@@UAAHPAUIMsoControl@@PAPAX@Z 10029598 f hl.obj
 0001:0002859c       __nep?ISelection@WTBHDDUURL@@UAAHPAUIMsoControl@@PAPAX@Z 1002959c f hl.obj
 0001:000285a4       __fh?ISelection@WTBHDDUURL@@UAAHPAUIMsoControl@@PAPAX@Z 100295a4 f hl.obj
 0001:000285a6       ?ISelection@WTBHDDUURL@@UAAHPAUIMsoControl@@PAPAX@Z 100295a6 f hl.obj
 0001:000285b0       __pcd_tbl?Pick@WTBHDDUURL@@UAAXPAUIMsoControl@@PAPAXHH@Z 100295b0 f hl.obj
 0001:000285c8       __nep?Pick@WTBHDDUURL@@UAAXPAUIMsoControl@@PAPAXHH@Z 100295c8 f hl.obj
 0001:000285d0       __fh?Pick@WTBHDDUURL@@UAAXPAUIMsoControl@@PAPAXHH@Z 100295d0 f hl.obj
 0001:000285d2       ?Pick@WTBHDDUURL@@UAAXPAUIMsoControl@@PAPAXHH@Z 100295d2 f hl.obj
 0001:00028650       __pcd_tbl?EnterText@WTBHDDUURL@@UAAXPAUIMsoControl@@PAPAXPAGH@Z 10029650 f hl.obj
 0001:0002866c       __nep?EnterText@WTBHDDUURL@@UAAXPAUIMsoControl@@PAPAXPAGH@Z 1002966c f hl.obj
 0001:00028674       __fh?EnterText@WTBHDDUURL@@UAAXPAUIMsoControl@@PAPAXPAGH@Z 10029674 f hl.obj
 0001:00028676       ?EnterText@WTBHDDUURL@@UAAXPAUIMsoControl@@PAPAXPAGH@Z 10029676 f hl.obj
 0001:000286f4       __pcd_tbl?Dropping@WTBHDDUURL@@UAAXPAUIMsoControl@@PAPAXPAUHFONT__@@@Z 100296f4 f hl.obj
 0001:000286f8       __nep?Dropping@WTBHDDUURL@@UAAXPAUIMsoControl@@PAPAXPAUHFONT__@@@Z 100296f8 f hl.obj
 0001:00028700       __fh?Dropping@WTBHDDUURL@@UAAXPAUIMsoControl@@PAPAXPAUHFONT__@@@Z 10029700 f hl.obj
 0001:00028702       ?Dropping@WTBHDDUURL@@UAAXPAUIMsoControl@@PAPAXPAUHFONT__@@@Z 10029702 f hl.obj
 0001:00028714       __pcd_tbl?FSetToolbarControls@WTBHTBUHIST@@UAAHPAPAXHPAUIMsoToolbar@@@Z 10029714 f hl.obj
 0001:00028718       __nep?FSetToolbarControls@WTBHTBUHIST@@UAAHPAPAXHPAUIMsoToolbar@@@Z 10029718 f hl.obj
 0001:00028720       __fh?FSetToolbarControls@WTBHTBUHIST@@UAAHPAPAXHPAUIMsoToolbar@@@Z 10029720 f hl.obj
 0001:00028723       ?FSetToolbarControls@WTBHTBUHIST@@UAAHPAPAXHPAUIMsoToolbar@@@Z 10029723 f hl.obj
 0001:0002874c       __pcd_tbl?Tbbs@WTBHBUHIST@@UAAIPAUIMsoControl@@PAPAX@Z 1002974c f hl.obj
 0001:0002874c       __nep?Tbbs@WTBHBUHIST@@UAAIPAUIMsoControl@@PAPAX@Z 1002974c f hl.obj
 0001:00028754       __fh?Tbbs@WTBHBUHIST@@UAAIPAUIMsoControl@@PAPAX@Z 10029754 f hl.obj
 0001:00028756       ?Tbbs@WTBHBUHIST@@UAAIPAUIMsoControl@@PAPAX@Z 10029756 f hl.obj
 0001:00028788       __pcd_tbl?FClick@WTBHBUHIST@@UAAHPAUIMsoControl@@PAPAXPAHH@Z 10029788 f hl.obj
 0001:00028794       __nep?FClick@WTBHBUHIST@@UAAHPAUIMsoControl@@PAPAXPAHH@Z 10029794 f hl.obj
 0001:0002879c       __fh?FClick@WTBHBUHIST@@UAAHPAUIMsoControl@@PAPAXPAHH@Z 1002979c f hl.obj
 0001:0002879e       ?FClick@WTBHBUHIST@@UAAHPAUIMsoControl@@PAPAXPAHH@Z 1002979e f hl.obj
 0001:000287dc       __pcd_tbl?FInitStdControls@WTBHTBUOPTS@@QAAHHHPAUIMsoControlSite@@PAU_msotcr@@@Z 100297dc f hl.obj
 0001:000287e0       __nep?FInitStdControls@WTBHTBUOPTS@@QAAHHHPAUIMsoControlSite@@PAU_msotcr@@@Z 100297e0 f hl.obj
 0001:000287e8       __fh?FInitStdControls@WTBHTBUOPTS@@QAAHHHPAUIMsoControlSite@@PAU_msotcr@@@Z 100297e8 f hl.obj
 0001:000287ea       ?FInitStdControls@WTBHTBUOPTS@@QAAHHHPAUIMsoControlSite@@PAU_msotcr@@@Z 100297ea f hl.obj
 0001:00028884       __pcd_tbl?FSetToolbarControls@WTBHTBUOPTS@@UAAHPAPAXHPAUIMsoToolbar@@@Z 10029884 f hl.obj
 0001:00028890       __nep?FSetToolbarControls@WTBHTBUOPTS@@UAAHPAPAXHPAUIMsoToolbar@@@Z 10029890 f hl.obj
 0001:00028898       __fh?FSetToolbarControls@WTBHTBUOPTS@@UAAHPAPAXHPAUIMsoToolbar@@@Z 10029898 f hl.obj
 0001:0002889b       ?FSetToolbarControls@WTBHTBUOPTS@@UAAHPAPAXHPAUIMsoToolbar@@@Z 1002989b f hl.obj
 0001:0002891c       __pcd_tbl?FClick@WTBHBUOPTS@@UAAHPAUIMsoControl@@PAPAXPAHH@Z 1002991c f hl.obj
 0001:00028924       __nep?FClick@WTBHBUOPTS@@UAAHPAUIMsoControl@@PAPAXPAHH@Z 10029924 f hl.obj
 0001:0002892c       __fh?FClick@WTBHBUOPTS@@UAAHPAUIMsoControl@@PAPAXPAHH@Z 1002992c f hl.obj
 0001:0002892e       ?FClick@WTBHBUOPTS@@UAAHPAUIMsoControl@@PAPAXPAHH@Z 1002992e f hl.obj
 0001:0002894c       __pcd_tbl??1WFTBU@@QAA@XZ  1002994c f hl.obj
 0001:00028954       __nep??1WFTBU@@QAA@XZ      10029954 f hl.obj
 0001:0002895c       __fh??1WFTBU@@QAA@XZ       1002995c f hl.obj
 0001:0002895e       ??1WFTBU@@QAA@XZ           1002995e f hl.obj
 0001:0002898c       __pcd_tbl?Create@WFTBU@@SAPAV1@PAVWTBH@@PBGH@Z 1002998c f hl.obj
 0001:0002899c       __nep?Create@WFTBU@@SAPAV1@PAVWTBH@@PBGH@Z 1002999c f hl.obj
 0001:000289a4       __fh?Create@WFTBU@@SAPAV1@PAVWTBH@@PBGH@Z 100299a4 f hl.obj
 0001:000289a6       ?Create@WFTBU@@SAPAV1@PAVWTBH@@PBGH@Z 100299a6 f hl.obj
 0001:000289e8       __pcd_tbl?FInit@WFTBU@@QAAHPAVWTBH@@PBGH@Z 100299e8 f hl.obj
 0001:000289f4       __nep?FInit@WFTBU@@QAAHPAVWTBH@@PBGH@Z 100299f4 f hl.obj
 0001:000289fc       __fh?FInit@WFTBU@@QAAHPAVWTBH@@PBGH@Z 100299fc f hl.obj
 0001:000289fe       ?FInit@WFTBU@@QAAHPAVWTBH@@PBGH@Z 100299fe f hl.obj
 0001:00028a2c       __pcd_tbl?FDebugMessage@WFTBU@@UAAHPAUMSOINST@@IIJ@Z 10029a2c f hl.obj
 0001:00028a2c       __nep?FDebugMessage@WFTBU@@UAAHPAUMSOINST@@IIJ@Z 10029a2c f hl.obj
 0001:00028a34       __fh?FDebugMessage@WFTBU@@UAAHPAUMSOINST@@IIJ@Z 10029a34 f hl.obj
 0001:00028a36       ?FDebugMessage@WFTBU@@UAAHPAUMSOINST@@IIJ@Z 10029a36 f hl.obj
 0001:00028a38       __pcd_tbl?FSetEmptyControl@WFTBU@@QAAHPAUIMsoToolbar@@@Z 10029a38 f hl.obj
 0001:00028a44       __nep?FSetEmptyControl@WFTBU@@QAAHPAUIMsoToolbar@@@Z 10029a44 f hl.obj
 0001:00028a4c       __fh?FSetEmptyControl@WFTBU@@QAAHPAUIMsoToolbar@@@Z 10029a4c f hl.obj
 0001:00028a4f       ?FSetEmptyControl@WFTBU@@QAAHPAUIMsoToolbar@@@Z 10029a4f f hl.obj
 0001:00028ac8       __pcd_tbl?FInitStdControls@WFTBU@@QAAHHHPAUIMsoControlSite@@PAU_msotcr@@@Z 10029ac8 f hl.obj
 0001:00028acc       __nep?FInitStdControls@WFTBU@@QAAHHHPAUIMsoControlSite@@PAU_msotcr@@@Z 10029acc f hl.obj
 0001:00028ad4       __fh?FInitStdControls@WFTBU@@QAAHHHPAUIMsoControlSite@@PAU_msotcr@@@Z 10029ad4 f hl.obj
 0001:00028ad6       ?FInitStdControls@WFTBU@@QAAHHHPAUIMsoControlSite@@PAU_msotcr@@@Z 10029ad6 f hl.obj
 0001:00028b48       __pcd_tbl?FSetToolbarControls@WFTBU@@UAAHPAPAXHPAUIMsoToolbar@@@Z 10029b48 f hl.obj
 0001:00028b7c       __nep?FSetToolbarControls@WFTBU@@UAAHPAPAXHPAUIMsoToolbar@@@Z 10029b7c f hl.obj
 0001:00028b84       __fh?FSetToolbarControls@WFTBU@@UAAHPAPAXHPAUIMsoToolbar@@@Z 10029b84 f hl.obj
 0001:00028b84       .?EnumFileSysFavMenuProc@@YAXPBGPAU_WIN32_FIND_DATAW@@PAXPAH@Z 10029b84   hl.obj
 0001:00028b87       ?FSetToolbarControls@WFTBU@@UAAHPAPAXHPAUIMsoToolbar@@@Z 10029b87 f hl.obj
 0001:00028d48       __pcd_tbl?NotifyDelete@WFTBU@@UAAXPAPAXPAUIMsoToolbar@@@Z 10029d48 f hl.obj
 0001:00028d50       __nep?NotifyDelete@WFTBU@@UAAXPAPAXPAUIMsoToolbar@@@Z 10029d50 f hl.obj
 0001:00028d58       __fh?NotifyDelete@WFTBU@@UAAXPAPAXPAUIMsoToolbar@@@Z 10029d58 f hl.obj
 0001:00028d5a       ?NotifyDelete@WFTBU@@UAAXPAPAXPAUIMsoToolbar@@@Z 10029d5a f hl.obj
 0001:00028d64       __pcd_tbl?FCloneUserClient@WFTBU@@UAAHPAUIMsoToolbar@@PAXPAPAXPAPAUIMsoToolbarUser@@@Z 10029d64 f hl.obj
 0001:00028d68       __nep?FCloneUserClient@WFTBU@@UAAHPAUIMsoToolbar@@PAXPAPAXPAPAUIMsoToolbarUser@@@Z 10029d68 f hl.obj
 0001:00028d70       __fh?FCloneUserClient@WFTBU@@UAAHPAUIMsoToolbar@@PAXPAPAXPAPAUIMsoToolbarUser@@@Z 10029d70 f hl.obj
 0001:00028d72       ?FCloneUserClient@WFTBU@@UAAHPAUIMsoToolbar@@PAXPAPAXPAPAUIMsoToolbarUser@@@Z 10029d72 f hl.obj
 0001:00028d94       __pcd_tbl??1WFMU@@QAA@XZ   10029d94 f hl.obj
 0001:00028d9c       __nep??1WFMU@@QAA@XZ       10029d9c f hl.obj
 0001:00028da4       __fh??1WFMU@@QAA@XZ        10029da4 f hl.obj
 0001:00028da6       ??1WFMU@@QAA@XZ            10029da6 f hl.obj
 0001:00028dd4       __pcd_tbl?Create@WFMU@@SAPAV1@PAVWTBH@@PBG@Z 10029dd4 f hl.obj
 0001:00028de4       __nep?Create@WFMU@@SAPAV1@PAVWTBH@@PBG@Z 10029de4 f hl.obj
 0001:00028dec       __fh?Create@WFMU@@SAPAV1@PAVWTBH@@PBG@Z 10029dec f hl.obj
 0001:00028dee       ?Create@WFMU@@SAPAV1@PAVWTBH@@PBG@Z 10029dee f hl.obj
 0001:00028e30       __pcd_tbl?FInit@WFMU@@QAAHPAVWTBH@@PBG@Z 10029e30 f hl.obj
 0001:00028e3c       __nep?FInit@WFMU@@QAAHPAVWTBH@@PBG@Z 10029e3c f hl.obj
 0001:00028e44       __fh?FInit@WFMU@@QAAHPAVWTBH@@PBG@Z 10029e44 f hl.obj
 0001:00028e46       ?FInit@WFMU@@QAAHPAVWTBH@@PBG@Z 10029e46 f hl.obj
 0001:00028e64       __pcd_tbl?FDebugMessage@WFMU@@UAAHPAUMSOINST@@IIJ@Z 10029e64 f hl.obj
 0001:00028e64       __nep?FDebugMessage@WFMU@@UAAHPAUMSOINST@@IIJ@Z 10029e64 f hl.obj
 0001:00028e6c       __fh?FDebugMessage@WFMU@@UAAHPAUMSOINST@@IIJ@Z 10029e6c f hl.obj
 0001:00028e6e       ?FDebugMessage@WFMU@@UAAHPAUMSOINST@@IIJ@Z 10029e6e f hl.obj
 0001:00028e70       __pcd_tbl?NotifyDelete@WFMU@@UAAXPAUIMsoControl@@PAPAX@Z 10029e70 f hl.obj
 0001:00028e78       __nep?NotifyDelete@WFMU@@UAAXPAUIMsoControl@@PAPAX@Z 10029e78 f hl.obj
 0001:00028e80       __fh?NotifyDelete@WFMU@@UAAXPAUIMsoControl@@PAPAX@Z 10029e80 f hl.obj
 0001:00028e82       ?NotifyDelete@WFMU@@UAAXPAUIMsoControl@@PAPAX@Z 10029e82 f hl.obj
 0001:00028eac       __nep?FDebugMessage@TBUBASE@@UAAHPAUMSOINST@@IIJ@Z 10029eac f hl.obj
 0001:00028eac       __pcd_tbl?FDebugMessage@TBUBASE@@UAAHPAUMSOINST@@IIJ@Z 10029eac f hl.obj
 0001:00028eb4       __fh?FDebugMessage@TBUBASE@@UAAHPAUMSOINST@@IIJ@Z 10029eb4 f hl.obj
 0001:00028eb6       ?FDebugMessage@TBUBASE@@UAAHPAUMSOINST@@IIJ@Z 10029eb6 f hl.obj
 0001:00028eb8       __pcd_tbl?FCloneUserClient@WFMU@@UAAHPAUIMsoControl@@PAXPAPAXPAPAUIMsoControlUser@@@Z 10029eb8 f hl.obj
 0001:00028ebc       __nep?FCloneUserClient@WFMU@@UAAHPAUIMsoControl@@PAXPAPAXPAPAUIMsoControlUser@@@Z 10029ebc f hl.obj
 0001:00028ec4       __fh?FCloneUserClient@WFMU@@UAAHPAUIMsoControl@@PAXPAPAXPAPAUIMsoControlUser@@@Z 10029ec4 f hl.obj
 0001:00028ec6       ?FCloneUserClient@WFMU@@UAAHPAUIMsoControl@@PAXPAPAXPAPAUIMsoControlUser@@@Z 10029ec6 f hl.obj
 0001:00028ee0       __pcd_tbl?FAutoVisible@TBUBASE@@UAAHPAPAXPAUIMsoToolbar@@@Z 10029ee0 f hl.obj
 0001:00028ee0       __nep?FAutoVisible@TBUBASE@@UAAHPAPAXPAUIMsoToolbar@@@Z 10029ee0 f hl.obj
 0001:00028ee8       __fh?FAutoVisible@TBUBASE@@UAAHPAPAXPAUIMsoToolbar@@@Z 10029ee8 f hl.obj
 0001:00028eea       ?FAutoVisible@TBUBASE@@UAAHPAPAXPAUIMsoToolbar@@@Z 10029eea f hl.obj
 0001:00028eec       __nep?FEnabled@TBUBASE@@UAAHPAPAXPAUIMsoToolbar@@@Z 10029eec f hl.obj
 0001:00028eec       __pcd_tbl?FEnabled@TBUBASE@@UAAHPAPAXPAUIMsoToolbar@@@Z 10029eec f hl.obj
 0001:00028ef4       __fh?FEnabled@TBUBASE@@UAAHPAPAXPAUIMsoToolbar@@@Z 10029ef4 f hl.obj
 0001:00028ef6       ?FEnabled@TBUBASE@@UAAHPAPAXPAUIMsoToolbar@@@Z 10029ef6 f hl.obj
 0001:00028ef8       __pcd_tbl?FSaveUserData@TBUBASE@@UAAHPAPAXPAUIStream@@PAUIMsoToolbar@@@Z 10029ef8 f hl.obj
 0001:00028ef8       __nep?FSaveUserData@TBUBASE@@UAAHPAPAXPAUIStream@@PAUIMsoToolbar@@@Z 10029ef8 f hl.obj
 0001:00028f00       __fh?FSaveUserData@TBUBASE@@UAAHPAPAXPAUIStream@@PAUIMsoToolbar@@@Z 10029f00 f hl.obj
 0001:00028f02       ?FSaveUserData@TBUBASE@@UAAHPAPAXPAUIStream@@PAUIMsoToolbar@@@Z 10029f02 f hl.obj
 0001:00028f04       __pcd_tbl?FLoadUserData@TBUBASE@@UAAHPAPAXPAUIStream@@PAUIMsoToolbar@@@Z 10029f04 f hl.obj
 0001:00028f04       __nep?FLoadUserData@TBUBASE@@UAAHPAPAXPAUIStream@@PAUIMsoToolbar@@@Z 10029f04 f hl.obj
 0001:00028f0c       __fh?FLoadUserData@TBUBASE@@UAAHPAPAXPAUIStream@@PAUIMsoToolbar@@@Z 10029f0c f hl.obj
 0001:00028f0e       ?FLoadUserData@TBUBASE@@UAAHPAPAXPAUIStream@@PAUIMsoToolbar@@@Z 10029f0e f hl.obj
 0001:00028f10       __nep?FCtlCustomized@TBUBASE@@UAAHPAPAX0HHHPAU_msotcr@@PAUIMsoToolbar@@H@Z 10029f10 f hl.obj
 0001:00028f10       __pcd_tbl?FCtlCustomized@TBUBASE@@UAAHPAPAX0HHHPAU_msotcr@@PAUIMsoToolbar@@H@Z 10029f10 f hl.obj
 0001:00028f18       __fh?FCtlCustomized@TBUBASE@@UAAHPAPAX0HHHPAU_msotcr@@PAUIMsoToolbar@@H@Z 10029f18 f hl.obj
 0001:00028f1a       ?FCtlCustomized@TBUBASE@@UAAHPAPAX0HHHPAU_msotcr@@PAUIMsoToolbar@@H@Z 10029f1a f hl.obj
 0001:00028f1c       __pcd_tbl?FSetToolbarControls@TBUBASE@@UAAHPAPAXHPAUIMsoToolbar@@@Z 10029f1c f hl.obj
 0001:00028f1c       __nep?FSetToolbarControls@TBUBASE@@UAAHPAPAXHPAUIMsoToolbar@@@Z 10029f1c f hl.obj
 0001:00028f24       __fh?FSetToolbarControls@TBUBASE@@UAAHPAPAXHPAUIMsoToolbar@@@Z 10029f24 f hl.obj
 0001:00028f26       ?FSetToolbarControls@TBUBASE@@UAAHPAPAXHPAUIMsoToolbar@@@Z 10029f26 f hl.obj
 0001:00028f28       __nep?NotifyDelete@TBUBASE@@UAAXPAPAXPAUIMsoToolbar@@@Z 10029f28 f hl.obj
 0001:00028f28       __pcd_tbl?NotifyDelete@TBUBASE@@UAAXPAPAXPAUIMsoToolbar@@@Z 10029f28 f hl.obj
 0001:00028f30       __fh?NotifyDelete@TBUBASE@@UAAXPAPAXPAUIMsoToolbar@@@Z 10029f30 f hl.obj
 0001:00028f32       ?NotifyDelete@TBUBASE@@UAAXPAPAXPAUIMsoToolbar@@@Z 10029f32 f hl.obj
 0001:00028f34       __nep?GetContext@TBUBASE@@UAAXPAPAXPAGPAUIMsoToolbar@@@Z 10029f34 f hl.obj
 0001:00028f34       __pcd_tbl?GetContext@TBUBASE@@UAAXPAPAXPAGPAUIMsoToolbar@@@Z 10029f34 f hl.obj
 0001:00028f3c       __fh?GetContext@TBUBASE@@UAAXPAPAXPAGPAUIMsoToolbar@@@Z 10029f3c f hl.obj
 0001:00028f3e       ?GetContext@TBUBASE@@UAAXPAPAXPAGPAUIMsoToolbar@@@Z 10029f3e f hl.obj
 0001:00028f40       __nep?FSetContext@TBUBASE@@UAAHPAPAXPAGPAUIMsoToolbar@@@Z 10029f40 f hl.obj
 0001:00028f40       __pcd_tbl?FSetContext@TBUBASE@@UAAHPAPAXPAGPAUIMsoToolbar@@@Z 10029f40 f hl.obj
 0001:00028f48       __fh?FSetContext@TBUBASE@@UAAHPAPAXPAGPAUIMsoToolbar@@@Z 10029f48 f hl.obj
 0001:00028f4a       ?FSetContext@TBUBASE@@UAAHPAPAXPAGPAUIMsoToolbar@@@Z 10029f4a f hl.obj
 0001:00028f4c       __pcd_tbl??1WFBU@@QAA@XZ   10029f4c f hl.obj
 0001:00028f54       __nep??1WFBU@@QAA@XZ       10029f54 f hl.obj
 0001:00028f5c       __fh??1WFBU@@QAA@XZ        10029f5c f hl.obj
 0001:00028f5e       ??1WFBU@@QAA@XZ            10029f5e f hl.obj
 0001:00028f88       __pcd_tbl?TbidGetTearOff@TBUBASE@@UAAHPAPAXPAUIMsoToolbar@@@Z 10029f88 f hl.obj
 0001:00028f88       __nep?TbidGetTearOff@TBUBASE@@UAAHPAPAXPAUIMsoToolbar@@@Z 10029f88 f hl.obj
 0001:00028f90       __fh?TbidGetTearOff@TBUBASE@@UAAHPAPAXPAUIMsoToolbar@@@Z 10029f90 f hl.obj
 0001:00028f92       ?TbidGetTearOff@TBUBASE@@UAAHPAPAXPAUIMsoToolbar@@@Z 10029f92 f hl.obj
 0001:00028f94       __pcd_tbl?FCloneUserClient@TBUBASE@@UAAHPAUIMsoToolbar@@PAXPAPAXPAPAUIMsoToolbarUser@@@Z 10029f94 f hl.obj
 0001:00028f94       __nep?FCloneUserClient@TBUBASE@@UAAHPAUIMsoToolbar@@PAXPAPAXPAPAUIMsoToolbarUser@@@Z 10029f94 f hl.obj
 0001:00028f9c       __fh?FCloneUserClient@TBUBASE@@UAAHPAUIMsoToolbar@@PAXPAPAXPAPAUIMsoToolbarUser@@@Z 10029f9c f hl.obj
 0001:00028f9e       ?FCloneUserClient@TBUBASE@@UAAHPAUIMsoToolbar@@PAXPAPAXPAPAUIMsoToolbarUser@@@Z 10029f9e f hl.obj
 0001:00028fa4       __nep?FSelectCmdHelper@TBUBASE@@UAAHPAUIMsoToolbar@@PAPAXPAH@Z 10029fa4 f hl.obj
 0001:00028fa4       __pcd_tbl?FSelectCmdHelper@TBUBASE@@UAAHPAUIMsoToolbar@@PAPAXPAH@Z 10029fa4 f hl.obj
 0001:00028fac       __fh?FSelectCmdHelper@TBUBASE@@UAAHPAUIMsoToolbar@@PAPAXPAH@Z 10029fac f hl.obj
 0001:00028fae       ?FSelectCmdHelper@TBUBASE@@UAAHPAUIMsoToolbar@@PAPAXPAH@Z 10029fae f hl.obj
 0001:00028fb4       __pcd_tbl?Create@WFBU@@SAPAV1@PAVWTBH@@HPBG@Z 10029fb4 f hl.obj
 0001:00028fc4       __nep?Create@WFBU@@SAPAV1@PAVWTBH@@HPBG@Z 10029fc4 f hl.obj
 0001:00028fcc       __fh?Create@WFBU@@SAPAV1@PAVWTBH@@HPBG@Z 10029fcc f hl.obj
 0001:00028fce       ?Create@WFBU@@SAPAV1@PAVWTBH@@HPBG@Z 10029fce f hl.obj
 0001:00029010       __pcd_tbl?FCreateControlForCustomize@TBUBASE@@UAAHPAUIMsoToolbar@@PAPAXPAU_msotcr@@0H2@Z 1002a010 f hl.obj
 0001:00029010       __nep?FCreateControlForCustomize@TBUBASE@@UAAHPAUIMsoToolbar@@PAPAXPAU_msotcr@@0H2@Z 1002a010 f hl.obj
 0001:00029018       __fh?FCreateControlForCustomize@TBUBASE@@UAAHPAUIMsoToolbar@@PAPAXPAU_msotcr@@0H2@Z 1002a018 f hl.obj
 0001:0002901a       ?FCreateControlForCustomize@TBUBASE@@UAAHPAUIMsoToolbar@@PAPAXPAU_msotcr@@0H2@Z 1002a01a f hl.obj
 0001:0002901c       __nep?FNotifyAction@TBUBASE@@UAAHPAUIMsoToolbar@@PAPAXH@Z 1002a01c f hl.obj
 0001:0002901c       __pcd_tbl?FNotifyAction@TBUBASE@@UAAHPAUIMsoToolbar@@PAPAXH@Z 1002a01c f hl.obj
 0001:00029024       __fh?FNotifyAction@TBUBASE@@UAAHPAUIMsoToolbar@@PAPAXH@Z 1002a024 f hl.obj
 0001:00029026       ?FNotifyAction@TBUBASE@@UAAHPAUIMsoToolbar@@PAPAXH@Z 1002a026 f hl.obj
 0001:00029028       __pcd_tbl?FDebugMessage@TBBUBASE@@UAAHPAUMSOINST@@IIJ@Z 1002a028 f hl.obj
 0001:00029028       __nep?FDebugMessage@TBBUBASE@@UAAHPAUMSOINST@@IIJ@Z 1002a028 f hl.obj
 0001:00029030       __fh?FDebugMessage@TBBUBASE@@UAAHPAUMSOINST@@IIJ@Z 1002a030 f hl.obj
 0001:00029032       ?FDebugMessage@TBBUBASE@@UAAHPAUMSOINST@@IIJ@Z 1002a032 f hl.obj
 0001:00029034       __nep?FCloneUserClient@TBBUBASE@@UAAHPAUIMsoControl@@PAXPAPAXPAPAUIMsoControlUser@@@Z 1002a034 f hl.obj
 0001:00029034       __pcd_tbl?FCloneUserClient@TBBUBASE@@UAAHPAUIMsoControl@@PAXPAPAXPAPAUIMsoControlUser@@@Z 1002a034 f hl.obj
 0001:0002903c       __fh?FCloneUserClient@TBBUBASE@@UAAHPAUIMsoControl@@PAXPAPAXPAPAUIMsoControlUser@@@Z 1002a03c f hl.obj
 0001:0002903e       ?FCloneUserClient@TBBUBASE@@UAAHPAUIMsoControl@@PAXPAPAXPAPAUIMsoControlUser@@@Z 1002a03e f hl.obj
 0001:00029044       __pcd_tbl?FSaveUserData@TBBUBASE@@UAAHPAUIMsoControl@@PAPAXPAUIStream@@@Z 1002a044 f hl.obj
 0001:00029044       __nep?FSaveUserData@TBBUBASE@@UAAHPAUIMsoControl@@PAPAXPAUIStream@@@Z 1002a044 f hl.obj
 0001:0002904c       __fh?FSaveUserData@TBBUBASE@@UAAHPAUIMsoControl@@PAPAXPAUIStream@@@Z 1002a04c f hl.obj
 0001:0002904e       ?FSaveUserData@TBBUBASE@@UAAHPAUIMsoControl@@PAPAXPAUIStream@@@Z 1002a04e f hl.obj
 0001:00029050       __nep?FGetAlternateControl@TBBUBASE@@UAAHPAUIMsoControl@@PAPAXPAPAU2@@Z 1002a050 f hl.obj
 0001:00029050       __pcd_tbl?FGetAlternateControl@TBBUBASE@@UAAHPAUIMsoControl@@PAPAXPAPAU2@@Z 1002a050 f hl.obj
 0001:00029058       __fh?FGetAlternateControl@TBBUBASE@@UAAHPAUIMsoControl@@PAPAXPAPAU2@@Z 1002a058 f hl.obj
 0001:0002905a       ?FGetAlternateControl@TBBUBASE@@UAAHPAUIMsoControl@@PAPAXPAPAU2@@Z 1002a05a f hl.obj
 0001:0002905c       __nep?FChangeLabel@TBBUBASE@@UAAHPAUIMsoControl@@PAPAXPAG2@Z 1002a05c f hl.obj
 0001:0002905c       __pcd_tbl?FChangeLabel@TBBUBASE@@UAAHPAUIMsoControl@@PAPAXPAG2@Z 1002a05c f hl.obj
 0001:00029064       __fh?FChangeLabel@TBBUBASE@@UAAHPAUIMsoControl@@PAPAXPAG2@Z 1002a064 f hl.obj
 0001:00029066       ?FChangeLabel@TBBUBASE@@UAAHPAUIMsoControl@@PAPAXPAG2@Z 1002a066 f hl.obj
 0001:00029068       __nep?FDebugMessage@WFBU@@UAAHPAUMSOINST@@IIJ@Z 1002a068 f hl.obj
 0001:00029068       __pcd_tbl?FDebugMessage@WFBU@@UAAHPAUMSOINST@@IIJ@Z 1002a068 f hl.obj
 0001:00029070       __fh?FDebugMessage@WFBU@@UAAHPAUMSOINST@@IIJ@Z 1002a070 f hl.obj
 0001:00029072       ?FDebugMessage@WFBU@@UAAHPAUMSOINST@@IIJ@Z 1002a072 f hl.obj
 0001:00029074       __nep?FNotifyAction@TBBUBASE@@UAAHPAUIMsoControl@@PAPAXH@Z 1002a074 f hl.obj
 0001:00029074       __pcd_tbl?FNotifyAction@TBBUBASE@@UAAHPAUIMsoControl@@PAPAXH@Z 1002a074 f hl.obj
 0001:0002907c       __fh?FNotifyAction@TBBUBASE@@UAAHPAUIMsoControl@@PAPAXH@Z 1002a07c f hl.obj
 0001:0002907e       ?FNotifyAction@TBBUBASE@@UAAHPAUIMsoControl@@PAPAXH@Z 1002a07e f hl.obj
 0001:00029080       __pcd_tbl?NotifyDelete@WFBU@@UAAXPAUIMsoControl@@PAPAX@Z 1002a080 f hl.obj
 0001:00029088       __nep?NotifyDelete@WFBU@@UAAXPAUIMsoControl@@PAPAX@Z 1002a088 f hl.obj
 0001:00029090       __fh?NotifyDelete@WFBU@@UAAXPAUIMsoControl@@PAPAX@Z 1002a090 f hl.obj
 0001:00029092       ?NotifyDelete@WFBU@@UAAXPAUIMsoControl@@PAPAX@Z 1002a092 f hl.obj
 0001:000290a0       __pcd_tbl?TbcuOleUsage@TBBUBASE@@UAAHPAUIMsoControl@@PAPAX@Z 1002a0a0 f hl.obj
 0001:000290a0       __nep?TbcuOleUsage@TBBUBASE@@UAAHPAUIMsoControl@@PAPAX@Z 1002a0a0 f hl.obj
 0001:000290a8       __fh?TbcuOleUsage@TBBUBASE@@UAAHPAUIMsoControl@@PAPAX@Z 1002a0a8 f hl.obj
 0001:000290aa       ?TbcuOleUsage@TBBUBASE@@UAAHPAUIMsoControl@@PAPAX@Z 1002a0aa f hl.obj
 0001:000290ac       __nep?FGetString@TBBUBASE@@UAAHPAUIMsoControl@@PAPAXHPAG@Z 1002a0ac f hl.obj
 0001:000290ac       __pcd_tbl?FGetString@TBBUBASE@@UAAHPAUIMsoControl@@PAPAXHPAG@Z 1002a0ac f hl.obj
 0001:000290b4       __fh?FGetString@TBBUBASE@@UAAHPAUIMsoControl@@PAPAXHPAG@Z 1002a0b4 f hl.obj
 0001:000290b6       ?FGetString@TBBUBASE@@UAAHPAUIMsoControl@@PAPAXHPAG@Z 1002a0b6 f hl.obj
 0001:000290b8       __pcd_tbl?FCloneUserClient@WFBU@@UAAHPAUIMsoControl@@PAXPAPAXPAPAUIMsoControlUser@@@Z 1002a0b8 f hl.obj
 0001:000290bc       __nep?FCloneUserClient@WFBU@@UAAHPAUIMsoControl@@PAXPAPAXPAPAUIMsoControlUser@@@Z 1002a0bc f hl.obj
 0001:000290c4       __fh?FCloneUserClient@WFBU@@UAAHPAUIMsoControl@@PAXPAPAXPAPAUIMsoControlUser@@@Z 1002a0c4 f hl.obj
 0001:000290c6       ?FCloneUserClient@WFBU@@UAAHPAUIMsoControl@@PAXPAPAXPAPAUIMsoControlUser@@@Z 1002a0c6 f hl.obj
 0001:000290e8       __pcd_tbl?FGetQuickTip@TBBUBASE@@UAAHPAUIMsoControl@@PAPAXPAGPAH@Z 1002a0e8 f hl.obj
 0001:000290e8       __nep?FGetQuickTip@TBBUBASE@@UAAHPAUIMsoControl@@PAPAXPAGPAH@Z 1002a0e8 f hl.obj
 0001:000290f0       __fh?FGetQuickTip@TBBUBASE@@UAAHPAUIMsoControl@@PAPAXPAGPAH@Z 1002a0f0 f hl.obj
 0001:000290f2       ?FGetQuickTip@TBBUBASE@@UAAHPAUIMsoControl@@PAPAXPAGPAH@Z 1002a0f2 f hl.obj
 0001:000290f4       __pcd_tbl?Tbbs@TBBUBASE@@UAAIPAUIMsoControl@@PAPAX@Z 1002a0f4 f hl.obj
 0001:000290f4       __nep?Tbbs@TBBUBASE@@UAAIPAUIMsoControl@@PAPAX@Z 1002a0f4 f hl.obj
 0001:000290fc       __fh?Tbbs@TBBUBASE@@UAAIPAUIMsoControl@@PAPAX@Z 1002a0fc f hl.obj
 0001:000290fe       ?Tbbs@TBBUBASE@@UAAIPAUIMsoControl@@PAPAX@Z 1002a0fe f hl.obj
 0001:00029100       __pcd_tbl?FSetCursor@TBBUBASE@@UAAHPAUIMsoControl@@PAPAXH@Z 1002a100 f hl.obj
 0001:00029100       __nep?FSetCursor@TBBUBASE@@UAAHPAUIMsoControl@@PAPAXH@Z 1002a100 f hl.obj
 0001:00029108       __fh?FSetCursor@TBBUBASE@@UAAHPAUIMsoControl@@PAPAXH@Z 1002a108 f hl.obj
 0001:0002910a       ?FSetCursor@TBBUBASE@@UAAHPAUIMsoControl@@PAPAXH@Z 1002a10a f hl.obj
 0001:0002910c       __pcd_tbl?FClick@TBBUBASE@@UAAHPAUIMsoControl@@PAPAXPAHH@Z 1002a10c f hl.obj
 0001:0002910c       __nep?FClick@TBBUBASE@@UAAHPAUIMsoControl@@PAPAXPAHH@Z 1002a10c f hl.obj
 0001:00029114       __fh?FClick@TBBUBASE@@UAAHPAUIMsoControl@@PAPAXPAHH@Z 1002a114 f hl.obj
 0001:00029116       ?FClick@TBBUBASE@@UAAHPAUIMsoControl@@PAPAXPAHH@Z 1002a116 f hl.obj
 0001:00029118       __nep?FFindCustomBtnface@TBBUBASE@@UAAHPAUIMsoControl@@PAPAXHHPAPAUBSTRIP@@PAHH@Z 1002a118 f hl.obj
 0001:00029118       __pcd_tbl?FFindCustomBtnface@TBBUBASE@@UAAHPAUIMsoControl@@PAPAXHHPAPAUBSTRIP@@PAHH@Z 1002a118 f hl.obj
 0001:00029120       __fh?FFindCustomBtnface@TBBUBASE@@UAAHPAUIMsoControl@@PAPAXHHPAPAUBSTRIP@@PAHH@Z 1002a120 f hl.obj
 0001:00029122       ?FFindCustomBtnface@TBBUBASE@@UAAHPAUIMsoControl@@PAPAXHHPAPAUBSTRIP@@PAHH@Z 1002a122 f hl.obj
 0001:00029124       __pcd_tbl?FClick@WFBU@@UAAHPAUIMsoControl@@PAPAXPAHH@Z 1002a124 f hl.obj
 0001:00029140       __nep?FClick@WFBU@@UAAHPAUIMsoControl@@PAPAXPAHH@Z 1002a140 f hl.obj
 0001:00029148       __fh?FClick@WFBU@@UAAHPAUIMsoControl@@PAPAXPAHH@Z 1002a148 f hl.obj
 0001:0002914a       ?FClick@WFBU@@UAAHPAUIMsoControl@@PAPAXPAHH@Z 1002a14a f hl.obj
 0001:000291bc       __pcd_tbl?FWtzGetAccelerator@TBBUBASE@@UAAHPAUIMsoControl@@PAPAXPAG@Z 1002a1bc f hl.obj
 0001:000291bc       __nep?FWtzGetAccelerator@TBBUBASE@@UAAHPAUIMsoControl@@PAPAXPAG@Z 1002a1bc f hl.obj
 0001:000291c4       __fh?FWtzGetAccelerator@TBBUBASE@@UAAHPAUIMsoControl@@PAPAXPAG@Z 1002a1c4 f hl.obj
 0001:000291c6       ?FWtzGetAccelerator@TBBUBASE@@UAAHPAUIMsoControl@@PAPAXPAG@Z 1002a1c6 f hl.obj
 0001:000291c8       __nep?TbbodDraw@TBBUBASE@@UAAHPAUIMsoControl@@PAPAXPAUHDC__@@PAUtagRECT@@3U_msoceo@@HH@Z 1002a1c8 f hl.obj
 0001:000291c8       __pcd_tbl?TbbodDraw@TBBUBASE@@UAAHPAUIMsoControl@@PAPAXPAUHDC__@@PAUtagRECT@@3U_msoceo@@HH@Z 1002a1c8 f hl.obj
 0001:000291d0       __fh?TbbodDraw@TBBUBASE@@UAAHPAUIMsoControl@@PAPAXPAUHDC__@@PAUtagRECT@@3U_msoceo@@HH@Z 1002a1d0 f hl.obj
 0001:000291d2       ?TbbodDraw@TBBUBASE@@UAAHPAUIMsoControl@@PAPAXPAUHDC__@@PAUtagRECT@@3U_msoceo@@HH@Z 1002a1d2 f hl.obj
 0001:000291d4       ??0WTBH@@QAA@XZ            1002a1d4 f hl.obj
 0001:00029388       __pcd_tbl?FDebugMessage@TBDDUBASE@@UAAHPAUMSOINST@@IIJ@Z 1002a388 f hl.obj
 0001:00029388       __nep?FDebugMessage@TBDDUBASE@@UAAHPAUMSOINST@@IIJ@Z 1002a388 f hl.obj
 0001:00029390       __fh?FDebugMessage@TBDDUBASE@@UAAHPAUMSOINST@@IIJ@Z 1002a390 f hl.obj
 0001:00029392       ?FDebugMessage@TBDDUBASE@@UAAHPAUMSOINST@@IIJ@Z 1002a392 f hl.obj
 0001:00029394       __nep?FCloneUserClient@TBDDUBASE@@UAAHPAUIMsoControl@@PAXPAPAXPAPAUIMsoControlUser@@@Z 1002a394 f hl.obj
 0001:00029394       __pcd_tbl?FCloneUserClient@TBDDUBASE@@UAAHPAUIMsoControl@@PAXPAPAXPAPAUIMsoControlUser@@@Z 1002a394 f hl.obj
 0001:0002939c       __fh?FCloneUserClient@TBDDUBASE@@UAAHPAUIMsoControl@@PAXPAPAXPAPAUIMsoControlUser@@@Z 1002a39c f hl.obj
 0001:0002939e       ?FCloneUserClient@TBDDUBASE@@UAAHPAUIMsoControl@@PAXPAPAXPAPAUIMsoControlUser@@@Z 1002a39e f hl.obj
 0001:000293a4       __nep?NotifyDelete@TBDDUBASE@@UAAXPAUIMsoControl@@PAPAX@Z 1002a3a4 f hl.obj
 0001:000293a4       __pcd_tbl?NotifyDelete@TBDDUBASE@@UAAXPAUIMsoControl@@PAPAX@Z 1002a3a4 f hl.obj
 0001:000293ac       __fh?NotifyDelete@TBDDUBASE@@UAAXPAUIMsoControl@@PAPAX@Z 1002a3ac f hl.obj
 0001:000293ae       ?NotifyDelete@TBDDUBASE@@UAAXPAUIMsoControl@@PAPAX@Z 1002a3ae f hl.obj
 0001:000293b0       __nep?FSaveUserData@TBDDUBASE@@UAAHPAUIMsoControl@@PAPAXPAUIStream@@@Z 1002a3b0 f hl.obj
 0001:000293b0       __pcd_tbl?FSaveUserData@TBDDUBASE@@UAAHPAUIMsoControl@@PAPAXPAUIStream@@@Z 1002a3b0 f hl.obj
 0001:000293b8       __fh?FSaveUserData@TBDDUBASE@@UAAHPAUIMsoControl@@PAPAXPAUIStream@@@Z 1002a3b8 f hl.obj
 0001:000293ba       ?FSaveUserData@TBDDUBASE@@UAAHPAUIMsoControl@@PAPAXPAUIStream@@@Z 1002a3ba f hl.obj
 0001:000293bc       __pcd_tbl?FAutoVisible@TBDDUBASE@@UAAHPAUIMsoControl@@PAPAX@Z 1002a3bc f hl.obj
 0001:000293bc       __nep?FAutoVisible@TBDDUBASE@@UAAHPAUIMsoControl@@PAPAX@Z 1002a3bc f hl.obj
 0001:000293c4       __fh?FAutoVisible@TBDDUBASE@@UAAHPAUIMsoControl@@PAPAX@Z 1002a3c4 f hl.obj
 0001:000293c6       ?FAutoVisible@TBDDUBASE@@UAAHPAUIMsoControl@@PAPAX@Z 1002a3c6 f hl.obj
 0001:000293c8       __nep?FEnabled@TBDDUBASE@@UAAHPAUIMsoControl@@PAPAX@Z 1002a3c8 f hl.obj
 0001:000293c8       __pcd_tbl?FEnabled@TBDDUBASE@@UAAHPAUIMsoControl@@PAPAX@Z 1002a3c8 f hl.obj
 0001:000293d0       __fh?FEnabled@TBDDUBASE@@UAAHPAUIMsoControl@@PAPAX@Z 1002a3d0 f hl.obj
 0001:000293d2       ?FEnabled@TBDDUBASE@@UAAHPAUIMsoControl@@PAPAX@Z 1002a3d2 f hl.obj
 0001:000293d4       __pcd_tbl?FGetAlternateControl@TBDDUBASE@@UAAHPAUIMsoControl@@PAPAXPAPAU2@@Z 1002a3d4 f hl.obj
 0001:000293d4       __nep?FGetAlternateControl@TBDDUBASE@@UAAHPAUIMsoControl@@PAPAXPAPAU2@@Z 1002a3d4 f hl.obj
 0001:000293dc       __fh?FGetAlternateControl@TBDDUBASE@@UAAHPAUIMsoControl@@PAPAXPAPAU2@@Z 1002a3dc f hl.obj
 0001:000293de       ?FGetAlternateControl@TBDDUBASE@@UAAHPAUIMsoControl@@PAPAXPAPAU2@@Z 1002a3de f hl.obj
 0001:000293e0       __nep?FChangeLabel@TBDDUBASE@@UAAHPAUIMsoControl@@PAPAXPAG2@Z 1002a3e0 f hl.obj
 0001:000293e0       __pcd_tbl?FChangeLabel@TBDDUBASE@@UAAHPAUIMsoControl@@PAPAXPAG2@Z 1002a3e0 f hl.obj
 0001:000293e8       __fh?FChangeLabel@TBDDUBASE@@UAAHPAUIMsoControl@@PAPAXPAG2@Z 1002a3e8 f hl.obj
 0001:000293ea       ?FChangeLabel@TBDDUBASE@@UAAHPAUIMsoControl@@PAPAXPAG2@Z 1002a3ea f hl.obj
 0001:000293ec       __pcd_tbl?FNotifyAction@TBDDUBASE@@UAAHPAUIMsoControl@@PAPAXH@Z 1002a3ec f hl.obj
 0001:000293ec       __nep?FNotifyAction@TBDDUBASE@@UAAHPAUIMsoControl@@PAPAXH@Z 1002a3ec f hl.obj
 0001:000293f4       __fh?FNotifyAction@TBDDUBASE@@UAAHPAUIMsoControl@@PAPAXH@Z 1002a3f4 f hl.obj
 0001:000293f6       ?FNotifyAction@TBDDUBASE@@UAAHPAUIMsoControl@@PAPAXH@Z 1002a3f6 f hl.obj
 0001:000293f8       __nep?TbcuOleUsage@TBDDUBASE@@UAAHPAUIMsoControl@@PAPAX@Z 1002a3f8 f hl.obj
 0001:000293f8       __pcd_tbl?TbcuOleUsage@TBDDUBASE@@UAAHPAUIMsoControl@@PAPAX@Z 1002a3f8 f hl.obj
 0001:00029400       __fh?TbcuOleUsage@TBDDUBASE@@UAAHPAUIMsoControl@@PAPAX@Z 1002a400 f hl.obj
 0001:00029402       ?TbcuOleUsage@TBDDUBASE@@UAAHPAUIMsoControl@@PAPAX@Z 1002a402 f hl.obj
 0001:00029404       __pcd_tbl?FGetString@TBDDUBASE@@UAAHPAUIMsoControl@@PAPAXHPAG@Z 1002a404 f hl.obj
 0001:00029404       __nep?FGetString@TBDDUBASE@@UAAHPAUIMsoControl@@PAPAXHPAG@Z 1002a404 f hl.obj
 0001:0002940c       __fh?FGetString@TBDDUBASE@@UAAHPAUIMsoControl@@PAPAXHPAG@Z 1002a40c f hl.obj
 0001:0002940e       ?FGetString@TBDDUBASE@@UAAHPAUIMsoControl@@PAPAXHPAG@Z 1002a40e f hl.obj
 0001:00029410       __pcd_tbl?FGetQuickTip@TBDDUBASE@@UAAHPAUIMsoControl@@PAPAXPAGPAH@Z 1002a410 f hl.obj
 0001:00029410       __nep?FGetQuickTip@TBDDUBASE@@UAAHPAUIMsoControl@@PAPAXPAGPAH@Z 1002a410 f hl.obj
 0001:00029418       __fh?FGetQuickTip@TBDDUBASE@@UAAHPAUIMsoControl@@PAPAXPAGPAH@Z 1002a418 f hl.obj
 0001:0002941a       ?FGetQuickTip@TBDDUBASE@@UAAHPAUIMsoControl@@PAPAXPAGPAH@Z 1002a41a f hl.obj
 0001:0002941c       __pcd_tbl?FUpdate@TBDDUBASE@@UAAHPAUIMsoControl@@PAPAX@Z 1002a41c f hl.obj
 0001:0002941c       __nep?FUpdate@TBDDUBASE@@UAAHPAUIMsoControl@@PAPAX@Z 1002a41c f hl.obj
 0001:00029424       __fh?FUpdate@TBDDUBASE@@UAAHPAUIMsoControl@@PAPAX@Z 1002a424 f hl.obj
 0001:00029426       ?FUpdate@TBDDUBASE@@UAAHPAUIMsoControl@@PAPAX@Z 1002a426 f hl.obj
 0001:00029428       __nep?GetText@TBDDUBASE@@UAAXPAUIMsoControl@@PAPAXPAG@Z 1002a428 f hl.obj
 0001:00029428       __pcd_tbl?GetText@TBDDUBASE@@UAAXPAUIMsoControl@@PAPAXPAG@Z 1002a428 f hl.obj
 0001:00029430       __fh?GetText@TBDDUBASE@@UAAXPAUIMsoControl@@PAPAXPAG@Z 1002a430 f hl.obj
 0001:00029432       ?GetText@TBDDUBASE@@UAAXPAUIMsoControl@@PAPAXPAG@Z 1002a432 f hl.obj
 0001:00029434       __nep?GetDropItem@TBDDUBASE@@UAAXPAUIMsoControl@@PAPAXPAGHPAH@Z 1002a434 f hl.obj
 0001:00029434       __pcd_tbl?GetDropItem@TBDDUBASE@@UAAXPAUIMsoControl@@PAPAXPAGHPAH@Z 1002a434 f hl.obj
 0001:0002943c       __fh?GetDropItem@TBDDUBASE@@UAAXPAUIMsoControl@@PAPAXPAGHPAH@Z 1002a43c f hl.obj
 0001:0002943e       ?GetDropItem@TBDDUBASE@@UAAXPAUIMsoControl@@PAPAXPAGHPAH@Z 1002a43e f hl.obj
 0001:00029440       __pcd_tbl?CItems@TBDDUBASE@@UAAHPAUIMsoControl@@PAPAXPAH2@Z 1002a440 f hl.obj
 0001:00029440       __nep?CItems@TBDDUBASE@@UAAHPAUIMsoControl@@PAPAXPAH2@Z 1002a440 f hl.obj
 0001:00029448       __fh?CItems@TBDDUBASE@@UAAHPAUIMsoControl@@PAPAXPAH2@Z 1002a448 f hl.obj
 0001:0002944a       ?CItems@TBDDUBASE@@UAAHPAUIMsoControl@@PAPAXPAH2@Z 1002a44a f hl.obj
 0001:0002944c       __pcd_tbl?ISelection@TBDDUBASE@@UAAHPAUIMsoControl@@PAPAX@Z 1002a44c f hl.obj
 0001:0002944c       __nep?ISelection@TBDDUBASE@@UAAHPAUIMsoControl@@PAPAX@Z 1002a44c f hl.obj
 0001:00029454       __fh?ISelection@TBDDUBASE@@UAAHPAUIMsoControl@@PAPAX@Z 1002a454 f hl.obj
 0001:00029456       ?ISelection@TBDDUBASE@@UAAHPAUIMsoControl@@PAPAX@Z 1002a456 f hl.obj
 0001:00029458       __pcd_tbl?Pick@TBDDUBASE@@UAAXPAUIMsoControl@@PAPAXHH@Z 1002a458 f hl.obj
 0001:00029458       __nep?Pick@TBDDUBASE@@UAAXPAUIMsoControl@@PAPAXHH@Z 1002a458 f hl.obj
 0001:00029460       __fh?Pick@TBDDUBASE@@UAAXPAUIMsoControl@@PAPAXHH@Z 1002a460 f hl.obj
 0001:00029462       ?Pick@TBDDUBASE@@UAAXPAUIMsoControl@@PAPAXHH@Z 1002a462 f hl.obj
 0001:00029464       __pcd_tbl?EnterText@TBDDUBASE@@UAAXPAUIMsoControl@@PAPAXPAGH@Z 1002a464 f hl.obj
 0001:00029464       __nep?EnterText@TBDDUBASE@@UAAXPAUIMsoControl@@PAPAXPAGH@Z 1002a464 f hl.obj
 0001:0002946c       __fh?EnterText@TBDDUBASE@@UAAXPAUIMsoControl@@PAPAXPAGH@Z 1002a46c f hl.obj
 0001:0002946e       ?EnterText@TBDDUBASE@@UAAXPAUIMsoControl@@PAPAXPAGH@Z 1002a46e f hl.obj
 0001:00029470       __nep?CDropdownLines@TBDDUBASE@@UAAHPAUIMsoControl@@PAPAX@Z 1002a470 f hl.obj
 0001:00029470       __pcd_tbl?CDropdownLines@TBDDUBASE@@UAAHPAUIMsoControl@@PAPAX@Z 1002a470 f hl.obj
 0001:00029478       __fh?CDropdownLines@TBDDUBASE@@UAAHPAUIMsoControl@@PAPAX@Z 1002a478 f hl.obj
 0001:0002947a       ?CDropdownLines@TBDDUBASE@@UAAHPAUIMsoControl@@PAPAX@Z 1002a47a f hl.obj
 0001:0002947c       __nep?DxDropdown@TBDDUBASE@@UAAHPAUIMsoControl@@PAPAXH@Z 1002a47c f hl.obj
 0001:0002947c       __pcd_tbl?DxDropdown@TBDDUBASE@@UAAHPAUIMsoControl@@PAPAXH@Z 1002a47c f hl.obj
 0001:00029484       __fh?DxDropdown@TBDDUBASE@@UAAHPAUIMsoControl@@PAPAXH@Z 1002a484 f hl.obj
 0001:00029486       ?DxDropdown@TBDDUBASE@@UAAHPAUIMsoControl@@PAPAXH@Z 1002a486 f hl.obj
 0001:00029488       __pcd_tbl?DyDropdownItem@TBDDUBASE@@UAAHPAUIMsoControl@@PAPAXPAH@Z 1002a488 f hl.obj
 0001:00029488       __nep?DyDropdownItem@TBDDUBASE@@UAAHPAUIMsoControl@@PAPAXPAH@Z 1002a488 f hl.obj
 0001:00029490       __fh?DyDropdownItem@TBDDUBASE@@UAAHPAUIMsoControl@@PAPAXPAH@Z 1002a490 f hl.obj
 0001:00029492       ?DyDropdownItem@TBDDUBASE@@UAAHPAUIMsoControl@@PAPAXPAH@Z 1002a492 f hl.obj
 0001:00029494       __nep?Dropping@TBDDUBASE@@UAAXPAUIMsoControl@@PAPAXPAUHFONT__@@@Z 1002a494 f hl.obj
 0001:00029494       __pcd_tbl?Dropping@TBDDUBASE@@UAAXPAUIMsoControl@@PAPAXPAUHFONT__@@@Z 1002a494 f hl.obj
 0001:0002949c       __fh?Dropping@TBDDUBASE@@UAAXPAUIMsoControl@@PAPAXPAUHFONT__@@@Z 1002a49c f hl.obj
 0001:0002949e       ?Dropping@TBDDUBASE@@UAAXPAUIMsoControl@@PAPAXPAUHFONT__@@@Z 1002a49e f hl.obj
 0001:000294a0       __nep?UpdateStatusBar@TBDDUBASE@@UAAXPAUIMsoControl@@PAPAXHPAG@Z 1002a4a0 f hl.obj
 0001:000294a0       __pcd_tbl?UpdateStatusBar@TBDDUBASE@@UAAXPAUIMsoControl@@PAPAXHPAG@Z 1002a4a0 f hl.obj
 0001:000294a8       __fh?UpdateStatusBar@TBDDUBASE@@UAAXPAUIMsoControl@@PAPAXHPAG@Z 1002a4a8 f hl.obj
 0001:000294aa       ?UpdateStatusBar@TBDDUBASE@@UAAXPAUIMsoControl@@PAPAXHPAG@Z 1002a4aa f hl.obj
 0001:000294ac       __pcd_tbl?FDebugMessage@TBMUBASE@@UAAHPAUMSOINST@@IIJ@Z 1002a4ac f hl.obj
 0001:000294ac       __nep?FDebugMessage@TBMUBASE@@UAAHPAUMSOINST@@IIJ@Z 1002a4ac f hl.obj
 0001:000294b4       __fh?FDebugMessage@TBMUBASE@@UAAHPAUMSOINST@@IIJ@Z 1002a4b4 f hl.obj
 0001:000294b6       ?FDebugMessage@TBMUBASE@@UAAHPAUMSOINST@@IIJ@Z 1002a4b6 f hl.obj
 0001:000294b8       __pcd_tbl?FCloneUserClient@TBMUBASE@@UAAHPAUIMsoControl@@PAXPAPAXPAPAUIMsoControlUser@@@Z 1002a4b8 f hl.obj
 0001:000294b8       __nep?FCloneUserClient@TBMUBASE@@UAAHPAUIMsoControl@@PAXPAPAXPAPAUIMsoControlUser@@@Z 1002a4b8 f hl.obj
 0001:000294c0       __fh?FCloneUserClient@TBMUBASE@@UAAHPAUIMsoControl@@PAXPAPAXPAPAUIMsoControlUser@@@Z 1002a4c0 f hl.obj
 0001:000294c2       ?FCloneUserClient@TBMUBASE@@UAAHPAUIMsoControl@@PAXPAPAXPAPAUIMsoControlUser@@@Z 1002a4c2 f hl.obj
 0001:000294c8       __pcd_tbl?FSaveUserData@TBMUBASE@@UAAHPAUIMsoControl@@PAPAXPAUIStream@@@Z 1002a4c8 f hl.obj
 0001:000294c8       __nep?FSaveUserData@TBMUBASE@@UAAHPAUIMsoControl@@PAPAXPAUIStream@@@Z 1002a4c8 f hl.obj
 0001:000294d0       __fh?FSaveUserData@TBMUBASE@@UAAHPAUIMsoControl@@PAPAXPAUIStream@@@Z 1002a4d0 f hl.obj
 0001:000294d2       ?FSaveUserData@TBMUBASE@@UAAHPAUIMsoControl@@PAPAXPAUIStream@@@Z 1002a4d2 f hl.obj
 0001:000294d4       __nep?FAutoVisible@TBMUBASE@@UAAHPAUIMsoControl@@PAPAX@Z 1002a4d4 f hl.obj
 0001:000294d4       __pcd_tbl?FAutoVisible@TBMUBASE@@UAAHPAUIMsoControl@@PAPAX@Z 1002a4d4 f hl.obj
 0001:000294dc       __fh?FAutoVisible@TBMUBASE@@UAAHPAUIMsoControl@@PAPAX@Z 1002a4dc f hl.obj
 0001:000294de       ?FAutoVisible@TBMUBASE@@UAAHPAUIMsoControl@@PAPAX@Z 1002a4de f hl.obj
 0001:000294e0       __nep?FEnabled@TBMUBASE@@UAAHPAUIMsoControl@@PAPAX@Z 1002a4e0 f hl.obj
 0001:000294e0       __pcd_tbl?FEnabled@TBMUBASE@@UAAHPAUIMsoControl@@PAPAX@Z 1002a4e0 f hl.obj
 0001:000294e8       __fh?FEnabled@TBMUBASE@@UAAHPAUIMsoControl@@PAPAX@Z 1002a4e8 f hl.obj
 0001:000294ea       ?FEnabled@TBMUBASE@@UAAHPAUIMsoControl@@PAPAX@Z 1002a4ea f hl.obj
 0001:000294ec       __pcd_tbl?FGetAlternateControl@TBMUBASE@@UAAHPAUIMsoControl@@PAPAXPAPAU2@@Z 1002a4ec f hl.obj
 0001:000294ec       __nep?FGetAlternateControl@TBMUBASE@@UAAHPAUIMsoControl@@PAPAXPAPAU2@@Z 1002a4ec f hl.obj
 0001:000294f4       __fh?FGetAlternateControl@TBMUBASE@@UAAHPAUIMsoControl@@PAPAXPAPAU2@@Z 1002a4f4 f hl.obj
 0001:000294f6       ?FGetAlternateControl@TBMUBASE@@UAAHPAUIMsoControl@@PAPAXPAPAU2@@Z 1002a4f6 f hl.obj
 0001:000294f8       __nep?FChangeLabel@TBMUBASE@@UAAHPAUIMsoControl@@PAPAXPAG2@Z 1002a4f8 f hl.obj
 0001:000294f8       __pcd_tbl?FChangeLabel@TBMUBASE@@UAAHPAUIMsoControl@@PAPAXPAG2@Z 1002a4f8 f hl.obj
 0001:00029500       __fh?FChangeLabel@TBMUBASE@@UAAHPAUIMsoControl@@PAPAXPAG2@Z 1002a500 f hl.obj
 0001:00029502       ?FChangeLabel@TBMUBASE@@UAAHPAUIMsoControl@@PAPAXPAG2@Z 1002a502 f hl.obj
 0001:00029504       ??1WTBH@@QAA@XZ            1002a504 f hl.obj
 0001:000295d8       __nep?FNotifyAction@TBMUBASE@@UAAHPAUIMsoControl@@PAPAXH@Z 1002a5d8 f hl.obj
 0001:000295d8       __pcd_tbl?FNotifyAction@TBMUBASE@@UAAHPAUIMsoControl@@PAPAXH@Z 1002a5d8 f hl.obj
 0001:000295e0       __fh?FNotifyAction@TBMUBASE@@UAAHPAUIMsoControl@@PAPAXH@Z 1002a5e0 f hl.obj
 0001:000295e2       ?FNotifyAction@TBMUBASE@@UAAHPAUIMsoControl@@PAPAXH@Z 1002a5e2 f hl.obj
 0001:000295e4       __pcd_tbl?TbcuOleUsage@TBMUBASE@@UAAHPAUIMsoControl@@PAPAX@Z 1002a5e4 f hl.obj
 0001:000295e4       __nep?TbcuOleUsage@TBMUBASE@@UAAHPAUIMsoControl@@PAPAX@Z 1002a5e4 f hl.obj
 0001:000295ec       __fh?TbcuOleUsage@TBMUBASE@@UAAHPAUIMsoControl@@PAPAX@Z 1002a5ec f hl.obj
 0001:000295ee       ?TbcuOleUsage@TBMUBASE@@UAAHPAUIMsoControl@@PAPAX@Z 1002a5ee f hl.obj
 0001:000295f0       __nep?FGetString@TBMUBASE@@UAAHPAUIMsoControl@@PAPAXHPAG@Z 1002a5f0 f hl.obj
 0001:000295f0       __pcd_tbl?FGetString@TBMUBASE@@UAAHPAUIMsoControl@@PAPAXHPAG@Z 1002a5f0 f hl.obj
 0001:000295f8       __fh?FGetString@TBMUBASE@@UAAHPAUIMsoControl@@PAPAXHPAG@Z 1002a5f8 f hl.obj
 0001:000295fa       ?FGetString@TBMUBASE@@UAAHPAUIMsoControl@@PAPAXHPAG@Z 1002a5fa f hl.obj
 0001:000295fc       __nep?FGetQuickTip@TBMUBASE@@UAAHPAUIMsoControl@@PAPAXPAGPAH@Z 1002a5fc f hl.obj
 0001:000295fc       __pcd_tbl?FGetQuickTip@TBMUBASE@@UAAHPAUIMsoControl@@PAPAXPAGPAH@Z 1002a5fc f hl.obj
 0001:00029604       __fh?FGetQuickTip@TBMUBASE@@UAAHPAUIMsoControl@@PAPAXPAGPAH@Z 1002a604 f hl.obj
 0001:00029606       ?FGetQuickTip@TBMUBASE@@UAAHPAUIMsoControl@@PAPAXPAGPAH@Z 1002a606 f hl.obj
 0001:00029608       __nep?IMenuGroup@TBMUBASE@@UAAHPAUIMsoControl@@PAPAX@Z 1002a608 f hl.obj
 0001:00029608       __pcd_tbl?IMenuGroup@TBMUBASE@@UAAHPAUIMsoControl@@PAPAX@Z 1002a608 f hl.obj
 0001:00029610       __fh?IMenuGroup@TBMUBASE@@UAAHPAUIMsoControl@@PAPAX@Z 1002a610 f hl.obj
 0001:00029612       ?IMenuGroup@TBMUBASE@@UAAHPAUIMsoControl@@PAPAX@Z 1002a612 f hl.obj
 0001:00029614       __nep?Tbbs@TBMUBASE@@UAAIPAUIMsoControl@@PAPAX@Z 1002a614 f hl.obj
 0001:00029614       __pcd_tbl?Tbbs@TBMUBASE@@UAAIPAUIMsoControl@@PAPAX@Z 1002a614 f hl.obj
 0001:0002961c       __fh?Tbbs@TBMUBASE@@UAAIPAUIMsoControl@@PAPAX@Z 1002a61c f hl.obj
 0001:0002961e       ?Tbbs@TBMUBASE@@UAAIPAUIMsoControl@@PAPAX@Z 1002a61e f hl.obj
 0001:00029620       __pcd_tbl?TbbodDraw@TBMUBASE@@UAAHPAUIMsoControl@@PAPAXPAUHDC__@@PAUtagRECT@@PAHU_msoceo@@HH@Z 1002a620 f hl.obj
 0001:00029620       __nep?TbbodDraw@TBMUBASE@@UAAHPAUIMsoControl@@PAPAXPAUHDC__@@PAUtagRECT@@PAHU_msoceo@@HH@Z 1002a620 f hl.obj
 0001:00029628       __fh?TbbodDraw@TBMUBASE@@UAAHPAUIMsoControl@@PAPAXPAUHDC__@@PAUtagRECT@@PAHU_msoceo@@HH@Z 1002a628 f hl.obj
 0001:0002962a       ?TbbodDraw@TBMUBASE@@UAAHPAUIMsoControl@@PAPAXPAUHDC__@@PAUtagRECT@@PAHU_msoceo@@HH@Z 1002a62a f hl.obj
 0001:0002962c       __pcd_tbl?FClick@TBMUBASE@@UAAHPAUIMsoControl@@PAPAXPAH@Z 1002a62c f hl.obj
 0001:0002962c       __nep?FClick@TBMUBASE@@UAAHPAUIMsoControl@@PAPAXPAH@Z 1002a62c f hl.obj
 0001:00029634       __fh?FClick@TBMUBASE@@UAAHPAUIMsoControl@@PAPAXPAH@Z 1002a634 f hl.obj
 0001:00029636       ?FClick@TBMUBASE@@UAAHPAUIMsoControl@@PAPAXPAH@Z 1002a636 f hl.obj
 0001:00029638       __nep?WebTBHelperClass@@YAXPAUtagWNDCLASSA@@@Z 1002a638 f hl.obj
 0001:00029638       __pcd_tbl?WebTBHelperClass@@YAXPAUtagWNDCLASSA@@@Z 1002a638 f hl.obj
 0001:00029640       __fh?WebTBHelperClass@@YAXPAUtagWNDCLASSA@@@Z 1002a640 f hl.obj
 0001:00029642       ?WebTBHelperClass@@YAXPAUtagWNDCLASSA@@@Z 1002a642 f hl.obj
 0001:00029650       __pcd_tbl?WndProc@WTBH@@SAJPAUHWND__@@IIJ@Z 1002a650 f hl.obj
 0001:00029660       __nep?WndProc@WTBH@@SAJPAUHWND__@@IIJ@Z 1002a660 f hl.obj
 0001:00029668       __fh?WndProc@WTBH@@SAJPAUHWND__@@IIJ@Z 1002a668 f hl.obj
 0001:0002966a       ?WndProc@WTBH@@SAJPAUHWND__@@IIJ@Z 1002a66a f hl.obj
 0001:000296a0       __pcd_tbl?FCreateWindow@WTBH@@QAAHXZ 1002a6a0 f hl.obj
 0001:000296ac       __nep?FCreateWindow@WTBH@@QAAHXZ 1002a6ac f hl.obj
 0001:000296b4       __fh?FCreateWindow@WTBH@@QAAHXZ 1002a6b4 f hl.obj
 0001:000296b6       ?FCreateWindow@WTBH@@QAAHXZ 1002a6b6 f hl.obj
 0001:000296f0       __pcd_tbl?GetHlitemStack@WTBH@@QAAXXZ 1002a6f0 f hl.obj
 0001:000296f4       __nep?GetHlitemStack@WTBH@@QAAXXZ 1002a6f4 f hl.obj
 0001:000296fc       __fh?GetHlitemStack@WTBH@@QAAXXZ 1002a6fc f hl.obj
 0001:000296fe       ?GetHlitemStack@WTBH@@QAAXXZ 1002a6fe f hl.obj
 0001:0002975c       __pcd_tbl?LDoCommandSetSpecialPage@WTBH@@QAAJHH@Z 1002a75c f hl.obj
 0001:00029780       __nep?LDoCommandSetSpecialPage@WTBH@@QAAJHH@Z 1002a780 f hl.obj
 0001:00029788       __fh?LDoCommandSetSpecialPage@WTBH@@QAAJHH@Z 1002a788 f hl.obj
 0001:0002978b       ?LDoCommandSetSpecialPage@WTBH@@QAAJHH@Z 1002a78b f hl.obj
 0001:000298dc       __pcd_tbl?LDoCommandOpenSpecialPage@WTBH@@QAAJHH@Z 1002a8dc f hl.obj
 0001:000298fc       __nep?LDoCommandOpenSpecialPage@WTBH@@QAAJHH@Z 1002a8fc f hl.obj
 0001:00029904       __fh?LDoCommandOpenSpecialPage@WTBH@@QAAJHH@Z 1002a904 f hl.obj
 0001:00029906       ?LDoCommandOpenSpecialPage@WTBH@@QAAJHH@Z 1002a906 f hl.obj
 0001:000299a8       __pcd_tbl?LDoCommandOpenURL@WTBH@@QAAJH@Z 1002a9a8 f hl.obj
 0001:000299d0       __nep?LDoCommandOpenURL@WTBH@@QAAJH@Z 1002a9d0 f hl.obj
 0001:000299d8       __fh?LDoCommandOpenURL@WTBH@@QAAJH@Z 1002a9d8 f hl.obj
 0001:000299db       ?LDoCommandOpenURL@WTBH@@QAAJH@Z 1002a9db f hl.obj
 0001:00029b04       __pcd_tbl?LNavigateToURLChoice@WTBH@@QAAJHPAGKHHH@Z 1002ab04 f hl.obj
 0001:00029b2c       __nep?LNavigateToURLChoice@WTBH@@QAAJHPAGKHHH@Z 1002ab2c f hl.obj
 0001:00029b34       __fh?LNavigateToURLChoice@WTBH@@QAAJHPAGKHHH@Z 1002ab34 f hl.obj
 0001:00029b36       ?LNavigateToURLChoice@WTBH@@QAAJHPAGKHHH@Z 1002ab36 f hl.obj
 0001:00029bf8       __pcd_tbl?UpdateAddressWell@WTBH@@QAAXPAG0HKH@Z 1002abf8 f hl.obj
 0001:00029c10       __nep?UpdateAddressWell@WTBH@@QAAXPAG0HKH@Z 1002ac10 f hl.obj
 0001:00029c18       __fh?UpdateAddressWell@WTBH@@QAAXPAG0HKH@Z 1002ac18 f hl.obj
 0001:00029c1a       ?UpdateAddressWell@WTBH@@QAAXPAG0HKH@Z 1002ac1a f hl.obj
 0001:00029c4c       __pcd_tbl?LDoCommandNavigate@WTBH@@QAAJKPAUIHlinkBrowseContext@@HH@Z 1002ac4c f hl.obj
 0001:00029c5c       __nep?LDoCommandNavigate@WTBH@@QAAJKPAUIHlinkBrowseContext@@HH@Z 1002ac5c f hl.obj
 0001:00029c64       __fh?LDoCommandNavigate@WTBH@@QAAJKPAUIHlinkBrowseContext@@HH@Z 1002ac64 f hl.obj
 0001:00029c66       ?LDoCommandNavigate@WTBH@@QAAJKPAUIHlinkBrowseContext@@HH@Z 1002ac66 f hl.obj
 0001:00029d10       __pcd_tbl?LQueryLink@WTBH@@QAAJKKPAUIHlinkBrowseContext@@H@Z 1002ad10 f hl.obj
 0001:00029d14       __nep?LQueryLink@WTBH@@QAAJKKPAUIHlinkBrowseContext@@H@Z 1002ad14 f hl.obj
 0001:00029d1c       __fh?LQueryLink@WTBH@@QAAJKKPAUIHlinkBrowseContext@@H@Z 1002ad1c f hl.obj
 0001:00029d1e       ?LQueryLink@WTBH@@QAAJKKPAUIHlinkBrowseContext@@H@Z 1002ad1e f hl.obj
 0001:00029d68       __pcd_tbl?LDoCommandAddToFav@WTBH@@QAAJPAU_MSOHLINKREF@@H@Z 1002ad68 f hl.obj
 0001:00029d68       __nep?LDoCommandAddToFav@WTBH@@QAAJPAU_MSOHLINKREF@@H@Z 1002ad68 f hl.obj
 0001:00029d70       __fh?LDoCommandAddToFav@WTBH@@QAAJPAU_MSOHLINKREF@@H@Z 1002ad70 f hl.obj
 0001:00029d72       ?LDoCommandAddToFav@WTBH@@QAAJPAU_MSOHLINKREF@@H@Z 1002ad72 f hl.obj
 0001:00029d74       __pcd_tbl?LDoCommandOpenFavorites@WTBH@@QAAJH@Z 1002ad74 f hl.obj
 0001:00029d98       __nep?LDoCommandOpenFavorites@WTBH@@QAAJH@Z 1002ad98 f hl.obj
 0001:00029da0       __fh?LDoCommandOpenFavorites@WTBH@@QAAJH@Z 1002ada0 f hl.obj
 0001:00029da3       ?LDoCommandOpenFavorites@WTBH@@QAAJH@Z 1002ada3 f hl.obj
 0001:00029ec0       __pcd_tbl?LDoCommandMoreHistory@WTBH@@QAAJXZ 1002aec0 f hl.obj
 0001:00029ee4       __nep?LDoCommandMoreHistory@WTBH@@QAAJXZ 1002aee4 f hl.obj
 0001:00029eec       __fh?LDoCommandMoreHistory@WTBH@@QAAJXZ 1002aeec f hl.obj
 0001:00029eef       ?LDoCommandMoreHistory@WTBH@@QAAJXZ 1002aeef f hl.obj
 0001:0002a000       __pcd_tbl?FCreateNavStackCtrls@WTBH@@QAAHHPAUIMsoControlSite@@PAU_msotcr@@PAH@Z 1002b000 f hl.obj
 0001:0002a01c       __nep?FCreateNavStackCtrls@WTBH@@QAAHHPAUIMsoControlSite@@PAU_msotcr@@PAH@Z 1002b01c f hl.obj
 0001:0002a024       __fh?FCreateNavStackCtrls@WTBH@@QAAHHPAUIMsoControlSite@@PAU_msotcr@@PAH@Z 1002b024 f hl.obj
 0001:0002a026       ?FCreateNavStackCtrls@WTBH@@QAAHHPAUIMsoControlSite@@PAU_msotcr@@PAH@Z 1002b026 f hl.obj
 0001:0002a0b4       __pcd_tbl?FCreateHistoryMenuToolbar@WTBH@@QAAHHPBGPAPAUIMsoToolbar@@@Z 1002b0b4 f hl.obj
 0001:0002a0b8       __nep?FCreateHistoryMenuToolbar@WTBH@@QAAHHPBGPAPAUIMsoToolbar@@@Z 1002b0b8 f hl.obj
 0001:0002a0c0       __fh?FCreateHistoryMenuToolbar@WTBH@@QAAHHPBGPAPAUIMsoToolbar@@@Z 1002b0c0 f hl.obj
 0001:0002a0c2       ?FCreateHistoryMenuToolbar@WTBH@@QAAHHPBGPAPAUIMsoToolbar@@@Z 1002b0c2 f hl.obj
 0001:0002a108       __pcd_tbl?FCreateOptionsMenuToolbar@WTBH@@QAAHHPBGPAPAUIMsoToolbar@@@Z 1002b108 f hl.obj
 0001:0002a10c       __nep?FCreateOptionsMenuToolbar@WTBH@@QAAHHPBGPAPAUIMsoToolbar@@@Z 1002b10c f hl.obj
 0001:0002a114       __fh?FCreateOptionsMenuToolbar@WTBH@@QAAHHPBGPAPAUIMsoToolbar@@@Z 1002b114 f hl.obj
 0001:0002a116       ?FCreateOptionsMenuToolbar@WTBH@@QAAHHPBGPAPAUIMsoToolbar@@@Z 1002b116 f hl.obj
 0001:0002a15c       __pcd_tbl?FCreateFavoritesMenuToolbar@WTBH@@QAAHHPBGPAPAUIMsoToolbar@@@Z 1002b15c f hl.obj
 0001:0002a16c       __nep?FCreateFavoritesMenuToolbar@WTBH@@QAAHHPBGPAPAUIMsoToolbar@@@Z 1002b16c f hl.obj
 0001:0002a174       __fh?FCreateFavoritesMenuToolbar@WTBH@@QAAHHPBGPAPAUIMsoToolbar@@@Z 1002b174 f hl.obj
 0001:0002a176       ?FCreateFavoritesMenuToolbar@WTBH@@QAAHHPBGPAPAUIMsoToolbar@@@Z 1002b176 f hl.obj
 0001:0002a1ac       __pcd_tbl?FCreateFavoritesCmdBar@WTBH@@QAAHHHPBG0PAPAUIMsoToolbar@@PAPAVWFTBU@@@Z 1002b1ac f hl.obj
 0001:0002a1c8       __nep?FCreateFavoritesCmdBar@WTBH@@QAAHHHPBG0PAPAUIMsoToolbar@@PAPAVWFTBU@@@Z 1002b1c8 f hl.obj
 0001:0002a1d0       __fh?FCreateFavoritesCmdBar@WTBH@@QAAHHHPBG0PAPAUIMsoToolbar@@PAPAVWFTBU@@@Z 1002b1d0 f hl.obj
 0001:0002a1d3       ?FCreateFavoritesCmdBar@WTBH@@QAAHHHPBG0PAPAUIMsoToolbar@@PAPAVWFTBU@@@Z 1002b1d3 f hl.obj
 0001:0002a288       __pcd_tbl?FCreateFavSubMenu@WTBH@@QAAHPAUIMsoControlSite@@PAGPAU_msotcr@@PAPAVWFMU@@PAPAUIMsoToolbar@@PAPAVWFTBU@@@Z 1002b288 f hl.obj
 0001:0002a2a0       __nep?FCreateFavSubMenu@WTBH@@QAAHPAUIMsoControlSite@@PAGPAU_msotcr@@PAPAVWFMU@@PAPAUIMsoToolbar@@PAPAVWFTBU@@@Z 1002b2a0 f hl.obj
 0001:0002a2a8       __fh?FCreateFavSubMenu@WTBH@@QAAHPAUIMsoControlSite@@PAGPAU_msotcr@@PAPAVWFMU@@PAPAUIMsoToolbar@@PAPAVWFTBU@@@Z 1002b2a8 f hl.obj
 0001:0002a2aa       ?FCreateFavSubMenu@WTBH@@QAAHPAUIMsoControlSite@@PAGPAU_msotcr@@PAPAVWFMU@@PAPAUIMsoToolbar@@PAPAVWFTBU@@@Z 1002b2aa f hl.obj
 0001:0002a358       __pcd_tbl?FCreateFavButtonCtrl@WTBH@@QAAHPAUIMsoControlSite@@PAGPAU_msotcr@@PAPAVWFBU@@@Z 1002b358 f hl.obj
 0001:0002a368       __nep?FCreateFavButtonCtrl@WTBH@@QAAHPAUIMsoControlSite@@PAGPAU_msotcr@@PAPAVWFBU@@@Z 1002b368 f hl.obj
 0001:0002a370       __fh?FCreateFavButtonCtrl@WTBH@@QAAHPAUIMsoControlSite@@PAGPAU_msotcr@@PAPAVWFBU@@@Z 1002b370 f hl.obj
 0001:0002a372       ?FCreateFavButtonCtrl@WTBH@@QAAHPAUIMsoControlSite@@PAGPAU_msotcr@@PAPAVWFBU@@@Z 1002b372 f hl.obj
 0001:0002a3a8       __pcd_tbl?UpdateCurrentURL@WTBH@@QAAXPAG0HH@Z 1002b3a8 f hl.obj
 0001:0002a3b4       __nep?UpdateCurrentURL@WTBH@@QAAXPAG0HH@Z 1002b3b4 f hl.obj
 0001:0002a3bc       __fh?UpdateCurrentURL@WTBH@@QAAXPAG0HH@Z 1002b3bc f hl.obj
 0001:0002a3be       ?UpdateCurrentURL@WTBH@@QAAXPAG0HH@Z 1002b3be f hl.obj
 0001:0002a400       __nep?QuickUpdateCurrentURL@@YAXPAG0HH@Z 1002b400 f hl.obj
 0001:0002a400       __pcd_tbl?QuickUpdateCurrentURL@@YAXPAG0HH@Z 1002b400 f hl.obj
 0001:0002a408       __fh?QuickUpdateCurrentURL@@YAXPAG0HH@Z 1002b408 f hl.obj
 0001:0002a40a       ?QuickUpdateCurrentURL@@YAXPAG0HH@Z 1002b40a f hl.obj
 0001:0002a40c       __pcd_tbl?QuickUpdateCurrentURL2@WTBH@@QAAXPAG0H@Z 1002b40c f hl.obj
 0001:0002a40c       __nep?QuickUpdateCurrentURL2@WTBH@@QAAXPAG0H@Z 1002b40c f hl.obj
 0001:0002a414       __fh?QuickUpdateCurrentURL2@WTBH@@QAAXPAG0H@Z 1002b414 f hl.obj
 0001:0002a416       ?QuickUpdateCurrentURL2@WTBH@@QAAXPAG0H@Z 1002b416 f hl.obj
 0001:0002a418       __nep?QuickUpdateCurrentURL3@WTBH@@QAAXPAUIHlink@@H@Z 1002b418 f hl.obj
 0001:0002a418       __pcd_tbl?QuickUpdateCurrentURL3@WTBH@@QAAXPAUIHlink@@H@Z 1002b418 f hl.obj
 0001:0002a420       __fh?QuickUpdateCurrentURL3@WTBH@@QAAXPAUIHlink@@H@Z 1002b420 f hl.obj
 0001:0002a422       ?QuickUpdateCurrentURL3@WTBH@@QAAXPAUIHlink@@H@Z 1002b422 f hl.obj
 0001:0002a424       __pcd_tbl?FSetFFSearchPath@WTBH@@QAAHPBGH@Z 1002b424 f hl.obj
 0001:0002a434       __nep?FSetFFSearchPath@WTBH@@QAAHPBGH@Z 1002b434 f hl.obj
 0001:0002a43c       __fh?FSetFFSearchPath@WTBH@@QAAHPBGH@Z 1002b43c f hl.obj
 0001:0002a43e       ?FSetFFSearchPath@WTBH@@QAAHPBGH@Z 1002b43e f hl.obj
 0001:0002a47c       __pcd_tbl?SetOrDisplayError@WTBH@@QAAXPAJHKK@Z 1002b47c f hl.obj
 0001:0002a488       __nep?SetOrDisplayError@WTBH@@QAAXPAJHKK@Z 1002b488 f hl.obj
 0001:0002a490       __fh?SetOrDisplayError@WTBH@@QAAXPAJHKK@Z 1002b490 f hl.obj
 0001:0002a492       ?SetOrDisplayError@WTBH@@QAAXPAJHKK@Z 1002b492 f hl.obj
 0001:0002a4a4       __pcd_tbl?QueryInterface@WTBH@@UAAJABUGUID@@PAPAX@Z 1002b4a4 f hl.obj
 0001:0002a4a8       __nep?QueryInterface@WTBH@@UAAJABUGUID@@PAPAX@Z 1002b4a8 f hl.obj
 0001:0002a4b0       __fh?QueryInterface@WTBH@@UAAJABUGUID@@PAPAX@Z 1002b4b0 f hl.obj
 0001:0002a4b2       ?QueryInterface@WTBH@@UAAJABUGUID@@PAPAX@Z 1002b4b2 f hl.obj
 0001:0002a4bc       __nep?FDebugMessage@WTBH@@UAAHPAUMSOINST@@IIJ@Z 1002b4bc f hl.obj
 0001:0002a4bc       __pcd_tbl?FDebugMessage@WTBH@@UAAHPAUMSOINST@@IIJ@Z 1002b4bc f hl.obj
 0001:0002a4c4       __fh?FDebugMessage@WTBH@@UAAHPAUMSOINST@@IIJ@Z 1002b4c4 f hl.obj
 0001:0002a4c6       ?FDebugMessage@WTBH@@UAAHPAUMSOINST@@IIJ@Z 1002b4c6 f hl.obj
 0001:0002a4c8       __pcd_tbl?FCreateToolbar@WTBH@@UAAHJHPBGPAPAUIMsoToolbar@@@Z 1002b4c8 f hl.obj
 0001:0002a4d8       __nep?FCreateToolbar@WTBH@@UAAHJHPBGPAPAUIMsoToolbar@@@Z 1002b4d8 f hl.obj
 0001:0002a4e0       __fh?FCreateToolbar@WTBH@@UAAHJHPBGPAPAUIMsoToolbar@@@Z 1002b4e0 f hl.obj
 0001:0002a4e2       ?FCreateToolbar@WTBH@@UAAHJHPBGPAPAUIMsoToolbar@@@Z 1002b4e2 f hl.obj
 0001:0002a510       __pcd_tbl?FGetURLDropdownUser@WTBH@@UAAHPAPAUIMsoDropdownUser@@@Z 1002b510 f hl.obj
 0001:0002a514       __nep?FGetURLDropdownUser@WTBH@@UAAHPAPAUIMsoDropdownUser@@@Z 1002b514 f hl.obj
 0001:0002a51c       __fh?FGetURLDropdownUser@WTBH@@UAAHPAPAUIMsoDropdownUser@@@Z 1002b51c f hl.obj
 0001:0002a51e       ?FGetURLDropdownUser@WTBH@@UAAHPAPAUIMsoDropdownUser@@@Z 1002b51e f hl.obj
 0001:0002a530       __pcd_tbl?LDoCommand@WTBH@@UAAJHPAX@Z 1002b530 f hl.obj
 0001:0002a548       __nep?LDoCommand@WTBH@@UAAJHPAX@Z 1002b548 f hl.obj
 0001:0002a550       __fh?LDoCommand@WTBH@@UAAJHPAX@Z 1002b550 f hl.obj
 0001:0002a552       ?LDoCommand@WTBH@@UAAJHPAX@Z 1002b552 f hl.obj
 0001:0002a5a4       __pcd_tbl?LEnabled@WTBH@@UAAJH@Z 1002b5a4 f hl.obj
 0001:0002a5ac       __nep?LEnabled@WTBH@@UAAJH@Z 1002b5ac f hl.obj
 0001:0002a5b4       __fh?LEnabled@WTBH@@UAAJH@Z 1002b5b4 f hl.obj
 0001:0002a5b6       ?LEnabled@WTBH@@UAAJH@Z    1002b5b6 f hl.obj
 0001:0002a5d8       __pcd_tbl?OnNavigate@WTBH@@UAAXPAUIMoniker@@PBG1KK@Z 1002b5d8 f hl.obj
 0001:0002a5e4       __nep?OnNavigate@WTBH@@UAAXPAUIMoniker@@PBG1KK@Z 1002b5e4 f hl.obj
 0001:0002a5ec       __fh?OnNavigate@WTBH@@UAAXPAUIMoniker@@PBG1KK@Z 1002b5ec f hl.obj
 0001:0002a5ee       ?OnNavigate@WTBH@@UAAXPAUIMoniker@@PBG1KK@Z 1002b5ee f hl.obj
 0001:0002a654       __pcd_tbl?FSetAppName@WTBH@@UAAHPBG@Z 1002b654 f hl.obj
 0001:0002a664       __nep?FSetAppName@WTBH@@UAAHPBG@Z 1002b664 f hl.obj
 0001:0002a66c       __fh?FSetAppName@WTBH@@UAAHPBG@Z 1002b66c f hl.obj
 0001:0002a66e       ?FSetAppName@WTBH@@UAAHPBG@Z 1002b66e f hl.obj
 0001:0002a690       __pcd_tbl?FFindFileEnablePreview@WTBH@@UAAHHPAX@Z 1002b690 f hl.obj
 0001:0002a690       __nep?FFindFileEnablePreview@WTBH@@UAAHHPAX@Z 1002b690 f hl.obj
 0001:0002a698       __fh?FFindFileEnablePreview@WTBH@@UAAHHPAX@Z 1002b698 f hl.obj
 0001:0002a69a       ?FFindFileEnablePreview@WTBH@@UAAHHPAX@Z 1002b69a f hl.obj
 0001:0002a6b0       __pcd_tbl?FSetFindFileSearchPath@WTBH@@UAAHPBGK@Z 1002b6b0 f hl.obj
 0001:0002a6b8       __nep?FSetFindFileSearchPath@WTBH@@UAAHPBGK@Z 1002b6b8 f hl.obj
 0001:0002a6c0       __fh?FSetFindFileSearchPath@WTBH@@UAAHPBGK@Z 1002b6c0 f hl.obj
 0001:0002a6c2       ?FSetFindFileSearchPath@WTBH@@UAAHPBGK@Z 1002b6c2 f hl.obj
 0001:0002a6d8       __pcd_tbl?FGetFindFileSearchPath@WTBH@@UAAHPAGHK@Z 1002b6d8 f hl.obj
 0001:0002a6e0       __nep?FGetFindFileSearchPath@WTBH@@UAAHPAGHK@Z 1002b6e0 f hl.obj
 0001:0002a6e8       __fh?FGetFindFileSearchPath@WTBH@@UAAHPAGHK@Z 1002b6e8 f hl.obj
 0001:0002a6ea       ?FGetFindFileSearchPath@WTBH@@UAAHPAGHK@Z 1002b6ea f hl.obj
 0001:0002a708       ??0URLREG@@QAA@XZ          1002b708 f hl.obj
 0001:0002a774       ??1URLREG@@QAA@XZ          1002b774 f hl.obj
 0001:0002a7fc       __pcd_tbl?LoadEntries@URLREG@@QAAXXZ 1002b7fc f hl.obj
 0001:0002a814       __nep?LoadEntries@URLREG@@QAAXXZ 1002b814 f hl.obj
 0001:0002a81c       __fh?LoadEntries@URLREG@@QAAXXZ 1002b81c f hl.obj
 0001:0002a81f       ?LoadEntries@URLREG@@QAAXXZ 1002b81f f hl.obj
 0001:0002a864       __pcd_tbl?WriteEntries@URLREG@@QAAXXZ 1002b864 f hl.obj
 0001:0002a870       __nep?WriteEntries@URLREG@@QAAXXZ 1002b870 f hl.obj
 0001:0002a878       __fh?WriteEntries@URLREG@@QAAXXZ 1002b878 f hl.obj
 0001:0002a87a       ?WriteEntries@URLREG@@QAAXXZ 1002b87a f hl.obj
 0001:0002a8bc       __pcd_tbl?AddWtz255Entry@URLREG@@QAAXPAGH@Z 1002b8bc f hl.obj
 0001:0002a8cc       __nep?AddWtz255Entry@URLREG@@QAAXPAGH@Z 1002b8cc f hl.obj
 0001:0002a8d4       __fh?AddWtz255Entry@URLREG@@QAAXPAGH@Z 1002b8d4 f hl.obj
 0001:0002a8d6       ?AddWtz255Entry@URLREG@@QAAXPAGH@Z 1002b8d6 f hl.obj
 0001:0002a8f8       __pcd_tbl?DeleteEntry@URLREG@@QAAXH@Z 1002b8f8 f hl.obj
 0001:0002a900       __nep?DeleteEntry@URLREG@@QAAXH@Z 1002b900 f hl.obj
 0001:0002a908       __fh?DeleteEntry@URLREG@@QAAXH@Z 1002b908 f hl.obj
 0001:0002a90a       ?DeleteEntry@URLREG@@QAAXH@Z 1002b90a f hl.obj
 0001:0002a930       __pcd_tbl?DeleteStrEntry@URLREG@@QAAXPAG@Z 1002b930 f hl.obj
 0001:0002a938       __nep?DeleteStrEntry@URLREG@@QAAXPAG@Z 1002b938 f hl.obj
 0001:0002a940       __fh?DeleteStrEntry@URLREG@@QAAXPAG@Z 1002b940 f hl.obj
 0001:0002a942       ?DeleteStrEntry@URLREG@@QAAXPAG@Z 1002b942 f hl.obj
 0001:0002a968       __pcd_tbl?MoveEntryToTop@URLREG@@QAAXH@Z 1002b968 f hl.obj
 0001:0002a96c       __nep?MoveEntryToTop@URLREG@@QAAXH@Z 1002b96c f hl.obj
 0001:0002a974       __fh?MoveEntryToTop@URLREG@@QAAXH@Z 1002b974 f hl.obj
 0001:0002a976       ?MoveEntryToTop@URLREG@@QAAXH@Z 1002b976 f hl.obj
 0001:0002a988       __pcd_tbl?MoveStrEntryToTop@URLREG@@QAAXPAG@Z 1002b988 f hl.obj
 0001:0002a990       __nep?MoveStrEntryToTop@URLREG@@QAAXPAG@Z 1002b990 f hl.obj
 0001:0002a998       __fh?MoveStrEntryToTop@URLREG@@QAAXPAG@Z 1002b998 f hl.obj
 0001:0002a99a       ?MoveStrEntryToTop@URLREG@@QAAXPAG@Z 1002b99a f hl.obj
 0001:0002a9c0       __pcd_tbl?GetEntryWtz255@URLREG@@QAAXHPAG@Z 1002b9c0 f hl.obj
 0001:0002a9c4       __nep?GetEntryWtz255@URLREG@@QAAXHPAG@Z 1002b9c4 f hl.obj
 0001:0002a9cc       __fh?GetEntryWtz255@URLREG@@QAAXHPAG@Z 1002b9cc f hl.obj
 0001:0002a9ce       ?GetEntryWtz255@URLREG@@QAAXHPAG@Z 1002b9ce f hl.obj
 0001:0002a9e4       __pcd_tbl?IGetStrIndex@URLREG@@QAAHPAG@Z 1002b9e4 f hl.obj
 0001:0002a9e8       __nep?IGetStrIndex@URLREG@@QAAHPAG@Z 1002b9e8 f hl.obj
 0001:0002a9f0       __fh?IGetStrIndex@URLREG@@QAAHPAG@Z 1002b9f0 f hl.obj
 0001:0002a9f2       ?IGetStrIndex@URLREG@@QAAHPAG@Z 1002b9f2 f hl.obj
 0001:0002aa10       __nep?WtzGetDirectEntry@URLREG@@QAAPAGH@Z 1002ba10 f hl.obj
 0001:0002aa10       __pcd_tbl?WtzGetDirectEntry@URLREG@@QAAPAGH@Z 1002ba10 f hl.obj
 0001:0002aa18       __fh?WtzGetDirectEntry@URLREG@@QAAPAGH@Z 1002ba18 f hl.obj
 0001:0002aa1a       ?WtzGetDirectEntry@URLREG@@QAAPAGH@Z 1002ba1a f hl.obj
 0001:0002aa2c       __pcd_tbl?Delete@AHLMRUREG@@QAAXXZ 1002ba2c f hl.obj
 0001:0002aa34       __nep?Delete@AHLMRUREG@@QAAXXZ 1002ba34 f hl.obj
 0001:0002aa3c       __fh?Delete@AHLMRUREG@@QAAXXZ 1002ba3c f hl.obj
 0001:0002aa3e       ?Delete@AHLMRUREG@@QAAXXZ  1002ba3e f hl.obj
 0001:0002aa48       __pcd_tbl_PahlmruregCreate 1002ba48 f hl.obj
 0001:0002aa5c       __nep_PahlmruregCreate     1002ba5c f hl.obj
 0001:0002aa64       __fh_PahlmruregCreate      1002ba64 f hl.obj
 0001:0002aa66       _PahlmruregCreate          1002ba66 f hl.obj
 0001:0002aa84       __pcd_tbl?SetDefOfficeError@@YAXK@Z 1002ba84 f hl.obj
 0001:0002aa8c       __nep?SetDefOfficeError@@YAXK@Z 1002ba8c f hl.obj
 0001:0002aa94       __fh?SetDefOfficeError@@YAXK@Z 1002ba94 f hl.obj
 0001:0002aa96       ?SetDefOfficeError@@YAXK@Z 1002ba96 f hl.obj
 0001:0002add0       .?NWebFacMenuTcrCompare@@YAHPBU_msotcr@@0@Z 1002bdd0   hl.obj
 0001:0002af60       __pcd_tbl_MsoHrHlinkGetErrorString 1002bf60 f hl.obj
 0001:0002af68       __nep_MsoHrHlinkGetErrorString 1002bf68 f hl.obj
 0001:0002af70       __fh_MsoHrHlinkGetErrorString 1002bf70 f hl.obj
 0001:0002af72       _MsoHrHlinkGetErrorString  1002bf72 f hl.obj
 0001:0002b030       __pcd_tbl_MsoHrHlinkCreateFromMoniker 1002c030 f hllazy.obj
 0001:0002b034       __nep_MsoHrHlinkCreateFromMoniker 1002c034 f hllazy.obj
 0001:0002b03c       __fh_MsoHrHlinkCreateFromMoniker 1002c03c f hllazy.obj
 0001:0002b03e       _MsoHrHlinkCreateFromMoniker 1002c03e f hllazy.obj
 0001:0002b09c       __pcd_tbl_MsoHrHlinkCreateFromString 1002c09c f hllazy.obj
 0001:0002b0a0       __nep_MsoHrHlinkCreateFromString 1002c0a0 f hllazy.obj
 0001:0002b0a8       __fh_MsoHrHlinkCreateFromString 1002c0a8 f hllazy.obj
 0001:0002b0aa       _MsoHrHlinkCreateFromString 1002c0aa f hllazy.obj
 0001:0002b0d8       __pcd_tbl_MsoHrHlinkCreateFromData 1002c0d8 f hllazy.obj
 0001:0002b0dc       __nep_MsoHrHlinkCreateFromData 1002c0dc f hllazy.obj
 0001:0002b0e4       __fh_MsoHrHlinkCreateFromData 1002c0e4 f hllazy.obj
 0001:0002b0e6       _MsoHrHlinkCreateFromData  1002c0e6 f hllazy.obj
 0001:0002b10c       __pcd_tbl_MsoHrHlinkQueryCreateFromData 1002c10c f hllazy.obj
 0001:0002b110       __nep_MsoHrHlinkQueryCreateFromData 1002c110 f hllazy.obj
 0001:0002b118       __fh_MsoHrHlinkQueryCreateFromData 1002c118 f hllazy.obj
 0001:0002b11a       _MsoHrHlinkQueryCreateFromData 1002c11a f hllazy.obj
 0001:0002b130       __pcd_tbl_MsoHrHlinkCreateBrowseContext 1002c130 f hllazy.obj
 0001:0002b134       __nep_MsoHrHlinkCreateBrowseContext 1002c134 f hllazy.obj
 0001:0002b13c       __fh_MsoHrHlinkCreateBrowseContext 1002c13c f hllazy.obj
 0001:0002b13e       _MsoHrHlinkCreateBrowseContext 1002c13e f hllazy.obj
 0001:0002b164       __pcd_tbl_MsoHrHlinkClone  1002c164 f hllazy.obj
 0001:0002b168       __nep_MsoHrHlinkClone      1002c168 f hllazy.obj
 0001:0002b170       __fh_MsoHrHlinkClone       1002c170 f hllazy.obj
 0001:0002b172       _MsoHrHlinkClone           1002c172 f hllazy.obj
 0001:0002b198       __pcd_tbl_MsoHrHlinkNavigateToStringReference 1002c198 f hllazy.obj
 0001:0002b19c       __nep_MsoHrHlinkNavigateToStringReference 1002c19c f hllazy.obj
 0001:0002b1a4       __fh_MsoHrHlinkNavigateToStringReference 1002c1a4 f hllazy.obj
 0001:0002b1a6       _MsoHrHlinkNavigateToStringReference 1002c1a6 f hllazy.obj
 0001:0002b1c8       __pcd_tbl_MsoHrHlinkNavigate 1002c1c8 f hllazy.obj
 0001:0002b1cc       __nep_MsoHrHlinkNavigate   1002c1cc f hllazy.obj
 0001:0002b1d4       __fh_MsoHrHlinkNavigate    1002c1d4 f hllazy.obj
 0001:0002b1d6       _MsoHrHlinkNavigate        1002c1d6 f hllazy.obj
 0001:0002b1f4       __pcd_tbl_MsoHrHlinkOnNavigate 1002c1f4 f hllazy.obj
 0001:0002b1f8       __nep_MsoHrHlinkOnNavigate 1002c1f8 f hllazy.obj
 0001:0002b200       __fh_MsoHrHlinkOnNavigate  1002c200 f hllazy.obj
 0001:0002b202       _MsoHrHlinkOnNavigate      1002c202 f hllazy.obj
 0001:0002b220       __pcd_tbl_MsoHrHlinkUpdateStackItem 1002c220 f hllazy.obj
 0001:0002b224       __nep_MsoHrHlinkUpdateStackItem 1002c224 f hllazy.obj
 0001:0002b22c       __fh_MsoHrHlinkUpdateStackItem 1002c22c f hllazy.obj
 0001:0002b22e       _MsoHrHlinkUpdateStackItem 1002c22e f hllazy.obj
 0001:0002b24c       __pcd_tbl_MsoHrHlinkResolveMonikerForData 1002c24c f hllazy.obj
 0001:0002b250       __nep_MsoHrHlinkResolveMonikerForData 1002c250 f hllazy.obj
 0001:0002b258       __fh_MsoHrHlinkResolveMonikerForData 1002c258 f hllazy.obj
 0001:0002b25a       _MsoHrHlinkResolveMonikerForData 1002c25a f hllazy.obj
 0001:0002b278       __pcd_tbl_MsoHrHlinkResolveStringForData 1002c278 f hllazy.obj
 0001:0002b27c       __nep_MsoHrHlinkResolveStringForData 1002c27c f hllazy.obj
 0001:0002b284       __fh_MsoHrHlinkResolveStringForData 1002c284 f hllazy.obj
 0001:0002b286       _MsoHrHlinkResolveStringForData 1002c286 f hllazy.obj
 0001:0002b2a0       __pcd_tbl_MsoHrHlinkSaveToStream 1002c2a0 f hllazy.obj
 0001:0002b2a4       __nep_MsoHrHlinkSaveToStream 1002c2a4 f hllazy.obj
 0001:0002b2ac       __fh_MsoHrHlinkSaveToStream 1002c2ac f hllazy.obj
 0001:0002b2ae       _MsoHrHlinkSaveToStream    1002c2ae f hllazy.obj
 0001:0002b2fc       __pcd_tbl_MsoHrHlinkLoadFromStream 1002c2fc f hllazy.obj
 0001:0002b308       __nep_MsoHrHlinkLoadFromStream 1002c308 f hllazy.obj
 0001:0002b310       __fh_MsoHrHlinkLoadFromStream 1002c310 f hllazy.obj
 0001:0002b312       _MsoHrHlinkLoadFromStream  1002c312 f hllazy.obj
 0001:0002b33c       __pcd_tbl_MsoHrHlinkParseDisplayName 1002c33c f hllazy.obj
 0001:0002b340       __nep_MsoHrHlinkParseDisplayName 1002c340 f hllazy.obj
 0001:0002b348       __fh_MsoHrHlinkParseDisplayName 1002c348 f hllazy.obj
 0001:0002b34a       _MsoHrHlinkParseDisplayName 1002c34a f hllazy.obj
 0001:0002b370       __pcd_tbl_MsoHrHlinkCreateExtensionServices 1002c370 f hllazy.obj
 0001:0002b374       __nep_MsoHrHlinkCreateExtensionServices 1002c374 f hllazy.obj
 0001:0002b37c       __fh_MsoHrHlinkCreateExtensionServices 1002c37c f hllazy.obj
 0001:0002b37e       _MsoHrHlinkCreateExtensionServices 1002c37e f hllazy.obj
 0001:0002b39c       __pcd_tbl_MsoHrHlinkSetSpecialReference 1002c39c f hllazy.obj
 0001:0002b3a0       __nep_MsoHrHlinkSetSpecialReference 1002c3a0 f hllazy.obj
 0001:0002b3a8       __fh_MsoHrHlinkSetSpecialReference 1002c3a8 f hllazy.obj
 0001:0002b3aa       _MsoHrHlinkSetSpecialReference 1002c3aa f hllazy.obj
 0001:0002b3c4       __pcd_tbl_MsoHrHlinkGetSpecialReference 1002c3c4 f hllazy.obj
 0001:0002b3c8       __nep_MsoHrHlinkGetSpecialReference 1002c3c8 f hllazy.obj
 0001:0002b3d0       __fh_MsoHrHlinkGetSpecialReference 1002c3d0 f hllazy.obj
 0001:0002b3d2       _MsoHrHlinkGetSpecialReference 1002c3d2 f hllazy.obj
 0001:0002b3f8       __pcd_tbl_MsoHrCreateURLMoniker 1002c3f8 f hllazy.obj
 0001:0002b3fc       __nep_MsoHrCreateURLMoniker 1002c3fc f hllazy.obj
 0001:0002b404       __fh_MsoHrCreateURLMoniker 1002c404 f hllazy.obj
 0001:0002b406       _MsoHrCreateURLMoniker     1002c406 f hllazy.obj
 0001:0002b428       __nep_MsoHrRegisterMediaTypeClass 1002c428 f hllazy.obj
 0001:0002b428       __pcd_tbl_MsoHrRegisterMediaTypeClass 1002c428 f hllazy.obj
 0001:0002b430       __fh_MsoHrRegisterMediaTypeClass 1002c430 f hllazy.obj
 0001:0002b432       _MsoHrRegisterMediaTypeClass 1002c432 f hllazy.obj
 0001:0002b43c       __pcd_tbl_MsoHrHlinkCreateShortcut 1002c43c f hllazy.obj
 0001:0002b440       __nep_MsoHrHlinkCreateShortcut 1002c440 f hllazy.obj
 0001:0002b448       __fh_MsoHrHlinkCreateShortcut 1002c448 f hllazy.obj
 0001:0002b44a       _MsoHrHlinkCreateShortcut  1002c44a f hllazy.obj
 0001:0002b46c       __pcd_tbl_MsoHrHlinkCreateShortcutFromMoniker 1002c46c f hllazy.obj
 0001:0002b470       __nep_MsoHrHlinkCreateShortcutFromMoniker 1002c470 f hllazy.obj
 0001:0002b478       __fh_MsoHrHlinkCreateShortcutFromMoniker 1002c478 f hllazy.obj
 0001:0002b47a       _MsoHrHlinkCreateShortcutFromMoniker 1002c47a f hllazy.obj
 0001:0002b49c       __pcd_tbl_MsoHrHlinkCreateShortcutFromString 1002c49c f hllazy.obj
 0001:0002b4a0       __nep_MsoHrHlinkCreateShortcutFromString 1002c4a0 f hllazy.obj
 0001:0002b4a8       __fh_MsoHrHlinkCreateShortcutFromString 1002c4a8 f hllazy.obj
 0001:0002b4aa       _MsoHrHlinkCreateShortcutFromString 1002c4aa f hllazy.obj
 0001:0002b4cc       __pcd_tbl_MsoHrHlinkResolveShortcut 1002c4cc f hllazy.obj
 0001:0002b4d0       __nep_MsoHrHlinkResolveShortcut 1002c4d0 f hllazy.obj
 0001:0002b4d8       __fh_MsoHrHlinkResolveShortcut 1002c4d8 f hllazy.obj
 0001:0002b4da       _MsoHrHlinkResolveShortcut 1002c4da f hllazy.obj
 0001:0002b504       __pcd_tbl_MsoHrHlinkResolveShortcutToMoniker 1002c504 f hllazy.obj
 0001:0002b508       __nep_MsoHrHlinkResolveShortcutToMoniker 1002c508 f hllazy.obj
 0001:0002b510       __fh_MsoHrHlinkResolveShortcutToMoniker 1002c510 f hllazy.obj
 0001:0002b512       _MsoHrHlinkResolveShortcutToMoniker 1002c512 f hllazy.obj
 0001:0002b534       __pcd_tbl_MsoHrHlinkResolveShortcutToString 1002c534 f hllazy.obj
 0001:0002b538       __nep_MsoHrHlinkResolveShortcutToString 1002c538 f hllazy.obj
 0001:0002b540       __fh_MsoHrHlinkResolveShortcutToString 1002c540 f hllazy.obj
 0001:0002b542       _MsoHrHlinkResolveShortcutToString 1002c542 f hllazy.obj
 0001:0002b564       __pcd_tbl_MsoHrHlinkIsShortcut 1002c564 f hllazy.obj
 0001:0002b568       __nep_MsoHrHlinkIsShortcut 1002c568 f hllazy.obj
 0001:0002b570       __fh_MsoHrHlinkIsShortcut  1002c570 f hllazy.obj
 0001:0002b572       _MsoHrHlinkIsShortcut      1002c572 f hllazy.obj
 0001:0002b588       __pcd_tbl_MsoHrHlinkGetValueFromParams 1002c588 f hllazy.obj
 0001:0002b58c       __nep_MsoHrHlinkGetValueFromParams 1002c58c f hllazy.obj
 0001:0002b594       __fh_MsoHrHlinkGetValueFromParams 1002c594 f hllazy.obj
 0001:0002b596       _MsoHrHlinkGetValueFromParams 1002c596 f hllazy.obj
 0001:0002b5bc       __pcd_tbl_MsoHrHlinkTranslateURL 1002c5bc f hllazy.obj
 0001:0002b5c0       __nep_MsoHrHlinkTranslateURL 1002c5c0 f hllazy.obj
 0001:0002b5c8       __fh_MsoHrHlinkTranslateURL 1002c5c8 f hllazy.obj
 0001:0002b5ca       _MsoHrHlinkTranslateURL    1002c5ca f hllazy.obj
 0001:0002b5ec       __pcd_tbl?HrCreateFileMoniker@@YAJPBGPAPAUIMoniker@@@Z 1002c5ec f hlmisc.obj
 0001:0002b5f8       __nep?HrCreateFileMoniker@@YAJPBGPAPAUIMoniker@@@Z 1002c5f8 f hlmisc.obj
 0001:0002b600       __fh?HrCreateFileMoniker@@YAJPBGPAPAUIMoniker@@@Z 1002c600 f hlmisc.obj
 0001:0002b602       ?HrCreateFileMoniker@@YAJPBGPAPAUIMoniker@@@Z 1002c602 f hlmisc.obj
 0001:0002b618       __pcd_tbl?HrComposeHlinkMonikers@@YAJKPAUIMoniker@@0PAPAU1@@Z 1002c618 f hlmisc.obj
 0001:0002b620       __nep?HrComposeHlinkMonikers@@YAJKPAUIMoniker@@0PAPAU1@@Z 1002c620 f hlmisc.obj
 0001:0002b628       __fh?HrComposeHlinkMonikers@@YAJKPAUIMoniker@@0PAPAU1@@Z 1002c628 f hlmisc.obj
 0001:0002b62a       ?HrComposeHlinkMonikers@@YAJKPAUIMoniker@@0PAPAU1@@Z 1002c62a f hlmisc.obj
 0001:0002b6c0       __pcd_tbl?HrGetRelativePathHlinkMonikers@@YAJKPAUIMoniker@@0PAPAU1@@Z 1002c6c0 f hlmisc.obj
 0001:0002b6c8       __nep?HrGetRelativePathHlinkMonikers@@YAJKPAUIMoniker@@0PAPAU1@@Z 1002c6c8 f hlmisc.obj
 0001:0002b6d0       __fh?HrGetRelativePathHlinkMonikers@@YAJKPAUIMoniker@@0PAPAU1@@Z 1002c6d0 f hlmisc.obj
 0001:0002b6d2       ?HrGetRelativePathHlinkMonikers@@YAJKPAUIMoniker@@0PAPAU1@@Z 1002c6d2 f hlmisc.obj
 0001:0002b76c       __pcd_tbl?HrComposeStrRefOntoMk@@YAJKPAUIMoniker@@PAGPAPAU1@@Z 1002c76c f hlmisc.obj
 0001:0002b774       __nep?HrComposeStrRefOntoMk@@YAJKPAUIMoniker@@PAGPAPAU1@@Z 1002c774 f hlmisc.obj
 0001:0002b77c       __fh?HrComposeStrRefOntoMk@@YAJKPAUIMoniker@@PAGPAPAU1@@Z 1002c77c f hlmisc.obj
 0001:0002b77e       ?HrComposeStrRefOntoMk@@YAJKPAUIMoniker@@PAGPAPAU1@@Z 1002c77e f hlmisc.obj
 0001:0002b7ac       __pcd_tbl?HrParseHlinkMkName@@YAJPBGHPAPAUIMoniker@@@Z 1002c7ac f hlmisc.obj
 0001:0002b7b4       __nep?HrParseHlinkMkName@@YAJPBGHPAPAUIMoniker@@@Z 1002c7b4 f hlmisc.obj
 0001:0002b7bc       __fh?HrParseHlinkMkName@@YAJPBGHPAPAUIMoniker@@@Z 1002c7bc f hlmisc.obj
 0001:0002b7be       ?HrParseHlinkMkName@@YAJPBGHPAPAUIMoniker@@@Z 1002c7be f hlmisc.obj
 0001:0002b7e8       __pcd_tbl?HrGetMkDisplayName@@YAJPAUIMoniker@@PAGH@Z 1002c7e8 f hlmisc.obj
 0001:0002b7f8       __nep?HrGetMkDisplayName@@YAJPAUIMoniker@@PAGH@Z 1002c7f8 f hlmisc.obj
 0001:0002b800       __fh?HrGetMkDisplayName@@YAJPAUIMoniker@@PAGH@Z 1002c800 f hlmisc.obj
 0001:0002b802       ?HrGetMkDisplayName@@YAJPAUIMoniker@@PAGH@Z 1002c802 f hlmisc.obj
 0001:0002b84c       __pcd_tbl?HrGetDynMkDisplayName@@YAJPAUIMoniker@@PAPAG@Z 1002c84c f hlmisc.obj
 0001:0002b864       __nep?HrGetDynMkDisplayName@@YAJPAUIMoniker@@PAPAG@Z 1002c864 f hlmisc.obj
 0001:0002b86c       __fh?HrGetDynMkDisplayName@@YAJPAUIMoniker@@PAPAG@Z 1002c86c f hlmisc.obj
 0001:0002b86e       ?HrGetDynMkDisplayName@@YAJPAUIMoniker@@PAPAG@Z 1002c86e f hlmisc.obj
 0001:0002b8f0       __pcd_tbl?HrGetStartingMoniker@@YAJPAUIMoniker@@PAPAU1@@Z 1002c8f0 f hlmisc.obj
 0001:0002b8f0       __nep?HrGetStartingMoniker@@YAJPAUIMoniker@@PAPAU1@@Z 1002c8f0 f hlmisc.obj
 0001:0002b8f8       __fh?HrGetStartingMoniker@@YAJPAUIMoniker@@PAPAU1@@Z 1002c8f8 f hlmisc.obj
 0001:0002b8fa       ?HrGetStartingMoniker@@YAJPAUIMoniker@@PAPAU1@@Z 1002c8fa f hlmisc.obj
 0001:0002b944       __pcd_tbl?FIsMonikerRunning@@YAHPAUIMoniker@@PAUIBindCtx@@@Z 1002c944 f hlmisc.obj
 0001:0002b948       __nep?FIsMonikerRunning@@YAHPAUIMoniker@@PAUIBindCtx@@@Z 1002c948 f hlmisc.obj
 0001:0002b950       __fh?FIsMonikerRunning@@YAHPAUIMoniker@@PAUIBindCtx@@@Z 1002c950 f hlmisc.obj
 0001:0002b952       ?FIsMonikerRunning@@YAHPAUIMoniker@@PAUIBindCtx@@@Z 1002c952 f hlmisc.obj
 0001:0002b988       __pcd_tbl?FIsAbsoluteMoniker@@YAHPAUIMoniker@@@Z 1002c988 f hlmisc.obj
 0001:0002b994       __nep?FIsAbsoluteMoniker@@YAHPAUIMoniker@@@Z 1002c994 f hlmisc.obj
 0001:0002b99c       __fh?FIsAbsoluteMoniker@@YAHPAUIMoniker@@@Z 1002c99c f hlmisc.obj
 0001:0002b99e       ?FIsAbsoluteMoniker@@YAHPAUIMoniker@@@Z 1002c99e f hlmisc.obj
 0001:0002ba5c       __pcd_tbl?FMonikerPointsToDirectory@@YAHPAUIMoniker@@@Z 1002ca5c f hlmisc.obj
 0001:0002ba60       __nep?FMonikerPointsToDirectory@@YAHPAUIMoniker@@@Z 1002ca60 f hlmisc.obj
 0001:0002ba68       __fh?FMonikerPointsToDirectory@@YAHPAUIMoniker@@@Z 1002ca68 f hlmisc.obj
 0001:0002ba6a       ?FMonikerPointsToDirectory@@YAHPAUIMoniker@@@Z 1002ca6a f hlmisc.obj
 0001:0002ba84       __pcd_tbl?FFileMonikerPointsToDirectory@@YAHPAUIMoniker@@HH@Z 1002ca84 f hlmisc.obj
 0001:0002ba98       __nep?FFileMonikerPointsToDirectory@@YAHPAUIMoniker@@HH@Z 1002ca98 f hlmisc.obj
 0001:0002baa0       __fh?FFileMonikerPointsToDirectory@@YAHPAUIMoniker@@HH@Z 1002caa0 f hlmisc.obj
 0001:0002baa2       ?FFileMonikerPointsToDirectory@@YAHPAUIMoniker@@HH@Z 1002caa2 f hlmisc.obj
 0001:0002bb0c       __pcd_tbl?FIsAbsoluteFilePathO@@YAHPBDH@Z 1002cb0c f hlmisc.obj
 0001:0002bb18       __nep?FIsAbsoluteFilePathO@@YAHPBDH@Z 1002cb18 f hlmisc.obj
 0001:0002bb20       __fh?FIsAbsoluteFilePathO@@YAHPBDH@Z 1002cb20 f hlmisc.obj
 0001:0002bb22       ?FIsAbsoluteFilePathO@@YAHPBDH@Z 1002cb22 f hlmisc.obj
 0001:0002bb30       __nep?FIsAbsoluteFilePath@@YAHPBGH@Z 1002cb30 f hlmisc.obj
 0001:0002bb30       __pcd_tbl?FIsAbsoluteFilePath@@YAHPBGH@Z 1002cb30 f hlmisc.obj
 0001:0002bb38       __fh?FIsAbsoluteFilePath@@YAHPBGH@Z 1002cb38 f hlmisc.obj
 0001:0002bb3a       ?FIsAbsoluteFilePath@@YAHPBGH@Z 1002cb3a f hlmisc.obj
 0001:0002bb68       __pcd_tbl?FIsAbsoluteURLPathO@@YAHPBD@Z 1002cb68 f hlmisc.obj
 0001:0002bb74       __nep?FIsAbsoluteURLPathO@@YAHPBD@Z 1002cb74 f hlmisc.obj
 0001:0002bb7c       __fh?FIsAbsoluteURLPathO@@YAHPBD@Z 1002cb7c f hlmisc.obj
 0001:0002bb7e       ?FIsAbsoluteURLPathO@@YAHPBD@Z 1002cb7e f hlmisc.obj
 0001:0002bb8c       __pcd_tbl?FIsAbsoluteURLPath@@YAHPBG@Z 1002cb8c f hlmisc.obj
 0001:0002bb94       __nep?FIsAbsoluteURLPath@@YAHPBG@Z 1002cb94 f hlmisc.obj
 0001:0002bb9c       __fh?FIsAbsoluteURLPath@@YAHPBG@Z 1002cb9c f hlmisc.obj
 0001:0002bb9e       ?FIsAbsoluteURLPath@@YAHPBG@Z 1002cb9e f hlmisc.obj
 0001:0002bbe4       __pcd_tbl?FIsDirectoryPath@@YAHPBGHH@Z 1002cbe4 f hlmisc.obj
 0001:0002bbec       __nep?FIsDirectoryPath@@YAHPBGHH@Z 1002cbec f hlmisc.obj
 0001:0002bbf4       __fh?FIsDirectoryPath@@YAHPBGHH@Z 1002cbf4 f hlmisc.obj
 0001:0002bbf6       ?FIsDirectoryPath@@YAHPBGHH@Z 1002cbf6 f hlmisc.obj
 0001:0002bc04       __pcd_tbl?GrfPathAttr@@YAKPBG@Z 1002cc04 f hlmisc.obj
 0001:0002bc10       __nep?GrfPathAttr@@YAKPBG@Z 1002cc10 f hlmisc.obj
 0001:0002bc18       __fh?GrfPathAttr@@YAKPBG@Z 1002cc18 f hlmisc.obj
 0001:0002bc1a       ?GrfPathAttr@@YAKPBG@Z     1002cc1a f hlmisc.obj
 0001:0002bc28       __pcd_tbl?FIsExistingDir@@YAHPBG@Z 1002cc28 f hlmisc.obj
 0001:0002bc2c       __nep?FIsExistingDir@@YAHPBG@Z 1002cc2c f hlmisc.obj
 0001:0002bc34       __fh?FIsExistingDir@@YAHPBG@Z 1002cc34 f hlmisc.obj
 0001:0002bc36       ?FIsExistingDir@@YAHPBG@Z  1002cc36 f hlmisc.obj
 0001:0002bc44       __pcd_tbl??2@YAPAXI@Z      1002cc44 f kjalloc.obj
 0001:0002bc48       __nep??2@YAPAXI@Z          1002cc48 f kjalloc.obj
 0001:0002bc50       __fh??2@YAPAXI@Z           1002cc50 f kjalloc.obj
 0001:0002bc52       ??2@YAPAXI@Z               1002cc52 f kjalloc.obj
 0001:0002bc60       ??2@YAPAXIH@Z              1002cc60 f kjalloc.obj
 0001:0002bcfc       ??3@YAXPAX@Z               1002ccfc f kjalloc.obj
 0001:0002bd68       __nep_MsoPvShRealloc       1002cd68 f kjalloc.obj
 0001:0002bd68       __pcd_tbl_MsoPvShRealloc   1002cd68 f kjalloc.obj
 0001:0002bd70       __fh_MsoPvShRealloc        1002cd70 f kjalloc.obj
 0001:0002bd72       _MsoPvShRealloc            1002cd72 f kjalloc.obj
 0001:0002bd74       _MsoCbShSizePv             1002cd74 f kjalloc.obj
 0001:0002bdc4       _MsoFReallocMarkMemCore    1002cdc4 f kjalloc.obj
 0001:0002be74       _MsoFCompactHeap           1002ce74 f kjalloc.obj
 0001:0002bec8       _MsoCbHeapUsed             1002cec8 f kjalloc.obj
 0001:0002bf58       ?FHpLarge@@YAHPBX@Z        1002cf58 f kjalloc.obj
 0001:0002c000       _MsoFreeAllNonPerm         1002d000 f kjalloc.obj
 0001:0002c160       _MsoFCanQuickFree          1002d160 f kjalloc.obj
 0001:0002c214       _MsoFAllocMem64            1002d214 f kjalloc.obj
 0001:0002c290       ?GetDgShareNameEx@@YAXPADH@Z 1002d290 f kjalloc.obj
 0001:0002c314       _MsoFSharedIsLocked        1002d314 f kjalloc.obj
 0001:0002c368       _MsoFSharedIsProtected     1002d368 f kjalloc.obj
 0001:0002c3c0       _MsoSharedUnprotect        1002d3c0 f kjalloc.obj
 0001:0002c414       __pcd_tbl?MonitorMemInfo@@YAJHJ@Z 1002d414 f kjalloc.obj
 0001:0002c414       __nep?MonitorMemInfo@@YAJHJ@Z 1002d414 f kjalloc.obj
 0001:0002c41c       __fh?MonitorMemInfo@@YAJHJ@Z 1002d41c f kjalloc.obj
 0001:0002c41e       ?MonitorMemInfo@@YAJHJ@Z   1002d41e f kjalloc.obj
 0001:0002c460       ?LGrowZoneHook@@YAJHIJ@Z   1002d460 f kjalloc.obj
 0001:0002c560       _MsoPLookupPx              1002d560 f kjplex.obj
 0001:0002c5f0       _MsoMovePx                 1002d5f0 f kjplex.obj
 0001:0002c79c       _MsoFGrowPx                1002d79c f kjplex.obj
 0001:0002c82c       _MsoStealPx                1002d82c f kjplex.obj
 0001:0002c8d8       _MsoFClonePx               1002d8d8 f kjplex.obj
 0001:0002c9c0       _MsoIIncUsePx              1002d9c0 f kjplex.obj
 0001:0002ca3c       _MsoIDecUsePx              1002da3c f kjplex.obj
 0001:0002cab8       _MsoFInsertExPx            1002dab8 f kjplex.obj
 0001:0002cb70       ?ChangeColor@@YAXPAUPixMap@@PAUMSOCCIH@@@Z 1002db70 f kjres.obj
 0001:0002cc90       __pcd_tbl?FLoadBmpFromFile@@YAHPAGHHPAPAUBSTRIP@@@Z 1002dc90 f kjres.obj
 0001:0002ccb8       __nep?FLoadBmpFromFile@@YAHPAGHHPAPAUBSTRIP@@@Z 1002dcb8 f kjres.obj
 0001:0002ccc0       __fh?FLoadBmpFromFile@@YAHPAGHHPAPAUBSTRIP@@@Z 1002dcc0 f kjres.obj
 0001:0002ccc3       ?FLoadBmpFromFile@@YAHPAGHHPAPAUBSTRIP@@@Z 1002dcc3 f kjres.obj
 0001:0002cd50       __pcd_tbl_MsoFWrapDIB      1002dd50 f kjres.obj
 0001:0002cd58       __nep_MsoFWrapDIB          1002dd58 f kjres.obj
 0001:0002cd60       __fh_MsoFWrapDIB           1002dd60 f kjres.obj
 0001:0002cd62       _MsoFWrapDIB               1002dd62 f kjres.obj
 0001:0002cd7c       _MsoFDrawBStripAsButton    1002dd7c f kjres.obj
 0001:0002cf2c       _MsoLoadPres               1002df2c f kjres.obj
 0001:0002cfe4       _MsoFUnloadPres            1002dfe4 f kjres.obj
 0001:0002d064       _MsoFPuncWch               1002e064 f kjstr.obj
 0001:0002d124       _MsoFAlphaWch              1002e124 f kjstr.obj
 0001:0002d1e4       ?getdigit@@YAHPBD@Z        1002e1e4 f kjstr.obj
 0001:0002d2b8       ?PvStrDup@@YAPAXPBD@Z      1002e2b8 f kjstr.obj
 0001:0002d340       ?AddSzRes@@YAXPAD0@Z       1002e340 f kjstr.obj
 0001:0002d3e0       ?CchULIntToSz@@YAGU_ulargeint@@PADG@Z 1002e3e0 f kjstr.obj
 0001:0002d63c       ?VFtToSz@@YAXPAU_FILETIME@@PADGH@Z 1002e63c f kjstr.obj
 0001:0002d778       ?SzTruncCopy@@YAXPADPBDI@Z 1002e778 f kjstr.obj
 0001:0002d848       _MsoWchLower               1002e848 f kjstr.obj
 0001:0002d914       _MsoSzCchCopy              1002e914 f kjstr.obj
 0001:0002d978       _MsoWtCopy                 1002e978 f kjstr.obj
 0001:0002d9f0       _MsoRgchIndex              1002e9f0 f kjstr.obj
 0001:0002daac       _MsoCchSzLenFromWz         1002eaac f kjstr.obj
 0001:0002db50       _MsoSzAppend               1002eb50 f kjstr.obj
 0001:0002dbb8       _MsoWtzAppend              1002ebb8 f kjstr.obj
 0001:0002dc58       _MsoSgnSzCompare           1002ec58 f kjstr.obj
 0001:0002dce8       _MsoSgnWzCompare           1002ece8 f kjstr.obj
 0001:0002dd78       _MsoSgnRgwchCompare        1002ed78 f kjstr.obj
 0001:0002de00       _MsoSzIndex                1002ee00 f kjstr.obj
 0001:0002defc       ?IchStripAccel@@YAHPBDPAD@Z 1002eefc f kjstr.obj
 0001:0002e004       _MsoWzIndexRight           1002f004 f kjstr.obj
 0001:0002e0bc       _MsoSzIndex1               1002f0bc f kjstr.obj
 0001:0002e158       _MsoWzIndex                1002f158 f kjstr.obj
 0001:0002e1f0       _MsoSzStrStr               1002f1f0 f kjstr.obj
 0001:0002e2e4       _MsoWzStrStr               1002f2e4 f kjstr.obj
 0001:0002e3c8       _MsoWtzToWz                1002f3c8 f kjstr.obj
 0001:0002e448       _MsoSzMarkWtz              1002f448 f kjstr.obj
 0001:0002e514       _MsoRgchMarkRgwch          1002f514 f kjstr.obj
 0001:0002e5e4       _MsoReleaseSz              1002f5e4 f kjstr.obj
 0001:0002e638       _MsoWtzMarkSz              1002f638 f kjstr.obj
 0001:0002e718       _MsoReleaseWz              1002f718 f kjstr.obj
 0001:0002e76c       _MsoGrszToGrwz             1002f76c f kjstr.obj
 0001:0002e818       _MsoGrwzToGrsz             1002f818 f kjstr.obj
 0001:0002e8c4       _MsoSzToSt                 1002f8c4 f kjstr.obj
 0001:0002e95c       _MsoCchLoadSz              1002f95c f kjstr.obj
 0001:0002e9ec       _MsoFLoadSz                1002f9ec f kjstr.obj
 0001:0002ea74       _MsoFLoadCpSz              1002fa74 f kjstr.obj
 0001:0002eb04       _MsoFLoadStz               1002fb04 f kjstr.obj
 0001:0002eb90       _MsoFLoadCpStz             1002fb90 f kjstr.obj
 0001:0002ec1c       _MsoFLoadWtz               1002fc1c f kjstr.obj
 0001:0002eca8       _MsoCchLoadWz              1002fca8 f kjstr.obj
 0001:0002ed38       _MsoLookupSz               1002fd38 f kjstr.obj
 0001:0002ee08       _MsoLookupWtz              1002fe08 f kjstr.obj
 0001:0002ee70       _MsoLookupWz               1002fe70 f kjstr.obj
 0001:0002eeec       _MsoLookupStFromPstt       1002feec f kjstr.obj
 0001:0002ef90       _MsoLookupSzFromPstt       1002ff90 f kjstr.obj
 0001:0002f068       _MsoIdslMacFromPstt        10030068 f kjstr.obj
 0001:0002f0c0       _MsoCchCpLoadSzFromPstt    100300c0 f kjstr.obj
 0001:0002f15c       _MsoFLoadStzFromPstt       1003015c f kjstr.obj
 0001:0002f1f4       _MsoInsertSz               100301f4 f kjstr.obj
 0001:0002f418       _MsoInsertWtz              10030418 f kjstr.obj
 0001:0002f688       _MsoInsertIdsWtz           10030688 f kjstr.obj
 0001:0002f8e0       _MsoInsertWz               100308e0 f kjstr.obj
 0001:0002fadc       _MsoWzDecodeInt            10030adc f kjstr.obj
 0001:0002fb84       ?PwchDecodeInt@@YAPAGPAGHH@Z 10030b84 f kjstr.obj
 0001:0002fc30       _MsoSzDecodeInt            10030c30 f kjstr.obj
 0001:0002fcc8       ?ParseIntWz@@YAHPBGPAHH@Z  10030cc8 f kjstr.obj
 0001:0002fe98       _MsoIntEncodeWz            10030e98 f kjstr.obj
 0001:0002fee8       _MsoParseUIntWz            10030ee8 f kjstr.obj
 0001:0002ff3c       ?ParseIntSz@@YAHPBDPAHH@Z  10030f3c f kjstr.obj
 0001:0003010c       _MsoIntEncodeSz            1003110c f kjstr.obj
 0001:0003015c       _MsoParseUIntSz            1003115c f kjstr.obj
 0001:000301b0       ?FTextOutElipsis@@YAHPAUHDC__@@HHPBDHH@Z 100311b0 f kjstr.obj
 0001:00030390       _MsoTextOutW               10031390 f kjstr.obj
 0001:00030480       _MsoExtTextOutW            10031480 f kjstr.obj
 0001:00030584       _MsoGetTextExtentPointW    10031584 f kjstr.obj
 0001:00030678       _MsoCompareStringA         10031678 f kjstr.obj
 0001:00030894       ?RgwchToRgchCompareStringA@@YAHKKPBGH0H@Z 10031894 f kjstr.obj
 0001:00030b18       ?UTF8ToUnicode@@YAHPBDHPAGH@Z 10031b18 f kjstr.obj
 0001:00030c9c       ?MacLookupWchar@@YAEGE@Z   10031c9c f kjstr.obj
 0001:00030e8c       ?UnicodeToUTF8@@YAHPBGHPADH@Z 10031e8c f kjstr.obj
 0001:00031048       _MsoWchStripAccent         10032048 f kjstr.obj
 0001:00031148       _MsoWchToUpper             10032148 f kjstr.obj
 0001:000311ac       _MsoWchToLower             100321ac f kjstr.obj
 0001:00031210       _FDbcsFirstByte            10032210 f kjstr.obj
 0001:0003138c       ?CtypeOfXch@@YAHH@Z        1003238c f kjstr.obj
 0001:00031dfc       ?ClassFromCtype@@YAHH@Z    10032dfc f kjstr.obj
 0001:00031f48       _MsoIOFCTriggerFromXchXch  10032f48 f kjstr.obj
 0001:0003254c       _MsoSgnRgwchCompareInvariant 1003354c f kjstr.obj
 0001:00032650       _MsoFsFromWch              10033650 f kjstr.obj
 0001:000327c4       ?FCompactPpvSb@@YAHI@Z     100337c4 f kjppv.obj
 0001:00032a4c       __pcd_tbl_MsoHAllocPurge   10033a4c f kjpurmem.obj
 0001:00032a54       __nep_MsoHAllocPurge       10033a54 f kjpurmem.obj
 0001:00032a5c       __fh_MsoHAllocPurge        10033a5c f kjpurmem.obj
 0001:00032a5e       _MsoHAllocPurge            10033a5e f kjpurmem.obj
 0001:00032a68       __pcd_tbl_MsoCbSizeHPurge  10033a68 f kjpurmem.obj
 0001:00032a6c       __nep_MsoCbSizeHPurge      10033a6c f kjpurmem.obj
 0001:00032a74       __fh_MsoCbSizeHPurge       10033a74 f kjpurmem.obj
 0001:00032a76       _MsoCbSizeHPurge           10033a76 f kjpurmem.obj
 0001:00032a7c       __pcd_tbl_MsoFreeHPurge    10033a7c f kjpurmem.obj
 0001:00032a80       __nep_MsoFreeHPurge        10033a80 f kjpurmem.obj
 0001:00032a88       __fh_MsoFreeHPurge         10033a88 f kjpurmem.obj
 0001:00032a8a       _MsoFreeHPurge             10033a8a f kjpurmem.obj
 0001:00032a90       __pcd_tbl_MsoPvLockHPurge  10033a90 f kjpurmem.obj
 0001:00032a94       __nep_MsoPvLockHPurge      10033a94 f kjpurmem.obj
 0001:00032a9c       __fh_MsoPvLockHPurge       10033a9c f kjpurmem.obj
 0001:00032a9e       _MsoPvLockHPurge           10033a9e f kjpurmem.obj
 0001:00032aa4       __pcd_tbl_MsoUnlockHPurge  10033aa4 f kjpurmem.obj
 0001:00032aa8       __nep_MsoUnlockHPurge      10033aa8 f kjpurmem.obj
 0001:00032ab0       __fh_MsoUnlockHPurge       10033ab0 f kjpurmem.obj
 0001:00032ab2       _MsoUnlockHPurge           10033ab2 f kjpurmem.obj
 0001:00032ab8       __pcd_tbl_MsoFIsPurged     10033ab8 f kjpurmem.obj
 0001:00032ab8       __nep_MsoFIsPurged         10033ab8 f kjpurmem.obj
 0001:00032ac0       __fh_MsoFIsPurged          10033ac0 f kjpurmem.obj
 0001:00032ac2       _MsoFIsPurged              10033ac2 f kjpurmem.obj
 0001:00032ad0       __pcd_tbl_MsoFCreateIdleInitComp 10033ad0 f kjidle.obj
 0001:00032ae8       __nep_MsoFCreateIdleInitComp 10033ae8 f kjidle.obj
 0001:00032af0       __fh_MsoFCreateIdleInitComp 10033af0 f kjidle.obj
 0001:00032af2       _MsoFCreateIdleInitComp    10033af2 f kjidle.obj
 0001:00032b20       __pcd_tbl?FRegIdleInit@CIdleInitComponent@@QAAHPAUtagMSOIDLEINIT@@K@Z 10033b20 f kjidle.obj
 0001:00032b28       __nep?FRegIdleInit@CIdleInitComponent@@QAAHPAUtagMSOIDLEINIT@@K@Z 10033b28 f kjidle.obj
 0001:00032b30       __fh?FRegIdleInit@CIdleInitComponent@@QAAHPAUtagMSOIDLEINIT@@K@Z 10033b30 f kjidle.obj
 0001:00032b32       ?FRegIdleInit@CIdleInitComponent@@QAAHPAUtagMSOIDLEINIT@@K@Z 10033b32 f kjidle.obj
 0001:00032b50       ??0CIdleInitComponent@@QAA@XZ 10033b50 f kjidle.obj
 0001:00032c00       ??1CIdleInitComponent@@QAA@XZ 10033c00 f kjidle.obj
 0001:00032c98       __pcd_tbl?FInit@CIdleInitComponent@@QAAHXZ 10033c98 f kjidle.obj
 0001:00032c9c       __nep?FInit@CIdleInitComponent@@QAAHXZ 10033c9c f kjidle.obj
 0001:00032ca4       __fh?FInit@CIdleInitComponent@@QAAHXZ 10033ca4 f kjidle.obj
 0001:00032ca6       ?FInit@CIdleInitComponent@@QAAHXZ 10033ca6 f kjidle.obj
 0001:00032d0c       __pcd_tbl?QueryInterface@CIdleInitComponent@@UAAJABUGUID@@PAPAX@Z 10033d0c f kjidle.obj
 0001:00032d0c       __nep?QueryInterface@CIdleInitComponent@@UAAJABUGUID@@PAPAX@Z 10033d0c f kjidle.obj
 0001:00032d14       __fh?QueryInterface@CIdleInitComponent@@UAAJABUGUID@@PAPAX@Z 10033d14 f kjidle.obj
 0001:00032d16       ?QueryInterface@CIdleInitComponent@@UAAJABUGUID@@PAPAX@Z 10033d16 f kjidle.obj
 0001:00032d78       __pcd_tbl?AddRef@CIdleInitComponent@@UAAKXZ 10033d78 f kjidle.obj
 0001:00032d78       __nep?AddRef@CIdleInitComponent@@UAAKXZ 10033d78 f kjidle.obj
 0001:00032d80       __fh?AddRef@CIdleInitComponent@@UAAKXZ 10033d80 f kjidle.obj
 0001:00032d82       ?AddRef@CIdleInitComponent@@UAAKXZ 10033d82 f kjidle.obj
 0001:00032d8c       __pcd_tbl?Release@CIdleInitComponent@@UAAKXZ 10033d8c f kjidle.obj
 0001:00032d94       __nep?Release@CIdleInitComponent@@UAAKXZ 10033d94 f kjidle.obj
 0001:00032d9c       __fh?Release@CIdleInitComponent@@UAAKXZ 10033d9c f kjidle.obj
 0001:00032d9e       ?Release@CIdleInitComponent@@UAAKXZ 10033d9e f kjidle.obj
 0001:00032db4       __nep?FDebugMessage@CIdleInitComponent@@UAAHPAUMSOINST@@IIJ@Z 10033db4 f kjidle.obj
 0001:00032db4       __pcd_tbl?FDebugMessage@CIdleInitComponent@@UAAHPAUMSOINST@@IIJ@Z 10033db4 f kjidle.obj
 0001:00032dbc       __fh?FDebugMessage@CIdleInitComponent@@UAAHPAUMSOINST@@IIJ@Z 10033dbc f kjidle.obj
 0001:00032dbe       ?FDebugMessage@CIdleInitComponent@@UAAHPAUMSOINST@@IIJ@Z 10033dbe f kjidle.obj
 0001:00032dc0       __pcd_tbl?FDoIdle@CIdleInitComponent@@UAAHK@Z 10033dc0 f kjidle.obj
 0001:00032dc0       __nep?FDoIdle@CIdleInitComponent@@UAAHK@Z 10033dc0 f kjidle.obj
 0001:00032dc8       __fh?FDoIdle@CIdleInitComponent@@UAAHK@Z 10033dc8 f kjidle.obj
 0001:00032dca       ?FDoIdle@CIdleInitComponent@@UAAHK@Z 10033dca f kjidle.obj
 0001:00032e0c       __pcd_tbl?FPreTranslateMessage@CIdleInitComponent@@UAAHPAUtagMSG@@@Z 10033e0c f kjidle.obj
 0001:00032e0c       __nep?FPreTranslateMessage@CIdleInitComponent@@UAAHPAUtagMSG@@@Z 10033e0c f kjidle.obj
 0001:00032e14       __fh?FPreTranslateMessage@CIdleInitComponent@@UAAHPAUtagMSG@@@Z 10033e14 f kjidle.obj
 0001:00032e16       ?FPreTranslateMessage@CIdleInitComponent@@UAAHPAUtagMSG@@@Z 10033e16 f kjidle.obj
 0001:00032e18       __pcd_tbl?FPreProcessMacEvent@CIdleInitComponent@@UAAHPAUEventRecord@@@Z 10033e18 f kjidle.obj
 0001:00032e18       __nep?FPreProcessMacEvent@CIdleInitComponent@@UAAHPAUEventRecord@@@Z 10033e18 f kjidle.obj
 0001:00032e20       __fh?FPreProcessMacEvent@CIdleInitComponent@@UAAHPAUEventRecord@@@Z 10033e20 f kjidle.obj
 0001:00032e22       ?FPreProcessMacEvent@CIdleInitComponent@@UAAHPAUEventRecord@@@Z 10033e22 f kjidle.obj
 0001:00032e24       __pcd_tbl?OnEnterState@CIdleInitComponent@@UAAXKH@Z 10033e24 f kjidle.obj
 0001:00032e24       __nep?OnEnterState@CIdleInitComponent@@UAAXKH@Z 10033e24 f kjidle.obj
 0001:00032e2c       __fh?OnEnterState@CIdleInitComponent@@UAAXKH@Z 10033e2c f kjidle.obj
 0001:00032e2e       ?OnEnterState@CIdleInitComponent@@UAAXKH@Z 10033e2e f kjidle.obj
 0001:00032e30       __nep?OnLoseActivation@CIdleInitComponent@@UAAXXZ 10033e30 f kjidle.obj
 0001:00032e30       __pcd_tbl?OnLoseActivation@CIdleInitComponent@@UAAXXZ 10033e30 f kjidle.obj
 0001:00032e38       __fh?OnLoseActivation@CIdleInitComponent@@UAAXXZ 10033e38 f kjidle.obj
 0001:00032e3a       ?OnLoseActivation@CIdleInitComponent@@UAAXXZ 10033e3a f kjidle.obj
 0001:00032e3c       __pcd_tbl?OnActivationChange@CIdleInitComponent@@UAAXPAUIMsoComponent@@HPBU_MSOCRINFO@@HPBU_MSOCHOSTINFO@@K@Z 10033e3c f kjidle.obj
 0001:00032e3c       __nep?OnActivationChange@CIdleInitComponent@@UAAXPAUIMsoComponent@@HPBU_MSOCRINFO@@HPBU_MSOCHOSTINFO@@K@Z 10033e3c f kjidle.obj
 0001:00032e44       __fh?OnActivationChange@CIdleInitComponent@@UAAXPAUIMsoComponent@@HPBU_MSOCRINFO@@HPBU_MSOCHOSTINFO@@K@Z 10033e44 f kjidle.obj
 0001:00032e46       ?OnActivationChange@CIdleInitComponent@@UAAXPAUIMsoComponent@@HPBU_MSOCRINFO@@HPBU_MSOCHOSTINFO@@K@Z 10033e46 f kjidle.obj
 0001:00032e48       __nep?OnAppActivate@CIdleInitComponent@@UAAXHK@Z 10033e48 f kjidle.obj
 0001:00032e48       __pcd_tbl?OnAppActivate@CIdleInitComponent@@UAAXHK@Z 10033e48 f kjidle.obj
 0001:00032e50       __fh?OnAppActivate@CIdleInitComponent@@UAAXHK@Z 10033e50 f kjidle.obj
 0001:00032e52       ?OnAppActivate@CIdleInitComponent@@UAAXHK@Z 10033e52 f kjidle.obj
 0001:00032e54       __pcd_tbl?FContinueMessageLoop@CIdleInitComponent@@UAAHKPAXPAUtagMSG@@@Z 10033e54 f kjidle.obj
 0001:00032e54       __nep?FContinueMessageLoop@CIdleInitComponent@@UAAHKPAXPAUtagMSG@@@Z 10033e54 f kjidle.obj
 0001:00032e5c       __fh?FContinueMessageLoop@CIdleInitComponent@@UAAHKPAXPAUtagMSG@@@Z 10033e5c f kjidle.obj
 0001:00032e5e       ?FContinueMessageLoop@CIdleInitComponent@@UAAHKPAXPAUtagMSG@@@Z 10033e5e f kjidle.obj
 0001:00032e60       __pcd_tbl?FQueryTerminate@CIdleInitComponent@@UAAHH@Z 10033e60 f kjidle.obj
 0001:00032e60       __nep?FQueryTerminate@CIdleInitComponent@@UAAHH@Z 10033e60 f kjidle.obj
 0001:00032e68       __fh?FQueryTerminate@CIdleInitComponent@@UAAHH@Z 10033e68 f kjidle.obj
 0001:00032e6a       ?FQueryTerminate@CIdleInitComponent@@UAAHH@Z 10033e6a f kjidle.obj
 0001:00032e6c       __pcd_tbl?Terminate@CIdleInitComponent@@UAAXXZ 10033e6c f kjidle.obj
 0001:00032e6c       __nep?Terminate@CIdleInitComponent@@UAAXXZ 10033e6c f kjidle.obj
 0001:00032e74       __fh?Terminate@CIdleInitComponent@@UAAXXZ 10033e74 f kjidle.obj
 0001:00032e76       ?Terminate@CIdleInitComponent@@UAAXXZ 10033e76 f kjidle.obj
 0001:00032ebc       __nep?InitDummyMsoGlobal@@YAXXZ 10033ebc f kjidle.obj
 0001:00032ebc       __pcd_tbl?InitDummyMsoGlobal@@YAXXZ 10033ebc f kjidle.obj
 0001:00032ec4       __fh?InitDummyMsoGlobal@@YAXXZ 10033ec4 f kjidle.obj
 0001:00032ec6       ?InitDummyMsoGlobal@@YAXXZ 10033ec6 f kjidle.obj
 0001:00032edc       __nep?a@IMsoComponent@@UAAXXZ 10033edc f kjidle.obj
 0001:00032edc       __pcd_tbl?a@IMsoComponent@@UAAXXZ 10033edc f kjidle.obj
 0001:00032ee4       __fh?a@IMsoComponent@@UAAXXZ 10033ee4 f kjidle.obj
 0001:00032ee6       ?a@IMsoComponent@@UAAXXZ   10033ee6 f kjidle.obj
 0001:00032ee8       _MsoCpgFromLid             10033ee8 f kjintl.obj
 0001:00032fac       _MsoChsFromLid             10033fac f kjintl.obj
 0001:0003300c       __pcd_tbl_MsoCpgFromChs    1003400c f kjintl.obj
 0001:00033010       __nep_MsoCpgFromChs        10034010 f kjintl.obj
 0001:00033018       __fh_MsoCpgFromChs         10034018 f kjintl.obj
 0001:0003301a       _MsoCpgFromChs             1003401a f kjintl.obj
 0001:0003309c       _MsoWchTypedCh             1003409c f kjintl.obj
 0001:00033134       ?FBidiSystem@@YAHXZ        10034134 f kjintl.obj
 0001:000331ac       __nep_MsoCalcEaster        100341ac f kjintl.obj
 0001:000331ac       __pcd_tbl_MsoCalcEaster    100341ac f kjintl.obj
 0001:000331b4       __fh_MsoCalcEaster         100341b4 f kjintl.obj
 0001:000331b6       _MsoCalcEaster             100341b6 f kjintl.obj
 0001:00033234       __pcd_tbl_MsoCalcLunarInfo 10034234 f kjintl.obj
 0001:00033234       __nep_MsoCalcLunarInfo     10034234 f kjintl.obj
 0001:0003323c       __fh_MsoCalcLunarInfo      1003423c f kjintl.obj
 0001:0003323f       _MsoCalcLunarInfo          1003423f f kjintl.obj
 0001:00033498       __pcd_tbl_MsoCalcLunarString 10034498 f kjintl.obj
 0001:0003349c       __nep_MsoCalcLunarString   1003449c f kjintl.obj
 0001:000334a4       __fh_MsoCalcLunarString    100344a4 f kjintl.obj
 0001:000334a6       _MsoCalcLunarString        100344a6 f kjintl.obj
 0001:00033900       __nep_MsoFModuleLoaded     10034900 f kjmod.obj
 0001:00033900       __pcd_tbl_MsoFModuleLoaded 10034900 f kjmod.obj
 0001:00033908       __fh_MsoFModuleLoaded      10034908 f kjmod.obj
 0001:0003390a       _MsoFModuleLoaded          1003490a f kjmod.obj
 0001:00033920       __pcd_tbl_MsoGetProcAddress 10034920 f kjmod.obj
 0001:00033928       __nep_MsoGetProcAddress    10034928 f kjmod.obj
 0001:00033930       __fh_MsoGetProcAddress     10034930 f kjmod.obj
 0001:00033932       _MsoGetProcAddress         10034932 f kjmod.obj
 0001:0003393c       ?Unprotect@MSOSM@@QAAXXZ   1003493c f shmem.obj
 0001:0003398c       __nep_MsoSetSharedMemAddressMapping 1003498c f shmem.obj
 0001:0003398c       __pcd_tbl_MsoSetSharedMemAddressMapping 1003498c f shmem.obj
 0001:00033994       __fh_MsoSetSharedMemAddressMapping 10034994 f shmem.obj
 0001:00033996       _MsoSetSharedMemAddressMapping 10034996 f shmem.obj
 0001:000339a0       __nep_MsoGetSharedMemAddressMappingState 100349a0 f shmem.obj
 0001:000339a0       __pcd_tbl_MsoGetSharedMemAddressMappingState 100349a0 f shmem.obj
 0001:000339a8       __fh_MsoGetSharedMemAddressMappingState 100349a8 f shmem.obj
 0001:000339aa       _MsoGetSharedMemAddressMappingState 100349aa f shmem.obj
 0001:000339b0       _MsoSmcInitSharedMem       100349b0 f shmem.obj
 0001:00033ab0       _MsoUninitSharedMem        10034ab0 f shmem.obj
 0001:00033b30       _MsoFLockSharedMem         10034b30 f shmem.obj
 0001:00033bc4       _MsoUnlockSharedMem        10034bc4 f shmem.obj
 0001:00033c20       _MsoSmcInitShrGlobals      10034c20 f shmem.obj
 0001:00033cf8       __nep??0KJShMemory@@QAA@H@Z 10034cf8 f shmem.obj
 0001:00033cf8       __pcd_tbl??0KJShMemory@@QAA@H@Z 10034cf8 f shmem.obj
 0001:00033d00       __fh??0KJShMemory@@QAA@H@Z 10034d00 f shmem.obj
 0001:00033d02       ??0KJShMemory@@QAA@H@Z     10034d02 f shmem.obj
 0001:00033d30       __pcd_tbl??1KJShMemory@@QAA@XZ 10034d30 f shmem.obj
 0001:00033d38       __nep??1KJShMemory@@QAA@XZ 10034d38 f shmem.obj
 0001:00033d40       __fh??1KJShMemory@@QAA@XZ  10034d40 f shmem.obj
 0001:00033d42       ??1KJShMemory@@QAA@XZ      10034d42 f shmem.obj
 0001:00033d60       __pcd_tbl?QueryInterface@KJShMemory@@UAAJABUGUID@@PAPAX@Z 10034d60 f shmem.obj
 0001:00033d64       __nep?QueryInterface@KJShMemory@@UAAJABUGUID@@PAPAX@Z 10034d64 f shmem.obj
 0001:00033d6c       __fh?QueryInterface@KJShMemory@@UAAJABUGUID@@PAPAX@Z 10034d6c f shmem.obj
 0001:00033d6e       ?QueryInterface@KJShMemory@@UAAJABUGUID@@PAPAX@Z 10034d6e f shmem.obj
 0001:00033da4       __nep?AddRef@KJShMemory@@UAAKXZ 10034da4 f shmem.obj
 0001:00033da4       __pcd_tbl?AddRef@KJShMemory@@UAAKXZ 10034da4 f shmem.obj
 0001:00033dac       __fh?AddRef@KJShMemory@@UAAKXZ 10034dac f shmem.obj
 0001:00033dae       ?AddRef@KJShMemory@@UAAKXZ 10034dae f shmem.obj
 0001:00033db8       __pcd_tbl?Release@KJShMemory@@UAAKXZ 10034db8 f shmem.obj
 0001:00033dc0       __nep?Release@KJShMemory@@UAAKXZ 10034dc0 f shmem.obj
 0001:00033dc8       __fh?Release@KJShMemory@@UAAKXZ 10034dc8 f shmem.obj
 0001:00033dca       ?Release@KJShMemory@@UAAKXZ 10034dca f shmem.obj
 0001:00033ddc       __pcd_tbl?DwGetVersion@KJShMemory@@UAAKXZ 10034ddc f shmem.obj
 0001:00033ddc       __nep?DwGetVersion@KJShMemory@@UAAKXZ 10034ddc f shmem.obj
 0001:00033de4       __fh?DwGetVersion@KJShMemory@@UAAKXZ 10034de4 f shmem.obj
 0001:00033de6       ?DwGetVersion@KJShMemory@@UAAKXZ 10034de6 f shmem.obj
 0001:00033dec       __pcd_tbl?DwGetVersionForMem@KJShMemory@@UAAKHHK@Z 10034dec f shmem.obj
 0001:00033dec       __nep?DwGetVersionForMem@KJShMemory@@UAAKHHK@Z 10034dec f shmem.obj
 0001:00033df4       __fh?DwGetVersionForMem@KJShMemory@@UAAKHHK@Z 10034df4 f shmem.obj
 0001:00033df6       ?DwGetVersionForMem@KJShMemory@@UAAKHHK@Z 10034df6 f shmem.obj
 0001:00033dfc       __pcd_tbl_HrFailLastError  10034dfc f oautil.obj
 0001:00033e00       __nep_HrFailLastError      10034e00 f oautil.obj
 0001:00033e08       __fh_HrFailLastError       10034e08 f oautil.obj
 0001:00033e0a       _HrFailLastError           10034e0a f oautil.obj
 0001:00033e20       __nep?HrIDispFromVariant@@YAJPAUtagVARIANT@@PAPAUIDispatch@@@Z 10034e20 f oautil.obj
 0001:00033e20       __pcd_tbl?HrIDispFromVariant@@YAJPAUtagVARIANT@@PAPAUIDispatch@@@Z 10034e20 f oautil.obj
 0001:00033e28       __fh?HrIDispFromVariant@@YAJPAUtagVARIANT@@PAPAUIDispatch@@@Z 10034e28 f oautil.obj
 0001:00033e2a       ?HrIDispFromVariant@@YAJPAUtagVARIANT@@PAPAUIDispatch@@@Z 10034e2a f oautil.obj
 0001:00033e4c       __nep_HrIntFromVariant     10034e4c f oautil.obj
 0001:00033e4c       __pcd_tbl_HrIntFromVariant 10034e4c f oautil.obj
 0001:00033e54       __fh_HrIntFromVariant      10034e54 f oautil.obj
 0001:00033e56       _HrIntFromVariant          10034e56 f oautil.obj
 0001:00033e78       __nep_HrFloatFromVariant   10034e78 f oautil.obj
 0001:00033e78       __pcd_tbl_HrFloatFromVariant 10034e78 f oautil.obj
 0001:00033e80       __fh_HrFloatFromVariant    10034e80 f oautil.obj
 0001:00033e82       _HrFloatFromVariant        10034e82 f oautil.obj
 0001:00033ea8       __pcd_tbl_HrBstrFromVariant 10034ea8 f oautil.obj
 0001:00033ea8       __nep_HrBstrFromVariant    10034ea8 f oautil.obj
 0001:00033eb0       __fh_HrBstrFromVariant     10034eb0 f oautil.obj
 0001:00033eb2       _HrBstrFromVariant         10034eb2 f oautil.obj
 0001:00033ed4       __nep_HrBoolFromVariant    10034ed4 f oautil.obj
 0001:00033ed4       __pcd_tbl_HrBoolFromVariant 10034ed4 f oautil.obj
 0001:00033edc       __fh_HrBoolFromVariant     10034edc f oautil.obj
 0001:00033ede       _HrBoolFromVariant         10034ede f oautil.obj
 0001:00033f04       __pcd_tbl_FVariantChildIsSelf 10034f04 f oautil.obj
 0001:00033f08       __nep_FVariantChildIsSelf  10034f08 f oautil.obj
 0001:00033f10       __fh_FVariantChildIsSelf   10034f10 f oautil.obj
 0001:00033f12       _FVariantChildIsSelf       10034f12 f oautil.obj
 0001:00033f28       __pcd_tbl_FVariantChildIsIndex 10034f28 f oautil.obj
 0001:00033f2c       __nep_FVariantChildIsIndex 10034f2c f oautil.obj
 0001:00033f34       __fh_FVariantChildIsIndex  10034f34 f oautil.obj
 0001:00033f36       _FVariantChildIsIndex      10034f36 f oautil.obj
 0001:00033f48       __pcd_tbl_HrNoSupportIfSelf 10034f48 f oautil.obj
 0001:00033f4c       __nep_HrNoSupportIfSelf    10034f4c f oautil.obj
 0001:00033f54       __fh_HrNoSupportIfSelf     10034f54 f oautil.obj
 0001:00033f56       _HrNoSupportIfSelf         10034f56 f oautil.obj
 0001:00033f70       __pcd_tbl_HrBstrFromWz     10034f70 f oautil.obj
 0001:00033f78       __nep_HrBstrFromWz         10034f78 f oautil.obj
 0001:00033f80       __fh_HrBstrFromWz          10034f80 f oautil.obj
 0001:00033f82       _HrBstrFromWz              10034f82 f oautil.obj
 0001:00033fb0       __pcd_tbl_HrWtz255FromBstr 10034fb0 f oautil.obj
 0001:00033fc0       __nep_HrWtz255FromBstr     10034fc0 f oautil.obj
 0001:00033fc8       __fh_HrWtz255FromBstr      10034fc8 f oautil.obj
 0001:00033fca       _HrWtz255FromBstr          10034fca f oautil.obj
 0001:00033ff8       __pcd_tbl_HrWtz255FromVariant 10034ff8 f oautil.obj
 0001:00034000       __nep_HrWtz255FromVariant  10035000 f oautil.obj
 0001:00034008       __fh_HrWtz255FromVariant   10035008 f oautil.obj
 0001:0003400a       _HrWtz255FromVariant       1003500a f oautil.obj
 0001:00034024       __nep?FInvalid@OADISP@@QAAHXZ 10035024 f oautil.obj
 0001:00034024       __pcd_tbl?FInvalid@OADISP@@QAAHXZ 10035024 f oautil.obj
 0001:0003402c       __fh?FInvalid@OADISP@@QAAHXZ 1003502c f oautil.obj
 0001:0003402e       ?FInvalid@OADISP@@QAAHXZ   1003502e f oautil.obj
 0001:00034038       __pcd_tbl?CrefAddRef@OADISP@@QAAKXZ 10035038 f oautil.obj
 0001:00034038       __nep?CrefAddRef@OADISP@@QAAKXZ 10035038 f oautil.obj
 0001:00034040       __fh?CrefAddRef@OADISP@@QAAKXZ 10035040 f oautil.obj
 0001:00034042       ?CrefAddRef@OADISP@@QAAKXZ 10035042 f oautil.obj
 0001:0003404c       __nep?CrefRelease@OADISP@@QAAKXZ 1003504c f oautil.obj
 0001:0003404c       __pcd_tbl?CrefRelease@OADISP@@QAAKXZ 1003504c f oautil.obj
 0001:00034054       __fh?CrefRelease@OADISP@@QAAKXZ 10035054 f oautil.obj
 0001:00034056       ?CrefRelease@OADISP@@QAAKXZ 10035056 f oautil.obj
 0001:00034060       __nep?Invalidate@OADISP@@QAAXXZ 10035060 f oautil.obj
 0001:00034060       __pcd_tbl?Invalidate@OADISP@@QAAXXZ 10035060 f oautil.obj
 0001:00034068       __fh?Invalidate@OADISP@@QAAXXZ 10035068 f oautil.obj
 0001:0003406a       ?Invalidate@OADISP@@QAAXXZ 1003506a f oautil.obj
 0001:00034070       __nep?PoadispNext@OADISP@@QAAPAV1@XZ 10035070 f oautil.obj
 0001:00034070       __pcd_tbl?PoadispNext@OADISP@@QAAPAV1@XZ 10035070 f oautil.obj
 0001:00034078       __fh?PoadispNext@OADISP@@QAAPAV1@XZ 10035078 f oautil.obj
 0001:0003407a       ?PoadispNext@OADISP@@QAAPAV1@XZ 1003507a f oautil.obj
 0001:00034080       __pcd_tbl?SetBeBlock@OADISP@@QAAXPAXI@Z 10035080 f oautil.obj
 0001:00034080       __nep?SetBeBlock@OADISP@@QAAXPAXI@Z 10035080 f oautil.obj
 0001:00034088       __fh?SetBeBlock@OADISP@@QAAXPAXI@Z 10035088 f oautil.obj
 0001:0003408a       ?SetBeBlock@OADISP@@QAAXPAXI@Z 1003508a f oautil.obj
 0001:0003408c       __nep?SetPvObj@OADISP@@QAAXPAX@Z 1003508c f oautil.obj
 0001:0003408c       __pcd_tbl?SetPvObj@OADISP@@QAAXPAX@Z 1003508c f oautil.obj
 0001:00034094       __fh?SetPvObj@OADISP@@QAAXPAX@Z 10035094 f oautil.obj
 0001:00034096       ?SetPvObj@OADISP@@QAAXPAX@Z 10035096 f oautil.obj
 0001:0003409c       __pcd_tbl??0OADISP@@QAA@PAUMSOINST@@PBUGUID@@PAX@Z 1003509c f oautil.obj
 0001:000340a0       __nep??0OADISP@@QAA@PAUMSOINST@@PBUGUID@@PAX@Z 100350a0 f oautil.obj
 0001:000340a8       __fh??0OADISP@@QAA@PAUMSOINST@@PBUGUID@@PAX@Z 100350a8 f oautil.obj
 0001:000340aa       ??0OADISP@@QAA@PAUMSOINST@@PBUGUID@@PAX@Z 100350aa f oautil.obj
 0001:000340e8       __pcd_tbl??1OADISP@@QAA@XZ 100350e8 f oautil.obj
 0001:000340ec       __nep??1OADISP@@QAA@XZ     100350ec f oautil.obj
 0001:000340f4       __fh??1OADISP@@QAA@XZ      100350f4 f oautil.obj
 0001:000340f6       ??1OADISP@@QAA@XZ          100350f6 f oautil.obj
 0001:00034118       __nep?ReleaseCaches@OADISP@@QAAXXZ 10035118 f oautil.obj
 0001:00034118       __pcd_tbl?ReleaseCaches@OADISP@@QAAXXZ 10035118 f oautil.obj
 0001:00034120       __fh?ReleaseCaches@OADISP@@QAAXXZ 10035120 f oautil.obj
 0001:00034122       ?ReleaseCaches@OADISP@@QAAXXZ 10035122 f oautil.obj
 0001:00034134       __pcd_tbl?DisconnectObject@OADISP@@QAAXXZ 10035134 f oautil.obj
 0001:00034138       __nep?DisconnectObject@OADISP@@QAAXXZ 10035138 f oautil.obj
 0001:00034140       __fh?DisconnectObject@OADISP@@QAAXXZ 10035140 f oautil.obj
 0001:00034142       ?DisconnectObject@OADISP@@QAAXXZ 10035142 f oautil.obj
 0001:00034150       __pcd_tbl?HrErrorIds@OADISP@@QAAJJH@Z 10035150 f oautil.obj
 0001:00034150       __nep?HrErrorIds@OADISP@@QAAJJH@Z 10035150 f oautil.obj
 0001:00034158       __fh?HrErrorIds@OADISP@@QAAJJH@Z 10035158 f oautil.obj
 0001:0003415a       ?HrErrorIds@OADISP@@QAAJJH@Z 1003515a f oautil.obj
 0001:00034164       __pcd_tbl?QueryInterface@OADISP@@UAAJABUGUID@@PAPAX@Z 10035164 f oautil.obj
 0001:00034164       __nep?QueryInterface@OADISP@@UAAJABUGUID@@PAPAX@Z 10035164 f oautil.obj
 0001:0003416c       __fh?QueryInterface@OADISP@@UAAJABUGUID@@PAPAX@Z 1003516c f oautil.obj
 0001:0003416e       ?QueryInterface@OADISP@@UAAJABUGUID@@PAPAX@Z 1003516e f oautil.obj
 0001:0003417c       __nep?AddRef@OADISP@@UAAKXZ 1003517c f oautil.obj
 0001:0003417c       __pcd_tbl?AddRef@OADISP@@UAAKXZ 1003517c f oautil.obj
 0001:00034184       __fh?AddRef@OADISP@@UAAKXZ 10035184 f oautil.obj
 0001:00034186       ?AddRef@OADISP@@UAAKXZ     10035186 f oautil.obj
 0001:00034194       __nep?Release@OADISP@@UAAKXZ 10035194 f oautil.obj
 0001:00034194       __pcd_tbl?Release@OADISP@@UAAKXZ 10035194 f oautil.obj
 0001:0003419c       __fh?Release@OADISP@@UAAKXZ 1003519c f oautil.obj
 0001:0003419e       ?Release@OADISP@@UAAKXZ    1003519e f oautil.obj
 0001:000341ac       __nep?InterfaceSupportsErrorInfo@OADISP@@UAAJABUGUID@@@Z 100351ac f oautil.obj
 0001:000341ac       __pcd_tbl?InterfaceSupportsErrorInfo@OADISP@@UAAJABUGUID@@@Z 100351ac f oautil.obj
 0001:000341b4       __fh?InterfaceSupportsErrorInfo@OADISP@@UAAJABUGUID@@@Z 100351b4 f oautil.obj
 0001:000341b6       ?InterfaceSupportsErrorInfo@OADISP@@UAAJABUGUID@@@Z 100351b6 f oautil.obj
 0001:00034210       __nep?HrQueryInterface@OADISP@@QAAJPAUIDispatch@@ABUGUID@@PAPAX@Z 10035210 f oautil.obj
 0001:00034210       __pcd_tbl?HrQueryInterface@OADISP@@QAAJPAUIDispatch@@ABUGUID@@PAPAX@Z 10035210 f oautil.obj
 0001:00034218       __fh?HrQueryInterface@OADISP@@QAAJPAUIDispatch@@ABUGUID@@PAPAX@Z 10035218 f oautil.obj
 0001:0003421a       ?HrQueryInterface@OADISP@@QAAJPAUIDispatch@@ABUGUID@@PAPAX@Z 1003521a f oautil.obj
 0001:000342c4       __nep?HrGetTypeInfoCount@OADISP@@QAAJPAI@Z 100352c4 f oautil.obj
 0001:000342c4       __pcd_tbl?HrGetTypeInfoCount@OADISP@@QAAJPAI@Z 100352c4 f oautil.obj
 0001:000342cc       __fh?HrGetTypeInfoCount@OADISP@@QAAJPAI@Z 100352cc f oautil.obj
 0001:000342ce       ?HrGetTypeInfoCount@OADISP@@QAAJPAI@Z 100352ce f oautil.obj
 0001:000342d4       __pcd_tbl?HrGetTypeInfo@OADISP@@QAAJIKPAPAUITypeInfo@@@Z 100352d4 f oautil.obj
 0001:000342d8       __nep?HrGetTypeInfo@OADISP@@QAAJIKPAPAUITypeInfo@@@Z 100352d8 f oautil.obj
 0001:000342e0       __fh?HrGetTypeInfo@OADISP@@QAAJIKPAPAUITypeInfo@@@Z 100352e0 f oautil.obj
 0001:000342e2       ?HrGetTypeInfo@OADISP@@QAAJIKPAPAUITypeInfo@@@Z 100352e2 f oautil.obj
 0001:00034310       __pcd_tbl?HrGetIDsOfNames@OADISP@@QAAJABUGUID@@PAPADIKPAJ@Z 10035310 f oautil.obj
 0001:00034314       __nep?HrGetIDsOfNames@OADISP@@QAAJABUGUID@@PAPADIKPAJ@Z 10035314 f oautil.obj
 0001:0003431c       __fh?HrGetIDsOfNames@OADISP@@QAAJABUGUID@@PAPADIKPAJ@Z 1003531c f oautil.obj
 0001:0003431e       ?HrGetIDsOfNames@OADISP@@QAAJABUGUID@@PAPADIKPAJ@Z 1003531e f oautil.obj
 0001:00034360       __pcd_tbl?a@ISupportErrorInfo@@UAAXXZ 10035360 f oautil.obj
 0001:00034360       __nep?a@ISupportErrorInfo@@UAAXXZ 10035360 f oautil.obj
 0001:00034368       __fh?a@ISupportErrorInfo@@UAAXXZ 10035368 f oautil.obj
 0001:0003436a       ?a@ISupportErrorInfo@@UAAXXZ 1003536a f oautil.obj
 0001:0003437c       __pcd_tbl?HrInvoke@OADISP@@QAAJPAUIDispatch@@JABUGUID@@KGPAUtagDISPPARAMS@@PAUtagVARIANT@@PAUtagEXCEPINFO@@PAI@Z 1003537c f oautil.obj
 0001:0003438c       __nep?HrInvoke@OADISP@@QAAJPAUIDispatch@@JABUGUID@@KGPAUtagDISPPARAMS@@PAUtagVARIANT@@PAUtagEXCEPINFO@@PAI@Z 1003538c f oautil.obj
 0001:00034394       __fh?HrInvoke@OADISP@@QAAJPAUIDispatch@@JABUGUID@@KGPAUtagDISPPARAMS@@PAUtagVARIANT@@PAUtagEXCEPINFO@@PAI@Z 10035394 f oautil.obj
 0001:00034397       ?HrInvoke@OADISP@@QAAJPAUIDispatch@@JABUGUID@@KGPAUtagDISPPARAMS@@PAUtagVARIANT@@PAUtagEXCEPINFO@@PAI@Z 10035397 f oautil.obj
 0001:00034428       __pcd_tbl?HrCheckTypeInfo@OADISP@@AAAJK@Z 10035428 f oautil.obj
 0001:0003442c       __nep?HrCheckTypeInfo@OADISP@@AAAJK@Z 1003542c f oautil.obj
 0001:00034434       __fh?HrCheckTypeInfo@OADISP@@AAAJK@Z 10035434 f oautil.obj
 0001:00034436       ?HrCheckTypeInfo@OADISP@@AAAJK@Z 10035436 f oautil.obj
 0001:00034480       __pcd_tbl?HrGetApplication@OADISP@@QAAJPAPAUIDispatch@@@Z 10035480 f oautil.obj
 0001:0003448c       __nep?HrGetApplication@OADISP@@QAAJPAPAUIDispatch@@@Z 1003548c f oautil.obj
 0001:00034494       __fh?HrGetApplication@OADISP@@QAAJPAPAUIDispatch@@@Z 10035494 f oautil.obj
 0001:00034496       ?HrGetApplication@OADISP@@QAAJPAPAUIDispatch@@@Z 10035496 f oautil.obj
 0001:000344b4       __pcd_tbl?HrGetCreator@OADISP@@QAAJPAJ@Z 100354b4 f oautil.obj
 0001:000344b8       __nep?HrGetCreator@OADISP@@QAAJPAJ@Z 100354b8 f oautil.obj
 0001:000344c0       __fh?HrGetCreator@OADISP@@QAAJPAJ@Z 100354c0 f oautil.obj
 0001:000344c2       ?HrGetCreator@OADISP@@QAAJPAJ@Z 100354c2 f oautil.obj
 0001:000344dc       __pcd_tbl?CancelUITracking@OADISP@@QAAXXZ 100354dc f oautil.obj
 0001:000344e0       __nep?CancelUITracking@OADISP@@QAAXXZ 100354e0 f oautil.obj
 0001:000344e8       __fh?CancelUITracking@OADISP@@QAAXXZ 100354e8 f oautil.obj
 0001:000344ea       ?CancelUITracking@OADISP@@QAAXXZ 100354ea f oautil.obj
 0001:000344f4       __pcd_tbl?InvalOAObjectsStdcallWrapper@@YAXPAUMSOINST@@PAX@Z 100354f4 f oautil.obj
 0001:000344f8       __nep?InvalOAObjectsStdcallWrapper@@YAXPAUMSOINST@@PAX@Z 100354f8 f oautil.obj
 0001:00034500       __fh?InvalOAObjectsStdcallWrapper@@YAXPAUMSOINST@@PAX@Z 10035500 f oautil.obj
 0001:00034502       ?InvalOAObjectsStdcallWrapper@@YAXPAUMSOINST@@PAX@Z 10035502 f oautil.obj
 0001:00034508       __pcd_tbl?UlDisconnectOAObject@@YAKPAUMSOINST@@K@Z 10035508 f oautil.obj
 0001:00034514       __nep?UlDisconnectOAObject@@YAKPAUMSOINST@@K@Z 10035514 f oautil.obj
 0001:0003451c       __fh?UlDisconnectOAObject@@YAKPAUMSOINST@@K@Z 1003551c f oautil.obj
 0001:0003451e       ?UlDisconnectOAObject@@YAKPAUMSOINST@@K@Z 1003551e f oautil.obj
 0001:00034548       __nep??0OAENUM@@QAA@XZ     10035548 f oautil.obj
 0001:00034548       __pcd_tbl??0OAENUM@@QAA@XZ 10035548 f oautil.obj
 0001:00034550       __fh??0OAENUM@@QAA@XZ      10035550 f oautil.obj
 0001:00034552       ??0OAENUM@@QAA@XZ          10035552 f oautil.obj
 0001:00034570       __nep?a@IEnumVARIANT@@UAAXXZ 10035570 f oautil.obj
 0001:00034570       __pcd_tbl?a@IEnumVARIANT@@UAAXXZ 10035570 f oautil.obj
 0001:00034578       __fh?a@IEnumVARIANT@@UAAXXZ 10035578 f oautil.obj
 0001:0003457a       ?a@IEnumVARIANT@@UAAXXZ    1003557a f oautil.obj
 0001:0003457c       __nep??1OAENUM@@QAA@XZ     1003557c f oautil.obj
 0001:0003457c       __pcd_tbl??1OAENUM@@QAA@XZ 1003557c f oautil.obj
 0001:00034584       __fh??1OAENUM@@QAA@XZ      10035584 f oautil.obj
 0001:00034586       ??1OAENUM@@QAA@XZ          10035586 f oautil.obj
 0001:000345ac       __nep?QueryInterface@OAENUM@@UAAJABUGUID@@PAPAX@Z 100355ac f oautil.obj
 0001:000345ac       __pcd_tbl?QueryInterface@OAENUM@@UAAJABUGUID@@PAPAX@Z 100355ac f oautil.obj
 0001:000345b4       __fh?QueryInterface@OAENUM@@UAAJABUGUID@@PAPAX@Z 100355b4 f oautil.obj
 0001:000345b6       ?QueryInterface@OAENUM@@UAAJABUGUID@@PAPAX@Z 100355b6 f oautil.obj
 0001:00034610       __nep?AddRef@OAENUM@@UAAKXZ 10035610 f oautil.obj
 0001:00034610       __pcd_tbl?AddRef@OAENUM@@UAAKXZ 10035610 f oautil.obj
 0001:00034618       __fh?AddRef@OAENUM@@UAAKXZ 10035618 f oautil.obj
 0001:0003461a       ?AddRef@OAENUM@@UAAKXZ     1003561a f oautil.obj
 0001:00034624       __pcd_tbl?Release@OAENUM@@UAAKXZ 10035624 f oautil.obj
 0001:00034630       __nep?Release@OAENUM@@UAAKXZ 10035630 f oautil.obj
 0001:00034638       __fh?Release@OAENUM@@UAAKXZ 10035638 f oautil.obj
 0001:0003463a       ?Release@OAENUM@@UAAKXZ    1003563a f oautil.obj
 0001:00034684       __pcd_tbl?Next@OAENUM@@UAAJKPAUtagVARIANT@@PAK@Z 10035684 f oautil.obj
 0001:00034684       __nep?Next@OAENUM@@UAAJKPAUtagVARIANT@@PAK@Z 10035684 f oautil.obj
 0001:0003468c       __fh?Next@OAENUM@@UAAJKPAUtagVARIANT@@PAK@Z 1003568c f oautil.obj
 0001:0003468e       ?Next@OAENUM@@UAAJKPAUtagVARIANT@@PAK@Z 1003568e f oautil.obj
 0001:000346f0       __nep?Skip@OAENUM@@UAAJK@Z 100356f0 f oautil.obj
 0001:000346f0       __pcd_tbl?Skip@OAENUM@@UAAJK@Z 100356f0 f oautil.obj
 0001:000346f8       __fh?Skip@OAENUM@@UAAJK@Z  100356f8 f oautil.obj
 0001:000346fa       ?Skip@OAENUM@@UAAJK@Z      100356fa f oautil.obj
 0001:0003470c       __pcd_tbl?Reset@OAENUM@@UAAJXZ 1003570c f oautil.obj
 0001:0003470c       __nep?Reset@OAENUM@@UAAJXZ 1003570c f oautil.obj
 0001:00034714       __fh?Reset@OAENUM@@UAAJXZ  10035714 f oautil.obj
 0001:00034716       ?Reset@OAENUM@@UAAJXZ      10035716 f oautil.obj
 0001:0003471c       __pcd_tbl?Clone@OAENUM@@UAAJPAPAUIEnumVARIANT@@@Z 1003571c f oautil.obj
 0001:00034730       __nep?Clone@OAENUM@@UAAJPAPAUIEnumVARIANT@@@Z 10035730 f oautil.obj
 0001:00034738       __fh?Clone@OAENUM@@UAAJPAPAUIEnumVARIANT@@@Z 10035738 f oautil.obj
 0001:0003473a       ?Clone@OAENUM@@UAAJPAPAUIEnumVARIANT@@@Z 1003573a f oautil.obj
 0001:000347a0       __pcd_tbl?FInit@OAENUM@@QAAHH@Z 100357a0 f oautil.obj
 0001:000347a4       __nep?FInit@OAENUM@@QAAHH@Z 100357a4 f oautil.obj
 0001:000347ac       __fh?FInit@OAENUM@@QAAHH@Z 100357ac f oautil.obj
 0001:000347ae       ?FInit@OAENUM@@QAAHH@Z     100357ae f oautil.obj
 0001:000347c8       __nep?SetMember@OAENUM@@QAAXHPAUIDispatch@@@Z 100357c8 f oautil.obj
 0001:000347c8       __pcd_tbl?SetMember@OAENUM@@QAAXHPAUIDispatch@@@Z 100357c8 f oautil.obj
 0001:000347d0       __fh?SetMember@OAENUM@@QAAXHPAUIDispatch@@@Z 100357d0 f oautil.obj
 0001:000347d2       ?SetMember@OAENUM@@QAAXHPAUIDispatch@@@Z 100357d2 f oautil.obj
 0001:00034824       __nep_MsoOffice            10035824 f office.obj
 0001:00034824       __pcd_tbl_MsoOffice        10035824 f office.obj
 0001:0003482c       __fh_MsoOffice             1003582c f office.obj
 0001:0003482e       _MsoOffice                 1003582e f office.obj
 0001:0003484c       _DllMain                   1003584c f office.obj
 0001:00034a70       __DllMainCRTStartup        10035a70 f office.obj
 0001:00034ac4       __nep__DllMainCRTExit      10035ac4 f office.obj
 0001:00034ac4       __pcd_tbl__DllMainCRTExit  10035ac4 f office.obj
 0001:00034acc       __fh__DllMainCRTExit       10035acc f office.obj
 0001:00034ace       __DllMainCRTExit           10035ace f office.obj
 0001:00034ad0       _InitFunction              10035ad0 f office.obj
 0001:00034b64       _TermRoutine               10035b64 f office.obj
 0001:00034bc0       __pcd_tbl_MSOProcessAE     10035bc0 f office.obj
 0001:00034bcc       __nep_MSOProcessAE         10035bcc f office.obj
 0001:00034bd4       __fh_MSOProcessAE          10035bd4 f office.obj
 0001:00034bd6       _MSOProcessAE              10035bd6 f office.obj
 0001:00034c1c       __pcd_tbl_MsoGetLocale     10035c1c f office.obj
 0001:00034c1c       __nep_MsoGetLocale         10035c1c f office.obj
 0001:00034c24       __fh_MsoGetLocale          10035c24 f office.obj
 0001:00034c26       _MsoGetLocale              10035c26 f office.obj
 0001:00034c2c       __pcd_tbl_MsoFInitThread   10035c2c f office.obj
 0001:00034c2c       __nep_MsoFInitThread       10035c2c f office.obj
 0001:00034c34       __fh_MsoFInitThread        10035c34 f office.obj
 0001:00034c36       _MsoFInitThread            10035c36 f office.obj
 0001:00034c38       __nep_MsoUninitThread      10035c38 f office.obj
 0001:00034c38       __pcd_tbl_MsoUninitThread  10035c38 f office.obj
 0001:00034c40       __fh_MsoUninitThread       10035c40 f office.obj
 0001:00034c42       _MsoUninitThread           10035c42 f office.obj
 0001:00034c48       __pcd_tbl_MsoHrLoadTypeLib 10035c48 f office.obj
 0001:00034c54       __nep_MsoHrLoadTypeLib     10035c54 f office.obj
 0001:00034c5c       __fh_MsoHrLoadTypeLib      10035c5c f office.obj
 0001:00034c5f       _MsoHrLoadTypeLib          10035c5f f office.obj
 0001:00034c9c       __pcd_tbl_MsoHrRegisterAll 10035c9c f office.obj
 0001:00034ca0       __nep_MsoHrRegisterAll     10035ca0 f office.obj
 0001:00034ca8       __fh_MsoHrRegisterAll      10035ca8 f office.obj
 0001:00034caa       _MsoHrRegisterAll          10035caa f office.obj
 0001:00034cb8       __pcd_tbl_MsoHrUnregisterAll 10035cb8 f office.obj
 0001:00034cb8       __nep_MsoHrUnregisterAll   10035cb8 f office.obj
 0001:00034cc0       __fh_MsoHrUnregisterAll    10035cc0 f office.obj
 0001:00034cc2       _MsoHrUnregisterAll        10035cc2 f office.obj
 0001:00034cc4       __pcd_tbl_MsoFSetHelpMode  10035cc4 f office.obj
 0001:00034cd0       __nep_MsoFSetHelpMode      10035cd0 f office.obj
 0001:00034cd8       __fh_MsoFSetHelpMode       10035cd8 f office.obj
 0001:00034cda       _MsoFSetHelpMode           10035cda f office.obj
 0001:00034cf8       __nep_MsoFLockGlobals      10035cf8 f office.obj
 0001:00034cf8       __pcd_tbl_MsoFLockGlobals  10035cf8 f office.obj
 0001:00034d00       __fh_MsoFLockGlobals       10035d00 f office.obj
 0001:00034d02       _MsoFLockGlobals           10035d02 f office.obj
 0001:00034d08       __pcd_tbl_MsoUnlockGlobals 10035d08 f office.obj
 0001:00034d08       __nep_MsoUnlockGlobals     10035d08 f office.obj
 0001:00034d10       __fh_MsoUnlockGlobals      10035d10 f office.obj
 0001:00034d12       _MsoUnlockGlobals          10035d12 f office.obj
 0001:00034d18       __nep?CmdBarPopupClass@@YAXPAUtagWNDCLASSA@@@Z 10035d18 f office.obj
 0001:00034d18       __pcd_tbl?CmdBarPopupClass@@YAXPAUtagWNDCLASSA@@@Z 10035d18 f office.obj
 0001:00034d20       __fh?CmdBarPopupClass@@YAXPAUtagWNDCLASSA@@@Z 10035d20 f office.obj
 0001:00034d22       ?CmdBarPopupClass@@YAXPAUtagWNDCLASSA@@@Z 10035d22 f office.obj
 0001:00034d3c       __pcd_tbl?DropdownClass@@YAXPAUtagWNDCLASSA@@@Z 10035d3c f office.obj
 0001:00034d3c       __nep?DropdownClass@@YAXPAUtagWNDCLASSA@@@Z 10035d3c f office.obj
 0001:00034d44       __fh?DropdownClass@@YAXPAUtagWNDCLASSA@@@Z 10035d44 f office.obj
 0001:00034d46       ?DropdownClass@@YAXPAUtagWNDCLASSA@@@Z 10035d46 f office.obj
 0001:00034d60       __nep?TooltipClass@@YAXPAUtagWNDCLASSA@@@Z 10035d60 f office.obj
 0001:00034d60       __pcd_tbl?TooltipClass@@YAXPAUtagWNDCLASSA@@@Z 10035d60 f office.obj
 0001:00034d68       __fh?TooltipClass@@YAXPAUtagWNDCLASSA@@@Z 10035d68 f office.obj
 0001:00034d6a       ?TooltipClass@@YAXPAUtagWNDCLASSA@@@Z 10035d6a f office.obj
 0001:00034d84       __pcd_tbl?TBCGridClass@@YAXPAUtagWNDCLASSA@@@Z 10035d84 f office.obj
 0001:00034d84       __nep?TBCGridClass@@YAXPAUtagWNDCLASSA@@@Z 10035d84 f office.obj
 0001:00034d8c       __fh?TBCGridClass@@YAXPAUtagWNDCLASSA@@@Z 10035d8c f office.obj
 0001:00034d8e       ?TBCGridClass@@YAXPAUtagWNDCLASSA@@@Z 10035d8e f office.obj
 0001:00034da8       __pcd_tbl?WrapClass@@YAXPAUtagWNDCLASSA@@@Z 10035da8 f office.obj
 0001:00034da8       __nep?WrapClass@@YAXPAUtagWNDCLASSA@@@Z 10035da8 f office.obj
 0001:00034db0       __fh?WrapClass@@YAXPAUtagWNDCLASSA@@@Z 10035db0 f office.obj
 0001:00034db2       ?WrapClass@@YAXPAUtagWNDCLASSA@@@Z 10035db2 f office.obj
 0001:00034dc0       __nep?WrapDlgClass@@YAXPAUtagWNDCLASSA@@@Z 10035dc0 f office.obj
 0001:00034dc0       __pcd_tbl?WrapDlgClass@@YAXPAUtagWNDCLASSA@@@Z 10035dc0 f office.obj
 0001:00034dc8       __fh?WrapDlgClass@@YAXPAUtagWNDCLASSA@@@Z 10035dc8 f office.obj
 0001:00034dca       ?WrapDlgClass@@YAXPAUtagWNDCLASSA@@@Z 10035dca f office.obj
 0001:00034dd4       _MsoHrSimpleQueryInterface 10035dd4 f office.obj
 0001:00034ef0       _MsoHrSimpleQueryInterface2 10035ef0 f office.obj
 0001:00035058       _MsoStartMProf             10036058 f office.obj
 0001:000350e8       _MsoStopMProf              100360e8 f office.obj
 0001:0003513c       _MsoSetMProfFile           1003613c f office.obj
 0001:000352b4       __pcd_tbl?FDebugMessage@TBSUBASE@@UAAHPAUMSOINST@@IIJ@Z 100362b4 f globals.obj
 0001:000352b4       __nep?FDebugMessage@TBSUBASE@@UAAHPAUMSOINST@@IIJ@Z 100362b4 f globals.obj
 0001:000352bc       __fh?FDebugMessage@TBSUBASE@@UAAHPAUMSOINST@@IIJ@Z 100362bc f globals.obj
 0001:000352be       ?FDebugMessage@TBSUBASE@@UAAHPAUMSOINST@@IIJ@Z 100362be f globals.obj
 0001:000352c0       __nep?FCreateControl@TBSUBASE@@UAAHPAUIMsoToolbarSet@@PAPAXHHHHPAUIMsoControlSite@@PAPAUIMsoControl@@@Z 100362c0 f globals.obj
 0001:000352c0       __pcd_tbl?FCreateControl@TBSUBASE@@UAAHPAUIMsoToolbarSet@@PAPAXHHHHPAUIMsoControlSite@@PAPAUIMsoControl@@@Z 100362c0 f globals.obj
 0001:000352c8       __fh?FCreateControl@TBSUBASE@@UAAHPAUIMsoToolbarSet@@PAPAXHHHHPAUIMsoControlSite@@PAPAUIMsoControl@@@Z 100362c8 f globals.obj
 0001:000352ca       ?FCreateControl@TBSUBASE@@UAAHPAUIMsoToolbarSet@@PAPAXHHHHPAUIMsoControlSite@@PAPAUIMsoControl@@@Z 100362ca f globals.obj
 0001:000352cc       __pcd_tbl?FCreateCustomToolbar@TBSUBASE@@UAAHPAUIMsoToolbarSet@@PAPAXPAU_msotbp@@PAGPAPAUIMsoToolbar@@@Z 100362cc f globals.obj
 0001:000352cc       __nep?FCreateCustomToolbar@TBSUBASE@@UAAHPAUIMsoToolbarSet@@PAPAXPAU_msotbp@@PAGPAPAUIMsoToolbar@@@Z 100362cc f globals.obj
 0001:000352d4       __fh?FCreateCustomToolbar@TBSUBASE@@UAAHPAUIMsoToolbarSet@@PAPAXPAU_msotbp@@PAGPAPAUIMsoToolbar@@@Z 100362d4 f globals.obj
 0001:000352d6       ?FCreateCustomToolbar@TBSUBASE@@UAAHPAUIMsoToolbarSet@@PAPAXPAU_msotbp@@PAGPAPAUIMsoToolbar@@@Z 100362d6 f globals.obj
 0001:000352d8       __nep?PicuLoadUserData@TBSUBASE@@UAAPAUIMsoControlUser@@PAUIMsoToolbarSet@@PAPAXHHPAUIStream@@1@Z 100362d8 f globals.obj
 0001:000352d8       __pcd_tbl?PicuLoadUserData@TBSUBASE@@UAAPAUIMsoControlUser@@PAUIMsoToolbarSet@@PAPAXHHPAUIStream@@1@Z 100362d8 f globals.obj
 0001:000352e0       __fh?PicuLoadUserData@TBSUBASE@@UAAPAUIMsoControlUser@@PAUIMsoToolbarSet@@PAPAXHHPAUIStream@@1@Z 100362e0 f globals.obj
 0001:000352e2       ?PicuLoadUserData@TBSUBASE@@UAAPAUIMsoControlUser@@PAUIMsoToolbarSet@@PAPAXHHPAUIStream@@1@Z 100362e2 f globals.obj
 0001:000352e4       __nep?HrSetBorderSpace@TBSUBASE@@UAAJPAUIMsoToolbarSet@@PAPAXPBURect@@@Z 100362e4 f globals.obj
 0001:000352e4       __pcd_tbl?HrSetBorderSpace@TBSUBASE@@UAAJPAUIMsoToolbarSet@@PAPAXPBURect@@@Z 100362e4 f globals.obj
 0001:000352ec       __fh?HrSetBorderSpace@TBSUBASE@@UAAJPAUIMsoToolbarSet@@PAPAXPBURect@@@Z 100362ec f globals.obj
 0001:000352ee       ?HrSetBorderSpace@TBSUBASE@@UAAJPAUIMsoToolbarSet@@PAPAXPBURect@@@Z 100362ee f globals.obj
 0001:000352f0       __nep?HrGetBorder@TBSUBASE@@UAAJPAUIMsoToolbarSet@@PAPAXPAUtagRECT@@@Z 100362f0 f globals.obj
 0001:000352f0       __pcd_tbl?HrGetBorder@TBSUBASE@@UAAJPAUIMsoToolbarSet@@PAPAXPAUtagRECT@@@Z 100362f0 f globals.obj
 0001:000352f8       __fh?HrGetBorder@TBSUBASE@@UAAJPAUIMsoToolbarSet@@PAPAXPAUtagRECT@@@Z 100362f8 f globals.obj
 0001:000352fa       ?HrGetBorder@TBSUBASE@@UAAJPAUIMsoToolbarSet@@PAPAXPAUtagRECT@@@Z 100362fa f globals.obj
 0001:00035300       __nep?PitbGetMainMenu@TBSUBASE@@UAAPAUIMsoToolbar@@PAUIMsoToolbarSet@@PAPAX@Z 10036300 f globals.obj
 0001:00035300       __pcd_tbl?PitbGetMainMenu@TBSUBASE@@UAAPAUIMsoToolbar@@PAUIMsoToolbarSet@@PAPAX@Z 10036300 f globals.obj
 0001:00035308       __fh?PitbGetMainMenu@TBSUBASE@@UAAPAUIMsoToolbar@@PAUIMsoToolbarSet@@PAPAX@Z 10036308 f globals.obj
 0001:0003530a       ?PitbGetMainMenu@TBSUBASE@@UAAPAUIMsoToolbar@@PAUIMsoToolbarSet@@PAPAX@Z 1003630a f globals.obj
 0001:0003530c       __nep?FSaveUserData@TBSUBASE@@UAAHPAUIMsoToolbarSet@@PAPAXPAUIStream@@@Z 1003630c f globals.obj
 0001:0003530c       __pcd_tbl?FSaveUserData@TBSUBASE@@UAAHPAUIMsoToolbarSet@@PAPAXPAUIStream@@@Z 1003630c f globals.obj
 0001:00035314       __fh?FSaveUserData@TBSUBASE@@UAAHPAUIMsoToolbarSet@@PAPAXPAUIStream@@@Z 10036314 f globals.obj
 0001:00035316       ?FSaveUserData@TBSUBASE@@UAAHPAUIMsoToolbarSet@@PAPAXPAUIStream@@@Z 10036316 f globals.obj
 0001:00035318       __nep?FLoadUserData@TBSUBASE@@UAAHPAUIMsoToolbarSet@@PAPAXPAUIStream@@@Z 10036318 f globals.obj
 0001:00035318       __pcd_tbl?FLoadUserData@TBSUBASE@@UAAHPAUIMsoToolbarSet@@PAPAXPAUIStream@@@Z 10036318 f globals.obj
 0001:00035320       __fh?FLoadUserData@TBSUBASE@@UAAHPAUIMsoToolbarSet@@PAPAXPAUIStream@@@Z 10036320 f globals.obj
 0001:00035322       ?FLoadUserData@TBSUBASE@@UAAHPAUIMsoToolbarSet@@PAPAXPAUIStream@@@Z 10036322 f globals.obj
 0001:00035324       __pcd_tbl?FGetIDispatchParent@TBSUBASE@@UAAHPAUIMsoToolbarSet@@PAPAXPAPAUIDispatch@@@Z 10036324 f globals.obj
 0001:00035324       __nep?FGetIDispatchParent@TBSUBASE@@UAAHPAUIMsoToolbarSet@@PAPAXPAPAUIDispatch@@@Z 10036324 f globals.obj
 0001:0003532c       __fh?FGetIDispatchParent@TBSUBASE@@UAAHPAUIMsoToolbarSet@@PAPAXPAPAUIDispatch@@@Z 1003632c f globals.obj
 0001:0003532e       ?FGetIDispatchParent@TBSUBASE@@UAAHPAUIMsoToolbarSet@@PAPAXPAPAUIDispatch@@@Z 1003632e f globals.obj
 0001:00035330       __nep?UpdateNeeded@TBSUBASE@@UAAXPAUIMsoToolbarSet@@PAPAX@Z 10036330 f globals.obj
 0001:00035330       __pcd_tbl?UpdateNeeded@TBSUBASE@@UAAXPAUIMsoToolbarSet@@PAPAX@Z 10036330 f globals.obj
 0001:00035338       __fh?UpdateNeeded@TBSUBASE@@UAAXPAUIMsoToolbarSet@@PAPAX@Z 10036338 f globals.obj
 0001:0003533a       ?UpdateNeeded@TBSUBASE@@UAAXPAUIMsoToolbarSet@@PAPAX@Z 1003633a f globals.obj
 0001:0003533c       __nep?FSetupCustomize@TBSUBASE@@UAAHPAUIMsoToolbarSet@@PAPAXPAU_msocustcb@@@Z 1003633c f globals.obj
 0001:0003533c       __pcd_tbl?FSetupCustomize@TBSUBASE@@UAAHPAUIMsoToolbarSet@@PAPAXPAU_msocustcb@@@Z 1003633c f globals.obj
 0001:00035344       __fh?FSetupCustomize@TBSUBASE@@UAAHPAUIMsoToolbarSet@@PAPAXPAU_msocustcb@@@Z 10036344 f globals.obj
 0001:00035346       ?FSetupCustomize@TBSUBASE@@UAAHPAUIMsoToolbarSet@@PAPAXPAU_msocustcb@@@Z 10036346 f globals.obj
 0001:00035348       __pcd_tbl?FCreateToolbar@TBSUBASE@@UAAHPAUIMsoToolbarSet@@PAPAXHPBGHPAPAUIMsoToolbar@@@Z 10036348 f globals.obj
 0001:00035348       __nep?FCreateToolbar@TBSUBASE@@UAAHPAUIMsoToolbarSet@@PAPAXHPBGHPAPAUIMsoToolbar@@@Z 10036348 f globals.obj
 0001:00035350       __fh?FCreateToolbar@TBSUBASE@@UAAHPAUIMsoToolbarSet@@PAPAXHPBGHPAPAUIMsoToolbar@@@Z 10036350 f globals.obj
 0001:00035352       ?FCreateToolbar@TBSUBASE@@UAAHPAUIMsoToolbarSet@@PAPAXHPBGHPAPAUIMsoToolbar@@@Z 10036352 f globals.obj
 0001:00035354       __nep?FNotifyAction@TBSUBASE@@UAAHPAUIMsoToolbarSet@@PAPAXPAUIMsoToolbar@@PAUIMsoControl@@H@Z 10036354 f globals.obj
 0001:00035354       __pcd_tbl?FNotifyAction@TBSUBASE@@UAAHPAUIMsoToolbarSet@@PAPAXPAUIMsoToolbar@@PAUIMsoControl@@H@Z 10036354 f globals.obj
 0001:0003535c       __fh?FNotifyAction@TBSUBASE@@UAAHPAUIMsoToolbarSet@@PAPAXPAUIMsoToolbar@@PAUIMsoControl@@H@Z 1003635c f globals.obj
 0001:0003535e       ?FNotifyAction@TBSUBASE@@UAAHPAUIMsoToolbarSet@@PAPAXPAUIMsoToolbar@@PAUIMsoControl@@H@Z 1003635e f globals.obj
 0001:00035360       __nep?FGetMDIClientWindow@TBSUBASE@@UAAHPAUIMsoToolbarSet@@PAPAXPAPAUHWND__@@@Z 10036360 f globals.obj
 0001:00035360       __pcd_tbl?FGetMDIClientWindow@TBSUBASE@@UAAHPAUIMsoToolbarSet@@PAPAXPAPAUHWND__@@@Z 10036360 f globals.obj
 0001:00035368       __fh?FGetMDIClientWindow@TBSUBASE@@UAAHPAUIMsoToolbarSet@@PAPAXPAPAUHWND__@@@Z 10036368 f globals.obj
 0001:0003536a       ?FGetMDIClientWindow@TBSUBASE@@UAAHPAUIMsoToolbarSet@@PAPAXPAPAUHWND__@@@Z 1003636a f globals.obj
 0001:0003536c       __nep?FClientToolbarGet@TBSUBASE@@UAAHPAUIMsoToolbarSet@@PAPAXHHPAPAUIMsoToolbar@@@Z 1003636c f globals.obj
 0001:0003536c       __pcd_tbl?FClientToolbarGet@TBSUBASE@@UAAHPAUIMsoToolbarSet@@PAPAXHHPAPAUIMsoToolbar@@@Z 1003636c f globals.obj
 0001:00035374       __fh?FClientToolbarGet@TBSUBASE@@UAAHPAUIMsoToolbarSet@@PAPAXHHPAPAUIMsoToolbar@@@Z 10036374 f globals.obj
 0001:00035376       ?FClientToolbarGet@TBSUBASE@@UAAHPAUIMsoToolbarSet@@PAPAXHHPAPAUIMsoToolbar@@@Z 10036376 f globals.obj
 0001:00035378       __pcd_tbl?FGetUserOwnedDockWindowRect@TBSUBASE@@UAAHPAUIMsoToolbarSet@@PAPAXHPAUtagRECT@@@Z 10036378 f globals.obj
 0001:00035378       __nep?FGetUserOwnedDockWindowRect@TBSUBASE@@UAAHPAUIMsoToolbarSet@@PAPAXHPAUtagRECT@@@Z 10036378 f globals.obj
 0001:00035380       __fh?FGetUserOwnedDockWindowRect@TBSUBASE@@UAAHPAUIMsoToolbarSet@@PAPAXHPAUtagRECT@@@Z 10036380 f globals.obj
 0001:00035382       ?FGetUserOwnedDockWindowRect@TBSUBASE@@UAAHPAUIMsoToolbarSet@@PAPAXHPAUtagRECT@@@Z 10036382 f globals.obj
 0001:00035384       __nep?FTcidCommandMessage@TBSUBASE@@UAAHPAUIMsoToolbarSet@@PAPAXHJ@Z 10036384 f globals.obj
 0001:00035384       __pcd_tbl?FTcidCommandMessage@TBSUBASE@@UAAHPAUIMsoToolbarSet@@PAPAXHJ@Z 10036384 f globals.obj
 0001:0003538c       __fh?FTcidCommandMessage@TBSUBASE@@UAAHPAUIMsoToolbarSet@@PAPAXHJ@Z 1003638c f globals.obj
 0001:0003538e       ?FTcidCommandMessage@TBSUBASE@@UAAHPAUIMsoToolbarSet@@PAPAXHJ@Z 1003638e f globals.obj
 0001:00035390       __pcd_tbl?HrGetMergeOptions@TBSUBASE@@UAAJPAUIMsoToolbarSet@@PAPAXPAK@Z 10036390 f globals.obj
 0001:00035390       __nep?HrGetMergeOptions@TBSUBASE@@UAAJPAUIMsoToolbarSet@@PAPAXPAK@Z 10036390 f globals.obj
 0001:00035398       __fh?HrGetMergeOptions@TBSUBASE@@UAAJPAUIMsoToolbarSet@@PAPAXPAK@Z 10036398 f globals.obj
 0001:0003539a       ?HrGetMergeOptions@TBSUBASE@@UAAJPAUIMsoToolbarSet@@PAPAXPAK@Z 1003639a f globals.obj
 0001:000353a0       __nep?HrNotifyOfOleAction@TBSUBASE@@UAAJPAUIMsoToolbarSet@@PAPAXKK@Z 100363a0 f globals.obj
 0001:000353a0       __pcd_tbl?HrNotifyOfOleAction@TBSUBASE@@UAAJPAUIMsoToolbarSet@@PAPAXKK@Z 100363a0 f globals.obj
 0001:000353a8       __fh?HrNotifyOfOleAction@TBSUBASE@@UAAJPAUIMsoToolbarSet@@PAPAXKK@Z 100363a8 f globals.obj
 0001:000353aa       ?HrNotifyOfOleAction@TBSUBASE@@UAAJPAUIMsoToolbarSet@@PAPAXKK@Z 100363aa f globals.obj
 0001:000353ac       __nep?FDebugMessage@TBCSUBASE@@UAAHPAUMSOINST@@IIJ@Z 100363ac f globals.obj
 0001:000353ac       __pcd_tbl?FDebugMessage@TBCSUBASE@@UAAHPAUMSOINST@@IIJ@Z 100363ac f globals.obj
 0001:000353b4       __fh?FDebugMessage@TBCSUBASE@@UAAHPAUMSOINST@@IIJ@Z 100363b4 f globals.obj
 0001:000353b6       ?FDebugMessage@TBCSUBASE@@UAAHPAUMSOINST@@IIJ@Z 100363b6 f globals.obj
 0001:000353b8       __pcd_tbl?FCloneUserClient@TBCSUBASE@@UAAHPAUIMsoControl@@PAXPAPAXPAPAUIMsoControlUser@@@Z 100363b8 f globals.obj
 0001:000353b8       __nep?FCloneUserClient@TBCSUBASE@@UAAHPAUIMsoControl@@PAXPAPAXPAPAUIMsoControlUser@@@Z 100363b8 f globals.obj
 0001:000353c0       __fh?FCloneUserClient@TBCSUBASE@@UAAHPAUIMsoControl@@PAXPAPAXPAPAUIMsoControlUser@@@Z 100363c0 f globals.obj
 0001:000353c2       ?FCloneUserClient@TBCSUBASE@@UAAHPAUIMsoControl@@PAXPAPAXPAPAUIMsoControlUser@@@Z 100363c2 f globals.obj
 0001:000353c8       __nep?NotifyDelete@TBCSUBASE@@UAAXPAUIMsoControl@@PAPAX@Z 100363c8 f globals.obj
 0001:000353c8       __pcd_tbl?NotifyDelete@TBCSUBASE@@UAAXPAUIMsoControl@@PAPAX@Z 100363c8 f globals.obj
 0001:000353d0       __fh?NotifyDelete@TBCSUBASE@@UAAXPAUIMsoControl@@PAPAX@Z 100363d0 f globals.obj
 0001:000353d2       ?NotifyDelete@TBCSUBASE@@UAAXPAUIMsoControl@@PAPAX@Z 100363d2 f globals.obj
 0001:000353d4       __nep?FSaveUserData@TBCSUBASE@@UAAHPAUIMsoControl@@PAPAXPAUIStream@@@Z 100363d4 f globals.obj
 0001:000353d4       __pcd_tbl?FSaveUserData@TBCSUBASE@@UAAHPAUIMsoControl@@PAPAXPAUIStream@@@Z 100363d4 f globals.obj
 0001:000353dc       __fh?FSaveUserData@TBCSUBASE@@UAAHPAUIMsoControl@@PAPAXPAUIStream@@@Z 100363dc f globals.obj
 0001:000353de       ?FSaveUserData@TBCSUBASE@@UAAHPAUIMsoControl@@PAPAXPAUIStream@@@Z 100363de f globals.obj
 0001:000353e0       __nep?FAutoVisible@TBCSUBASE@@UAAHPAUIMsoControl@@PAPAX@Z 100363e0 f globals.obj
 0001:000353e0       __pcd_tbl?FAutoVisible@TBCSUBASE@@UAAHPAUIMsoControl@@PAPAX@Z 100363e0 f globals.obj
 0001:000353e8       __fh?FAutoVisible@TBCSUBASE@@UAAHPAUIMsoControl@@PAPAX@Z 100363e8 f globals.obj
 0001:000353ea       ?FAutoVisible@TBCSUBASE@@UAAHPAUIMsoControl@@PAPAX@Z 100363ea f globals.obj
 0001:000353ec       __pcd_tbl?FGetAlternateControl@TBCSUBASE@@UAAHPAUIMsoControl@@PAPAXPAPAU2@@Z 100363ec f globals.obj
 0001:000353ec       __nep?FGetAlternateControl@TBCSUBASE@@UAAHPAUIMsoControl@@PAPAXPAPAU2@@Z 100363ec f globals.obj
 0001:000353f4       __fh?FGetAlternateControl@TBCSUBASE@@UAAHPAUIMsoControl@@PAPAXPAPAU2@@Z 100363f4 f globals.obj
 0001:000353f6       ?FGetAlternateControl@TBCSUBASE@@UAAHPAUIMsoControl@@PAPAXPAPAU2@@Z 100363f6 f globals.obj
 0001:000353f8       __pcd_tbl?FChangeLabel@TBCSUBASE@@UAAHPAUIMsoControl@@PAPAXPAG2@Z 100363f8 f globals.obj
 0001:000353f8       __nep?FChangeLabel@TBCSUBASE@@UAAHPAUIMsoControl@@PAPAXPAG2@Z 100363f8 f globals.obj
 0001:00035400       __fh?FChangeLabel@TBCSUBASE@@UAAHPAUIMsoControl@@PAPAXPAG2@Z 10036400 f globals.obj
 0001:00035402       ?FChangeLabel@TBCSUBASE@@UAAHPAUIMsoControl@@PAPAXPAG2@Z 10036402 f globals.obj
 0001:00035404       __pcd_tbl?FNotifyAction@TBCSUBASE@@UAAHPAUIMsoControl@@PAPAXH@Z 10036404 f globals.obj
 0001:00035404       __nep?FNotifyAction@TBCSUBASE@@UAAHPAUIMsoControl@@PAPAXH@Z 10036404 f globals.obj
 0001:0003540c       __fh?FNotifyAction@TBCSUBASE@@UAAHPAUIMsoControl@@PAPAXH@Z 1003640c f globals.obj
 0001:0003540e       ?FNotifyAction@TBCSUBASE@@UAAHPAUIMsoControl@@PAPAXH@Z 1003640e f globals.obj
 0001:00035410       __nep?TbcuOleUsage@TBCSUBASE@@UAAHPAUIMsoControl@@PAPAX@Z 10036410 f globals.obj
 0001:00035410       __pcd_tbl?TbcuOleUsage@TBCSUBASE@@UAAHPAUIMsoControl@@PAPAX@Z 10036410 f globals.obj
 0001:00035418       __fh?TbcuOleUsage@TBCSUBASE@@UAAHPAUIMsoControl@@PAPAX@Z 10036418 f globals.obj
 0001:0003541a       ?TbcuOleUsage@TBCSUBASE@@UAAHPAUIMsoControl@@PAPAX@Z 1003641a f globals.obj
 0001:0003541c       __pcd_tbl?FGetString@TBCSUBASE@@UAAHPAUIMsoControl@@PAPAXHPAG@Z 1003641c f globals.obj
 0001:0003541c       __nep?FGetString@TBCSUBASE@@UAAHPAUIMsoControl@@PAPAXHPAG@Z 1003641c f globals.obj
 0001:00035424       __fh?FGetString@TBCSUBASE@@UAAHPAUIMsoControl@@PAPAXHPAG@Z 10036424 f globals.obj
 0001:00035426       ?FGetString@TBCSUBASE@@UAAHPAUIMsoControl@@PAPAXHPAG@Z 10036426 f globals.obj
 0001:00035428       __nep?FGetStringEx@TBCSUBASE@@UAAHPAUIMsoControl@@PAPAXHPAGHH@Z 10036428 f globals.obj
 0001:00035428       __pcd_tbl?FGetStringEx@TBCSUBASE@@UAAHPAUIMsoControl@@PAPAXHPAGHH@Z 10036428 f globals.obj
 0001:00035430       __fh?FGetStringEx@TBCSUBASE@@UAAHPAUIMsoControl@@PAPAXHPAGHH@Z 10036430 f globals.obj
 0001:00035432       ?FGetStringEx@TBCSUBASE@@UAAHPAUIMsoControl@@PAPAXHPAGHH@Z 10036432 f globals.obj
 0001:00035434       __nep?CCells@TBCSUBASE@@UAAHPAUIMsoControl@@PAPAX@Z 10036434 f globals.obj
 0001:00035434       __pcd_tbl?CCells@TBCSUBASE@@UAAHPAUIMsoControl@@PAPAX@Z 10036434 f globals.obj
 0001:0003543c       __fh?CCells@TBCSUBASE@@UAAHPAUIMsoControl@@PAPAX@Z 1003643c f globals.obj
 0001:0003543e       ?CCells@TBCSUBASE@@UAAHPAUIMsoControl@@PAPAX@Z 1003643e f globals.obj
 0001:00035448       __pcd_tbl_MsoFAddPlaybackKevt 10036448 f playhook.obj
 0001:00035460       __nep_MsoFAddPlaybackKevt  10036460 f playhook.obj
 0001:00035468       __fh_MsoFAddPlaybackKevt   10036468 f playhook.obj
 0001:0003546a       _MsoFAddPlaybackKevt       1003646a f playhook.obj
 0001:000354a0       __pcd_tbl_MsoCancelPlayback 100364a0 f playhook.obj
 0001:000354a8       __nep_MsoCancelPlayback    100364a8 f playhook.obj
 0001:000354b0       __fh_MsoCancelPlayback     100364b0 f playhook.obj
 0001:000354b2       _MsoCancelPlayback         100364b2 f playhook.obj
 0001:000354c4       __pcd_tbl_MsoCreateKevt    100364c4 f playhook.obj
 0001:000354c8       __nep_MsoCreateKevt        100364c8 f playhook.obj
 0001:000354d0       __fh_MsoCreateKevt         100364d0 f playhook.obj
 0001:000354d2       _MsoCreateKevt             100364d2 f playhook.obj
 0001:000354d8       __pcd_tbl_MsoAddVkToKevt   100364d8 f playhook.obj
 0001:000354e0       __nep_MsoAddVkToKevt       100364e0 f playhook.obj
 0001:000354e8       __fh_MsoAddVkToKevt        100364e8 f playhook.obj
 0001:000354ea       _MsoAddVkToKevt            100364ea f playhook.obj
 0001:00035890       __pcd_tbl?LoadIntlIcon@@YAPAUHICON__@@I@Z 10036890 f util.obj
 0001:00035894       __nep?LoadIntlIcon@@YAPAUHICON__@@I@Z 10036894 f util.obj
 0001:0003589c       __fh?LoadIntlIcon@@YAPAUHICON__@@I@Z 1003689c f util.obj
 0001:0003589e       ?LoadIntlIcon@@YAPAUHICON__@@I@Z 1003689e f util.obj
 0001:000358a8       __nep?FScanMem@@YAHPADEK@Z 100368a8 f util.obj
 0001:000358a8       __pcd_tbl?FScanMem@@YAHPADEK@Z 100368a8 f util.obj
 0001:000358b0       __fh?FScanMem@@YAHPADEK@Z  100368b0 f util.obj
 0001:000358b2       ?FScanMem@@YAHPADEK@Z      100368b2 f util.obj
 0001:000358d0       __nep?ULIntMultiply@@YAXPAU_ulargeint@@G@Z 100368d0 f util.obj
 0001:000358d0       __pcd_tbl?ULIntMultiply@@YAXPAU_ulargeint@@G@Z 100368d0 f util.obj
 0001:000358d8       __fh?ULIntMultiply@@YAXPAU_ulargeint@@G@Z 100368d8 f util.obj
 0001:000358da       ?ULIntMultiply@@YAXPAU_ulargeint@@G@Z 100368da f util.obj
 0001:00035918       __nep?ULIntDivide@@YAXPAU_ulargeint@@G@Z 10036918 f util.obj
 0001:00035918       __pcd_tbl?ULIntDivide@@YAXPAU_ulargeint@@G@Z 10036918 f util.obj
 0001:00035920       __fh?ULIntDivide@@YAXPAU_ulargeint@@G@Z 10036920 f util.obj
 0001:00035922       ?ULIntDivide@@YAXPAU_ulargeint@@G@Z 10036922 f util.obj
 0001:00035974       __pcd_tbl?PszGetFileExt@@YAPADPAD@Z 10036974 f util.obj
 0001:00035978       __nep?PszGetFileExt@@YAPADPAD@Z 10036978 f util.obj
 0001:00035980       __fh?PszGetFileExt@@YAPADPAD@Z 10036980 f util.obj
 0001:00035982       ?PszGetFileExt@@YAPADPAD@Z 10036982 f util.obj
 0001:00035988       __pcd_tbl_MsoCchGetFullPathName 10036988 f util.obj
 0001:00035994       __nep_MsoCchGetFullPathName 10036994 f util.obj
 0001:0003599c       __fh_MsoCchGetFullPathName 1003699c f util.obj
 0001:0003599e       _MsoCchGetFullPathName     1003699e f util.obj
 0001:000359b0       __pcd_tbl_MsoSzFileName    100369b0 f util.obj
 0001:000359c0       __nep_MsoSzFileName        100369c0 f util.obj
 0001:000359c8       __fh_MsoSzFileName         100369c8 f util.obj
 0001:000359cb       _MsoSzFileName             100369cb f util.obj
 0001:00035a10       __pcd_tbl_MsoFSameFile     10036a10 f util.obj
 0001:00035a1c       __nep_MsoFSameFile         10036a1c f util.obj
 0001:00035a24       __fh_MsoFSameFile          10036a24 f util.obj
 0001:00035a27       _MsoFSameFile              10036a27 f util.obj
 0001:00035a54       __pcd_tbl_MsoFCreateCopyRgn 10036a54 f util.obj
 0001:00035a60       __nep_MsoFCreateCopyRgn    10036a60 f util.obj
 0001:00035a68       __fh_MsoFCreateCopyRgn     10036a68 f util.obj
 0001:00035a6a       _MsoFCreateCopyRgn         10036a6a f util.obj
 0001:00035a84       __pcd_tbl_RgnkCreateOffsetRgn 10036a84 f util.obj
 0001:00035a8c       __nep_RgnkCreateOffsetRgn  10036a8c f util.obj
 0001:00035a94       __fh_RgnkCreateOffsetRgn   10036a94 f util.obj
 0001:00035a96       _RgnkCreateOffsetRgn       10036a96 f util.obj
 0001:00035aa0       __pcd_tbl_RirgRcInRgn      10036aa0 f util.obj
 0001:00035abc       __nep_RirgRcInRgn          10036abc f util.obj
 0001:00035ac4       __fh_RirgRcInRgn           10036ac4 f util.obj
 0001:00035ac6       _RirgRcInRgn               10036ac6 f util.obj
 0001:00035b60       __pcd_tbl_GetBmpSize       10036b60 f util.obj
 0001:00035b64       __nep_GetBmpSize           10036b64 f util.obj
 0001:00035b6c       __fh_GetBmpSize            10036b6c f util.obj
 0001:00035b6e       _GetBmpSize                10036b6e f util.obj
 0001:00035b7c       __pcd_tbl_MsoFSaveDc       10036b7c f util.obj
 0001:00035ba0       __nep_MsoFSaveDc           10036ba0 f util.obj
 0001:00035ba8       __fh_MsoFSaveDc            10036ba8 f util.obj
 0001:00035baa       _MsoFSaveDc                10036baa f util.obj
 0001:00035c58       __pcd_tbl_MsoRestoreDc     10036c58 f util.obj
 0001:00035c74       __nep_MsoRestoreDc         10036c74 f util.obj
 0001:00035c7c       __fh_MsoRestoreDc          10036c7c f util.obj
 0001:00035c7e       _MsoRestoreDc              10036c7e f util.obj
 0001:00035ce4       __pcd_tbl_XYSum            10036ce4 f util.obj
 0001:00035ce4       __nep_XYSum                10036ce4 f util.obj
 0001:00035cec       __fh_XYSum                 10036cec f util.obj
 0001:00035cee       _XYSum                     10036cee f util.obj
 0001:00035d1c       __pcd_tbl?OffsetRectSize@@YAXPAUtagRECT@@PAUtagSIZE@@@Z 10036d1c f util.obj
 0001:00035d1c       __nep?OffsetRectSize@@YAXPAUtagRECT@@PAUtagSIZE@@@Z 10036d1c f util.obj
 0001:00035d24       __fh?OffsetRectSize@@YAXPAUtagRECT@@PAUtagSIZE@@@Z 10036d24 f util.obj
 0001:00035d26       ?OffsetRectSize@@YAXPAUtagRECT@@PAUtagSIZE@@@Z 10036d26 f util.obj
 0001:00035d4c       __pcd_tbl_FRectInRect      10036d4c f util.obj
 0001:00035d54       __nep_FRectInRect          10036d54 f util.obj
 0001:00035d5c       __fh_FRectInRect           10036d5c f util.obj
 0001:00035d5e       _FRectInRect               10036d5e f util.obj
 0001:00035d80       __pcd_tbl_MsoMapPoints     10036d80 f util.obj
 0001:00035d84       __nep_MsoMapPoints         10036d84 f util.obj
 0001:00035d8c       __fh_MsoMapPoints          10036d8c f util.obj
 0001:00035d8e       _MsoMapPoints              10036d8e f util.obj
 0001:00035e10       __pcd_tbl_MsoCdirFromPt    10036e10 f util.obj
 0001:00035e14       __nep_MsoCdirFromPt        10036e14 f util.obj
 0001:00035e1c       __fh_MsoCdirFromPt         10036e1c f util.obj
 0001:00035e1e       _MsoCdirFromPt             10036e1e f util.obj
 0001:00035e38       __pcd_tbl_MsoCdirFromAngle 10036e38 f util.obj
 0001:00035e38       __nep_MsoCdirFromAngle     10036e38 f util.obj
 0001:00035e40       __fh_MsoCdirFromAngle      10036e40 f util.obj
 0001:00035e42       _MsoCdirFromAngle          10036e42 f util.obj
 0001:00035e78       __pcd_tbl_EmptyRc          10036e78 f util.obj
 0001:00035e78       __nep_EmptyRc              10036e78 f util.obj
 0001:00035e80       __fh_EmptyRc               10036e80 f util.obj
 0001:00035e82       _EmptyRc                   10036e82 f util.obj
 0001:00035e88       __nep_FEmptyRc             10036e88 f util.obj
 0001:00035e88       __pcd_tbl_FEmptyRc         10036e88 f util.obj
 0001:00035e90       __fh_FEmptyRc              10036e90 f util.obj
 0001:00035e92       _FEmptyRc                  10036e92 f util.obj
 0001:00035ea0       __nep_FValidRc             10036ea0 f util.obj
 0001:00035ea0       __pcd_tbl_FValidRc         10036ea0 f util.obj
 0001:00035ea8       __fh_FValidRc              10036ea8 f util.obj
 0001:00035eaa       _FValidRc                  10036eaa f util.obj
 0001:00035eb8       __nep_MsoOffsetPt          10036eb8 f util.obj
 0001:00035eb8       __pcd_tbl_MsoOffsetPt      10036eb8 f util.obj
 0001:00035ec0       __fh_MsoOffsetPt           10036ec0 f util.obj
 0001:00035ec2       _MsoOffsetPt               10036ec2 f util.obj
 0001:00035ed0       __pcd_tbl_ScaleXy          10036ed0 f util.obj
 0001:00035ed4       __nep_ScaleXy              10036ed4 f util.obj
 0001:00035edc       __fh_ScaleXy               10036edc f util.obj
 0001:00035ede       _ScaleXy                   10036ede f util.obj
 0001:00035ef8       __pcd_tbl_FCompareXY       10036ef8 f util.obj
 0001:00035ef8       __nep_FCompareXY           10036ef8 f util.obj
 0001:00035f00       __fh_FCompareXY            10036f00 f util.obj
 0001:00035f02       _FCompareXY                10036f02 f util.obj
 0001:00035f0c       __pcd_tbl_CompareXY        10036f0c f util.obj
 0001:00035f0c       __nep_CompareXY            10036f0c f util.obj
 0001:00035f14       __fh_CompareXY             10036f14 f util.obj
 0001:00035f16       _CompareXY                 10036f16 f util.obj
 0001:00035f1c       __pcd_tbl?SwapXY@@YAXPAJ0@Z 10036f1c f util.obj
 0001:00035f1c       __nep?SwapXY@@YAXPAJ0@Z    10036f1c f util.obj
 0001:00035f24       __fh?SwapXY@@YAXPAJ0@Z     10036f24 f util.obj
 0001:00035f26       ?SwapXY@@YAXPAJ0@Z         10036f26 f util.obj
 0001:00035f30       __pcd_tbl_MsoPrcSetRc      10036f30 f util.obj
 0001:00035f30       __nep_MsoPrcSetRc          10036f30 f util.obj
 0001:00035f38       __fh_MsoPrcSetRc           10036f38 f util.obj
 0001:00035f3a       _MsoPrcSetRc               10036f3a f util.obj
 0001:00035f48       __nep_MsoOffsetRc          10036f48 f util.obj
 0001:00035f48       __pcd_tbl_MsoOffsetRc      10036f48 f util.obj
 0001:00035f50       __fh_MsoOffsetRc           10036f50 f util.obj
 0001:00035f52       _MsoOffsetRc               10036f52 f util.obj
 0001:00035f74       __nep_MsoTranslatePt       10036f74 f util.obj
 0001:00035f74       __pcd_tbl_MsoTranslatePt   10036f74 f util.obj
 0001:00035f7c       __fh_MsoTranslatePt        10036f7c f util.obj
 0001:00035f7e       _MsoTranslatePt            10036f7e f util.obj
 0001:00035f8c       __pcd_tbl_MsoTranslateRc   10036f8c f util.obj
 0001:00035f90       __nep_MsoTranslateRc       10036f90 f util.obj
 0001:00035f98       __fh_MsoTranslateRc        10036f98 f util.obj
 0001:00035f9a       _MsoTranslateRc            10036f9a f util.obj
 0001:00035fb4       __pcd_tbl?TranslateRcDpt@@YAXPAUtagRECT@@0PAUtagSIZE@@@Z 10036fb4 f util.obj
 0001:00035fb8       __nep?TranslateRcDpt@@YAXPAUtagRECT@@0PAUtagSIZE@@@Z 10036fb8 f util.obj
 0001:00035fc0       __fh?TranslateRcDpt@@YAXPAUtagRECT@@0PAUtagSIZE@@@Z 10036fc0 f util.obj
 0001:00035fc2       ?TranslateRcDpt@@YAXPAUtagRECT@@0PAUtagSIZE@@@Z 10036fc2 f util.obj
 0001:00035fe4       __pcd_tbl_InflateRc        10036fe4 f util.obj
 0001:00035fe4       __nep_InflateRc            10036fe4 f util.obj
 0001:00035fec       __fh_InflateRc             10036fec f util.obj
 0001:00035fee       _InflateRc                 10036fee f util.obj
 0001:00036010       __pcd_tbl_FPtInRc          10037010 f util.obj
 0001:00036010       __nep_FPtInRc              10037010 f util.obj
 0001:00036018       __fh_FPtInRc               10037018 f util.obj
 0001:0003601a       _FPtInRc                   1003701a f util.obj
 0001:00036034       __pcd_tbl_FRcInRc          10037034 f util.obj
 0001:00036034       __nep_FRcInRc              10037034 f util.obj
 0001:0003603c       __fh_FRcInRc               1003703c f util.obj
 0001:0003603e       _FRcInRc                   1003703e f util.obj
 0001:00036058       __pcd_tbl_FUnionRcPt       10037058 f util.obj
 0001:00036060       __nep_FUnionRcPt           10037060 f util.obj
 0001:00036068       __fh_FUnionRcPt            10037068 f util.obj
 0001:0003606a       _FUnionRcPt                1003706a f util.obj
 0001:000360a0       __pcd_tbl_StretchRcAroundPt 100370a0 f util.obj
 0001:000360a4       __nep_StretchRcAroundPt    100370a4 f util.obj
 0001:000360ac       __fh_StretchRcAroundPt     100370ac f util.obj
 0001:000360ae       _StretchRcAroundPt         100370ae f util.obj
 0001:000360d4       __pcd_tbl_PatBltRc         100370d4 f util.obj
 0001:000360dc       __nep_PatBltRc             100370dc f util.obj
 0001:000360e4       __fh_PatBltRc              100370e4 f util.obj
 0001:000360e6       _PatBltRc                  100370e6 f util.obj
 0001:00036100       __nep_CenterPt             10037100 f util.obj
 0001:00036100       __pcd_tbl_CenterPt         10037100 f util.obj
 0001:00036108       __fh_CenterPt              10037108 f util.obj
 0001:0003610a       _CenterPt                  1003710a f util.obj
 0001:00036120       __pcd_tbl_CenterRc         10037120 f util.obj
 0001:00036128       __nep_CenterRc             10037128 f util.obj
 0001:00036130       __fh_CenterRc              10037130 f util.obj
 0001:00036132       _CenterRc                  10037132 f util.obj
 0001:00036148       __pcd_tbl?MapRotatePts@@YAXPAUtagPOINT@@HJW4MSOFLIP@@PBUtagRECT@@2@Z 10037148 f util.obj
 0001:00036150       __nep?MapRotatePts@@YAXPAUtagPOINT@@HJW4MSOFLIP@@PBUtagRECT@@2@Z 10037150 f util.obj
 0001:00036158       __fh?MapRotatePts@@YAXPAUtagPOINT@@HJW4MSOFLIP@@PBUtagRECT@@2@Z 10037158 f util.obj
 0001:0003615a       ?MapRotatePts@@YAXPAUtagPOINT@@HJW4MSOFLIP@@PBUtagRECT@@2@Z 1003715a f util.obj
 0001:00036198       __pcd_tbl_FHitTestPolygon  10037198 f util.obj
 0001:0003619c       __nep_FHitTestPolygon      1003719c f util.obj
 0001:000361a4       __fh_FHitTestPolygon       100371a4 f util.obj
 0001:000361a6       _FHitTestPolygon           100371a6 f util.obj
 0001:00036284       __pcd_tbl?SpinThreePoints@@YA?AW4SPIN@@JJJJJJH@Z 10037284 f util.obj
 0001:00036284       __nep?SpinThreePoints@@YA?AW4SPIN@@JJJJJJH@Z 10037284 f util.obj
 0001:0003628c       __fh?SpinThreePoints@@YA?AW4SPIN@@JJJJJJH@Z 1003728c f util.obj
 0001:0003628e       ?SpinThreePoints@@YA?AW4SPIN@@JJJJJJH@Z 1003728e f util.obj
 0001:000362e0       __nep_DSquaredLength       100372e0 f util.obj
 0001:000362e0       __pcd_tbl_DSquaredLength   100372e0 f util.obj
 0001:000362e8       __fh_DSquaredLength        100372e8 f util.obj
 0001:000362ea       _DSquaredLength            100372ea f util.obj
 0001:00036300       __pcd_tbl?DLength@@YANPAU_DPOINT@@@Z 10037300 f util.obj
 0001:00036308       __nep?DLength@@YANPAU_DPOINT@@@Z 10037308 f util.obj
 0001:00036310       __fh?DLength@@YANPAU_DPOINT@@@Z 10037310 f util.obj
 0001:00036312       ?DLength@@YANPAU_DPOINT@@@Z 10037312 f util.obj
 0001:0003631c       __nep_PdvctNegate          1003731c f util.obj
 0001:0003631c       __pcd_tbl_PdvctNegate      1003731c f util.obj
 0001:00036324       __fh_PdvctNegate           10037324 f util.obj
 0001:00036326       _PdvctNegate               10037326 f util.obj
 0001:00036340       __pcd_tbl_PdvctNormalize   10037340 f util.obj
 0001:00036344       __nep_PdvctNormalize       10037344 f util.obj
 0001:0003634c       __fh_PdvctNormalize        1003734c f util.obj
 0001:0003634e       _PdvctNormalize            1003734e f util.obj
 0001:0003637c       __pcd_tbl_PdvctScale       1003737c f util.obj
 0001:00036380       __nep_PdvctScale           10037380 f util.obj
 0001:00036388       __fh_PdvctScale            10037388 f util.obj
 0001:0003638d       _PdvctScale                1003738d f util.obj
 0001:000363c4       __nep_PdvctUnNormalScale   100373c4 f util.obj
 0001:000363c4       __pcd_tbl_PdvctUnNormalScale 100373c4 f util.obj
 0001:000363cc       __fh_PdvctUnNormalScale    100373cc f util.obj
 0001:000363d1       _PdvctUnNormalScale        100373d1 f util.obj
 0001:000363f0       __nep_PdvctAdd             100373f0 f util.obj
 0001:000363f0       __pcd_tbl_PdvctAdd         100373f0 f util.obj
 0001:000363f8       __fh_PdvctAdd              100373f8 f util.obj
 0001:000363fa       _PdvctAdd                  100373fa f util.obj
 0001:00036418       __pcd_tbl_PdvctSub         10037418 f util.obj
 0001:00036418       __nep_PdvctSub             10037418 f util.obj
 0001:00036420       __fh_PdvctSub              10037420 f util.obj
 0001:00036422       _PdvctSub                  10037422 f util.obj
 0001:00036440       __nep_DDot                 10037440 f util.obj
 0001:00036440       __pcd_tbl_DDot             10037440 f util.obj
 0001:00036448       __fh_DDot                  10037448 f util.obj
 0001:0003644a       _DDot                      1003744a f util.obj
 0001:00036460       __pcd_tbl_DDistanceBetween2Dpts 10037460 f util.obj
 0001:00036464       __nep_DDistanceBetween2Dpts 10037464 f util.obj
 0001:0003646c       __fh_DDistanceBetween2Dpts 1003746c f util.obj
 0001:0003646e       _DDistanceBetween2Dpts     1003746e f util.obj
 0001:000364a0       __pcd_tbl?SwapWz@@YAXPAG@Z 100374a0 f util.obj
 0001:000364a4       __nep?SwapWz@@YAXPAG@Z     100374a4 f util.obj
 0001:000364ac       __fh?SwapWz@@YAXPAG@Z      100374ac f util.obj
 0001:000364ae       ?SwapWz@@YAXPAG@Z          100374ae f util.obj
 0001:000364d0       __pcd_tbl_MsoFByteLoad     100374d0 f util.obj
 0001:000364d4       __nep_MsoFByteLoad         100374d4 f util.obj
 0001:000364dc       __fh_MsoFByteLoad          100374dc f util.obj
 0001:000364de       _MsoFByteLoad              100374de f util.obj
 0001:000364f8       __pcd_tbl_MsoFByteSave     100374f8 f util.obj
 0001:000364fc       __nep_MsoFByteSave         100374fc f util.obj
 0001:00036504       __fh_MsoFByteSave          10037504 f util.obj
 0001:00036506       _MsoFByteSave              10037506 f util.obj
 0001:00036520       __pcd_tbl_MsoFWordLoad     10037520 f util.obj
 0001:00036524       __nep_MsoFWordLoad         10037524 f util.obj
 0001:0003652c       __fh_MsoFWordLoad          1003752c f util.obj
 0001:0003652e       _MsoFWordLoad              1003752e f util.obj
 0001:00036554       __pcd_tbl_MsoFWordSave     10037554 f util.obj
 0001:00036558       __nep_MsoFWordSave         10037558 f util.obj
 0001:00036560       __fh_MsoFWordSave          10037560 f util.obj
 0001:00036562       _MsoFWordSave              10037562 f util.obj
 0001:00036588       __pcd_tbl_MsoFLongLoad     10037588 f util.obj
 0001:0003658c       __nep_MsoFLongLoad         1003758c f util.obj
 0001:00036594       __fh_MsoFLongLoad          10037594 f util.obj
 0001:00036596       _MsoFLongLoad              10037596 f util.obj
 0001:000365d0       __pcd_tbl_MsoFLongSave     100375d0 f util.obj
 0001:000365d4       __nep_MsoFLongSave         100375d4 f util.obj
 0001:000365dc       __fh_MsoFLongSave          100375dc f util.obj
 0001:000365de       _MsoFLongSave              100375de f util.obj
 0001:00036614       __pcd_tbl_MsoFWtzLoad      10037614 f util.obj
 0001:0003661c       __nep_MsoFWtzLoad          1003761c f util.obj
 0001:00036624       __fh_MsoFWtzLoad           10037624 f util.obj
 0001:00036626       _MsoFWtzLoad               10037626 f util.obj
 0001:0003665c       __pcd_tbl_MsoFWtzSave      1003765c f util.obj
 0001:00036664       __nep_MsoFWtzSave          10037664 f util.obj
 0001:0003666c       __fh_MsoFWtzSave           1003766c f util.obj
 0001:0003666e       _MsoFWtzSave               1003766e f util.obj
 0001:0003669c       __pcd_tbl_FLoadBytes       1003769c f util.obj
 0001:000366a0       __nep_FLoadBytes           100376a0 f util.obj
 0001:000366a8       __fh_FLoadBytes            100376a8 f util.obj
 0001:000366aa       _FLoadBytes                100376aa f util.obj
 0001:000366c4       __pcd_tbl_FLoadByte        100376c4 f util.obj
 0001:000366c8       __nep_FLoadByte            100376c8 f util.obj
 0001:000366d0       __fh_FLoadByte             100376d0 f util.obj
 0001:000366d2       _FLoadByte                 100376d2 f util.obj
 0001:000366d8       __pcd_tbl_FLoadShort       100376d8 f util.obj
 0001:000366dc       __nep_FLoadShort           100376dc f util.obj
 0001:000366e4       __fh_FLoadShort            100376e4 f util.obj
 0001:000366e6       _FLoadShort                100376e6 f util.obj
 0001:000366fc       __pcd_tbl_FLoadLong        100376fc f util.obj
 0001:00036700       __nep_FLoadLong            10037700 f util.obj
 0001:00036708       __fh_FLoadLong             10037708 f util.obj
 0001:0003670a       _FLoadLong                 1003770a f util.obj
 0001:00036734       __pcd_tbl_FLoadStruct      10037734 f util.obj
 0001:0003673c       __nep_FLoadStruct          1003773c f util.obj
 0001:00036744       __fh_FLoadStruct           10037744 f util.obj
 0001:00036746       _FLoadStruct               10037746 f util.obj
 0001:00036750       __pcd_tbl_FSaveBytes       10037750 f util.obj
 0001:00036754       __nep_FSaveBytes           10037754 f util.obj
 0001:0003675c       __fh_FSaveBytes            1003775c f util.obj
 0001:0003675e       _FSaveBytes                1003775e f util.obj
 0001:00036778       __pcd_tbl_FSaveByte        10037778 f util.obj
 0001:0003677c       __nep_FSaveByte            1003777c f util.obj
 0001:00036784       __fh_FSaveByte             10037784 f util.obj
 0001:00036786       _FSaveByte                 10037786 f util.obj
 0001:00036790       __pcd_tbl_FSaveShort       10037790 f util.obj
 0001:00036794       __nep_FSaveShort           10037794 f util.obj
 0001:0003679c       __fh_FSaveShort            1003779c f util.obj
 0001:0003679e       _FSaveShort                1003779e f util.obj
 0001:000367b4       __pcd_tbl_FSaveLong        100377b4 f util.obj
 0001:000367b8       __nep_FSaveLong            100377b8 f util.obj
 0001:000367c0       __fh_FSaveLong             100377c0 f util.obj
 0001:000367c2       _FSaveLong                 100377c2 f util.obj
 0001:000367e8       __pcd_tbl_FSaveStruct      100377e8 f util.obj
 0001:000367f0       __nep_FSaveStruct          100377f0 f util.obj
 0001:000367f8       __fh_FSaveStruct           100377f8 f util.obj
 0001:000367fa       _FSaveStruct               100377fa f util.obj
 0001:00036808       __pcd_tbl??0SET@@QAA@PADPAGJJH@Z 10037808 f util.obj
 0001:00036808       __nep??0SET@@QAA@PADPAGJJH@Z 10037808 f util.obj
 0001:00036810       __fh??0SET@@QAA@PADPAGJJH@Z 10037810 f util.obj
 0001:00036812       ??0SET@@QAA@PADPAGJJH@Z    10037812 f util.obj
 0001:00036830       __pcd_tbl??1SET@@QAA@XZ    10037830 f util.obj
 0001:00036838       __nep??1SET@@QAA@XZ        10037838 f util.obj
 0001:00036840       __fh??1SET@@QAA@XZ         10037840 f util.obj
 0001:00036842       ??1SET@@QAA@XZ             10037842 f util.obj
 0001:00036854       __pcd_tbl?FDebugMessage@SET@@UAAHPAUMSOINST@@IIJ@Z 10037854 f util.obj
 0001:00036854       __nep?FDebugMessage@SET@@UAAHPAUMSOINST@@IIJ@Z 10037854 f util.obj
 0001:0003685c       __fh?FDebugMessage@SET@@UAAHPAUMSOINST@@IIJ@Z 1003785c f util.obj
 0001:0003685e       ?FDebugMessage@SET@@UAAHPAUMSOINST@@IIJ@Z 1003785e f util.obj
 0001:00036860       __pcd_tbl?_FWriteProfilePbCb@SET@@AAAHPBG0PAEHHJJ@Z 10037860 f util.obj
 0001:000368a0       __nep?_FWriteProfilePbCb@SET@@AAAHPBG0PAEHHJJ@Z 100378a0 f util.obj
 0001:000368a8       __fh?_FWriteProfilePbCb@SET@@AAAHPBG0PAEHHJJ@Z 100378a8 f util.obj
 0001:000368ab       ?_FWriteProfilePbCb@SET@@AAAHPBG0PAEHHJJ@Z 100378ab f util.obj
 0001:000369a0       __pcd_tbl?FQueryProfileAlias@SET@@UAAHPAPAPAUAliasRecord@@H@Z 100379a0 f util.obj
 0001:000369b4       __nep?FQueryProfileAlias@SET@@UAAHPAPAPAUAliasRecord@@H@Z 100379b4 f util.obj
 0001:000369bc       __fh?FQueryProfileAlias@SET@@UAAHPAPAPAUAliasRecord@@H@Z 100379bc f util.obj
 0001:000369be       ?FQueryProfileAlias@SET@@UAAHPAPAPAUAliasRecord@@H@Z 100379be f util.obj
 0001:000369e4       __pcd_tbl?FWriteProfileAlias@SET@@UAAHPAPAUAliasRecord@@H@Z 100379e4 f util.obj
 0001:00036a04       __nep?FWriteProfileAlias@SET@@UAAHPAPAUAliasRecord@@H@Z 10037a04 f util.obj
 0001:00036a0c       __fh?FWriteProfileAlias@SET@@UAAHPAPAUAliasRecord@@H@Z 10037a0c f util.obj
 0001:00036a0e       ?FWriteProfileAlias@SET@@UAAHPAPAUAliasRecord@@H@Z 10037a0e f util.obj
 0001:00036a40       __pcd_tbl?FDelProfileSection@SET@@UAAHPBG@Z 10037a40 f util.obj
 0001:00036a44       __nep?FDelProfileSection@SET@@UAAHPBG@Z 10037a44 f util.obj
 0001:00036a4c       __fh?FDelProfileSection@SET@@UAAHPBG@Z 10037a4c f util.obj
 0001:00036a4e       ?FDelProfileSection@SET@@UAAHPBG@Z 10037a4e f util.obj
 0001:00036a80       __pcd_tbl?_FDelProfileSectionType@SET@@AAAHPBGJJ@Z 10037a80 f util.obj
 0001:00036aac       __nep?_FDelProfileSectionType@SET@@AAAHPBGJJ@Z 10037aac f util.obj
 0001:00036ab4       __fh?_FDelProfileSectionType@SET@@AAAHPBGJJ@Z 10037ab4 f util.obj
 0001:00036ab7       ?_FDelProfileSectionType@SET@@AAAHPBGJJ@Z 10037ab7 f util.obj
 0001:00036b08       __pcd_tbl?CbQueryProfileItemIndex@SET@@UAAHPBGHPAGHPAEHPAHH@Z 10037b08 f util.obj
 0001:00036b34       __nep?CbQueryProfileItemIndex@SET@@UAAHPBGHPAGHPAEHPAHH@Z 10037b34 f util.obj
 0001:00036b3c       __fh?CbQueryProfileItemIndex@SET@@UAAHPBGHPAGHPAEHPAHH@Z 10037b3c f util.obj
 0001:00036b3f       ?CbQueryProfileItemIndex@SET@@UAAHPBGHPAGHPAEHPAHH@Z 10037b3f f util.obj
 0001:00036be4       __pcd_tbl?WdefProcIDHook@@YAJHIJ@Z 10037be4 f util.obj
 0001:00036be4       __nep?WdefProcIDHook@@YAJHIJ@Z 10037be4 f util.obj
 0001:00036bec       __fh?WdefProcIDHook@@YAJHIJ@Z 10037bec f util.obj
 0001:00036bee       ?WdefProcIDHook@@YAJHIJ@Z  10037bee f util.obj
 0001:00036bf4       __pcd_tbl?InstallWdefProcID@@YAXH@Z 10037bf4 f util.obj
 0001:00036c00       __nep?InstallWdefProcID@@YAXH@Z 10037c00 f util.obj
 0001:00036c08       __fh?InstallWdefProcID@@YAXH@Z 10037c08 f util.obj
 0001:00036c0a       ?InstallWdefProcID@@YAXH@Z 10037c0a f util.obj
 0001:00036c24       __pcd_tbl?GetWtz255@@YAXPBGPAG@Z 10037c24 f util.obj
 0001:00036c28       __nep?GetWtz255@@YAXPBGPAG@Z 10037c28 f util.obj
 0001:00036c30       __fh?GetWtz255@@YAXPBGPAG@Z 10037c30 f util.obj
 0001:00036c32       ?GetWtz255@@YAXPBGPAG@Z    10037c32 f util.obj
 0001:00036c44       __pcd_tbl?FComponentInState@@YAHK@Z 10037c44 f util.obj
 0001:00036c48       __nep?FComponentInState@@YAHK@Z 10037c48 f util.obj
 0001:00036c50       __fh?FComponentInState@@YAHK@Z 10037c50 f util.obj
 0001:00036c52       ?FComponentInState@@YAHK@Z 10037c52 f util.obj
 0001:00036c70       __pcd_tbl?ComponentAlertIds@@YAHPAUHINSTANCE__@@HH@Z 10037c70 f util.obj
 0001:00036c78       __nep?ComponentAlertIds@@YAHPAUHINSTANCE__@@HH@Z 10037c78 f util.obj
 0001:00036c80       __fh?ComponentAlertIds@@YAHPAUHINSTANCE__@@HH@Z 10037c80 f util.obj
 0001:00036c82       ?ComponentAlertIds@@YAHPAUHINSTANCE__@@HH@Z 10037c82 f util.obj
 0001:00036c8c       __pcd_tbl?ComponentAlertWtz@@YAHPAGH@Z 10037c8c f util.obj
 0001:00036c94       __nep?ComponentAlertWtz@@YAHPAGH@Z 10037c94 f util.obj
 0001:00036c9c       __fh?ComponentAlertWtz@@YAHPAGH@Z 10037c9c f util.obj
 0001:00036c9e       ?ComponentAlertWtz@@YAHPAGH@Z 10037c9e f util.obj
 0001:00036ca8       __pcd_tbl?FGetVBARecorder@@YAHPAPAUIMsoSimpleRecorder@@@Z 10037ca8 f util.obj
 0001:00036cac       __nep?FGetVBARecorder@@YAHPAPAUIMsoSimpleRecorder@@@Z 10037cac f util.obj
 0001:00036cb4       __fh?FGetVBARecorder@@YAHPAPAUIMsoSimpleRecorder@@@Z 10037cb4 f util.obj
 0001:00036cb6       ?FGetVBARecorder@@YAHPAPAUIMsoSimpleRecorder@@@Z 10037cb6 f util.obj
 0001:00036cf4       __pcd_tbl_PvSwapStruct     10037cf4 f util.obj
 0001:00036cf4       __nep_PvSwapStruct         10037cf4 f util.obj
 0001:00036cfc       __fh_PvSwapStruct          10037cfc f util.obj
 0001:00036cfe       _PvSwapStruct              10037cfe f util.obj
 0001:00036d4c       __nep_SwapDouble           10037d4c f util.obj
 0001:00036d4c       __pcd_tbl_SwapDouble       10037d4c f util.obj
 0001:00036d54       __fh_SwapDouble            10037d54 f util.obj
 0001:00036d56       _SwapDouble                10037d56 f util.obj
 0001:00036dac       __pcd_tbl_FLoadComctl32Lib 10037dac f util.obj
 0001:00036db8       __nep_FLoadComctl32Lib     10037db8 f util.obj
 0001:00036dc0       __fh_FLoadComctl32Lib      10037dc0 f util.obj
 0001:00036dc2       _FLoadComctl32Lib          10037dc2 f util.obj
 0001:00036de0       __pcd_tbl_FreeComctl32Lib  10037de0 f util.obj
 0001:00036de4       __nep_FreeComctl32Lib      10037de4 f util.obj
 0001:00036dec       __fh_FreeComctl32Lib       10037dec f util.obj
 0001:00036dee       _FreeComctl32Lib           10037dee f util.obj
 0001:00036e00       __pcd_tbl_MsoFGetColorString 10037e00 f util.obj
 0001:00036e04       __nep_MsoFGetColorString   10037e04 f util.obj
 0001:00036e0c       __fh_MsoFGetColorString    10037e0c f util.obj
 0001:00036e0e       _MsoFGetColorString        10037e0e f util.obj
 0001:00036e44       __pcd_tbl_MsoFGetSplitMenuColorString 10037e44 f util.obj
 0001:00036e50       __nep_MsoFGetSplitMenuColorString 10037e50 f util.obj
 0001:00036e58       __fh_MsoFGetSplitMenuColorString 10037e58 f util.obj
 0001:00036e5b       _MsoFGetSplitMenuColorString 10037e5b f util.obj
 0001:00036ea0       __pcd_tbl?MacSendMSOMessage@@YAXPAUNSTI@@IJ@Z 10037ea0 f util.obj
 0001:00036eb4       __nep?MacSendMSOMessage@@YAXPAUNSTI@@IJ@Z 10037eb4 f util.obj
 0001:00036ebc       __fh?MacSendMSOMessage@@YAXPAUNSTI@@IJ@Z 10037ebc f util.obj
 0001:00036ebe       ?MacSendMSOMessage@@YAXPAUNSTI@@IJ@Z 10037ebe f util.obj
 0001:00036f04       __pcd_tbl?Sort@@YAXPAHHP6AHHH@Z@Z 10037f04 f util.obj
 0001:00036f08       __nep?Sort@@YAXPAHHP6AHHH@Z@Z 10037f08 f util.obj
 0001:00036f10       __fh?Sort@@YAXPAHHP6AHHH@Z@Z 10037f10 f util.obj
 0001:00036f12       ?Sort@@YAXPAHHP6AHHH@Z@Z   10037f12 f util.obj
 0001:00036fac       __pcd_tbl_SortLongs        10037fac f util.obj
 0001:00036fb0       __nep_SortLongs            10037fb0 f util.obj
 0001:00036fb8       __fh_SortLongs             10037fb8 f util.obj
 0001:00036fba       _SortLongs                 10037fba f util.obj
 0001:00037058       __pcd_tbl_MsoFEnsureOleInited 10038058 f util.obj
 0001:00037060       __nep_MsoFEnsureOleInited  10038060 f util.obj
 0001:00037068       __fh_MsoFEnsureOleInited   10038068 f util.obj
 0001:0003706a       _MsoFEnsureOleInited       1003806a f util.obj
 0001:000370a0       __pcd_tbl?HbrDithered@@YAPAUHBRUSH__@@XZ 100380a0 f util.obj
 0001:000370a0       __nep?HbrDithered@@YAPAUHBRUSH__@@XZ 100380a0 f util.obj
 0001:000370a8       __fh?HbrDithered@@YAPAUHBRUSH__@@XZ 100380a8 f util.obj
 0001:000370aa       ?HbrDithered@@YAPAUHBRUSH__@@XZ 100380aa f util.obj
 0001:000370ac       __pcd_tbl_MsoUpdateDragRc  100380ac f util.obj
 0001:00037100       __nep_MsoUpdateDragRc      10038100 f util.obj
 0001:00037108       __fh_MsoUpdateDragRc       10038108 f util.obj
 0001:0003710b       _MsoUpdateDragRc           1003810b f util.obj
 0001:0003721c       __pcd_tbl?MsoFXorDragRcIntoRgn@@YAHPAUHRGN__@@PAUtagRECT@@JJ@Z 1003821c f util.obj
 0001:00037234       __nep?MsoFXorDragRcIntoRgn@@YAHPAUHRGN__@@PAUtagRECT@@JJ@Z 10038234 f util.obj
 0001:0003723c       __fh?MsoFXorDragRcIntoRgn@@YAHPAUHRGN__@@PAUtagRECT@@JJ@Z 1003823c f util.obj
 0001:0003723e       ?MsoFXorDragRcIntoRgn@@YAHPAUHRGN__@@PAUtagRECT@@JJ@Z 1003823e f util.obj
 0001:0003727c       __pcd_tbl?MsoXorDragRc@@YAXPAUHDC__@@PAUtagRECT@@JJK@Z 1003827c f util.obj
 0001:00037284       __nep?MsoXorDragRc@@YAXPAUHDC__@@PAUtagRECT@@JJK@Z 10038284 f util.obj
 0001:0003728c       __fh?MsoXorDragRc@@YAXPAUHDC__@@PAUtagRECT@@JJK@Z 1003828c f util.obj
 0001:0003728e       ?MsoXorDragRc@@YAXPAUHDC__@@PAUtagRECT@@JJK@Z 1003828e f util.obj
 0001:000372e8       __pcd_tbl_PatBltRect       100382e8 f util.obj
 0001:000372f0       __nep_PatBltRect           100382f0 f util.obj
 0001:000372f8       __fh_PatBltRect            100382f8 f util.obj
 0001:000372fa       _PatBltRect                100382fa f util.obj
 0001:00037314       __nep_ISqrt                10038314 f util.obj
 0001:00037314       __pcd_tbl_ISqrt            10038314 f util.obj
 0001:0003731c       __fh_ISqrt                 1003831c f util.obj
 0001:0003731e       _ISqrt                     1003831e f util.obj
 0001:00037398       __pcd_tbl?InstallMacMenuProcs@@YAXXZ 10038398 f util.obj
 0001:000373b0       __nep?InstallMacMenuProcs@@YAXXZ 100383b0 f util.obj
 0001:000373b8       __fh?InstallMacMenuProcs@@YAXXZ 100383b8 f util.obj
 0001:000373bb       ?InstallMacMenuProcs@@YAXXZ 100383bb f util.obj
 0001:000373f8       __nep?UseCustomMenuSetup@@YAJHIJ@Z 100383f8 f util.obj
 0001:000373f8       __pcd_tbl?UseCustomMenuSetup@@YAJHIJ@Z 100383f8 f util.obj
 0001:00037400       __fh?UseCustomMenuSetup@@YAJHIJ@Z 10038400 f util.obj
 0001:00037402       ?UseCustomMenuSetup@@YAJHIJ@Z 10038402 f util.obj
 0001:00037404       __pcd_tbl?SetupMenu@@YAJHIJ@Z 10038404 f util.obj
 0001:0003740c       __nep?SetupMenu@@YAJHIJ@Z  1003840c f util.obj
 0001:00037414       __fh?SetupMenu@@YAJHIJ@Z   10038414 f util.obj
 0001:00037416       ?SetupMenu@@YAJHIJ@Z       10038416 f util.obj
 0001:0003742c       __pcd_tbl?PatchStdText@@YAXPAUHWND__@@@Z 1003842c f util.obj
 0001:00037440       __nep?PatchStdText@@YAXPAUHWND__@@@Z 10038440 f util.obj
 0001:00037448       __fh?PatchStdText@@YAXPAUHWND__@@@Z 10038448 f util.obj
 0001:0003744a       ?PatchStdText@@YAXPAUHWND__@@@Z 1003844a f util.obj
 0001:00037470       __pcd_tbl?StdTextPatch@@YAXFPBXUPoint@@1@Z 10038470 f util.obj
 0001:0003747c       __nep?StdTextPatch@@YAXFPBXUPoint@@1@Z 1003847c f util.obj
 0001:00037484       __fh?StdTextPatch@@YAXFPBXUPoint@@1@Z 10038484 f util.obj
 0001:00037486       ?StdTextPatch@@YAXFPBXUPoint@@1@Z 10038486 f util.obj
 0001:000374b8       __pcd_tbl?SetStdTextState@@YAXH@Z 100384b8 f util.obj
 0001:000374b8       __nep?SetStdTextState@@YAXH@Z 100384b8 f util.obj
 0001:000374c0       __fh?SetStdTextState@@YAXH@Z 100384c0 f util.obj
 0001:000374c2       ?SetStdTextState@@YAXH@Z   100384c2 f util.obj
 0001:000374c8       __nep_ConvertRecToRc       100384c8 f util.obj
 0001:000374c8       __pcd_tbl_ConvertRecToRc   100384c8 f util.obj
 0001:000374d0       __fh_ConvertRecToRc        100384d0 f util.obj
 0001:000374d2       _ConvertRecToRc            100384d2 f util.obj
 0001:000374ec       __pcd_tbl_HwndGetDlgWindow 100384ec f util.obj
 0001:000374f8       __nep_HwndGetDlgWindow     100384f8 f util.obj
 0001:00037500       __fh_HwndGetDlgWindow      10038500 f util.obj
 0001:00037502       _HwndGetDlgWindow          10038502 f util.obj
 0001:00037508       __pcd_tbl?MsoFSendMsoMessageToAllInstances@@YAHHH@Z 10038508 f util.obj
 0001:00037514       __nep?MsoFSendMsoMessageToAllInstances@@YAHHH@Z 10038514 f util.obj
 0001:0003751c       __fh?MsoFSendMsoMessageToAllInstances@@YAHHH@Z 1003851c f util.obj
 0001:0003751e       ?MsoFSendMsoMessageToAllInstances@@YAHHH@Z 1003851e f util.obj
 0001:00037544       __pcd_tbl_MsoFGetTooltips  10038544 f util.obj
 0001:00037548       __nep_MsoFGetTooltips      10038548 f util.obj
 0001:00037550       __fh_MsoFGetTooltips       10038550 f util.obj
 0001:00037552       _MsoFGetTooltips           10038552 f util.obj
 0001:0003756c       __pcd_tbl_HwndGetWindowWrapper 1003856c f util.obj
 0001:00037578       __nep_HwndGetWindowWrapper 10038578 f util.obj
 0001:00037580       __fh_HwndGetWindowWrapper  10038580 f util.obj
 0001:00037582       _HwndGetWindowWrapper      10038582 f util.obj
 0001:000375c0       __pcd_tbl_HwndWrapDialog   100385c0 f util.obj
 0001:000375cc       __nep_HwndWrapDialog       100385cc f util.obj
 0001:000375d4       __fh_HwndWrapDialog        100385d4 f util.obj
 0001:000375d6       _HwndWrapDialog            100385d6 f util.obj
 0001:00037610       __pcd_tbl?WrappedWndProc@@YAJPAUHWND__@@IIJ@Z 10038610 f util.obj
 0001:00037614       __nep?WrappedWndProc@@YAJPAUHWND__@@IIJ@Z 10038614 f util.obj
 0001:0003761c       __fh?WrappedWndProc@@YAJPAUHWND__@@IIJ@Z 1003861c f util.obj
 0001:0003761e       ?WrappedWndProc@@YAJPAUHWND__@@IIJ@Z 1003861e f util.obj
 0001:00037634       __pcd_tbl?WrapDialogWndProc@@YAJPAUHWND__@@IIJ@Z 10038634 f util.obj
 0001:00037638       __nep?WrapDialogWndProc@@YAJPAUHWND__@@IIJ@Z 10038638 f util.obj
 0001:00037640       __fh?WrapDialogWndProc@@YAJPAUHWND__@@IIJ@Z 10038640 f util.obj
 0001:00037642       ?WrapDialogWndProc@@YAJPAUHWND__@@IIJ@Z 10038642 f util.obj
 0001:00037648       __pcd_tbl_HdlgFromHwndWrapper 10038648 f util.obj
 0001:00037650       __nep_HdlgFromHwndWrapper  10038650 f util.obj
 0001:00037658       __fh_HdlgFromHwndWrapper   10038658 f util.obj
 0001:0003765a       _HdlgFromHwndWrapper       1003865a f util.obj
 0001:00037660       __pcd_tbl_FtmeIsSdmWlmMsg  10038660 f util.obj
 0001:000376bc       __nep_FtmeIsSdmWlmMsg      100386bc f util.obj
 0001:000376c4       __fh_FtmeIsSdmWlmMsg       100386c4 f util.obj
 0001:000376c7       _FtmeIsSdmWlmMsg           100386c7 f util.obj
 0001:000377b8       __pcd_tbl?FDoubleClickEx@@YAHPAUHWND__@@JI@Z 100387b8 f util.obj
 0001:000377d4       __nep?FDoubleClickEx@@YAHPAUHWND__@@JI@Z 100387d4 f util.obj
 0001:000377dc       __fh?FDoubleClickEx@@YAHPAUHWND__@@JI@Z 100387dc f util.obj
 0001:000377de       ?FDoubleClickEx@@YAHPAUHWND__@@JI@Z 100387de f util.obj
 0001:00037840       __nep?ResetDoubleClick@@YAXXZ 10038840 f util.obj
 0001:00037840       __pcd_tbl?ResetDoubleClick@@YAXXZ 10038840 f util.obj
 0001:00037848       __fh?ResetDoubleClick@@YAXXZ 10038848 f util.obj
 0001:0003784a       ?ResetDoubleClick@@YAXXZ   1003884a f util.obj
 0001:00037858       __pcd_tbl?MsoGetDlgItemText@@YAIPAUHWND__@@HPAGHH@Z 10038858 f util.obj
 0001:00037864       __nep?MsoGetDlgItemText@@YAIPAUHWND__@@HPAGHH@Z 10038864 f util.obj
 0001:0003786c       __fh?MsoGetDlgItemText@@YAIPAUHWND__@@HPAGHH@Z 1003886c f util.obj
 0001:0003786e       ?MsoGetDlgItemText@@YAIPAUHWND__@@HPAGHH@Z 1003886e f util.obj
 0001:0003787c       __pcd_tbl?MsoSetDlgItemText@@YAIPAUHWND__@@HPAGH@Z 1003887c f util.obj
 0001:0003788c       __nep?MsoSetDlgItemText@@YAIPAUHWND__@@HPAGH@Z 1003888c f util.obj
 0001:00037894       __fh?MsoSetDlgItemText@@YAIPAUHWND__@@HPAGH@Z 10038894 f util.obj
 0001:00037896       ?MsoSetDlgItemText@@YAIPAUHWND__@@HPAGH@Z 10038896 f util.obj
 0001:000378a8       __pcd_tbl?MsoSetDefPropDlgButton@@YAXPAUHWND__@@HH@Z 100388a8 f util.obj
 0001:000378b8       __nep?MsoSetDefPropDlgButton@@YAXPAUHWND__@@HH@Z 100388b8 f util.obj
 0001:000378c0       __fh?MsoSetDefPropDlgButton@@YAXPAUHWND__@@HH@Z 100388c0 f util.obj
 0001:000378c2       ?MsoSetDefPropDlgButton@@YAXPAUHWND__@@HH@Z 100388c2 f util.obj
 0001:00037904       __pcd_tbl_MsoZoomRect      10038904 f util.obj
 0001:0003791c       __nep_MsoZoomRect          1003891c f util.obj
 0001:00037924       __fh_MsoZoomRect           10038924 f util.obj
 0001:00037927       _MsoZoomRect               10038927 f util.obj
 0001:00037c24       __pcd_tbl?FApproxEqRect@@YAHPAUtagRECT@@0I@Z 10038c24 f util.obj
 0001:00037c28       __nep?FApproxEqRect@@YAHPAUtagRECT@@0I@Z 10038c28 f util.obj
 0001:00037c30       __fh?FApproxEqRect@@YAHPAUtagRECT@@0I@Z 10038c30 f util.obj
 0001:00037c32       ?FApproxEqRect@@YAHPAUtagRECT@@0I@Z 10038c32 f util.obj
 0001:00037c54       __pcd_tbl?FApproxEq@@YAHHHI@Z 10038c54 f util.obj
 0001:00037c54       __nep?FApproxEq@@YAHHHI@Z  10038c54 f util.obj
 0001:00037c5c       __fh?FApproxEq@@YAHHHI@Z   10038c5c f util.obj
 0001:00037c5e       ?FApproxEq@@YAHHHI@Z       10038c5e f util.obj
 0001:00037c74       __pcd_tbl?FDebugMessage@CS@@UAAHPAUMSOINST@@IIJ@Z 10038c74 f util.obj
 0001:00037c74       __nep?FDebugMessage@CS@@UAAHPAUMSOINST@@IIJ@Z 10038c74 f util.obj
 0001:00037c7c       __fh?FDebugMessage@CS@@UAAHPAUMSOINST@@IIJ@Z 10038c7c f util.obj
 0001:00037c7e       ?FDebugMessage@CS@@UAAHPAUMSOINST@@IIJ@Z 10038c7e f util.obj
 0001:00037c80       __pcd_tbl?Free@CS@@UAAXXZ  10038c80 f util.obj
 0001:00037c84       __nep?Free@CS@@UAAXXZ      10038c84 f util.obj
 0001:00037c8c       __fh?Free@CS@@UAAXXZ       10038c8c f util.obj
 0001:00037c8e       ?Free@CS@@UAAXXZ           10038c8e f util.obj
 0001:00037c9c       __pcd_tbl?Reset@CS@@UAAXK@Z 10038c9c f util.obj
 0001:00037cac       __nep?Reset@CS@@UAAXK@Z    10038cac f util.obj
 0001:00037cb4       __fh?Reset@CS@@UAAXK@Z     10038cb4 f util.obj
 0001:00037cb7       ?Reset@CS@@UAAXK@Z         10038cb7 f util.obj
 0001:00037cf0       __pcd_tbl?Crypt@CS@@UAAXPAEHPAH@Z 10038cf0 f util.obj
 0001:00037cf4       __nep?Crypt@CS@@UAAXPAEHPAH@Z 10038cf4 f util.obj
 0001:00037cfc       __fh?Crypt@CS@@UAAXPAEHPAH@Z 10038cfc f util.obj
 0001:00037cfe       ?Crypt@CS@@UAAXPAEHPAH@Z   10038cfe f util.obj
 0001:00037d0c       __nep?CbBlock@CS@@UAAHXZ   10038d0c f util.obj
 0001:00037d0c       __pcd_tbl?CbBlock@CS@@UAAHXZ 10038d0c f util.obj
 0001:00037d14       __fh?CbBlock@CS@@UAAHXZ    10038d14 f util.obj
 0001:00037d16       ?CbBlock@CS@@UAAHXZ        10038d16 f util.obj
 0001:00037d18       __pcd_tbl?FClone@CS@@UAAHPAPAUIMsoCryptSession@@@Z 10038d18 f util.obj
 0001:00037d1c       __nep?FClone@CS@@UAAHPAPAUIMsoCryptSession@@@Z 10038d1c f util.obj
 0001:00037d24       __fh?FClone@CS@@UAAHPAPAUIMsoCryptSession@@@Z 10038d24 f util.obj
 0001:00037d26       ?FClone@CS@@UAAHPAPAUIMsoCryptSession@@@Z 10038d26 f util.obj
 0001:00037d68       __pcd_tbl?FSetPass@CS@@UAAHPBG@Z 10038d68 f util.obj
 0001:00037d7c       __nep?FSetPass@CS@@UAAHPBG@Z 10038d7c f util.obj
 0001:00037d84       __fh?FSetPass@CS@@UAAHPBG@Z 10038d84 f util.obj
 0001:00037d87       ?FSetPass@CS@@UAAHPBG@Z    10038d87 f util.obj
 0001:00037df8       __pcd_tbl?FSave@CS@@UAAHPAUIStream@@@Z 10038df8 f util.obj
 0001:00037e0c       __nep?FSave@CS@@UAAHPAUIStream@@@Z 10038e0c f util.obj
 0001:00037e14       __fh?FSave@CS@@UAAHPAUIStream@@@Z 10038e14 f util.obj
 0001:00037e17       ?FSave@CS@@UAAHPAUIStream@@@Z 10038e17 f util.obj
 0001:00037e64       __pcd_tbl?FLoad@CS@@QAAHPBGPAUIStream@@@Z 10038e64 f util.obj
 0001:00037e7c       __nep?FLoad@CS@@QAAHPBGPAUIStream@@@Z 10038e7c f util.obj
 0001:00037e84       __fh?FLoad@CS@@QAAHPBGPAUIStream@@@Z 10038e84 f util.obj
 0001:00037e87       ?FLoad@CS@@QAAHPBGPAUIStream@@@Z 10038e87 f util.obj
 0001:00037ef8       __pcd_tbl_MsoFCreateCryptSession 10038ef8 f util.obj
 0001:00037f00       __nep_MsoFCreateCryptSession 10038f00 f util.obj
 0001:00037f08       __fh_MsoFCreateCryptSession 10038f08 f util.obj
 0001:00037f0a       _MsoFCreateCryptSession    10038f0a f util.obj
 0001:00037f34       __pcd_tbl_MsoFLoadCryptSession 10038f34 f util.obj
 0001:00037f40       __nep_MsoFLoadCryptSession 10038f40 f util.obj
 0001:00037f48       __fh_MsoFLoadCryptSession  10038f48 f util.obj
 0001:00037f4a       _MsoFLoadCryptSession      10038f4a f util.obj
 0001:00037f84       __pcd_tbl_MsoFSetFrontTitle 10038f84 f util.obj
 0001:00037f9c       __nep_MsoFSetFrontTitle    10038f9c f util.obj
 0001:00037fa4       __fh_MsoFSetFrontTitle     10038fa4 f util.obj
 0001:00037fa6       _MsoFSetFrontTitle         10038fa6 f util.obj
 0001:00037fec       __pcd_tbl_MsoRemvoveFrontTitle 10038fec f util.obj
 0001:00037ff0       __nep_MsoRemvoveFrontTitle 10038ff0 f util.obj
 0001:00037ff8       __fh_MsoRemvoveFrontTitle  10038ff8 f util.obj
 0001:00037ffa       _MsoRemvoveFrontTitle      10038ffa f util.obj
 0001:00038000       __pcd_tbl_MsoDrawText      10039000 f util.obj
 0001:00038008       __nep_MsoDrawText          10039008 f util.obj
 0001:00038010       __fh_MsoDrawText           10039010 f util.obj
 0001:00038012       _MsoDrawText               10039012 f util.obj
 0001:00038070       __pcd_tbl_MsoFEncrypt      10039070 f util.obj
 0001:00038074       __nep_MsoFEncrypt          10039074 f util.obj
 0001:0003807c       __fh_MsoFEncrypt           1003907c f util.obj
 0001:0003807e       _MsoFEncrypt               1003907e f util.obj
 0001:00038090       __pcd_tbl?DoAnimationFrame@@YAXXZ 10039090 f util.obj
 0001:0003809c       __nep?DoAnimationFrame@@YAXXZ 1003909c f util.obj
 0001:000380a4       __fh?DoAnimationFrame@@YAXXZ 100390a4 f util.obj
 0001:000380a6       ?DoAnimationFrame@@YAXXZ   100390a6 f util.obj
 0001:000380d8       __pcd_tbl?Macmkdir@@YAHPBD@Z 100390d8 f util.obj
 0001:000380e4       __nep?Macmkdir@@YAHPBD@Z   100390e4 f util.obj
 0001:000380ec       __fh?Macmkdir@@YAHPBD@Z    100390ec f util.obj
 0001:000380ef       ?Macmkdir@@YAHPBD@Z        100390ef f util.obj
 0001:0003810c       __pcd_tbl_MsoFGetCursorLocation 1003910c f util.obj
 0001:0003810c       __nep_MsoFGetCursorLocation 1003910c f util.obj
 0001:00038114       __fh_MsoFGetCursorLocation 10039114 f util.obj
 0001:00038116       _MsoFGetCursorLocation     10039116 f util.obj
 0001:00038118       __nep?RectToRECT@@YAXPBURect@@PAUtagRECT@@@Z 10039118 f util.obj
 0001:00038118       __pcd_tbl?RectToRECT@@YAXPBURect@@PAUtagRECT@@@Z 10039118 f util.obj
 0001:00038120       __fh?RectToRECT@@YAXPBURect@@PAUtagRECT@@@Z 10039120 f util.obj
 0001:00038122       ?RectToRECT@@YAXPBURect@@PAUtagRECT@@@Z 10039122 f util.obj
 0001:00038138       __pcd_tbl?RECTtoRect@@YAXPBUtagRECT@@PAURect@@@Z 10039138 f util.obj
 0001:00038138       __nep?RECTtoRect@@YAXPBUtagRECT@@PAURect@@@Z 10039138 f util.obj
 0001:00038140       __fh?RECTtoRect@@YAXPBUtagRECT@@PAURect@@@Z 10039140 f util.obj
 0001:00038142       ?RECTtoRect@@YAXPBUtagRECT@@PAURect@@@Z 10039142 f util.obj
 0001:0003817c       __nep?FDebugMessage@TBCUBASE@@UAAHPAUMSOINST@@IIJ@Z 1003917c f tb.obj
 0001:0003817c       __pcd_tbl?FDebugMessage@TBCUBASE@@UAAHPAUMSOINST@@IIJ@Z 1003917c f tb.obj
 0001:00038184       __fh?FDebugMessage@TBCUBASE@@UAAHPAUMSOINST@@IIJ@Z 10039184 f tb.obj
 0001:00038186       ?FDebugMessage@TBCUBASE@@UAAHPAUMSOINST@@IIJ@Z 10039186 f tb.obj
 0001:00038188       __pcd_tbl?FCloneUserClient@TBCUBASE@@UAAHPAUIMsoControl@@PAXPAPAXPAPAUIMsoControlUser@@@Z 10039188 f tb.obj
 0001:00038188       __nep?FCloneUserClient@TBCUBASE@@UAAHPAUIMsoControl@@PAXPAPAXPAPAUIMsoControlUser@@@Z 10039188 f tb.obj
 0001:00038190       __fh?FCloneUserClient@TBCUBASE@@UAAHPAUIMsoControl@@PAXPAPAXPAPAUIMsoControlUser@@@Z 10039190 f tb.obj
 0001:00038192       ?FCloneUserClient@TBCUBASE@@UAAHPAUIMsoControl@@PAXPAPAXPAPAUIMsoControlUser@@@Z 10039192 f tb.obj
 0001:00038198       __pcd_tbl?NotifyDelete@TBCUBASE@@UAAXPAUIMsoControl@@PAPAX@Z 10039198 f tb.obj
 0001:00038198       __nep?NotifyDelete@TBCUBASE@@UAAXPAUIMsoControl@@PAPAX@Z 10039198 f tb.obj
 0001:000381a0       __fh?NotifyDelete@TBCUBASE@@UAAXPAUIMsoControl@@PAPAX@Z 100391a0 f tb.obj
 0001:000381a2       ?NotifyDelete@TBCUBASE@@UAAXPAUIMsoControl@@PAPAX@Z 100391a2 f tb.obj
 0001:000381a4       __nep?FSaveUserData@TBCUBASE@@UAAHPAUIMsoControl@@PAPAXPAUIStream@@@Z 100391a4 f tb.obj
 0001:000381a4       __pcd_tbl?FSaveUserData@TBCUBASE@@UAAHPAUIMsoControl@@PAPAXPAUIStream@@@Z 100391a4 f tb.obj
 0001:000381ac       __fh?FSaveUserData@TBCUBASE@@UAAHPAUIMsoControl@@PAPAXPAUIStream@@@Z 100391ac f tb.obj
 0001:000381ae       ?FSaveUserData@TBCUBASE@@UAAHPAUIMsoControl@@PAPAXPAUIStream@@@Z 100391ae f tb.obj
 0001:000381b0       __nep?FAutoVisible@TBCUBASE@@UAAHPAUIMsoControl@@PAPAX@Z 100391b0 f tb.obj
 0001:000381b0       __pcd_tbl?FAutoVisible@TBCUBASE@@UAAHPAUIMsoControl@@PAPAX@Z 100391b0 f tb.obj
 0001:000381b8       __fh?FAutoVisible@TBCUBASE@@UAAHPAUIMsoControl@@PAPAX@Z 100391b8 f tb.obj
 0001:000381ba       ?FAutoVisible@TBCUBASE@@UAAHPAUIMsoControl@@PAPAX@Z 100391ba f tb.obj
 0001:000381bc       __nep?FEnabled@TBCUBASE@@UAAHPAUIMsoControl@@PAPAX@Z 100391bc f tb.obj
 0001:000381bc       __pcd_tbl?FEnabled@TBCUBASE@@UAAHPAUIMsoControl@@PAPAX@Z 100391bc f tb.obj
 0001:000381c4       __fh?FEnabled@TBCUBASE@@UAAHPAUIMsoControl@@PAPAX@Z 100391c4 f tb.obj
 0001:000381c6       ?FEnabled@TBCUBASE@@UAAHPAUIMsoControl@@PAPAX@Z 100391c6 f tb.obj
 0001:000381c8       __nep?FGetAlternateControl@TBCUBASE@@UAAHPAUIMsoControl@@PAPAXPAPAU2@@Z 100391c8 f tb.obj
 0001:000381c8       __pcd_tbl?FGetAlternateControl@TBCUBASE@@UAAHPAUIMsoControl@@PAPAXPAPAU2@@Z 100391c8 f tb.obj
 0001:000381d0       __fh?FGetAlternateControl@TBCUBASE@@UAAHPAUIMsoControl@@PAPAXPAPAU2@@Z 100391d0 f tb.obj
 0001:000381d2       ?FGetAlternateControl@TBCUBASE@@UAAHPAUIMsoControl@@PAPAXPAPAU2@@Z 100391d2 f tb.obj
 0001:000381d4       __nep?FChangeLabel@TBCUBASE@@UAAHPAUIMsoControl@@PAPAXPAG2@Z 100391d4 f tb.obj
 0001:000381d4       __pcd_tbl?FChangeLabel@TBCUBASE@@UAAHPAUIMsoControl@@PAPAXPAG2@Z 100391d4 f tb.obj
 0001:000381dc       __fh?FChangeLabel@TBCUBASE@@UAAHPAUIMsoControl@@PAPAXPAG2@Z 100391dc f tb.obj
 0001:000381de       ?FChangeLabel@TBCUBASE@@UAAHPAUIMsoControl@@PAPAXPAG2@Z 100391de f tb.obj
 0001:000381e0       __nep?FNotifyAction@TBCUBASE@@UAAHPAUIMsoControl@@PAPAXH@Z 100391e0 f tb.obj
 0001:000381e0       __pcd_tbl?FNotifyAction@TBCUBASE@@UAAHPAUIMsoControl@@PAPAXH@Z 100391e0 f tb.obj
 0001:000381e8       __fh?FNotifyAction@TBCUBASE@@UAAHPAUIMsoControl@@PAPAXH@Z 100391e8 f tb.obj
 0001:000381ea       ?FNotifyAction@TBCUBASE@@UAAHPAUIMsoControl@@PAPAXH@Z 100391ea f tb.obj
 0001:000381ec       __pcd_tbl?TbcuOleUsage@TBCUBASE@@UAAHPAUIMsoControl@@PAPAX@Z 100391ec f tb.obj
 0001:000381ec       __nep?TbcuOleUsage@TBCUBASE@@UAAHPAUIMsoControl@@PAPAX@Z 100391ec f tb.obj
 0001:000381f4       __fh?TbcuOleUsage@TBCUBASE@@UAAHPAUIMsoControl@@PAPAX@Z 100391f4 f tb.obj
 0001:000381f6       ?TbcuOleUsage@TBCUBASE@@UAAHPAUIMsoControl@@PAPAX@Z 100391f6 f tb.obj
 0001:000381f8       __pcd_tbl?FGetQuickTip@TBCUSPECIALBASE@@UAAHPAUIMsoControl@@PAPAXPAGPAH@Z 100391f8 f tb.obj
 0001:000381fc       __nep?FGetQuickTip@TBCUSPECIALBASE@@UAAHPAUIMsoControl@@PAPAXPAGPAH@Z 100391fc f tb.obj
 0001:00038204       __fh?FGetQuickTip@TBCUSPECIALBASE@@UAAHPAUIMsoControl@@PAPAXPAGPAH@Z 10039204 f tb.obj
 0001:00038206       ?FGetQuickTip@TBCUSPECIALBASE@@UAAHPAUIMsoControl@@PAPAXPAGPAH@Z 10039206 f tb.obj
 0001:00038230       __pcd_tbl_MsoConvertIndex  10039230 f tb.obj
 0001:0003823c       __nep_MsoConvertIndex      1003923c f tb.obj
 0001:00038244       __fh_MsoConvertIndex       10039244 f tb.obj
 0001:00038246       _MsoConvertIndex           10039246 f tb.obj
 0001:00038274       __pcd_tbl_MsoFRestoreCtrl  10039274 f tb.obj
 0001:00038278       __nep_MsoFRestoreCtrl      10039278 f tb.obj
 0001:00038280       __fh_MsoFRestoreCtrl       10039280 f tb.obj
 0001:00038282       _MsoFRestoreCtrl           10039282 f tb.obj
 0001:0003828c       __pcd_tbl?HMenuEmpty@@YAPAUHMENU__@@XZ 1003928c f tb.obj
 0001:00038294       __nep?HMenuEmpty@@YAPAUHMENU__@@XZ 10039294 f tb.obj
 0001:0003829c       __fh?HMenuEmpty@@YAPAUHMENU__@@XZ 1003929c f tb.obj
 0001:0003829e       ?HMenuEmpty@@YAPAUHMENU__@@XZ 1003929e f tb.obj
 0001:000382b0       __pcd_tbl?FShouldIgnoreMouseMove@@YAHUtagPOINT@@@Z 100392b0 f tb.obj
 0001:000382b0       __nep?FShouldIgnoreMouseMove@@YAHUtagPOINT@@@Z 100392b0 f tb.obj
 0001:000382b8       __fh?FShouldIgnoreMouseMove@@YAHUtagPOINT@@@Z 100392b8 f tb.obj
 0001:000382ba       ?FShouldIgnoreMouseMove@@YAHUtagPOINT@@@Z 100392ba f tb.obj
 0001:000382dc       __pcd_tbl?FBumpPptboc@@YAHPAPAU_msotboc@@PAUOLESHMEM@@H@Z 100392dc f tb.obj
 0001:000382e4       __nep?FBumpPptboc@@YAHPAPAU_msotboc@@PAUOLESHMEM@@H@Z 100392e4 f tb.obj
 0001:000382ec       __fh?FBumpPptboc@@YAHPAPAU_msotboc@@PAUOLESHMEM@@H@Z 100392ec f tb.obj
 0001:000382ee       ?FBumpPptboc@@YAHPAPAU_msotboc@@PAUOLESHMEM@@H@Z 100392ee f tb.obj
 0001:00038358       __pcd_tbl?DragProc@@YAXPAUHWND__@@IIK@Z 10039358 f tb.obj
 0001:00038358       __nep?DragProc@@YAXPAUHWND__@@IIK@Z 10039358 f tb.obj
 0001:00038360       __fh?DragProc@@YAXPAUHWND__@@IIK@Z 10039360 f tb.obj
 0001:00038362       ?DragProc@@YAXPAUHWND__@@IIK@Z 10039362 f tb.obj
 0001:00038368       ??0TB@@QAA@PAVTBS@@PAUIMsoToolbarUser@@PAUIMsoControlContainerUser@@PAUMSOINST@@@Z 10039368 f tb.obj
 0001:00038578       __pcd_tbl?IctlFocusGet@TB@@UAAHXZ 10039578 f tb.obj
 0001:00038578       __nep?IctlFocusGet@TB@@UAAHXZ 10039578 f tb.obj
 0001:00038580       __fh?IctlFocusGet@TB@@UAAHXZ 10039580 f tb.obj
 0001:00038582       ?IctlFocusGet@TB@@UAAHXZ   10039582 f tb.obj
 0001:00038588       __nep?SetTBTemp@TB@@UAAXH@Z 10039588 f tb.obj
 0001:00038588       __pcd_tbl?SetTBTemp@TB@@UAAXH@Z 10039588 f tb.obj
 0001:00038590       __fh?SetTBTemp@TB@@UAAXH@Z 10039590 f tb.obj
 0001:00038592       ?SetTBTemp@TB@@UAAXH@Z     10039592 f tb.obj
 0001:0003859c       __pcd_tbl?SetInitializationComplete@TB@@UAAXXZ 1003959c f tb.obj
 0001:0003859c       __nep?SetInitializationComplete@TB@@UAAXXZ 1003959c f tb.obj
 0001:000385a4       __fh?SetInitializationComplete@TB@@UAAXXZ 100395a4 f tb.obj
 0001:000385a6       ?SetInitializationComplete@TB@@UAAXXZ 100395a6 f tb.obj
 0001:000385b4       __pcd_tbl??_GTB@@UAAPAXI@Z 100395b4 f tb.obj
 0001:000385bc       __nep??_GTB@@UAAPAXI@Z     100395bc f tb.obj
 0001:000385c4       __fh??_GTB@@UAAPAXI@Z      100395c4 f tb.obj
 0001:000385c6       ??_ETB@@UAAPAXI@Z          100395c6 f tb.obj
 0001:000385c6       ??_GTB@@UAAPAXI@Z          100395c6 f tb.obj
 0001:000385d0       ??1TB@@UAA@XZ              100395d0 f tb.obj
 0001:00038888       __nep?FDebugMessage@TB@@UAAHPAUMSOINST@@IIJ@Z 10039888 f tb.obj
 0001:00038888       __pcd_tbl?FDebugMessage@TB@@UAAHPAUMSOINST@@IIJ@Z 10039888 f tb.obj
 0001:00038890       __fh?FDebugMessage@TB@@UAAHPAUMSOINST@@IIJ@Z 10039890 f tb.obj
 0001:00038892       ?FDebugMessage@TB@@UAAHPAUMSOINST@@IIJ@Z 10039892 f tb.obj
 0001:00038894       __pcd_tbl?FInit@TB@@IAAHPAXHPBGPBU_msotbp@@@Z 10039894 f tb.obj
 0001:000388b4       __nep?FInit@TB@@IAAHPAXHPBGPBU_msotbp@@@Z 100398b4 f tb.obj
 0001:000388bc       __fh?FInit@TB@@IAAHPAXHPBGPBU_msotbp@@@Z 100398bc f tb.obj
 0001:000388bf       ?FInit@TB@@IAAHPAXHPBGPBU_msotbp@@@Z 100398bf f tb.obj
 0001:00038a24       __pcd_tbl?GetTargetIctlForCopy@TB@@QAAHHPAU_msoctldragflags@@@Z 10039a24 f tb.obj
 0001:00038a24       __nep?GetTargetIctlForCopy@TB@@QAAHHPAU_msoctldragflags@@@Z 10039a24 f tb.obj
 0001:00038a2c       __fh?GetTargetIctlForCopy@TB@@QAAHHPAU_msoctldragflags@@@Z 10039a2c f tb.obj
 0001:00038a2e       ?GetTargetIctlForCopy@TB@@QAAHHPAU_msoctldragflags@@@Z 10039a2e f tb.obj
 0001:00038a74       __pcd_tbl?GetDropFeedbackRect@TB@@QAAXHHPAUtagRECT@@@Z 10039a74 f tb.obj
 0001:00038a78       __nep?GetDropFeedbackRect@TB@@QAAXHHPAUtagRECT@@@Z 10039a78 f tb.obj
 0001:00038a80       __fh?GetDropFeedbackRect@TB@@QAAXHHPAUtagRECT@@@Z 10039a80 f tb.obj
 0001:00038a83       ?GetDropFeedbackRect@TB@@QAAXHHPAUtagRECT@@@Z 10039a83 f tb.obj
 0001:00038d18       __nep?GetTargetIctlForMove@TB@@QAAHHHPAU_msoctldragflags@@@Z 10039d18 f tb.obj
 0001:00038d18       __pcd_tbl?GetTargetIctlForMove@TB@@QAAHHHPAU_msoctldragflags@@@Z 10039d18 f tb.obj
 0001:00038d20       __fh?GetTargetIctlForMove@TB@@QAAHHHPAU_msoctldragflags@@@Z 10039d20 f tb.obj
 0001:00038d22       ?GetTargetIctlForMove@TB@@QAAHHHPAU_msoctldragflags@@@Z 10039d22 f tb.obj
 0001:00038e2c       __nep?QueryInterface@TB@@UAAJABUGUID@@PAPAX@Z 10039e2c f tb.obj
 0001:00038e2c       __pcd_tbl?QueryInterface@TB@@UAAJABUGUID@@PAPAX@Z 10039e2c f tb.obj
 0001:00038e34       __fh?QueryInterface@TB@@UAAJABUGUID@@PAPAX@Z 10039e34 f tb.obj
 0001:00038e36       ?QueryInterface@TB@@UAAJABUGUID@@PAPAX@Z 10039e36 f tb.obj
 0001:00038ee0       __pcd_tbl?SetNewRc@TB@@IAAXPAUtagRECT@@H@Z 10039ee0 f tb.obj
 0001:00038ef8       __nep?SetNewRc@TB@@IAAXPAUtagRECT@@H@Z 10039ef8 f tb.obj
 0001:00038f00       __fh?SetNewRc@TB@@IAAXPAUtagRECT@@H@Z 10039f00 f tb.obj
 0001:00038f02       ?SetNewRc@TB@@IAAXPAUtagRECT@@H@Z 10039f02 f tb.obj
 0001:00038fc8       __pcd_tbl?FNotifyCtlCust@TB@@QAAHPAUIMsoControl@@H@Z 10039fc8 f tb.obj
 0001:00038fcc       __nep?FNotifyCtlCust@TB@@QAAHPAUIMsoControl@@H@Z 10039fcc f tb.obj
 0001:00038fd4       __fh?FNotifyCtlCust@TB@@QAAHPAUIMsoControl@@H@Z 10039fd4 f tb.obj
 0001:00038fd6       ?FNotifyCtlCust@TB@@QAAHPAUIMsoControl@@H@Z 10039fd6 f tb.obj
 0001:0003902c       __pcd_tbl?FDeleteControl@TB@@UAAHHPAU_msotcr@@@Z 1003a02c f tb.obj
 0001:0003903c       __nep?FDeleteControl@TB@@UAAHHPAU_msotcr@@@Z 1003a03c f tb.obj
 0001:00039044       __fh?FDeleteControl@TB@@UAAHHPAU_msotcr@@@Z 1003a044 f tb.obj
 0001:00039047       ?FDeleteControl@TB@@UAAHHPAU_msotcr@@@Z 1003a047 f tb.obj
 0001:0003914c       __pcd_tbl?FResetToolbar@TB@@QAAHXZ 1003a14c f tb.obj
 0001:00039154       __nep?FResetToolbar@TB@@QAAHXZ 1003a154 f tb.obj
 0001:0003915c       __fh?FResetToolbar@TB@@QAAHXZ 1003a15c f tb.obj
 0001:0003915e       ?FResetToolbar@TB@@QAAHXZ  1003a15e f tb.obj
 0001:000391c8       __pcd_tbl?CreateScrollArrows@TB@@AAAXXZ 1003a1c8 f tb.obj
 0001:000391dc       __nep?CreateScrollArrows@TB@@AAAXXZ 1003a1dc f tb.obj
 0001:000391e4       __fh?CreateScrollArrows@TB@@AAAXXZ 1003a1e4 f tb.obj
 0001:000391e6       ?CreateScrollArrows@TB@@AAAXXZ 1003a1e6 f tb.obj
 0001:000392b8       __pcd_tbl?FKeepOnScreen@TB@@QAAHXZ 1003a2b8 f tb.obj
 0001:000392bc       __nep?FKeepOnScreen@TB@@QAAHXZ 1003a2bc f tb.obj
 0001:000392c4       __fh?FKeepOnScreen@TB@@QAAHXZ 1003a2c4 f tb.obj
 0001:000392c6       ?FKeepOnScreen@TB@@QAAHXZ  1003a2c6 f tb.obj
 0001:000392ec       __pcd_tbl?FSetBestRect@TB@@QAAHH@Z 1003a2ec f tb.obj
 0001:0003930c       __nep?FSetBestRect@TB@@QAAHH@Z 1003a30c f tb.obj
 0001:00039314       __fh?FSetBestRect@TB@@QAAHH@Z 1003a314 f tb.obj
 0001:00039316       ?FSetBestRect@TB@@QAAHH@Z  1003a316 f tb.obj
 0001:0003943c       __pcd_tbl?FUpdateForOA@TB@@AAAHXZ 1003a43c f tb.obj
 0001:0003944c       __nep?FUpdateForOA@TB@@AAAHXZ 1003a44c f tb.obj
 0001:00039454       __fh?FUpdateForOA@TB@@AAAHXZ 1003a454 f tb.obj
 0001:00039456       ?FUpdateForOA@TB@@AAAHXZ   1003a456 f tb.obj
 0001:0003948c       __pcd_tbl?FEnsureGccInCurDlg@@YAHPAU_conpicnode@@PAPAPAX@Z 1003a48c f tb.obj
 0001:0003949c       __nep?FEnsureGccInCurDlg@@YAHPAU_conpicnode@@PAPAPAX@Z 1003a49c f tb.obj
 0001:000394a4       __fh?FEnsureGccInCurDlg@@YAHPAU_conpicnode@@PAPAPAX@Z 1003a4a4 f tb.obj
 0001:000394a6       ?FEnsureGccInCurDlg@@YAHPAU_conpicnode@@PAPAPAX@Z 1003a4a6 f tb.obj
 0001:000394c8       __pcd_tbl?LProcessInputMsgKeyboard@TB@@QAAJPAUHWND__@@IIJ@Z 1003a4c8 f tb.obj
 0001:00039538       __nep?LProcessInputMsgKeyboard@TB@@QAAJPAUHWND__@@IIJ@Z 1003a538 f tb.obj
 0001:00039540       __fh?LProcessInputMsgKeyboard@TB@@QAAJPAUHWND__@@IIJ@Z 1003a540 f tb.obj
 0001:00039543       ?LProcessInputMsgKeyboard@TB@@QAAJPAUHWND__@@IIJ@Z 1003a543 f tb.obj
 0001:00039d3c       __pcd_tbl?WndEnmPrc@@YAHPAUHWND__@@J@Z 1003ad3c f tb.obj
 0001:00039d54       __nep?WndEnmPrc@@YAHPAUHWND__@@J@Z 1003ad54 f tb.obj
 0001:00039d5c       __fh?WndEnmPrc@@YAHPAUHWND__@@J@Z 1003ad5c f tb.obj
 0001:00039d5e       ?WndEnmPrc@@YAHPAUHWND__@@J@Z 1003ad5e f tb.obj
 0001:00039d7c       __pcd_tbl?FShouldMenuDrop@TB@@QAAHHUtagPOINT@@@Z 1003ad7c f tb.obj
 0001:00039d84       __nep?FShouldMenuDrop@TB@@QAAHHUtagPOINT@@@Z 1003ad84 f tb.obj
 0001:00039d8c       __fh?FShouldMenuDrop@TB@@QAAHHUtagPOINT@@@Z 1003ad8c f tb.obj
 0001:00039d8e       ?FShouldMenuDrop@TB@@QAAHHUtagPOINT@@@Z 1003ad8e f tb.obj
 0001:00039dd4       __pcd_tbl?FTrackCtlInCustomize@TB@@QAAHHHHH@Z 1003add4 f tb.obj
 0001:00039ec0       __nep?FTrackCtlInCustomize@TB@@QAAHHHHH@Z 1003aec0 f tb.obj
 0001:00039ec8       __fh?FTrackCtlInCustomize@TB@@QAAHHHHH@Z 1003aec8 f tb.obj
 0001:00039ecb       ?FTrackCtlInCustomize@TB@@QAAHHHHH@Z 1003aecb f tb.obj
 0001:0003aa1c       __pcd_tbl?FMoveControl@TB@@QAAHHHU_msoctldragflags@@@Z 1003ba1c f tb.obj
 0001:0003aa48       __nep?FMoveControl@TB@@QAAHHHU_msoctldragflags@@@Z 1003ba48 f tb.obj
 0001:0003aa50       __fh?FMoveControl@TB@@QAAHHHU_msoctldragflags@@@Z 1003ba50 f tb.obj
 0001:0003aa53       ?FMoveControl@TB@@QAAHHHU_msoctldragflags@@@Z 1003ba53 f tb.obj
 0001:0003ac30       __pcd_tbl?RecordCtlAction@TB@@QAAXHPAV1@HH@Z 1003bc30 f tb.obj
 0001:0003ac44       __nep?RecordCtlAction@TB@@QAAXHPAV1@HH@Z 1003bc44 f tb.obj
 0001:0003ac4c       __fh?RecordCtlAction@TB@@QAAXHPAV1@HH@Z 1003bc4c f tb.obj
 0001:0003ac4f       ?RecordCtlAction@TB@@QAAXHPAV1@HH@Z 1003bc4f f tb.obj
 0001:0003adcc       __pcd_tbl?SetCtlFBG@TB@@QAAXHH@Z 1003bdcc f tb.obj
 0001:0003adcc       __nep?SetCtlFBG@TB@@QAAXHH@Z 1003bdcc f tb.obj
 0001:0003add4       __fh?SetCtlFBG@TB@@QAAXHH@Z 1003bdd4 f tb.obj
 0001:0003add6       ?SetCtlFBG@TB@@QAAXHH@Z    1003bdd6 f tb.obj
 0001:0003ae40       __pcd_tbl?FromPtToCtl@TB@@IAAXUtagPOINT@@PAHPAU_msoctldragflags@@1@Z 1003be40 f tb.obj
 0001:0003ae4c       __nep?FromPtToCtl@TB@@IAAXUtagPOINT@@PAHPAU_msoctldragflags@@1@Z 1003be4c f tb.obj
 0001:0003ae54       __fh?FromPtToCtl@TB@@IAAXUtagPOINT@@PAHPAU_msoctldragflags@@1@Z 1003be54 f tb.obj
 0001:0003ae57       ?FromPtToCtl@TB@@IAAXUtagPOINT@@PAHPAU_msoctldragflags@@1@Z 1003be57 f tb.obj
 0001:0003b1d4       __pcd_tbl?FCreateCtlCopy@TB@@QAAHPAU_msotcr@@HU_msoctldragflags@@@Z 1003c1d4 f tb.obj
 0001:0003b1f4       __nep?FCreateCtlCopy@TB@@QAAHPAU_msotcr@@HU_msoctldragflags@@@Z 1003c1f4 f tb.obj
 0001:0003b1fc       __fh?FCreateCtlCopy@TB@@QAAHPAU_msotcr@@HU_msoctldragflags@@@Z 1003c1fc f tb.obj
 0001:0003b1ff       ?FCreateCtlCopy@TB@@QAAHPAU_msotcr@@HU_msoctldragflags@@@Z 1003c1ff f tb.obj
 0001:0003b3fc       __pcd_tbl?FUpdate@TB@@UAAHHPAH@Z 1003c3fc f tb.obj
 0001:0003b474       __nep?FUpdate@TB@@UAAHHPAH@Z 1003c474 f tb.obj
 0001:0003b47c       __fh?FUpdate@TB@@UAAHHPAH@Z 1003c47c f tb.obj
 0001:0003b47f       ?FUpdate@TB@@UAAHHPAH@Z    1003c47f f tb.obj
 0001:0003b95c       __nep?FEnabled@TB@@UAAHXZ  1003c95c f tb.obj
 0001:0003b95c       __pcd_tbl?FEnabled@TB@@UAAHXZ 1003c95c f tb.obj
 0001:0003b964       __fh?FEnabled@TB@@UAAHXZ   1003c964 f tb.obj
 0001:0003b966       ?FEnabled@TB@@UAAHXZ       1003c966 f tb.obj
 0001:0003b97c       __pcd_tbl?RedrawToolbar@TB@@QAAXXZ 1003c97c f tb.obj
 0001:0003b980       __nep?RedrawToolbar@TB@@QAAXXZ 1003c980 f tb.obj
 0001:0003b988       __fh?RedrawToolbar@TB@@QAAXXZ 1003c988 f tb.obj
 0001:0003b98a       ?RedrawToolbar@TB@@QAAXXZ  1003c98a f tb.obj
 0001:0003b9a0       __pcd_tbl?DragInfoRestore@TB@@QAAXH@Z 1003c9a0 f tb.obj
 0001:0003b9a8       __nep?DragInfoRestore@TB@@QAAXH@Z 1003c9a8 f tb.obj
 0001:0003b9b0       __fh?DragInfoRestore@TB@@QAAXH@Z 1003c9b0 f tb.obj
 0001:0003b9b2       ?DragInfoRestore@TB@@QAAXH@Z 1003c9b2 f tb.obj
 0001:0003ba68       __pcd_tbl?PriorityStateSave@TB@@QAAXXZ 1003ca68 f tb.obj
 0001:0003ba6c       __nep?PriorityStateSave@TB@@QAAXXZ 1003ca6c f tb.obj
 0001:0003ba74       __fh?PriorityStateSave@TB@@QAAXXZ 1003ca74 f tb.obj
 0001:0003ba76       ?PriorityStateSave@TB@@QAAXXZ 1003ca76 f tb.obj
 0001:0003bb48       __pcd_tbl?PriorityStateInvalidate@TB@@QAAXXZ 1003cb48 f tb.obj
 0001:0003bb50       __nep?PriorityStateInvalidate@TB@@QAAXXZ 1003cb50 f tb.obj
 0001:0003bb58       __fh?PriorityStateInvalidate@TB@@QAAXXZ 1003cb58 f tb.obj
 0001:0003bb5b       ?PriorityStateInvalidate@TB@@QAAXXZ 1003cb5b f tb.obj
 0001:0003bd84       __pcd_tbl?FFindTcid@TB@@QAAHHPAPAUIMsoControl@@@Z 1003cd84 f tb.obj
 0001:0003bd88       __nep?FFindTcid@TB@@QAAHHPAPAUIMsoControl@@@Z 1003cd88 f tb.obj
 0001:0003bd90       __fh?FFindTcid@TB@@QAAHHPAPAUIMsoControl@@@Z 1003cd90 f tb.obj
 0001:0003bd92       ?FFindTcid@TB@@QAAHHPAPAUIMsoControl@@@Z 1003cd92 f tb.obj
 0001:0003be00       __pcd_tbl?FCanFocusControl@TB@@QAAHH@Z 1003ce00 f tb.obj
 0001:0003be00       __nep?FCanFocusControl@TB@@QAAHH@Z 1003ce00 f tb.obj
 0001:0003be08       __fh?FCanFocusControl@TB@@QAAHH@Z 1003ce08 f tb.obj
 0001:0003be0a       ?FCanFocusControl@TB@@QAAHH@Z 1003ce0a f tb.obj
 0001:0003be38       __pcd_tbl?FSetControl@TB@@UAAHHPAU_msotcr@@@Z 1003ce38 f tb.obj
 0001:0003be48       __nep?FSetControl@TB@@UAAHHPAU_msotcr@@@Z 1003ce48 f tb.obj
 0001:0003be50       __fh?FSetControl@TB@@UAAHHPAU_msotcr@@@Z 1003ce50 f tb.obj
 0001:0003be52       ?FSetControl@TB@@UAAHHPAU_msotcr@@@Z 1003ce52 f tb.obj
 0001:0003bef0       __nep?PpvClientGet@TB@@UAAPAPAXXZ 1003cef0 f tb.obj
 0001:0003bef0       __pcd_tbl?PpvClientGet@TB@@UAAPAPAXXZ 1003cef0 f tb.obj
 0001:0003bef8       __fh?PpvClientGet@TB@@UAAPAPAXXZ 1003cef8 f tb.obj
 0001:0003befa       ?PpvClientGet@TB@@UAAPAPAXXZ 1003cefa f tb.obj
 0001:0003bf00       __pcd_tbl?FPopup@TB@@UAAHHHHPAUtagRECT@@@Z 1003cf00 f tb.obj
 0001:0003bf14       __nep?FPopup@TB@@UAAHHHHPAUtagRECT@@@Z 1003cf14 f tb.obj
 0001:0003bf1c       __fh?FPopup@TB@@UAAHHHHPAUtagRECT@@@Z 1003cf1c f tb.obj
 0001:0003bf1e       ?FPopup@TB@@UAAHHHHPAUtagRECT@@@Z 1003cf1e f tb.obj
 0001:0003bf70       __pcd_tbl?FPopupModeless@TB@@QAAHPAUtagRECT@@H@Z 1003cf70 f tb.obj
 0001:0003bf78       __nep?FPopupModeless@TB@@QAAHPAUtagRECT@@H@Z 1003cf78 f tb.obj
 0001:0003bf80       __fh?FPopupModeless@TB@@QAAHPAUtagRECT@@H@Z 1003cf80 f tb.obj
 0001:0003bf82       ?FPopupModeless@TB@@QAAHPAUtagRECT@@H@Z 1003cf82 f tb.obj
 0001:0003bfa0       __nep?FSetCtlTemp@TB@@UAAHHH@Z 1003cfa0 f tb.obj
 0001:0003bfa0       __pcd_tbl?FSetCtlTemp@TB@@UAAHHH@Z 1003cfa0 f tb.obj
 0001:0003bfa8       __fh?FSetCtlTemp@TB@@UAAHHH@Z 1003cfa8 f tb.obj
 0001:0003bfaa       ?FSetCtlTemp@TB@@UAAHHH@Z  1003cfaa f tb.obj
 0001:0003bff4       __nep?SmCPush@@YAHHHHH@Z   1003cff4 f tb.obj
 0001:0003bff4       __pcd_tbl?SmCPush@@YAHHHHH@Z 1003cff4 f tb.obj
 0001:0003bffc       __fh?SmCPush@@YAHHHHH@Z    1003cffc f tb.obj
 0001:0003bffe       ?SmCPush@@YAHHHHH@Z        1003cffe f tb.obj
 0001:0003c01c       __pcd_tbl?SmFillDirection@@YAXPAU_smartmenuinfo@@PAU_smartmenurecord@@HH@Z 1003d01c f tb.obj
 0001:0003c020       __nep?SmFillDirection@@YAXPAU_smartmenuinfo@@PAU_smartmenurecord@@HH@Z 1003d020 f tb.obj
 0001:0003c028       __fh?SmFillDirection@@YAXPAU_smartmenuinfo@@PAU_smartmenurecord@@HH@Z 1003d028 f tb.obj
 0001:0003c02a       ?SmFillDirection@@YAXPAU_smartmenuinfo@@PAU_smartmenurecord@@HH@Z 1003d02a f tb.obj
 0001:0003c044       __pcd_tbl?DdPlaceMenu@TB@@AAAHPAUtagRECT@@0PAV1@HHPAUtagPOINT@@@Z 1003d044 f tb.obj
 0001:0003c05c       __nep?DdPlaceMenu@TB@@AAAHPAUtagRECT@@0PAV1@HHPAUtagPOINT@@@Z 1003d05c f tb.obj
 0001:0003c064       __fh?DdPlaceMenu@TB@@AAAHPAUtagRECT@@0PAV1@HHPAUtagPOINT@@@Z 1003d064 f tb.obj
 0001:0003c067       ?DdPlaceMenu@TB@@AAAHPAUtagRECT@@0PAV1@HHPAUtagPOINT@@@Z 1003d067 f tb.obj
 0001:0003c304       __pcd_tbl?FPlacePopup@TB@@QAAHPAUtagRECT@@HPAVTBCM@@HH@Z 1003d304 f tb.obj
 0001:0003c340       __nep?FPlacePopup@TB@@QAAHPAUtagRECT@@HPAVTBCM@@HH@Z 1003d340 f tb.obj
 0001:0003c348       __fh?FPlacePopup@TB@@QAAHPAUtagRECT@@HPAVTBCM@@HH@Z 1003d348 f tb.obj
 0001:0003c34a       ?FPlacePopup@TB@@QAAHPAUtagRECT@@HPAVTBCM@@HH@Z 1003d34a f tb.obj
 0001:0003c420       __pcd_tbl?FSetName@TB@@UAAHPBG@Z 1003d420 f tb.obj
 0001:0003c45c       __nep?FSetName@TB@@UAAHPBG@Z 1003d45c f tb.obj
 0001:0003c464       __fh?FSetName@TB@@UAAHPBG@Z 1003d464 f tb.obj
 0001:0003c467       ?FSetName@TB@@UAAHPBG@Z    1003d467 f tb.obj
 0001:0003c530       __nep?PitbuGetToolbarUser@TB@@UAAPAUIMsoToolbarUser@@XZ 1003d530 f tb.obj
 0001:0003c530       __pcd_tbl?PitbuGetToolbarUser@TB@@UAAPAUIMsoToolbarUser@@XZ 1003d530 f tb.obj
 0001:0003c538       __fh?PitbuGetToolbarUser@TB@@UAAPAUIMsoToolbarUser@@XZ 1003d538 f tb.obj
 0001:0003c53a       ?PitbuGetToolbarUser@TB@@UAAPAUIMsoToolbarUser@@XZ 1003d53a f tb.obj
 0001:0003c540       __nep?FVisible@TB@@UAAHXZ  1003d540 f tb.obj
 0001:0003c540       __pcd_tbl?FVisible@TB@@UAAHXZ 1003d540 f tb.obj
 0001:0003c548       __fh?FVisible@TB@@UAAHXZ   1003d548 f tb.obj
 0001:0003c54a       ?FVisible@TB@@UAAHXZ       1003d54a f tb.obj
 0001:0003c578       __pcd_tbl?GetSortOrder@@YAHH@Z 1003d578 f tb.obj
 0001:0003c578       __nep?GetSortOrder@@YAHH@Z 1003d578 f tb.obj
 0001:0003c580       __fh?GetSortOrder@@YAHH@Z  1003d580 f tb.obj
 0001:0003c582       ?GetSortOrder@@YAHH@Z      1003d582 f tb.obj
 0001:0003c598       __pcd_tbl?SgnCompareTcr@@YAHPAU_msotcr@@0@Z 1003d598 f tb.obj
 0001:0003c5a0       __nep?SgnCompareTcr@@YAHPAU_msotcr@@0@Z 1003d5a0 f tb.obj
 0001:0003c5a8       __fh?SgnCompareTcr@@YAHPAU_msotcr@@0@Z 1003d5a8 f tb.obj
 0001:0003c5ab       ?SgnCompareTcr@@YAHPAU_msotcr@@0@Z 1003d5ab f tb.obj
 0001:0003c60c       ?FRefreshToolbarList@TB@@QAAHXZ 1003d60c f tb.obj
 0001:0003ca54       __pcd_tbl?FSave@TB@@UAAHPAUIStream@@H@Z 1003da54 f tb.obj
 0001:0003ca80       __nep?FSave@TB@@UAAHPAUIStream@@H@Z 1003da80 f tb.obj
 0001:0003ca88       __fh?FSave@TB@@UAAHPAUIStream@@H@Z 1003da88 f tb.obj
 0001:0003ca8b       ?FSave@TB@@UAAHPAUIStream@@H@Z 1003da8b f tb.obj
 0001:0003cc64       __pcd_tbl?FGetNextSaveableCtl@TB@@QAAHHPAU_msotcr@@PAH1@Z 1003dc64 f tb.obj
 0001:0003cc68       __nep?FGetNextSaveableCtl@TB@@QAAHHPAU_msotcr@@PAH1@Z 1003dc68 f tb.obj
 0001:0003cc70       __fh?FGetNextSaveableCtl@TB@@QAAHHPAU_msotcr@@PAH1@Z 1003dc70 f tb.obj
 0001:0003cc72       ?FGetNextSaveableCtl@TB@@QAAHHPAU_msotcr@@PAH1@Z 1003dc72 f tb.obj
 0001:0003cce8       __pcd_tbl?FLoad@TB@@IAAHPAUIStream@@@Z 1003dce8 f tb.obj
 0001:0003ccec       __nep?FLoad@TB@@IAAHPAUIStream@@@Z 1003dcec f tb.obj
 0001:0003ccf4       __fh?FLoad@TB@@IAAHPAUIStream@@@Z 1003dcf4 f tb.obj
 0001:0003ccf6       ?FLoad@TB@@IAAHPAUIStream@@@Z 1003dcf6 f tb.obj
 0001:0003ccfc       __pcd_tbl?FLoad2@TB@@QAAHPAUIStream@@H@Z 1003dcfc f tb.obj
 0001:0003cd30       __nep?FLoad2@TB@@QAAHPAUIStream@@H@Z 1003dd30 f tb.obj
 0001:0003cd38       __fh?FLoad2@TB@@QAAHPAUIStream@@H@Z 1003dd38 f tb.obj
 0001:0003cd3b       ?FLoad2@TB@@QAAHPAUIStream@@H@Z 1003dd3b f tb.obj
 0001:0003d01c       __pcd_tbl?FillFv1@TB@@AAAXPAUFV1@1@F@Z 1003e01c f tb.obj
 0001:0003d01c       __nep?FillFv1@TB@@AAAXPAUFV1@1@F@Z 1003e01c f tb.obj
 0001:0003d024       __fh?FillFv1@TB@@AAAXPAUFV1@1@F@Z 1003e024 f tb.obj
 0001:0003d026       ?FillFv1@TB@@AAAXPAUFV1@1@F@Z 1003e026 f tb.obj
 0001:0003d0b4       __nep?FillFromFv1@TB@@AAAXPAUFV1@1@PAH@Z 1003e0b4 f tb.obj
 0001:0003d0b4       __pcd_tbl?FillFromFv1@TB@@AAAXPAUFV1@1@PAH@Z 1003e0b4 f tb.obj
 0001:0003d0bc       __fh?FillFromFv1@TB@@AAAXPAUFV1@1@PAH@Z 1003e0bc f tb.obj
 0001:0003d0be       ?FillFromFv1@TB@@AAAXPAUFV1@1@PAH@Z 1003e0be f tb.obj
 0001:0003d144       __pcd_tbl?FillF2v1@TB@@AAAXPAUF2V1@1@PAU_msotbdp@@@Z 1003e144 f tb.obj
 0001:0003d144       __nep?FillF2v1@TB@@AAAXPAUF2V1@1@PAU_msotbdp@@@Z 1003e144 f tb.obj
 0001:0003d14c       __fh?FillF2v1@TB@@AAAXPAUF2V1@1@PAU_msotbdp@@@Z 1003e14c f tb.obj
 0001:0003d14e       ?FillF2v1@TB@@AAAXPAUF2V1@1@PAU_msotbdp@@@Z 1003e14e f tb.obj
 0001:0003d1f4       __pcd_tbl?FillFromF2v1@TB@@AAAXPAUF2V1@1@PAU_msotbdp@@@Z 1003e1f4 f tb.obj
 0001:0003d1f4       __nep?FillFromF2v1@TB@@AAAXPAUF2V1@1@PAU_msotbdp@@@Z 1003e1f4 f tb.obj
 0001:0003d1fc       __fh?FillFromF2v1@TB@@AAAXPAUF2V1@1@PAU_msotbdp@@@Z 1003e1fc f tb.obj
 0001:0003d1fe       ?FillFromF2v1@TB@@AAAXPAUF2V1@1@PAU_msotbdp@@@Z 1003e1fe f tb.obj
 0001:0003d2b0       __pcd_tbl?FMergeTb@TB@@IAAHXZ 1003e2b0 f tb.obj
 0001:0003d2c8       __nep?FMergeTb@TB@@IAAHXZ  1003e2c8 f tb.obj
 0001:0003d2d0       __fh?FMergeTb@TB@@IAAHXZ   1003e2d0 f tb.obj
 0001:0003d2d2       ?FMergeTb@TB@@IAAHXZ       1003e2d2 f tb.obj
 0001:0003d410       __pcd_tbl?FMerge@TB@@IAAHPAV1@PAPAU_msotboc@@@Z 1003e410 f tb.obj
 0001:0003d418       __nep?FMerge@TB@@IAAHPAV1@PAPAU_msotboc@@@Z 1003e418 f tb.obj
 0001:0003d420       __fh?FMerge@TB@@IAAHPAV1@PAPAU_msotboc@@@Z 1003e420 f tb.obj
 0001:0003d423       ?FMerge@TB@@IAAHPAV1@PAPAU_msotboc@@@Z 1003e423 f tb.obj
 0001:0003d630       __pcd_tbl?MakeOleClient@TB@@QAAXPAPAU_msotboc@@@Z 1003e630 f tb.obj
 0001:0003d634       __nep?MakeOleClient@TB@@QAAXPAPAU_msotboc@@@Z 1003e634 f tb.obj
 0001:0003d63c       __fh?MakeOleClient@TB@@QAAXPAPAU_msotboc@@@Z 1003e63c f tb.obj
 0001:0003d63e       ?MakeOleClient@TB@@QAAXPAPAU_msotboc@@@Z 1003e63e f tb.obj
 0001:0003d6a4       __pcd_tbl?OleCleanup@TB@@IAAXXZ 1003e6a4 f tb.obj
 0001:0003d6ac       __nep?OleCleanup@TB@@IAAXXZ 1003e6ac f tb.obj
 0001:0003d6b4       __fh?OleCleanup@TB@@IAAXXZ 1003e6b4 f tb.obj
 0001:0003d6b6       ?OleCleanup@TB@@IAAXXZ     1003e6b6 f tb.obj
 0001:0003d794       __pcd_tbl?Delete@TB@@UAAXXZ 1003e794 f tb.obj
 0001:0003d7c4       __nep?Delete@TB@@UAAXXZ    1003e7c4 f tb.obj
 0001:0003d7cc       __fh?Delete@TB@@UAAXXZ     1003e7cc f tb.obj
 0001:0003d7cf       ?Delete@TB@@UAAXXZ         1003e7cf f tb.obj
 0001:0003d8b8       __pcd_tbl?FConvertIndex@TB@@QAAHHPAH0H@Z 1003e8b8 f tb.obj
 0001:0003d8c0       __nep?FConvertIndex@TB@@QAAHHPAH0H@Z 1003e8c0 f tb.obj
 0001:0003d8c8       __fh?FConvertIndex@TB@@QAAHHPAH0H@Z 1003e8c8 f tb.obj
 0001:0003d8ca       ?FConvertIndex@TB@@QAAHHPAH0H@Z 1003e8ca f tb.obj
 0001:0003d9d0       __pcd_tbl?FGetIDispatchToolbar@TB@@UAAHPAPAUIDispatch@@@Z 1003e9d0 f tb.obj
 0001:0003d9dc       __nep?FGetIDispatchToolbar@TB@@UAAHPAPAUIDispatch@@@Z 1003e9dc f tb.obj
 0001:0003d9e4       __fh?FGetIDispatchToolbar@TB@@UAAHPAPAUIDispatch@@@Z 1003e9e4 f tb.obj
 0001:0003d9e6       ?FGetIDispatchToolbar@TB@@UAAHPAPAUIDispatch@@@Z 1003e9e6 f tb.obj
 0001:0003da00       __pcd_tbl?FGetIDispatchControls@TB@@UAAHPAPAUIDispatch@@@Z 1003ea00 f tb.obj
 0001:0003da0c       __nep?FGetIDispatchControls@TB@@UAAHPAPAUIDispatch@@@Z 1003ea0c f tb.obj
 0001:0003da14       __fh?FGetIDispatchControls@TB@@UAAHPAPAUIDispatch@@@Z 1003ea14 f tb.obj
 0001:0003da16       ?FGetIDispatchControls@TB@@UAAHPAPAUIDispatch@@@Z 1003ea16 f tb.obj
 0001:0003da30       __pcd_tbl?FGetIDispatchControl@TB@@UAAHHPAPAUIDispatch@@@Z 1003ea30 f tb.obj
 0001:0003da3c       __nep?FGetIDispatchControl@TB@@UAAHHPAPAUIDispatch@@@Z 1003ea3c f tb.obj
 0001:0003da44       __fh?FGetIDispatchControl@TB@@UAAHHPAPAUIDispatch@@@Z 1003ea44 f tb.obj
 0001:0003da46       ?FGetIDispatchControl@TB@@UAAHHPAPAUIDispatch@@@Z 1003ea46 f tb.obj
 0001:0003daa0       __pcd_tbl?ControlBalloonHelp@TB@@QAAXH@Z 1003eaa0 f tb.obj
 0001:0003dac0       __nep?ControlBalloonHelp@TB@@QAAXH@Z 1003eac0 f tb.obj
 0001:0003dac8       __fh?ControlBalloonHelp@TB@@QAAXH@Z 1003eac8 f tb.obj
 0001:0003dacb       ?ControlBalloonHelp@TB@@QAAXH@Z 1003eacb f tb.obj
 0001:0003db78       __pcd_tbl?ShowTooltip@TB@@QAAXPAUIMsoControl@@H@Z 1003eb78 f tb.obj
 0001:0003db88       __nep?ShowTooltip@TB@@QAAXPAUIMsoControl@@H@Z 1003eb88 f tb.obj
 0001:0003db90       __fh?ShowTooltip@TB@@QAAXPAUIMsoControl@@H@Z 1003eb90 f tb.obj
 0001:0003db93       ?ShowTooltip@TB@@QAAXPAUIMsoControl@@H@Z 1003eb93 f tb.obj
 0001:0003dbdc       __pcd_tbl?PiccuGetControlContainerUser@TB@@UAAPAUIMsoControlContainerUser@@XZ 1003ebdc f tb.obj
 0001:0003dbdc       __nep?PiccuGetControlContainerUser@TB@@UAAPAUIMsoControlContainerUser@@XZ 1003ebdc f tb.obj
 0001:0003dbe4       __fh?PiccuGetControlContainerUser@TB@@UAAPAUIMsoControlContainerUser@@XZ 1003ebe4 f tb.obj
 0001:0003dbe6       ?PiccuGetControlContainerUser@TB@@UAAPAUIMsoControlContainerUser@@XZ 1003ebe6 f tb.obj
 0001:0003dbec       __pcd_tbl?UpdateLayout@TB@@QAAXXZ 1003ebec f tb.obj
 0001:0003dbf0       __nep?UpdateLayout@TB@@QAAXXZ 1003ebf0 f tb.obj
 0001:0003dbf8       __fh?UpdateLayout@TB@@QAAXXZ 1003ebf8 f tb.obj
 0001:0003dbfa       ?UpdateLayout@TB@@QAAXXZ   1003ebfa f tb.obj
 0001:0003dc00       __pcd_tbl?FDrawSelectRect@TB@@QAAHXZ 1003ec00 f tb.obj
 0001:0003dc14       __nep?FDrawSelectRect@TB@@QAAHXZ 1003ec14 f tb.obj
 0001:0003dc1c       __fh?FDrawSelectRect@TB@@QAAHXZ 1003ec1c f tb.obj
 0001:0003dc1e       ?FDrawSelectRect@TB@@QAAHXZ 1003ec1e f tb.obj
 0001:0003dc78       __pcd_tbl?FDraw@TB@@IAAHPAUHDC__@@@Z 1003ec78 f tb.obj
 0001:0003dcdc       __nep?FDraw@TB@@IAAHPAUHDC__@@@Z 1003ecdc f tb.obj
 0001:0003dce4       __fh?FDraw@TB@@IAAHPAUHDC__@@@Z 1003ece4 f tb.obj
 0001:0003dce7       ?FDraw@TB@@IAAHPAUHDC__@@@Z 1003ece7 f tb.obj
 0001:0003e1cc       __pcd_tbl?FFindControl@TB@@QAAHPAUIMsoControl@@PAH@Z 1003f1cc f tb.obj
 0001:0003e1d4       __nep?FFindControl@TB@@QAAHPAUIMsoControl@@PAH@Z 1003f1d4 f tb.obj
 0001:0003e1dc       __fh?FFindControl@TB@@QAAHPAUIMsoControl@@PAH@Z 1003f1dc f tb.obj
 0001:0003e1de       ?FFindControl@TB@@QAAHPAUIMsoControl@@PAH@Z 1003f1de f tb.obj
 0001:0003e238       __pcd_tbl?FFindControlEx@TB@@QAAHHHPAGHHPAPAV1@PAH@Z 1003f238 f tb.obj
 0001:0003e240       __nep?FFindControlEx@TB@@QAAHHHPAGHHPAPAV1@PAH@Z 1003f240 f tb.obj
 0001:0003e248       __fh?FFindControlEx@TB@@QAAHHHPAGHHPAPAV1@PAH@Z 1003f248 f tb.obj
 0001:0003e24b       ?FFindControlEx@TB@@QAAHHHPAGHHPAPAV1@PAH@Z 1003f24b f tb.obj
 0001:0003e2f8       __pcd_tbl?FInsertControl@TB@@UAAHPAU_msotcr@@HH@Z 1003f2f8 f tb.obj
 0001:0003e30c       __nep?FInsertControl@TB@@UAAHPAU_msotcr@@HH@Z 1003f30c f tb.obj
 0001:0003e314       __fh?FInsertControl@TB@@UAAHPAU_msotcr@@HH@Z 1003f314 f tb.obj
 0001:0003e316       ?FInsertControl@TB@@UAAHPAU_msotcr@@HH@Z 1003f316 f tb.obj
 0001:0003e420       __pcd_tbl?FClone@TB@@UAAHPAUIMsoToolbarSet@@PAPAUIMsoToolbar@@@Z 1003f420 f tb.obj
 0001:0003e424       __nep?FClone@TB@@UAAHPAUIMsoToolbarSet@@PAPAUIMsoToolbar@@@Z 1003f424 f tb.obj
 0001:0003e42c       __fh?FClone@TB@@UAAHPAUIMsoToolbarSet@@PAPAUIMsoToolbar@@@Z 1003f42c f tb.obj
 0001:0003e42e       ?FClone@TB@@UAAHPAUIMsoToolbarSet@@PAPAUIMsoToolbar@@@Z 1003f42e f tb.obj
 0001:0003e434       __pcd_tbl?FClone2@TB@@QAAHPAVTBS@@PAPAV1@H@Z 1003f434 f tb.obj
 0001:0003e448       __nep?FClone2@TB@@QAAHPAVTBS@@PAPAV1@H@Z 1003f448 f tb.obj
 0001:0003e450       __fh?FClone2@TB@@QAAHPAVTBS@@PAPAV1@H@Z 1003f450 f tb.obj
 0001:0003e453       ?FClone2@TB@@QAAHPAVTBS@@PAPAV1@H@Z 1003f453 f tb.obj
 0001:0003e584       __pcd_tbl?NotifyControl@TB@@IAAXHHPAUIMsoControl@@I@Z 1003f584 f tb.obj
 0001:0003e5a8       __nep?NotifyControl@TB@@IAAXHHPAUIMsoControl@@I@Z 1003f5a8 f tb.obj
 0001:0003e5b0       __fh?NotifyControl@TB@@IAAXHHPAUIMsoControl@@I@Z 1003f5b0 f tb.obj
 0001:0003e5b2       ?NotifyControl@TB@@IAAXHHPAUIMsoControl@@I@Z 1003f5b2 f tb.obj
 0001:0003e638       __pcd_tbl?TakeCapture@TB@@IAAXXZ 1003f638 f tb.obj
 0001:0003e64c       __nep?TakeCapture@TB@@IAAXXZ 1003f64c f tb.obj
 0001:0003e654       __fh?TakeCapture@TB@@IAAXXZ 1003f654 f tb.obj
 0001:0003e656       ?TakeCapture@TB@@IAAXXZ    1003f656 f tb.obj
 0001:0003e688       __pcd_tbl?FReleaseCapture@TB@@IAAHXZ 1003f688 f tb.obj
 0001:0003e698       __nep?FReleaseCapture@TB@@IAAHXZ 1003f698 f tb.obj
 0001:0003e6a0       __fh?FReleaseCapture@TB@@IAAHXZ 1003f6a0 f tb.obj
 0001:0003e6a2       ?FReleaseCapture@TB@@IAAHXZ 1003f6a2 f tb.obj
 0001:0003e6e8       __pcd_tbl_MsoFCreatePictureContainer 1003f6e8 f tb.obj
 0001:0003e6f4       __nep_MsoFCreatePictureContainer 1003f6f4 f tb.obj
 0001:0003e6fc       __fh_MsoFCreatePictureContainer 1003f6fc f tb.obj
 0001:0003e6fe       _MsoFCreatePictureContainer 1003f6fe f tb.obj
 0001:0003e728       __pcd_tbl_MsoShowPictureContainer 1003f728 f tb.obj
 0001:0003e730       __nep_MsoShowPictureContainer 1003f730 f tb.obj
 0001:0003e738       __fh_MsoShowPictureContainer 1003f738 f tb.obj
 0001:0003e73a       _MsoShowPictureContainer   1003f73a f tb.obj
 0001:0003e7b4       __pcd_tbl?RedrawTitle@TB@@QAAXXZ 1003f7b4 f tb.obj
 0001:0003e7bc       __nep?RedrawTitle@TB@@QAAXXZ 1003f7bc f tb.obj
 0001:0003e7c4       __fh?RedrawTitle@TB@@QAAXXZ 1003f7c4 f tb.obj
 0001:0003e7c6       ?RedrawTitle@TB@@QAAXXZ    1003f7c6 f tb.obj
 0001:0003e7f0       __pcd_tbl?DrawFloatTitleFrame@TB@@IAAXPAUHDC__@@H@Z 1003f7f0 f tb.obj
 0001:0003e7f4       __nep?DrawFloatTitleFrame@TB@@IAAXPAUHDC__@@H@Z 1003f7f4 f tb.obj
 0001:0003e7fc       __fh?DrawFloatTitleFrame@TB@@IAAXPAUHDC__@@H@Z 1003f7fc f tb.obj
 0001:0003e7fe       ?DrawFloatTitleFrame@TB@@IAAXPAUHDC__@@H@Z 1003f7fe f tb.obj
 0001:0003e808       __pcd_tbl?HfontTBCaptionGet@TB@@IAAPAUHFONT__@@XZ 1003f808 f tb.obj
 0001:0003e80c       __nep?HfontTBCaptionGet@TB@@IAAPAUHFONT__@@XZ 1003f80c f tb.obj
 0001:0003e814       __fh?HfontTBCaptionGet@TB@@IAAPAUHFONT__@@XZ 1003f814 f tb.obj
 0001:0003e816       ?HfontTBCaptionGet@TB@@IAAPAUHFONT__@@XZ 1003f816 f tb.obj
 0001:0003e838       __pcd_tbl?DrawTitleBar@TB@@IAAXPAUHDC__@@@Z 1003f838 f tb.obj
 0001:0003e83c       __nep?DrawTitleBar@TB@@IAAXPAUHDC__@@@Z 1003f83c f tb.obj
 0001:0003e844       __fh?DrawTitleBar@TB@@IAAXPAUHDC__@@@Z 1003f844 f tb.obj
 0001:0003e846       ?DrawTitleBar@TB@@IAAXPAUHDC__@@@Z 1003f846 f tb.obj
 0001:0003e84c       __pcd_tbl?TbhtHitTest@TB@@IAA?AW4TBHT@@UtagPOINT@@@Z 1003f84c f tb.obj
 0001:0003e864       __nep?TbhtHitTest@TB@@IAA?AW4TBHT@@UtagPOINT@@@Z 1003f864 f tb.obj
 0001:0003e86c       __fh?TbhtHitTest@TB@@IAA?AW4TBHT@@UtagPOINT@@@Z 1003f86c f tb.obj
 0001:0003e86e       ?TbhtHitTest@TB@@IAA?AW4TBHT@@UtagPOINT@@@Z 1003f86e f tb.obj
 0001:0003e904       __pcd_tbl?TrackTbClick@TB@@IAAXPAUtagPOINT@@@Z 1003f904 f tb.obj
 0001:0003e930       __nep?TrackTbClick@TB@@IAAXPAUtagPOINT@@@Z 1003f930 f tb.obj
 0001:0003e938       __fh?TrackTbClick@TB@@IAAXPAUtagPOINT@@@Z 1003f938 f tb.obj
 0001:0003e93a       ?TrackTbClick@TB@@IAAXPAUtagPOINT@@@Z 1003f93a f tb.obj
 0001:0003ea2c       __pcd_tbl?CRowsInToolbar@TB@@QAAHXZ 1003fa2c f tb.obj
 0001:0003ea2c       __nep?CRowsInToolbar@TB@@QAAHXZ 1003fa2c f tb.obj
 0001:0003ea34       __fh?CRowsInToolbar@TB@@QAAHXZ 1003fa34 f tb.obj
 0001:0003ea36       ?CRowsInToolbar@TB@@QAAHXZ 1003fa36 f tb.obj
 0001:0003ea68       __pcd_tbl?ReflowToRows@TB@@QAAXPAUtagRECT@@@Z 1003fa68 f tb.obj
 0001:0003ea78       __nep?ReflowToRows@TB@@QAAXPAUtagRECT@@@Z 1003fa78 f tb.obj
 0001:0003ea80       __fh?ReflowToRows@TB@@QAAXPAUtagRECT@@@Z 1003fa80 f tb.obj
 0001:0003ea83       ?ReflowToRows@TB@@QAAXPAUtagRECT@@@Z 1003fa83 f tb.obj
 0001:0003eb5c       __pcd_tbl?TrackTbSize@TB@@IAAXPAUtagPOINT@@W4TBHT@@H@Z 1003fb5c f tb.obj
 0001:0003eb9c       __nep?TrackTbSize@TB@@IAAXPAUtagPOINT@@W4TBHT@@H@Z 1003fb9c f tb.obj
 0001:0003eba4       __fh?TrackTbSize@TB@@IAAXPAUtagPOINT@@W4TBHT@@H@Z 1003fba4 f tb.obj
 0001:0003eba7       ?TrackTbSize@TB@@IAAXPAUtagPOINT@@W4TBHT@@H@Z 1003fba7 f tb.obj
 0001:0003ed1c       __pcd_tbl?FDragTb@TB@@IAAHUtagPOINT@@PAUtagRECT@@PAHHPBU3@32@Z 1003fd1c f tb.obj
 0001:0003ed98       __nep?FDragTb@TB@@IAAHUtagPOINT@@PAUtagRECT@@PAHHPBU3@32@Z 1003fd98 f tb.obj
 0001:0003eda0       __fh?FDragTb@TB@@IAAHUtagPOINT@@PAUtagRECT@@PAHHPBU3@32@Z 1003fda0 f tb.obj
 0001:0003eda3       ?FDragTb@TB@@IAAHUtagPOINT@@PAUtagRECT@@PAHHPBU3@32@Z 1003fda3 f tb.obj
 0001:0003f360       __pcd_tbl?DrawDragRc@@YAXPAUHDC__@@HPAUtagRECT@@H1H@Z 10040360 f tb.obj
 0001:0003f36c       __nep?DrawDragRc@@YAXPAUHDC__@@HPAUtagRECT@@H1H@Z 1004036c f tb.obj
 0001:0003f374       __fh?DrawDragRc@@YAXPAUHDC__@@HPAUtagRECT@@H1H@Z 10040374 f tb.obj
 0001:0003f376       ?DrawDragRc@@YAXPAUHDC__@@HPAUtagRECT@@H1H@Z 10040376 f tb.obj
 0001:0003f3f4       __pcd_tbl?CalcTbSizeTrackRcs@TB@@IAAXW4TBHT@@HPAUtagRECT@@111@Z 100403f4 f tb.obj
 0001:0003f3f8       __nep?CalcTbSizeTrackRcs@TB@@IAAXW4TBHT@@HPAUtagRECT@@111@Z 100403f8 f tb.obj
 0001:0003f400       __fh?CalcTbSizeTrackRcs@TB@@IAAXW4TBHT@@HPAUtagRECT@@111@Z 10040400 f tb.obj
 0001:0003f403       ?CalcTbSizeTrackRcs@TB@@IAAXW4TBHT@@HPAUtagRECT@@111@Z 10040403 f tb.obj
 0001:0003f700       __pcd_tbl?RectFromHeight@TB@@QAAXHHPAUtagRECT@@@Z 10040700 f tb.obj
 0001:0003f704       __nep?RectFromHeight@TB@@QAAXHHPAUtagRECT@@@Z 10040704 f tb.obj
 0001:0003f70c       __fh?RectFromHeight@TB@@QAAXHHPAUtagRECT@@@Z 1004070c f tb.obj
 0001:0003f70e       ?RectFromHeight@TB@@QAAXHHPAUtagRECT@@@Z 1004070e f tb.obj
 0001:0003f7e0       __nep?AssignPcic@@YAXPAU_ctlinfocache@@HHHHHHPAUtagRECT@@@Z 100407e0 f tb.obj
 0001:0003f7e0       __pcd_tbl?AssignPcic@@YAXPAU_ctlinfocache@@HHHHHHPAUtagRECT@@@Z 100407e0 f tb.obj
 0001:0003f7e8       __fh?AssignPcic@@YAXPAU_ctlinfocache@@HHHHHHPAUtagRECT@@@Z 100407e8 f tb.obj
 0001:0003f7ea       ?AssignPcic@@YAXPAU_ctlinfocache@@HHHHHHPAUtagRECT@@@Z 100407ea f tb.obj
 0001:0003f808       __pcd_tbl?AssignPcicFromMDIControl@@YAXPAU_ctlinfocache@@PAU_sctlinfo@@PAU_msoctlenv@@H@Z 10040808 f tb.obj
 0001:0003f80c       __nep?AssignPcicFromMDIControl@@YAXPAU_ctlinfocache@@PAU_sctlinfo@@PAU_msoctlenv@@H@Z 1004080c f tb.obj
 0001:0003f814       __fh?AssignPcicFromMDIControl@@YAXPAU_ctlinfocache@@PAU_sctlinfo@@PAU_msoctlenv@@H@Z 10040814 f tb.obj
 0001:0003f816       ?AssignPcicFromMDIControl@@YAXPAU_ctlinfocache@@PAU_sctlinfo@@PAU_msoctlenv@@H@Z 10040816 f tb.obj
 0001:0003f838       __pcd_tbl?InvalDxyDockPri@TB@@IAAXXZ 10040838 f tb.obj
 0001:0003f838       __nep?InvalDxyDockPri@TB@@IAAXXZ 10040838 f tb.obj
 0001:0003f840       __fh?InvalDxyDockPri@TB@@IAAXXZ 10040840 f tb.obj
 0001:0003f842       ?InvalDxyDockPri@TB@@IAAXXZ 10040842 f tb.obj
 0001:0003f85c       __pcd_tbl?Disable@TB@@QAAXH@Z 1004085c f tb.obj
 0001:0003f85c       __nep?Disable@TB@@QAAXH@Z  1004085c f tb.obj
 0001:0003f864       __fh?Disable@TB@@QAAXH@Z   10040864 f tb.obj
 0001:0003f866       ?Disable@TB@@QAAXH@Z       10040866 f tb.obj
 0001:0003f940       __pcd_tbl?MoveTB@TB@@IAAXPAUtagRECT@@HHH@Z 10040940 f tb.obj
 0001:0003f95c       __nep?MoveTB@TB@@IAAXPAUtagRECT@@HHH@Z 1004095c f tb.obj
 0001:0003f964       __fh?MoveTB@TB@@IAAXPAUtagRECT@@HHH@Z 10040964 f tb.obj
 0001:0003f966       ?MoveTB@TB@@IAAXPAUtagRECT@@HHH@Z 10040966 f tb.obj
 0001:0003fa6c       __pcd_tbl?FProcessChar@TB@@IAAHHDI@Z 10040a6c f tb.obj
 0001:0003fa80       __nep?FProcessChar@TB@@IAAHHDI@Z 10040a80 f tb.obj
 0001:0003fa88       __fh?FProcessChar@TB@@IAAHHDI@Z 10040a88 f tb.obj
 0001:0003fa8a       ?FProcessChar@TB@@IAAHHDI@Z 10040a8a f tb.obj
 0001:0003fb30       __pcd_tbl?IctlSearchChar@TB@@IAAHHD@Z 10040b30 f tb.obj
 0001:0003fb3c       __nep?IctlSearchChar@TB@@IAAHHD@Z 10040b3c f tb.obj
 0001:0003fb44       __fh?IctlSearchChar@TB@@IAAHHD@Z 10040b44 f tb.obj
 0001:0003fb46       ?IctlSearchChar@TB@@IAAHHD@Z 10040b46 f tb.obj
 0001:0003fb94       __pcd_tbl?FSelectFirstOrLast@TB@@AAAHH@Z 10040b94 f tb.obj
 0001:0003fb98       __nep?FSelectFirstOrLast@TB@@AAAHH@Z 10040b98 f tb.obj
 0001:0003fba0       __fh?FSelectFirstOrLast@TB@@AAAHH@Z 10040ba0 f tb.obj
 0001:0003fba2       ?FSelectFirstOrLast@TB@@AAAHH@Z 10040ba2 f tb.obj
 0001:0003fbd4       __pcd_tbl?FMatchAccelerator@TB@@IAAHHG@Z 10040bd4 f tb.obj
 0001:0003fbe4       __nep?FMatchAccelerator@TB@@IAAHHG@Z 10040be4 f tb.obj
 0001:0003fbec       __fh?FMatchAccelerator@TB@@IAAHHG@Z 10040bec f tb.obj
 0001:0003fbef       ?FMatchAccelerator@TB@@IAAHHG@Z 10040bef f tb.obj
 0001:0003fc30       __nep?FCanTranslateMessage@TB@@QAAHPAUtagMSG@@@Z 10040c30 f tb.obj
 0001:0003fc30       __pcd_tbl?FCanTranslateMessage@TB@@QAAHPAUtagMSG@@@Z 10040c30 f tb.obj
 0001:0003fc38       __fh?FCanTranslateMessage@TB@@QAAHPAUtagMSG@@@Z 10040c38 f tb.obj
 0001:0003fc3a       ?FCanTranslateMessage@TB@@QAAHPAUtagMSG@@@Z 10040c3a f tb.obj
 0001:0003fc50       __pcd_tbl?FRecreateHMenu@TB@@IAAHXZ 10040c50 f tb.obj
 0001:0003fc60       __nep?FRecreateHMenu@TB@@IAAHXZ 10040c60 f tb.obj
 0001:0003fc68       __fh?FRecreateHMenu@TB@@IAAHXZ 10040c68 f tb.obj
 0001:0003fc6a       ?FRecreateHMenu@TB@@IAAHXZ 10040c6a f tb.obj
 0001:0003fcd0       __pcd_tbl?FCreateMenu@TB@@IAAHH@Z 10040cd0 f tb.obj
 0001:0003fd10       __nep?FCreateMenu@TB@@IAAHH@Z 10040d10 f tb.obj
 0001:0003fd18       __fh?FCreateMenu@TB@@IAAHH@Z 10040d18 f tb.obj
 0001:0003fd1b       ?FCreateMenu@TB@@IAAHH@Z   10040d1b f tb.obj
 0001:0003ff88       __pcd_tbl?FHasNullSubMenus@TB@@IAAHXZ 10040f88 f tb.obj
 0001:0003ff88       __nep?FHasNullSubMenus@TB@@IAAHXZ 10040f88 f tb.obj
 0001:0003ff90       __fh?FHasNullSubMenus@TB@@IAAHXZ 10040f90 f tb.obj
 0001:0003ff92       ?FHasNullSubMenus@TB@@IAAHXZ 10040f92 f tb.obj
 0001:0003ffd4       __pcd_tbl?FTBToHMenu@TB@@IAAHPAUHMENU__@@@Z 10040fd4 f tb.obj
 0001:0003fff0       __nep?FTBToHMenu@TB@@IAAHPAUHMENU__@@@Z 10040ff0 f tb.obj
 0001:0003fff8       __fh?FTBToHMenu@TB@@IAAHPAUHMENU__@@@Z 10040ff8 f tb.obj
 0001:0003fffb       ?FTBToHMenu@TB@@IAAHPAUHMENU__@@@Z 10040ffb f tb.obj
 0001:000400dc       __pcd_tbl?FUpdateMenuBar@TB@@IAAHXZ 100410dc f tb.obj
 0001:000400f8       __nep?FUpdateMenuBar@TB@@IAAHXZ 100410f8 f tb.obj
 0001:00040100       __fh?FUpdateMenuBar@TB@@IAAHXZ 10041100 f tb.obj
 0001:00040102       ?FUpdateMenuBar@TB@@IAAHXZ 10041102 f tb.obj
 0001:0004014c       __pcd_tbl?FInsertMenuGroup@TB@@IAAHHPAUHMENU__@@PAPAUtagOleMBarRec@@PAF@Z 1004114c f tb.obj
 0001:00040180       __nep?FInsertMenuGroup@TB@@IAAHHPAUHMENU__@@PAPAUtagOleMBarRec@@PAF@Z 10041180 f tb.obj
 0001:00040188       __fh?FInsertMenuGroup@TB@@IAAHHPAUHMENU__@@PAPAUtagOleMBarRec@@PAF@Z 10041188 f tb.obj
 0001:0004018b       ?FInsertMenuGroup@TB@@IAAHHPAUHMENU__@@PAPAUtagOleMBarRec@@PAF@Z 1004118b f tb.obj
 0001:0004025c       __pcd_tbl?PrectGetCurrent@TB@@AAAPAUtagRECT@@XZ 1004125c f tb.obj
 0001:0004025c       __nep?PrectGetCurrent@TB@@AAAPAUtagRECT@@XZ 1004125c f tb.obj
 0001:00040264       __fh?PrectGetCurrent@TB@@AAAPAUtagRECT@@XZ 10041264 f tb.obj
 0001:00040266       ?PrectGetCurrent@TB@@AAAPAUtagRECT@@XZ 10041266 f tb.obj
 0001:00040288       __pcd_tbl?FCanTakeFocus@TB@@QAAHH@Z 10041288 f tb.obj
 0001:00040290       __nep?FCanTakeFocus@TB@@QAAHH@Z 10041290 f tb.obj
 0001:00040298       __fh?FCanTakeFocus@TB@@QAAHH@Z 10041298 f tb.obj
 0001:0004029a       ?FCanTakeFocus@TB@@QAAHH@Z 1004129a f tb.obj
 0001:000402d0       __pcd_tbl?FTBInCascade@TB@@QAAHPAV1@@Z 100412d0 f tb.obj
 0001:000402d4       __nep?FTBInCascade@TB@@QAAHPAV1@@Z 100412d4 f tb.obj
 0001:000402dc       __fh?FTBInCascade@TB@@QAAHPAV1@@Z 100412dc f tb.obj
 0001:000402de       ?FTBInCascade@TB@@QAAHPAV1@@Z 100412de f tb.obj
 0001:0004030c       __pcd_tbl?FTempDelete@TB@@UAAHHH@Z 1004130c f tb.obj
 0001:0004031c       __nep?FTempDelete@TB@@UAAHHH@Z 1004131c f tb.obj
 0001:00040324       __fh?FTempDelete@TB@@UAAHHH@Z 10041324 f tb.obj
 0001:00040327       ?FTempDelete@TB@@UAAHHH@Z  10041327 f tb.obj
 0001:00040428       __pcd_tbl?FRestoreCtrl@TB@@QAAHPAG@Z 10041428 f tb.obj
 0001:00040438       __nep?FRestoreCtrl@TB@@QAAHPAG@Z 10041438 f tb.obj
 0001:00040440       __fh?FRestoreCtrl@TB@@QAAHPAG@Z 10041440 f tb.obj
 0001:00040443       ?FRestoreCtrl@TB@@QAAHPAG@Z 10041443 f tb.obj
 0001:0004049c       __nep?FixTempIndicies@TB@@IAAXHH@Z 1004149c f tb.obj
 0001:0004049c       __pcd_tbl?FixTempIndicies@TB@@IAAXHH@Z 1004149c f tb.obj
 0001:000404a4       __fh?FixTempIndicies@TB@@IAAXHH@Z 100414a4 f tb.obj
 0001:000404a6       ?FixTempIndicies@TB@@IAAXHH@Z 100414a6 f tb.obj
 0001:000404d8       __pcd_tbl?FRecordVBAForTB@TB@@QAAHPAPAUIMsoSimpleRecorder@@PAGH@Z 100414d8 f tb.obj
 0001:000404e4       __nep?FRecordVBAForTB@TB@@QAAHPAPAUIMsoSimpleRecorder@@PAGH@Z 100414e4 f tb.obj
 0001:000404ec       __fh?FRecordVBAForTB@TB@@QAAHPAPAUIMsoSimpleRecorder@@PAGH@Z 100414ec f tb.obj
 0001:000404ef       ?FRecordVBAForTB@TB@@QAAHPAPAUIMsoSimpleRecorder@@PAGH@Z 100414ef f tb.obj
 0001:00040530       __pcd_tbl?MassFlush@TB@@QAAXXZ 10041530 f tb.obj
 0001:00040534       __nep?MassFlush@TB@@QAAXXZ 10041534 f tb.obj
 0001:0004053c       __fh?MassFlush@TB@@QAAXXZ  1004153c f tb.obj
 0001:0004053e       ?MassFlush@TB@@QAAXXZ      1004153e f tb.obj
 0001:00040580       __nep?PrectFromIctl@TB@@QAAPAUtagRECT@@H@Z 10041580 f tb.obj
 0001:00040580       __pcd_tbl?PrectFromIctl@TB@@QAAPAUtagRECT@@H@Z 10041580 f tb.obj
 0001:00040588       __fh?PrectFromIctl@TB@@QAAPAUtagRECT@@H@Z 10041588 f tb.obj
 0001:0004058a       ?PrectFromIctl@TB@@QAAPAUtagRECT@@H@Z 1004158a f tb.obj
 0001:000405a0       __pcd_tbl?FFindAnyControl@TB@@IAAHPAUIMsoControl@@PAH@Z 100415a0 f tb.obj
 0001:000405a4       __nep?FFindAnyControl@TB@@IAAHPAUIMsoControl@@PAH@Z 100415a4 f tb.obj
 0001:000405ac       __fh?FFindAnyControl@TB@@IAAHPAUIMsoControl@@PAH@Z 100415ac f tb.obj
 0001:000405ae       ?FFindAnyControl@TB@@IAAHPAUIMsoControl@@PAH@Z 100415ae f tb.obj
 0001:000405e0       __pcd_tbl?PicmGet@TB@@QAAPAUIMsoComponentManager@@XZ 100415e0 f tb.obj
 0001:000405e4       __nep?PicmGet@TB@@QAAPAUIMsoComponentManager@@XZ 100415e4 f tb.obj
 0001:000405ec       __fh?PicmGet@TB@@QAAPAUIMsoComponentManager@@XZ 100415ec f tb.obj
 0001:000405ee       ?PicmGet@TB@@QAAPAUIMsoComponentManager@@XZ 100415ee f tb.obj
 0001:000405fc       __pcd_tbl?FExclusiveCustomPopup@TB@@QAAHXZ 100415fc f tb.obj
 0001:000405fc       __nep?FExclusiveCustomPopup@TB@@QAAHXZ 100415fc f tb.obj
 0001:00040604       __fh?FExclusiveCustomPopup@TB@@QAAHXZ 10041604 f tb.obj
 0001:00040606       ?FExclusiveCustomPopup@TB@@QAAHXZ 10041606 f tb.obj
 0001:0004063c       __pcd_tbl?FGetParentControl@TB@@UAAHPAPAUIMsoControl@@@Z 1004163c f tb.obj
 0001:0004063c       __nep?FGetParentControl@TB@@UAAHPAPAUIMsoControl@@@Z 1004163c f tb.obj
 0001:00040644       __fh?FGetParentControl@TB@@UAAHPAPAUIMsoControl@@@Z 10041644 f tb.obj
 0001:00040646       ?FGetParentControl@TB@@UAAHPAPAUIMsoControl@@@Z 10041646 f tb.obj
 0001:00040658       __pcd_tbl?SetArrowOrHelpCursor@TB@@AAAXXZ 10041658 f tb.obj
 0001:00040660       __nep?SetArrowOrHelpCursor@TB@@AAAXXZ 10041660 f tb.obj
 0001:00040668       __fh?SetArrowOrHelpCursor@TB@@AAAXXZ 10041668 f tb.obj
 0001:0004066a       ?SetArrowOrHelpCursor@TB@@AAAXXZ 1004166a f tb.obj
 0001:0004067c       __pcd_tbl?FSetTrackingMode@TB@@AAAHH@Z 1004167c f tb.obj
 0001:00040698       __nep?FSetTrackingMode@TB@@AAAHH@Z 10041698 f tb.obj
 0001:000406a0       __fh?FSetTrackingMode@TB@@AAAHH@Z 100416a0 f tb.obj
 0001:000406a2       ?FSetTrackingMode@TB@@AAAHH@Z 100416a2 f tb.obj
 0001:000406fc       __pcd_tbl?EnsureCapture@TB@@AAAXXZ 100416fc f tb.obj
 0001:00040708       __nep?EnsureCapture@TB@@AAAXXZ 10041708 f tb.obj
 0001:00040710       __fh?EnsureCapture@TB@@AAAXXZ 10041710 f tb.obj
 0001:00040712       ?EnsureCapture@TB@@AAAXXZ  10041712 f tb.obj
 0001:00040724       __pcd_tbl?FInMenuChain@TB@@AAAHXZ 10041724 f tb.obj
 0001:0004072c       __nep?FInMenuChain@TB@@AAAHXZ 1004172c f tb.obj
 0001:00040734       __fh?FInMenuChain@TB@@AAAHXZ 10041734 f tb.obj
 0001:00040736       ?FInMenuChain@TB@@AAAHXZ   10041736 f tb.obj
 0001:00040754       __nep?EnterCommand@TB@@IAAXH@Z 10041754 f tb.obj
 0001:00040754       __pcd_tbl?EnterCommand@TB@@IAAXH@Z 10041754 f tb.obj
 0001:0004075c       __fh?EnterCommand@TB@@IAAXH@Z 1004175c f tb.obj
 0001:0004075e       ?EnterCommand@TB@@IAAXH@Z  1004175e f tb.obj
 0001:00040768       __nep?GetCeo@CTLSITE@@UAAXPAU_msoceo@@@Z 10041768 f tb.obj
 0001:00040768       __pcd_tbl?GetCeo@CTLSITE@@UAAXPAU_msoceo@@@Z 10041768 f tb.obj
 0001:00040770       __fh?GetCeo@CTLSITE@@UAAXPAU_msoceo@@@Z 10041770 f tb.obj
 0001:00040772       ?GetCeo@CTLSITE@@UAAXPAU_msoceo@@@Z 10041772 f tb.obj
 0001:00040778       __pcd_tbl?GetCtlenv@CTLSITE@@UAAXPAUIMsoControl@@HPAU_msoctlenv@@@Z 10041778 f tb.obj
 0001:0004078c       __nep?GetCtlenv@CTLSITE@@UAAXPAUIMsoControl@@HPAU_msoctlenv@@@Z 1004178c f tb.obj
 0001:00040794       __fh?GetCtlenv@CTLSITE@@UAAXPAUIMsoControl@@HPAU_msoctlenv@@@Z 10041794 f tb.obj
 0001:00040796       ?GetCtlenv@CTLSITE@@UAAXPAUIMsoControl@@HPAU_msoctlenv@@@Z 10041796 f tb.obj
 0001:00040860       __pcd_tbl?ReleaseCtlenv@CTLSITE@@UAAXPAU_msoctlenv@@@Z 10041860 f tb.obj
 0001:00040868       __nep?ReleaseCtlenv@CTLSITE@@UAAXPAU_msoctlenv@@@Z 10041868 f tb.obj
 0001:00040870       __fh?ReleaseCtlenv@CTLSITE@@UAAXPAU_msoctlenv@@@Z 10041870 f tb.obj
 0001:00040872       ?ReleaseCtlenv@CTLSITE@@UAAXPAU_msoctlenv@@@Z 10041872 f tb.obj
 0001:000408a4       __pcd_tbl?TakeCapture@CTLSITE@@UAAXPAUIMsoControl@@PAUHWND__@@@Z 100418a4 f tb.obj
 0001:000408b4       __nep?TakeCapture@CTLSITE@@UAAXPAUIMsoControl@@PAUHWND__@@@Z 100418b4 f tb.obj
 0001:000408bc       __fh?TakeCapture@CTLSITE@@UAAXPAUIMsoControl@@PAUHWND__@@@Z 100418bc f tb.obj
 0001:000408be       ?TakeCapture@CTLSITE@@UAAXPAUIMsoControl@@PAUHWND__@@@Z 100418be f tb.obj
 0001:000408e0       __pcd_tbl?ReleaseCapture@CTLSITE@@UAAXPAUIMsoControl@@PAUHWND__@@@Z 100418e0 f tb.obj
 0001:000408e8       __nep?ReleaseCapture@CTLSITE@@UAAXPAUIMsoControl@@PAUHWND__@@@Z 100418e8 f tb.obj
 0001:000408f0       __fh?ReleaseCapture@CTLSITE@@UAAXPAUIMsoControl@@PAUHWND__@@@Z 100418f0 f tb.obj
 0001:000408f2       ?ReleaseCapture@CTLSITE@@UAAXPAUIMsoControl@@PAUHWND__@@@Z 100418f2 f tb.obj
 0001:00040904       __pcd_tbl?TakeKeyboard@CTLSITE@@UAAXPAUIMsoControl@@PAUHWND__@@@Z 10041904 f tb.obj
 0001:00040910       __nep?TakeKeyboard@CTLSITE@@UAAXPAUIMsoControl@@PAUHWND__@@@Z 10041910 f tb.obj
 0001:00040918       __fh?TakeKeyboard@CTLSITE@@UAAXPAUIMsoControl@@PAUHWND__@@@Z 10041918 f tb.obj
 0001:0004091a       ?TakeKeyboard@CTLSITE@@UAAXPAUIMsoControl@@PAUHWND__@@@Z 1004191a f tb.obj
 0001:0004095c       __pcd_tbl?ReleaseKeyboard@CTLSITE@@UAAXPAUIMsoControl@@@Z 1004195c f tb.obj
 0001:0004096c       __nep?ReleaseKeyboard@CTLSITE@@UAAXPAUIMsoControl@@@Z 1004196c f tb.obj
 0001:00040974       __fh?ReleaseKeyboard@CTLSITE@@UAAXPAUIMsoControl@@@Z 10041974 f tb.obj
 0001:00040976       ?ReleaseKeyboard@CTLSITE@@UAAXPAUIMsoControl@@@Z 10041976 f tb.obj
 0001:000409e0       __pcd_tbl?FRequestFocus@CTLSITE@@UAAHPAUIMsoControl@@I@Z 100419e0 f tb.obj
 0001:000409e8       __nep?FRequestFocus@CTLSITE@@UAAHPAUIMsoControl@@I@Z 100419e8 f tb.obj
 0001:000409f0       __fh?FRequestFocus@CTLSITE@@UAAHPAUIMsoControl@@I@Z 100419f0 f tb.obj
 0001:000409f2       ?FRequestFocus@CTLSITE@@UAAHPAUIMsoControl@@I@Z 100419f2 f tb.obj
 0001:00040a24       __pcd_tbl?FCanTakeFocus@CTLSITE@@UAAHH@Z 10041a24 f tb.obj
 0001:00040a28       __nep?FCanTakeFocus@CTLSITE@@UAAHH@Z 10041a28 f tb.obj
 0001:00040a30       __fh?FCanTakeFocus@CTLSITE@@UAAHH@Z 10041a30 f tb.obj
 0001:00040a32       ?FCanTakeFocus@CTLSITE@@UAAHH@Z 10041a32 f tb.obj
 0001:00040a3c       __nep?LProcessInputMsg@CTLSITE@@UAAJPAUHWND__@@IIJ@Z 10041a3c f tb.obj
 0001:00040a3c       __pcd_tbl?LProcessInputMsg@CTLSITE@@UAAJPAUHWND__@@IIJ@Z 10041a3c f tb.obj
 0001:00040a44       __fh?LProcessInputMsg@CTLSITE@@UAAJPAUHWND__@@IIJ@Z 10041a44 f tb.obj
 0001:00040a46       ?LProcessInputMsg@CTLSITE@@UAAJPAUHWND__@@IIJ@Z 10041a46 f tb.obj
 0001:00040a58       __pcd_tbl?FIsControlStateValid@CTLSITE@@UAAHPAUIMsoControl@@PAU_msoctlenv@@@Z 10041a58 f tb.obj
 0001:00040a64       __nep?FIsControlStateValid@CTLSITE@@UAAHPAUIMsoControl@@PAU_msoctlenv@@@Z 10041a64 f tb.obj
 0001:00040a6c       __fh?FIsControlStateValid@CTLSITE@@UAAHPAUIMsoControl@@PAU_msoctlenv@@@Z 10041a6c f tb.obj
 0001:00040a6e       ?FIsControlStateValid@CTLSITE@@UAAHPAUIMsoControl@@PAU_msoctlenv@@@Z 10041a6e f tb.obj
 0001:00040ab4       __pcd_tbl?EnterCommand@CTLSITE@@UAAXH@Z 10041ab4 f tb.obj
 0001:00040ab8       __nep?EnterCommand@CTLSITE@@UAAXH@Z 10041ab8 f tb.obj
 0001:00040ac0       __fh?EnterCommand@CTLSITE@@UAAXH@Z 10041ac0 f tb.obj
 0001:00040ac2       ?EnterCommand@CTLSITE@@UAAXH@Z 10041ac2 f tb.obj
 0001:00040acc       __pcd_tbl?FDebugMessage@CTLSITE@@UAAHPAUMSOINST@@IIJ@Z 10041acc f tb.obj
 0001:00040acc       __nep?FDebugMessage@CTLSITE@@UAAHPAUMSOINST@@IIJ@Z 10041acc f tb.obj
 0001:00040ad4       __fh?FDebugMessage@CTLSITE@@UAAHPAUMSOINST@@IIJ@Z 10041ad4 f tb.obj
 0001:00040ad6       ?FDebugMessage@CTLSITE@@UAAHPAUMSOINST@@IIJ@Z 10041ad6 f tb.obj
 0001:00040ad8       __pcd_tbl?FPtbFromControl@@YAHPAUIMsoControl@@PAPAVTB@@@Z 10041ad8 f tb.obj
 0001:00040adc       __nep?FPtbFromControl@@YAHPAUIMsoControl@@PAPAVTB@@@Z 10041adc f tb.obj
 0001:00040ae4       __fh?FPtbFromControl@@YAHPAUIMsoControl@@PAPAVTB@@@Z 10041ae4 f tb.obj
 0001:00040ae6       ?FPtbFromControl@@YAHPAUIMsoControl@@PAPAVTB@@@Z 10041ae6 f tb.obj
 0001:00040af4       __pcd_tbl?FPtbsFromControl@@YAHPAUIMsoControl@@PAPAVTBS@@@Z 10041af4 f tb.obj
 0001:00040af8       __nep?FPtbsFromControl@@YAHPAUIMsoControl@@PAPAVTBS@@@Z 10041af8 f tb.obj
 0001:00040b00       __fh?FPtbsFromControl@@YAHPAUIMsoControl@@PAPAVTBS@@@Z 10041b00 f tb.obj
 0001:00040b02       ?FPtbsFromControl@@YAHPAUIMsoControl@@PAPAVTBS@@@Z 10041b02 f tb.obj
 0001:00040b10       __pcd_tbl?EmptyMenu@@YAXPAUHMENU__@@@Z 10041b10 f tb.obj
 0001:00040b18       __nep?EmptyMenu@@YAXPAUHMENU__@@@Z 10041b18 f tb.obj
 0001:00040b20       __fh?EmptyMenu@@YAXPAUHMENU__@@@Z 10041b20 f tb.obj
 0001:00040b22       ?EmptyMenu@@YAXPAUHMENU__@@@Z 10041b22 f tb.obj
 0001:00040b40       __pcd_tbl?HwndGetTopLevel@@YAPAUHWND__@@PAU1@@Z 10041b40 f tb.obj
 0001:00040b44       __nep?HwndGetTopLevel@@YAPAUHWND__@@PAU1@@Z 10041b44 f tb.obj
 0001:00040b4c       __fh?HwndGetTopLevel@@YAPAUHWND__@@PAU1@@Z 10041b4c f tb.obj
 0001:00040b4e       ?HwndGetTopLevel@@YAPAUHWND__@@PAU1@@Z 10041b4e f tb.obj
 0001:00040b60       __pcd_tbl?DispatchQueuedEvents@@YAXXZ 10041b60 f tb.obj
 0001:00040b80       __nep?DispatchQueuedEvents@@YAXXZ 10041b80 f tb.obj
 0001:00040b88       __fh?DispatchQueuedEvents@@YAXXZ 10041b88 f tb.obj
 0001:00040b8a       ?DispatchQueuedEvents@@YAXXZ 10041b8a f tb.obj
 0001:00040bc8       __pcd_tbl_MsoWPicContainer 10041bc8 f tb.obj
 0001:00040c28       __nep_MsoWPicContainer     10041c28 f tb.obj
 0001:00040c30       __fh_MsoWPicContainer      10041c30 f tb.obj
 0001:00040c33       _MsoWPicContainer          10041c33 f tb.obj
 0001:0004104c       __pcd_tbl_MsoFCreateButtonEx 1004204c f tbbtn.obj
 0001:00041068       __nep_MsoFCreateButtonEx   10042068 f tbbtn.obj
 0001:00041070       __fh_MsoFCreateButtonEx    10042070 f tbbtn.obj
 0001:00041072       _MsoFCreateButtonEx        10042072 f tbbtn.obj
 0001:000410d4       __nep?TB_CopyColor@@YAXPAKK@Z 100420d4 f tbbtn.obj
 0001:000410d4       __pcd_tbl?TB_CopyColor@@YAXPAKK@Z 100420d4 f tbbtn.obj
 0001:000410dc       __fh?TB_CopyColor@@YAXPAKK@Z 100420dc f tbbtn.obj
 0001:000410de       ?TB_CopyColor@@YAXPAKK@Z   100420de f tbbtn.obj
 0001:000410f0       __pcd_tbl_MsoFEditBtnFace  100420f0 f tbbtn.obj
 0001:000410f4       __nep_MsoFEditBtnFace      100420f4 f tbbtn.obj
 0001:000410fc       __fh_MsoFEditBtnFace       100420fc f tbbtn.obj
 0001:000410fe       _MsoFEditBtnFace           100420fe f tbbtn.obj
 0001:00041128       ??0TBCB@@QAA@PAUMSOINST@@HH@Z 10042128 f tbbtn.obj
 0001:000411c4       __pcd_tbl?TbidMenuGet@TBC@@UAAHXZ 100421c4 f tbbtn.obj
 0001:000411c4       __nep?TbidMenuGet@TBC@@UAAHXZ 100421c4 f tbbtn.obj
 0001:000411cc       __fh?TbidMenuGet@TBC@@UAAHXZ 100421cc f tbbtn.obj
 0001:000411ce       ?TbidMenuGet@TBC@@UAAHXZ   100421ce f tbbtn.obj
 0001:000411d0       __pcd_tbl?PitbGet@TBC@@UAAPAUIMsoToolbar@@XZ 100421d0 f tbbtn.obj
 0001:000411d0       __nep?PitbGet@TBC@@UAAPAUIMsoToolbar@@XZ 100421d0 f tbbtn.obj
 0001:000411d8       __fh?PitbGet@TBC@@UAAPAUIMsoToolbar@@XZ 100421d8 f tbbtn.obj
 0001:000411da       ?PitbGet@TBC@@UAAPAUIMsoToolbar@@XZ 100421da f tbbtn.obj
 0001:000411dc       __nep?FSetpitb@TBC@@UAAHPAUIMsoToolbar@@@Z 100421dc f tbbtn.obj
 0001:000411dc       __pcd_tbl?FSetpitb@TBC@@UAAHPAUIMsoToolbar@@@Z 100421dc f tbbtn.obj
 0001:000411e4       __fh?FSetpitb@TBC@@UAAHPAUIMsoToolbar@@@Z 100421e4 f tbbtn.obj
 0001:000411e6       ?FSetpitb@TBC@@UAAHPAUIMsoToolbar@@@Z 100421e6 f tbbtn.obj
 0001:000411e8       __nep?SetPics@TBC@@UAAXPAUIMsoControlSite@@@Z 100421e8 f tbbtn.obj
 0001:000411e8       __pcd_tbl?SetPics@TBC@@UAAXPAUIMsoControlSite@@@Z 100421e8 f tbbtn.obj
 0001:000411f0       __fh?SetPics@TBC@@UAAXPAUIMsoControlSite@@@Z 100421f0 f tbbtn.obj
 0001:000411f2       ?SetPics@TBC@@UAAXPAUIMsoControlSite@@@Z 100421f2 f tbbtn.obj
 0001:000411f8       __pcd_tbl?FHasWindow@TBC@@UAAHXZ 100421f8 f tbbtn.obj
 0001:000411f8       __nep?FHasWindow@TBC@@UAAHXZ 100421f8 f tbbtn.obj
 0001:00041200       __fh?FHasWindow@TBC@@UAAHXZ 10042200 f tbbtn.obj
 0001:00041202       ?FHasWindow@TBC@@UAAHXZ    10042202 f tbbtn.obj
 0001:00041204       __nep?FIsMenu@TBC@@UAAHXZ  10042204 f tbbtn.obj
 0001:00041204       __pcd_tbl?FIsMenu@TBC@@UAAHXZ 10042204 f tbbtn.obj
 0001:0004120c       __fh?FIsMenu@TBC@@UAAHXZ   1004220c f tbbtn.obj
 0001:0004120e       ?FIsMenu@TBC@@UAAHXZ       1004220e f tbbtn.obj
 0001:00041210       __pcd_tbl?FSupportsOnAction@TBCB@@UAAHXZ 10042210 f tbbtn.obj
 0001:00041210       __nep?FSupportsOnAction@TBCB@@UAAHXZ 10042210 f tbbtn.obj
 0001:00041218       __fh?FSupportsOnAction@TBCB@@UAAHXZ 10042218 f tbbtn.obj
 0001:0004121a       ?FSupportsOnAction@TBCB@@UAAHXZ 1004221a f tbbtn.obj
 0001:0004121c       __pcd_tbl??_GTBCB@@UAAPAXI@Z 1004221c f tbbtn.obj
 0001:00041224       __nep??_GTBCB@@UAAPAXI@Z   10042224 f tbbtn.obj
 0001:0004122c       __fh??_GTBCB@@UAAPAXI@Z    1004222c f tbbtn.obj
 0001:0004122e       ??_GTBCB@@UAAPAXI@Z        1004222e f tbbtn.obj
 0001:0004122e       ??_ETBCB@@UAAPAXI@Z        1004222e f tbbtn.obj
 0001:0004123c       __pcd_tbl?FDebugMessage@TBCB@@UAAHPAUMSOINST@@IIJ@Z 1004223c f tbbtn.obj
 0001:0004123c       __nep?FDebugMessage@TBCB@@UAAHPAUMSOINST@@IIJ@Z 1004223c f tbbtn.obj
 0001:00041244       __fh?FDebugMessage@TBCB@@UAAHPAUMSOINST@@IIJ@Z 10042244 f tbbtn.obj
 0001:00041246       ?FDebugMessage@TBCB@@UAAHPAUMSOINST@@IIJ@Z 10042246 f tbbtn.obj
 0001:00041248       __pcd_tbl?FClone@TBCB@@UAAHPAPAUIMsoControl@@PAUIMsoControlSite@@@Z 10042248 f tbbtn.obj
 0001:00041250       __nep?FClone@TBCB@@UAAHPAPAUIMsoControl@@PAUIMsoControlSite@@@Z 10042250 f tbbtn.obj
 0001:00041258       __fh?FClone@TBCB@@UAAHPAPAUIMsoControl@@PAUIMsoControlSite@@@Z 10042258 f tbbtn.obj
 0001:0004125a       ?FClone@TBCB@@UAAHPAPAUIMsoControl@@PAUIMsoControlSite@@@Z 1004225a f tbbtn.obj
 0001:0004128c       __pcd_tbl?FGetString@TBCB@@UAAHHHPAG@Z 1004228c f tbbtn.obj
 0001:00041298       __nep?FGetString@TBCB@@UAAHHHPAG@Z 10042298 f tbbtn.obj
 0001:000412a0       __fh?FGetString@TBCB@@UAAHHHPAG@Z 100422a0 f tbbtn.obj
 0001:000412a3       ?FGetString@TBCB@@UAAHHHPAG@Z 100422a3 f tbbtn.obj
 0001:000412e4       __nep?PtbbtnShiftGet@TBCB@@AAAPAV1@PAU_msoctlenv@@H@Z 100422e4 f tbbtn.obj
 0001:000412e4       __pcd_tbl?PtbbtnShiftGet@TBCB@@AAAPAV1@PAU_msoctlenv@@H@Z 100422e4 f tbbtn.obj
 0001:000412ec       __fh?PtbbtnShiftGet@TBCB@@AAAPAV1@PAU_msoctlenv@@H@Z 100422ec f tbbtn.obj
 0001:000412ee       ?PtbbtnShiftGet@TBCB@@AAAPAV1@PAU_msoctlenv@@H@Z 100422ee f tbbtn.obj
 0001:00041324       __pcd_tbl?LInputEvent@TBCB@@UAAJPAU_msoctlenv@@IIJ@Z 10042324 f tbbtn.obj
 0001:0004134c       __nep?LInputEvent@TBCB@@UAAJPAU_msoctlenv@@IIJ@Z 1004234c f tbbtn.obj
 0001:00041354       __fh?LInputEvent@TBCB@@UAAJPAU_msoctlenv@@IIJ@Z 10042354 f tbbtn.obj
 0001:00041357       ?LInputEvent@TBCB@@UAAJPAU_msoctlenv@@IIJ@Z 10042357 f tbbtn.obj
 0001:000417d8       __nep?FSetCursor@TBCB@@UAAHPAU_msoctlenv@@HH@Z 100427d8 f tbbtn.obj
 0001:000417d8       __pcd_tbl?FSetCursor@TBCB@@UAAHPAU_msoctlenv@@HH@Z 100427d8 f tbbtn.obj
 0001:000417e0       __fh?FSetCursor@TBCB@@UAAHPAU_msoctlenv@@HH@Z 100427e0 f tbbtn.obj
 0001:000417e2       ?FSetCursor@TBCB@@UAAHPAU_msoctlenv@@HH@Z 100427e2 f tbbtn.obj
 0001:000417fc       __nep?FBuiltInFace@TBCB@@QAAHXZ 100427fc f tbbtn.obj
 0001:000417fc       __pcd_tbl?FBuiltInFace@TBCB@@QAAHXZ 100427fc f tbbtn.obj
 0001:00041804       __fh?FBuiltInFace@TBCB@@QAAHXZ 10042804 f tbbtn.obj
 0001:00041806       ?FBuiltInFace@TBCB@@QAAHXZ 10042806 f tbbtn.obj
 0001:00041820       __pcd_tbl?RegisterCustomClipboardFormats@TBCB@@QAAXXZ 10042820 f tbbtn.obj
 0001:00041828       __nep?RegisterCustomClipboardFormats@TBCB@@QAAXXZ 10042828 f tbbtn.obj
 0001:00041830       __fh?RegisterCustomClipboardFormats@TBCB@@QAAXXZ 10042830 f tbbtn.obj
 0001:00041832       ?RegisterCustomClipboardFormats@TBCB@@QAAXXZ 10042832 f tbbtn.obj
 0001:0004185c       __pcd_tbl?FCopyBtnFace@TBCB@@QAAHPAU_msoctlenv@@@Z 1004285c f tbbtn.obj
 0001:0004186c       __nep?FCopyBtnFace@TBCB@@QAAHPAU_msoctlenv@@@Z 1004286c f tbbtn.obj
 0001:00041874       __fh?FCopyBtnFace@TBCB@@QAAHPAU_msoctlenv@@@Z 10042874 f tbbtn.obj
 0001:00041876       ?FCopyBtnFace@TBCB@@QAAHPAU_msoctlenv@@@Z 10042876 f tbbtn.obj
 0001:00041890       __pcd_tbl?FRenderCopyBtnFace@TBCB@@QAAHPAU_msoctlenv@@@Z 10042890 f tbbtn.obj
 0001:000418ec       __nep?FRenderCopyBtnFace@TBCB@@QAAHPAU_msoctlenv@@@Z 100428ec f tbbtn.obj
 0001:000418f4       __fh?FRenderCopyBtnFace@TBCB@@QAAHPAU_msoctlenv@@@Z 100428f4 f tbbtn.obj
 0001:000418f7       ?FRenderCopyBtnFace@TBCB@@QAAHPAU_msoctlenv@@@Z 100428f7 f tbbtn.obj
 0001:00041b54       __pcd_tbl?FPasteBtnFace@TBCB@@QAAHPAU_msoctlenv@@@Z 10042b54 f tbbtn.obj
 0001:00041b8c       __nep?FPasteBtnFace@TBCB@@QAAHPAU_msoctlenv@@@Z 10042b8c f tbbtn.obj
 0001:00041b94       __fh?FPasteBtnFace@TBCB@@QAAHPAU_msoctlenv@@@Z 10042b94 f tbbtn.obj
 0001:00041b97       ?FPasteBtnFace@TBCB@@QAAHPAU_msoctlenv@@@Z 10042b97 f tbbtn.obj
 0001:00041cd8       __pcd_tbl?FInstallCustomFace@TBCB@@QAAHPAUHDC__@@PAXH@Z 10042cd8 f tbbtn.obj
 0001:00041ce0       __nep?FInstallCustomFace@TBCB@@QAAHPAUHDC__@@PAXH@Z 10042ce0 f tbbtn.obj
 0001:00041ce8       __fh?FInstallCustomFace@TBCB@@QAAHPAUHDC__@@PAXH@Z 10042ce8 f tbbtn.obj
 0001:00041cea       ?FInstallCustomFace@TBCB@@QAAHPAUHDC__@@PAXH@Z 10042cea f tbbtn.obj
 0001:00041d04       __pcd_tbl?FEditBtnFace@TBCB@@QAAHPAU_msoctlenv@@@Z 10042d04 f tbbtn.obj
 0001:00041d44       __nep?FEditBtnFace@TBCB@@QAAHPAU_msoctlenv@@@Z 10042d44 f tbbtn.obj
 0001:00041d4c       __fh?FEditBtnFace@TBCB@@QAAHPAU_msoctlenv@@@Z 10042d4c f tbbtn.obj
 0001:00041d4f       ?FEditBtnFace@TBCB@@QAAHPAU_msoctlenv@@@Z 10042d4f f tbbtn.obj
 0001:00041eac       __nep?OnLoseActivation@COMPBASE@@UAAXXZ 10042eac f tbbtn.obj
 0001:00041eac       __pcd_tbl?OnLoseActivation@COMPBASE@@UAAXXZ 10042eac f tbbtn.obj
 0001:00041eb4       __fh?OnLoseActivation@COMPBASE@@UAAXXZ 10042eb4 f tbbtn.obj
 0001:00041eb6       ?OnLoseActivation@COMPBASE@@UAAXXZ 10042eb6 f tbbtn.obj
 0001:00041eb8       __pcd_tbl?OnActivationChange@COMPBASE@@UAAXPAUIMsoComponent@@HPBU_MSOCRINFO@@HPBU_MSOCHOSTINFO@@K@Z 10042eb8 f tbbtn.obj
 0001:00041eb8       __nep?OnActivationChange@COMPBASE@@UAAXPAUIMsoComponent@@HPBU_MSOCRINFO@@HPBU_MSOCHOSTINFO@@K@Z 10042eb8 f tbbtn.obj
 0001:00041ec0       __fh?OnActivationChange@COMPBASE@@UAAXPAUIMsoComponent@@HPBU_MSOCRINFO@@HPBU_MSOCHOSTINFO@@K@Z 10042ec0 f tbbtn.obj
 0001:00041ec2       ?OnActivationChange@COMPBASE@@UAAXPAUIMsoComponent@@HPBU_MSOCRINFO@@HPBU_MSOCHOSTINFO@@K@Z 10042ec2 f tbbtn.obj
 0001:00041ec4       __pcd_tbl?FQueryTerminate@COMPBASE@@UAAHH@Z 10042ec4 f tbbtn.obj
 0001:00041ec4       __nep?FQueryTerminate@COMPBASE@@UAAHH@Z 10042ec4 f tbbtn.obj
 0001:00041ecc       __fh?FQueryTerminate@COMPBASE@@UAAHH@Z 10042ecc f tbbtn.obj
 0001:00041ece       ?FQueryTerminate@COMPBASE@@UAAHH@Z 10042ece f tbbtn.obj
 0001:00041ed0       __pcd_tbl?Grfcrf@TBComponent@@UAAKXZ 10042ed0 f tbbtn.obj
 0001:00041ed0       __nep?Grfcrf@TBComponent@@UAAKXZ 10042ed0 f tbbtn.obj
 0001:00041ed8       __fh?Grfcrf@TBComponent@@UAAKXZ 10042ed8 f tbbtn.obj
 0001:00041eda       ?Grfcrf@TBComponent@@UAAKXZ 10042eda f tbbtn.obj
 0001:00041edc       __pcd_tbl?Grfcadvf@TBComponent@@UAAKXZ 10042edc f tbbtn.obj
 0001:00041edc       __nep?Grfcadvf@TBComponent@@UAAKXZ 10042edc f tbbtn.obj
 0001:00041ee4       __fh?Grfcadvf@TBComponent@@UAAKXZ 10042ee4 f tbbtn.obj
 0001:00041ee6       ?Grfcadvf@TBComponent@@UAAKXZ 10042ee6 f tbbtn.obj
 0001:00041ee8       __pcd_tbl??_GTBComponentModal@@UAAPAXI@Z 10042ee8 f tbbtn.obj
 0001:00041ef0       __nep??_GTBComponentModal@@UAAPAXI@Z 10042ef0 f tbbtn.obj
 0001:00041ef8       __fh??_GTBComponentModal@@UAAPAXI@Z 10042ef8 f tbbtn.obj
 0001:00041efa       ??_GTBComponentModal@@UAAPAXI@Z 10042efa f tbbtn.obj
 0001:00041efa       ??_ETBComponentModal@@UAAPAXI@Z 10042efa f tbbtn.obj
 0001:00041f04       __pcd_tbl?TcidButtonFaceGet@TBCB@@UAAHXZ 10042f04 f tbbtn.obj
 0001:00041f04       __nep?TcidButtonFaceGet@TBCB@@UAAHXZ 10042f04 f tbbtn.obj
 0001:00041f0c       __fh?TcidButtonFaceGet@TBCB@@UAAHXZ 10042f0c f tbbtn.obj
 0001:00041f0e       ?TcidButtonFaceGet@TBCB@@UAAHXZ 10042f0e f tbbtn.obj
 0001:00041f1c       __pcd_tbl?IBtnBuiltInMax@@YAHXZ 10042f1c f tbbtn.obj
 0001:00041f1c       __nep?IBtnBuiltInMax@@YAHXZ 10042f1c f tbbtn.obj
 0001:00041f24       __fh?IBtnBuiltInMax@@YAHXZ 10042f24 f tbbtn.obj
 0001:00041f26       ?IBtnBuiltInMax@@YAHXZ     10042f26 f tbbtn.obj
 0001:00041f34       __pcd_tbl?DrawCustomBitmap@@YAXPAUHDC__@@PAUtagRECT@@PAX2H@Z 10042f34 f tbbtn.obj
 0001:00041f84       __nep?DrawCustomBitmap@@YAXPAUHDC__@@PAUtagRECT@@PAX2H@Z 10042f84 f tbbtn.obj
 0001:00041f8c       __fh?DrawCustomBitmap@@YAXPAUHDC__@@PAUtagRECT@@PAX2H@Z 10042f8c f tbbtn.obj
 0001:00041f8f       ?DrawCustomBitmap@@YAXPAUHDC__@@PAUtagRECT@@PAX2H@Z 10042f8f f tbbtn.obj
 0001:00042378       __pcd_tbl_FDrawFinalIcon   10043378 f tbbtn.obj
 0001:0004237c       __nep_FDrawFinalIcon       1004337c f tbbtn.obj
 0001:00042384       __fh_FDrawFinalIcon        10043384 f tbbtn.obj
 0001:00042386       _FDrawFinalIcon            10043386 f tbbtn.obj
 0001:00042398       __pcd_tbl?DrawButton@@YAXHPAUHDC__@@PAUtagRECT@@K@Z 10043398 f tbbtn.obj
 0001:000423ac       __nep?DrawButton@@YAXHPAUHDC__@@PAUtagRECT@@K@Z 100433ac f tbbtn.obj
 0001:000423b4       __fh?DrawButton@@YAXHPAUHDC__@@PAUtagRECT@@K@Z 100433b4 f tbbtn.obj
 0001:000423b6       ?DrawButton@@YAXHPAUHDC__@@PAUtagRECT@@K@Z 100433b6 f tbbtn.obj
 0001:000423f8       __pcd_tbl?FSave@TBCB@@UAAHPAUIStream@@H@Z 100433f8 f tbbtn.obj
 0001:00042410       __nep?FSave@TBCB@@UAAHPAUIStream@@H@Z 10043410 f tbbtn.obj
 0001:00042418       __fh?FSave@TBCB@@UAAHPAUIStream@@H@Z 10043418 f tbbtn.obj
 0001:0004241b       ?FSave@TBCB@@UAAHPAUIStream@@H@Z 1004341b f tbbtn.obj
 0001:00042544       __pcd_tbl?FLoad@TBCB@@UAAHPAUIStream@@HH@Z 10043544 f tbbtn.obj
 0001:00042568       __nep?FLoad@TBCB@@UAAHPAUIStream@@HH@Z 10043568 f tbbtn.obj
 0001:00042570       __fh?FLoad@TBCB@@UAAHPAUIStream@@HH@Z 10043570 f tbbtn.obj
 0001:00042573       ?FLoad@TBCB@@UAAHPAUIStream@@HH@Z 10043573 f tbbtn.obj
 0001:0004269c       __pcd_tbl?HrLoadOleCache@TBCB@@UAAJPAUIStream@@@Z 1004369c f tbbtn.obj
 0001:000426bc       __nep?HrLoadOleCache@TBCB@@UAAJPAUIStream@@@Z 100436bc f tbbtn.obj
 0001:000426c4       __fh?HrLoadOleCache@TBCB@@UAAJPAUIStream@@@Z 100436c4 f tbbtn.obj
 0001:000426c7       ?HrLoadOleCache@TBCB@@UAAJPAUIStream@@@Z 100436c7 f tbbtn.obj
 0001:0004276c       __pcd_tbl?HrSaveOleCache@TBCB@@UAAJPAUIStream@@@Z 1004376c f tbbtn.obj
 0001:0004277c       __nep?HrSaveOleCache@TBCB@@UAAJPAUIStream@@@Z 1004377c f tbbtn.obj
 0001:00042784       __fh?HrSaveOleCache@TBCB@@UAAJPAUIStream@@@Z 10043784 f tbbtn.obj
 0001:00042787       ?HrSaveOleCache@TBCB@@UAAJPAUIStream@@@Z 10043787 f tbbtn.obj
 0001:00042854       __nep?SetControlUser@TBCB@@UAAXPAUIMsoControlUser@@@Z 10043854 f tbbtn.obj
 0001:00042854       __pcd_tbl?SetControlUser@TBCB@@UAAXPAUIMsoControlUser@@@Z 10043854 f tbbtn.obj
 0001:0004285c       __fh?SetControlUser@TBCB@@UAAXPAUIMsoControlUser@@@Z 1004385c f tbbtn.obj
 0001:0004285e       ?SetControlUser@TBCB@@UAAXPAUIMsoControlUser@@@Z 1004385e f tbbtn.obj
 0001:0004287c       __pcd_tbl?FFindBtnFace@@YAHPAUIMsoButtonUser@@PAPAXHPAPAUBSTRIP@@PAH@Z 1004387c f tbbtn.obj
 0001:00042880       __nep?FFindBtnFace@@YAHPAUIMsoButtonUser@@PAPAXHPAPAUBSTRIP@@PAH@Z 10043880 f tbbtn.obj
 0001:00042888       __fh?FFindBtnFace@@YAHPAUIMsoButtonUser@@PAPAXHPAPAUBSTRIP@@PAH@Z 10043888 f tbbtn.obj
 0001:0004288a       ?FFindBtnFace@@YAHPAUIMsoButtonUser@@PAPAXHPAPAUBSTRIP@@PAH@Z 1004388a f tbbtn.obj
 0001:000428dc       __pcd_tbl_MsoFFindBtnFace  100438dc f tbbtn.obj
 0001:000428e0       __nep_MsoFFindBtnFace      100438e0 f tbbtn.obj
 0001:000428e8       __fh_MsoFFindBtnFace       100438e8 f tbbtn.obj
 0001:000428ea       _MsoFFindBtnFace           100438ea f tbbtn.obj
 0001:000428f0       __pcd_tbl?FGetIDispatchControl@TBCB@@UAAHPAUIMsoToolbarSet@@PAPAUIDispatch@@@Z 100438f0 f tbbtn.obj
 0001:000428f8       __nep?FGetIDispatchControl@TBCB@@UAAHPAUIMsoToolbarSet@@PAPAUIDispatch@@@Z 100438f8 f tbbtn.obj
 0001:00042900       __fh?FGetIDispatchControl@TBCB@@UAAHPAUIMsoToolbarSet@@PAPAUIDispatch@@@Z 10043900 f tbbtn.obj
 0001:00042902       ?FGetIDispatchControl@TBCB@@UAAHPAUIMsoToolbarSet@@PAPAUIDispatch@@@Z 10043902 f tbbtn.obj
 0001:00042930       __pcd_tbl?FNotifyFocus@TBCB@@UAAHPAU_msoctlenv@@HPAUIMsoControl@@I@Z 10043930 f tbbtn.obj
 0001:00042958       __nep?FNotifyFocus@TBCB@@UAAHPAU_msoctlenv@@HPAUIMsoControl@@I@Z 10043958 f tbbtn.obj
 0001:00042960       __fh?FNotifyFocus@TBCB@@UAAHPAU_msoctlenv@@HPAUIMsoControl@@I@Z 10043960 f tbbtn.obj
 0001:00042963       ?FNotifyFocus@TBCB@@UAAHPAU_msoctlenv@@HPAUIMsoControl@@I@Z 10043963 f tbbtn.obj
 0001:00042bb4       __pcd_tbl?FExecute@TBCB@@UAAHXZ 10043bb4 f tbbtn.obj
 0001:00042bc4       __nep?FExecute@TBCB@@UAAHXZ 10043bc4 f tbbtn.obj
 0001:00042bcc       __fh?FExecute@TBCB@@UAAHXZ 10043bcc f tbbtn.obj
 0001:00042bce       ?FExecute@TBCB@@UAAHXZ     10043bce f tbbtn.obj
 0001:00042c40       __pcd_tbl?FSetOnAction@TBCB@@UAAHPAG@Z 10043c40 f tbbtn.obj
 0001:00042c50       __nep?FSetOnAction@TBCB@@UAAHPAG@Z 10043c50 f tbbtn.obj
 0001:00042c58       __fh?FSetOnAction@TBCB@@UAAHPAG@Z 10043c58 f tbbtn.obj
 0001:00042c5a       ?FSetOnAction@TBCB@@UAAHPAG@Z 10043c5a f tbbtn.obj
 0001:00042d00       __pcd_tbl?FCopy@TBCB@@MAAHPAV1@PAUIMsoControlSite@@@Z 10043d00 f tbbtn.obj
 0001:00042d10       __nep?FCopy@TBCB@@MAAHPAV1@PAUIMsoControlSite@@@Z 10043d10 f tbbtn.obj
 0001:00042d18       __fh?FCopy@TBCB@@MAAHPAV1@PAUIMsoControlSite@@@Z 10043d18 f tbbtn.obj
 0001:00042d1a       ?FCopy@TBCB@@MAAHPAV1@PAUIMsoControlSite@@@Z 10043d1a f tbbtn.obj
 0001:00042d8c       __pcd_tbl?FReset@TBCB@@UAAHXZ 10043d8c f tbbtn.obj
 0001:00042d98       __nep?FReset@TBCB@@UAAHXZ  10043d98 f tbbtn.obj
 0001:00042da0       __fh?FReset@TBCB@@UAAHXZ   10043da0 f tbbtn.obj
 0001:00042da2       ?FReset@TBCB@@UAAHXZ       10043da2 f tbbtn.obj
 0001:00042dc8       __pcd_tbl?FShowQuickTip@TBCB@@UAAHPAU_msoctlenv@@@Z 10043dc8 f tbbtn.obj
 0001:00042dcc       __nep?FShowQuickTip@TBCB@@UAAHPAU_msoctlenv@@@Z 10043dcc f tbbtn.obj
 0001:00042dd4       __fh?FShowQuickTip@TBCB@@UAAHPAU_msoctlenv@@@Z 10043dd4 f tbbtn.obj
 0001:00042dd6       ?FShowQuickTip@TBCB@@UAAHPAU_msoctlenv@@@Z 10043dd6 f tbbtn.obj
 0001:00042de4       __pcd_tbl?TbcuOleUsage@TBCB@@UAAHXZ 10043de4 f tbbtn.obj
 0001:00042de8       __nep?TbcuOleUsage@TBCB@@UAAHXZ 10043de8 f tbbtn.obj
 0001:00042df0       __fh?TbcuOleUsage@TBCB@@UAAHXZ 10043df0 f tbbtn.obj
 0001:00042df2       ?TbcuOleUsage@TBCB@@UAAHXZ 10043df2 f tbbtn.obj
 0001:00042e08       __pcd_tbl?FAllocBtnx@TBCB@@QAAHXZ 10043e08 f tbbtn.obj
 0001:00042e0c       __nep?FAllocBtnx@TBCB@@QAAHXZ 10043e0c f tbbtn.obj
 0001:00042e14       __fh?FAllocBtnx@TBCB@@QAAHXZ 10043e14 f tbbtn.obj
 0001:00042e16       ?FAllocBtnx@TBCB@@QAAHXZ   10043e16 f tbbtn.obj
 0001:00042e30       __pcd_tbl?FGlobalCopy@@YAHPAPAXPAX@Z 10043e30 f tbbtn.obj
 0001:00042e40       __nep?FGlobalCopy@@YAHPAPAXPAX@Z 10043e40 f tbbtn.obj
 0001:00042e48       __fh?FGlobalCopy@@YAHPAPAXPAX@Z 10043e48 f tbbtn.obj
 0001:00042e4a       ?FGlobalCopy@@YAHPAPAXPAX@Z 10043e4a f tbbtn.obj
 0001:00042e68       __pcd_tbl?QueryInterface@TBBUC@@UAAJABUGUID@@PAPAX@Z 10043e68 f tbbtn.obj
 0001:00042e6c       __nep?QueryInterface@TBBUC@@UAAJABUGUID@@PAPAX@Z 10043e6c f tbbtn.obj
 0001:00042e74       __fh?QueryInterface@TBBUC@@UAAJABUGUID@@PAPAX@Z 10043e74 f tbbtn.obj
 0001:00042e76       ?QueryInterface@TBBUC@@UAAJABUGUID@@PAPAX@Z 10043e76 f tbbtn.obj
 0001:00042e84       __pcd_tbl?FDebugMessage@TBBUC@@UAAHPAUMSOINST@@IIJ@Z 10043e84 f tbbtn.obj
 0001:00042e84       __nep?FDebugMessage@TBBUC@@UAAHPAUMSOINST@@IIJ@Z 10043e84 f tbbtn.obj
 0001:00042e8c       __fh?FDebugMessage@TBBUC@@UAAHPAUMSOINST@@IIJ@Z 10043e8c f tbbtn.obj
 0001:00042e8e       ?FDebugMessage@TBBUC@@UAAHPAUMSOINST@@IIJ@Z 10043e8e f tbbtn.obj
 0001:00042eac       __nep?FCloneUserClient@TBBUC@@UAAHPAUIMsoControl@@PAXPAPAXPAPAUIMsoControlUser@@@Z 10043eac f tbbtn.obj
 0001:00042eac       __pcd_tbl?FCloneUserClient@TBBUC@@UAAHPAUIMsoControl@@PAXPAPAXPAPAUIMsoControlUser@@@Z 10043eac f tbbtn.obj
 0001:00042eb4       __fh?FCloneUserClient@TBBUC@@UAAHPAUIMsoControl@@PAXPAPAXPAPAUIMsoControlUser@@@Z 10043eb4 f tbbtn.obj
 0001:00042eb6       ?FCloneUserClient@TBBUC@@UAAHPAUIMsoControl@@PAXPAPAXPAPAUIMsoControlUser@@@Z 10043eb6 f tbbtn.obj
 0001:00042edc       __pcd_tbl?NotifyDelete@TBBUC@@UAAXPAUIMsoControl@@PAPAX@Z 10043edc f tbbtn.obj
 0001:00042edc       __nep?NotifyDelete@TBBUC@@UAAXPAUIMsoControl@@PAPAX@Z 10043edc f tbbtn.obj
 0001:00042ee4       __fh?NotifyDelete@TBBUC@@UAAXPAUIMsoControl@@PAPAX@Z 10043ee4 f tbbtn.obj
 0001:00042ee6       ?NotifyDelete@TBBUC@@UAAXPAUIMsoControl@@PAPAX@Z 10043ee6 f tbbtn.obj
 0001:00042f00       __nep?FSaveUserData@TBBUC@@UAAHPAUIMsoControl@@PAPAXPAUIStream@@@Z 10043f00 f tbbtn.obj
 0001:00042f00       __pcd_tbl?FSaveUserData@TBBUC@@UAAHPAUIMsoControl@@PAPAXPAUIStream@@@Z 10043f00 f tbbtn.obj
 0001:00042f08       __fh?FSaveUserData@TBBUC@@UAAHPAUIMsoControl@@PAPAXPAUIStream@@@Z 10043f08 f tbbtn.obj
 0001:00042f0a       ?FSaveUserData@TBBUC@@UAAHPAUIMsoControl@@PAPAXPAUIStream@@@Z 10043f0a f tbbtn.obj
 0001:00042f24       __nep?FAutoVisible@TBBUC@@UAAHPAUIMsoControl@@PAPAX@Z 10043f24 f tbbtn.obj
 0001:00042f24       __pcd_tbl?FAutoVisible@TBBUC@@UAAHPAUIMsoControl@@PAPAX@Z 10043f24 f tbbtn.obj
 0001:00042f2c       __fh?FAutoVisible@TBBUC@@UAAHPAUIMsoControl@@PAPAX@Z 10043f2c f tbbtn.obj
 0001:00042f2e       ?FAutoVisible@TBBUC@@UAAHPAUIMsoControl@@PAPAX@Z 10043f2e f tbbtn.obj
 0001:00042f30       __pcd_tbl?FEnabled@TBBUC@@UAAHPAUIMsoControl@@PAPAX@Z 10043f30 f tbbtn.obj
 0001:00042f30       __nep?FEnabled@TBBUC@@UAAHPAUIMsoControl@@PAPAX@Z 10043f30 f tbbtn.obj
 0001:00042f38       __fh?FEnabled@TBBUC@@UAAHPAUIMsoControl@@PAPAX@Z 10043f38 f tbbtn.obj
 0001:00042f3a       ?FEnabled@TBBUC@@UAAHPAUIMsoControl@@PAPAX@Z 10043f3a f tbbtn.obj
 0001:00042f3c       __nep?FGetAlternateControl@TBBUC@@UAAHPAUIMsoControl@@PAPAXPAPAU2@@Z 10043f3c f tbbtn.obj
 0001:00042f3c       __pcd_tbl?FGetAlternateControl@TBBUC@@UAAHPAUIMsoControl@@PAPAXPAPAU2@@Z 10043f3c f tbbtn.obj
 0001:00042f44       __fh?FGetAlternateControl@TBBUC@@UAAHPAUIMsoControl@@PAPAXPAPAU2@@Z 10043f44 f tbbtn.obj
 0001:00042f46       ?FGetAlternateControl@TBBUC@@UAAHPAUIMsoControl@@PAPAXPAPAU2@@Z 10043f46 f tbbtn.obj
 0001:00042f48       __nep?FChangeLabel@TBBUC@@UAAHPAUIMsoControl@@PAPAXPAG2@Z 10043f48 f tbbtn.obj
 0001:00042f48       __pcd_tbl?FChangeLabel@TBBUC@@UAAHPAUIMsoControl@@PAPAXPAG2@Z 10043f48 f tbbtn.obj
 0001:00042f50       __fh?FChangeLabel@TBBUC@@UAAHPAUIMsoControl@@PAPAXPAG2@Z 10043f50 f tbbtn.obj
 0001:00042f52       ?FChangeLabel@TBBUC@@UAAHPAUIMsoControl@@PAPAXPAG2@Z 10043f52 f tbbtn.obj
 0001:00042f70       __pcd_tbl?FNotifyAction@TBBUC@@UAAHPAUIMsoControl@@PAPAXH@Z 10043f70 f tbbtn.obj
 0001:00042f70       __nep?FNotifyAction@TBBUC@@UAAHPAUIMsoControl@@PAPAXH@Z 10043f70 f tbbtn.obj
 0001:00042f78       __fh?FNotifyAction@TBBUC@@UAAHPAUIMsoControl@@PAPAXH@Z 10043f78 f tbbtn.obj
 0001:00042f7a       ?FNotifyAction@TBBUC@@UAAHPAUIMsoControl@@PAPAXH@Z 10043f7a f tbbtn.obj
 0001:00042f94       __nep?TbcuOleUsage@TBBUC@@UAAHPAUIMsoControl@@PAPAX@Z 10043f94 f tbbtn.obj
 0001:00042f94       __pcd_tbl?TbcuOleUsage@TBBUC@@UAAHPAUIMsoControl@@PAPAX@Z 10043f94 f tbbtn.obj
 0001:00042f9c       __fh?TbcuOleUsage@TBBUC@@UAAHPAUIMsoControl@@PAPAX@Z 10043f9c f tbbtn.obj
 0001:00042f9e       ?TbcuOleUsage@TBBUC@@UAAHPAUIMsoControl@@PAPAX@Z 10043f9e f tbbtn.obj
 0001:00042fc8       __nep?FGetString@TBBUC@@UAAHPAUIMsoControl@@PAPAXHPAG@Z 10043fc8 f tbbtn.obj
 0001:00042fc8       __pcd_tbl?FGetString@TBBUC@@UAAHPAUIMsoControl@@PAPAXHPAG@Z 10043fc8 f tbbtn.obj
 0001:00042fd0       __fh?FGetString@TBBUC@@UAAHPAUIMsoControl@@PAPAXHPAG@Z 10043fd0 f tbbtn.obj
 0001:00042fd2       ?FGetString@TBBUC@@UAAHPAUIMsoControl@@PAPAXHPAG@Z 10043fd2 f tbbtn.obj
 0001:00042ff0       __nep?FGetQuickTip@TBBUC@@UAAHPAUIMsoControl@@PAPAXPAGPAH@Z 10043ff0 f tbbtn.obj
 0001:00042ff0       __pcd_tbl?FGetQuickTip@TBBUC@@UAAHPAUIMsoControl@@PAPAXPAGPAH@Z 10043ff0 f tbbtn.obj
 0001:00042ff8       __fh?FGetQuickTip@TBBUC@@UAAHPAUIMsoControl@@PAPAXPAGPAH@Z 10043ff8 f tbbtn.obj
 0001:00042ffa       ?FGetQuickTip@TBBUC@@UAAHPAUIMsoControl@@PAPAXPAGPAH@Z 10043ffa f tbbtn.obj
 0001:00043018       __pcd_tbl?Tbbs@TBBUC@@UAAIPAUIMsoControl@@PAPAX@Z 10044018 f tbbtn.obj
 0001:00043018       __nep?Tbbs@TBBUC@@UAAIPAUIMsoControl@@PAPAX@Z 10044018 f tbbtn.obj
 0001:00043020       __fh?Tbbs@TBBUC@@UAAIPAUIMsoControl@@PAPAX@Z 10044020 f tbbtn.obj
 0001:00043022       ?Tbbs@TBBUC@@UAAIPAUIMsoControl@@PAPAX@Z 10044022 f tbbtn.obj
 0001:00043028       __nep?FSetCursor@TBBUC@@UAAHPAUIMsoControl@@PAPAXH@Z 10044028 f tbbtn.obj
 0001:00043028       __pcd_tbl?FSetCursor@TBBUC@@UAAHPAUIMsoControl@@PAPAXH@Z 10044028 f tbbtn.obj
 0001:00043030       __fh?FSetCursor@TBBUC@@UAAHPAUIMsoControl@@PAPAXH@Z 10044030 f tbbtn.obj
 0001:00043032       ?FSetCursor@TBBUC@@UAAHPAUIMsoControl@@PAPAXH@Z 10044032 f tbbtn.obj
 0001:0004304c       __pcd_tbl?FClick@TBBUC@@UAAHPAUIMsoControl@@PAPAXPAHH@Z 1004404c f tbbtn.obj
 0001:00043050       __nep?FClick@TBBUC@@UAAHPAUIMsoControl@@PAPAXPAHH@Z 10044050 f tbbtn.obj
 0001:00043058       __fh?FClick@TBBUC@@UAAHPAUIMsoControl@@PAPAXPAHH@Z 10044058 f tbbtn.obj
 0001:0004305a       ?FClick@TBBUC@@UAAHPAUIMsoControl@@PAPAXPAHH@Z 1004405a f tbbtn.obj
 0001:00043068       __pcd_tbl?FFindCustomBtnface@TBBUC@@UAAHPAUIMsoControl@@PAPAXHHPAPAUBSTRIP@@PAHH@Z 10044068 f tbbtn.obj
 0001:00043068       __nep?FFindCustomBtnface@TBBUC@@UAAHPAUIMsoControl@@PAPAXHHPAPAUBSTRIP@@PAHH@Z 10044068 f tbbtn.obj
 0001:00043070       __fh?FFindCustomBtnface@TBBUC@@UAAHPAUIMsoControl@@PAPAXHHPAPAUBSTRIP@@PAHH@Z 10044070 f tbbtn.obj
 0001:00043072       ?FFindCustomBtnface@TBBUC@@UAAHPAUIMsoControl@@PAPAXHHPAPAUBSTRIP@@PAHH@Z 10044072 f tbbtn.obj
 0001:00043098       __pcd_tbl?FWtzGetAccelerator@TBBUC@@UAAHPAUIMsoControl@@PAPAXPAG@Z 10044098 f tbbtn.obj
 0001:0004309c       __nep?FWtzGetAccelerator@TBBUC@@UAAHPAUIMsoControl@@PAPAXPAG@Z 1004409c f tbbtn.obj
 0001:000430a4       __fh?FWtzGetAccelerator@TBBUC@@UAAHPAUIMsoControl@@PAPAXPAG@Z 100440a4 f tbbtn.obj
 0001:000430a6       ?FWtzGetAccelerator@TBBUC@@UAAHPAUIMsoControl@@PAPAXPAG@Z 100440a6 f tbbtn.obj
 0001:000430c0       __pcd_tbl?TbbodDraw@TBBUC@@UAAHPAUIMsoControl@@PAPAXPAUHDC__@@PAUtagRECT@@3U_msoceo@@HH@Z 100440c0 f tbbtn.obj
 0001:000430c0       __nep?TbbodDraw@TBBUC@@UAAHPAUIMsoControl@@PAPAXPAUHDC__@@PAUtagRECT@@3U_msoceo@@HH@Z 100440c0 f tbbtn.obj
 0001:000430c8       __fh?TbbodDraw@TBBUC@@UAAHPAUIMsoControl@@PAPAXPAUHDC__@@PAUtagRECT@@3U_msoceo@@HH@Z 100440c8 f tbbtn.obj
 0001:000430ca       ?TbbodDraw@TBBUC@@UAAHPAUIMsoControl@@PAPAXPAUHDC__@@PAUtagRECT@@3U_msoceo@@HH@Z 100440ca f tbbtn.obj
 0001:000430d0       __pcd_tbl?FHdibFromBitmap@@YAHPAUHDC__@@PAXHPAPAX2@Z 100440d0 f tbbtn.obj
 0001:00043130       __nep?FHdibFromBitmap@@YAHPAUHDC__@@PAXHPAPAX2@Z 10044130 f tbbtn.obj
 0001:00043138       __fh?FHdibFromBitmap@@YAHPAUHDC__@@PAXHPAPAX2@Z 10044138 f tbbtn.obj
 0001:0004313b       ?FHdibFromBitmap@@YAHPAUHDC__@@PAXHPAPAX2@Z 1004413b f tbbtn.obj
 0001:0004323c       __nep??0TBCDDOCX@@QAA@XZ   1004423c f tbcddocx.obj
 0001:0004323c       __pcd_tbl??0TBCDDOCX@@QAA@XZ 1004423c f tbcddocx.obj
 0001:00043244       __fh??0TBCDDOCX@@QAA@XZ    10044244 f tbcddocx.obj
 0001:00043246       ??0TBCDDOCX@@QAA@XZ        10044246 f tbcddocx.obj
 0001:0004325c       __pcd_tbl??_GTBCDDOCX@@UAAPAXI@Z 1004425c f tbcddocx.obj
 0001:00043264       __nep??_GTBCDDOCX@@UAAPAXI@Z 10044264 f tbcddocx.obj
 0001:0004326c       __fh??_GTBCDDOCX@@UAAPAXI@Z 1004426c f tbcddocx.obj
 0001:0004326e       ??_ETBCDDOCX@@UAAPAXI@Z    1004426e f tbcddocx.obj
 0001:0004326e       ??_GTBCDDOCX@@UAAPAXI@Z    1004426e f tbcddocx.obj
 0001:00043278       __pcd_tbl??1TBCDDOCX@@UAA@XZ 10044278 f tbcddocx.obj
 0001:00043278       __nep??1TBCDDOCX@@UAA@XZ   10044278 f tbcddocx.obj
 0001:00043280       __fh??1TBCDDOCX@@UAA@XZ    10044280 f tbcddocx.obj
 0001:00043282       ??1TBCDDOCX@@UAA@XZ        10044282 f tbcddocx.obj
 0001:00043288       __pcd_tbl?QueryInterface@TBCDDOCX@@UAAJABUGUID@@PAPAX@Z 10044288 f tbcddocx.obj
 0001:0004328c       __nep?QueryInterface@TBCDDOCX@@UAAJABUGUID@@PAPAX@Z 1004428c f tbcddocx.obj
 0001:00043294       __fh?QueryInterface@TBCDDOCX@@UAAJABUGUID@@PAPAX@Z 10044294 f tbcddocx.obj
 0001:00043296       ?QueryInterface@TBCDDOCX@@UAAJABUGUID@@PAPAX@Z 10044296 f tbcddocx.obj
 0001:000432a4       __nep?FDebugMessage@TBCDDOCX@@UAAHPAUMSOINST@@IIJ@Z 100442a4 f tbcddocx.obj
 0001:000432a4       __pcd_tbl?FDebugMessage@TBCDDOCX@@UAAHPAUMSOINST@@IIJ@Z 100442a4 f tbcddocx.obj
 0001:000432ac       __fh?FDebugMessage@TBCDDOCX@@UAAHPAUMSOINST@@IIJ@Z 100442ac f tbcddocx.obj
 0001:000432ae       ?FDebugMessage@TBCDDOCX@@UAAHPAUMSOINST@@IIJ@Z 100442ae f tbcddocx.obj
 0001:000432c4       __pcd_tbl?FCloneUserClient@TBCDDOCX@@UAAHPAUIMsoControl@@PAXPAPAXPAPAUIMsoControlUser@@@Z 100442c4 f tbcddocx.obj
 0001:000432c4       __nep?FCloneUserClient@TBCDDOCX@@UAAHPAUIMsoControl@@PAXPAPAXPAPAUIMsoControlUser@@@Z 100442c4 f tbcddocx.obj
 0001:000432cc       __fh?FCloneUserClient@TBCDDOCX@@UAAHPAUIMsoControl@@PAXPAPAXPAPAUIMsoControlUser@@@Z 100442cc f tbcddocx.obj
 0001:000432ce       ?FCloneUserClient@TBCDDOCX@@UAAHPAUIMsoControl@@PAXPAPAXPAPAUIMsoControlUser@@@Z 100442ce f tbcddocx.obj
 0001:000432e0       __pcd_tbl?NotifyDelete@TBCDDOCX@@UAAXPAUIMsoControl@@PAPAX@Z 100442e0 f tbcddocx.obj
 0001:000432e0       __nep?NotifyDelete@TBCDDOCX@@UAAXPAUIMsoControl@@PAPAX@Z 100442e0 f tbcddocx.obj
 0001:000432e8       __fh?NotifyDelete@TBCDDOCX@@UAAXPAUIMsoControl@@PAPAX@Z 100442e8 f tbcddocx.obj
 0001:000432ea       ?NotifyDelete@TBCDDOCX@@UAAXPAUIMsoControl@@PAPAX@Z 100442ea f tbcddocx.obj
 0001:00043304       __pcd_tbl?FEnabled@TBCDDOCX@@UAAHPAUIMsoControl@@PAPAX@Z 10044304 f tbcddocx.obj
 0001:00043304       __nep?FEnabled@TBCDDOCX@@UAAHPAUIMsoControl@@PAPAX@Z 10044304 f tbcddocx.obj
 0001:0004330c       __fh?FEnabled@TBCDDOCX@@UAAHPAUIMsoControl@@PAPAX@Z 1004430c f tbcddocx.obj
 0001:0004330e       ?FEnabled@TBCDDOCX@@UAAHPAUIMsoControl@@PAPAX@Z 1004430e f tbcddocx.obj
 0001:0004331c       __pcd_tbl?FGetAlternateControl@TBCDDOCX@@UAAHPAUIMsoControl@@PAPAXPAPAU2@@Z 1004431c f tbcddocx.obj
 0001:0004331c       __nep?FGetAlternateControl@TBCDDOCX@@UAAHPAUIMsoControl@@PAPAXPAPAU2@@Z 1004431c f tbcddocx.obj
 0001:00043324       __fh?FGetAlternateControl@TBCDDOCX@@UAAHPAUIMsoControl@@PAPAXPAPAU2@@Z 10044324 f tbcddocx.obj
 0001:00043326       ?FGetAlternateControl@TBCDDOCX@@UAAHPAUIMsoControl@@PAPAXPAPAU2@@Z 10044326 f tbcddocx.obj
 0001:00043334       __pcd_tbl?FChangeLabel@TBCDDOCX@@UAAHPAUIMsoControl@@PAPAXPAG2@Z 10044334 f tbcddocx.obj
 0001:00043334       __nep?FChangeLabel@TBCDDOCX@@UAAHPAUIMsoControl@@PAPAXPAG2@Z 10044334 f tbcddocx.obj
 0001:0004333c       __fh?FChangeLabel@TBCDDOCX@@UAAHPAUIMsoControl@@PAPAXPAG2@Z 1004433c f tbcddocx.obj
 0001:0004333e       ?FChangeLabel@TBCDDOCX@@UAAHPAUIMsoControl@@PAPAXPAG2@Z 1004433e f tbcddocx.obj
 0001:00043350       __nep?FNotifyAction@TBCDDOCX@@UAAHPAUIMsoControl@@PAPAXH@Z 10044350 f tbcddocx.obj
 0001:00043350       __pcd_tbl?FNotifyAction@TBCDDOCX@@UAAHPAUIMsoControl@@PAPAXH@Z 10044350 f tbcddocx.obj
 0001:00043358       __fh?FNotifyAction@TBCDDOCX@@UAAHPAUIMsoControl@@PAPAXH@Z 10044358 f tbcddocx.obj
 0001:0004335a       ?FNotifyAction@TBCDDOCX@@UAAHPAUIMsoControl@@PAPAXH@Z 1004435a f tbcddocx.obj
 0001:00043368       __nep?TbcuOleUsage@TBCDDOCX@@UAAHPAUIMsoControl@@PAPAX@Z 10044368 f tbcddocx.obj
 0001:00043368       __pcd_tbl?TbcuOleUsage@TBCDDOCX@@UAAHPAUIMsoControl@@PAPAX@Z 10044368 f tbcddocx.obj
 0001:00043370       __fh?TbcuOleUsage@TBCDDOCX@@UAAHPAUIMsoControl@@PAPAX@Z 10044370 f tbcddocx.obj
 0001:00043372       ?TbcuOleUsage@TBCDDOCX@@UAAHPAUIMsoControl@@PAPAX@Z 10044372 f tbcddocx.obj
 0001:00043374       __nep?FGetString@TBCDDOCX@@UAAHPAUIMsoControl@@PAPAXHPAG@Z 10044374 f tbcddocx.obj
 0001:00043374       __pcd_tbl?FGetString@TBCDDOCX@@UAAHPAUIMsoControl@@PAPAXHPAG@Z 10044374 f tbcddocx.obj
 0001:0004337c       __fh?FGetString@TBCDDOCX@@UAAHPAUIMsoControl@@PAPAXHPAG@Z 1004437c f tbcddocx.obj
 0001:0004337e       ?FGetString@TBCDDOCX@@UAAHPAUIMsoControl@@PAPAXHPAG@Z 1004437e f tbcddocx.obj
 0001:00043390       __nep?FGetQuickTip@TBCDDOCX@@UAAHPAUIMsoControl@@PAPAXPAGPAH@Z 10044390 f tbcddocx.obj
 0001:00043390       __pcd_tbl?FGetQuickTip@TBCDDOCX@@UAAHPAUIMsoControl@@PAPAXPAGPAH@Z 10044390 f tbcddocx.obj
 0001:00043398       __fh?FGetQuickTip@TBCDDOCX@@UAAHPAUIMsoControl@@PAPAXPAGPAH@Z 10044398 f tbcddocx.obj
 0001:0004339a       ?FGetQuickTip@TBCDDOCX@@UAAHPAUIMsoControl@@PAPAXPAGPAH@Z 1004439a f tbcddocx.obj
 0001:000433ac       __nep?GetText@TBCDDOCX@@UAAXPAUIMsoControl@@PAPAXPAG@Z 100443ac f tbcddocx.obj
 0001:000433ac       __pcd_tbl?GetText@TBCDDOCX@@UAAXPAUIMsoControl@@PAPAXPAG@Z 100443ac f tbcddocx.obj
 0001:000433b4       __fh?GetText@TBCDDOCX@@UAAXPAUIMsoControl@@PAPAXPAG@Z 100443b4 f tbcddocx.obj
 0001:000433b6       ?GetText@TBCDDOCX@@UAAXPAUIMsoControl@@PAPAXPAG@Z 100443b6 f tbcddocx.obj
 0001:000433b8       __pcd_tbl?GetDropItem@TBCDDOCX@@UAAXPAUIMsoControl@@PAPAXPAGHPAH@Z 100443b8 f tbcddocx.obj
 0001:000433b8       __nep?GetDropItem@TBCDDOCX@@UAAXPAUIMsoControl@@PAPAXPAGHPAH@Z 100443b8 f tbcddocx.obj
 0001:000433c0       __fh?GetDropItem@TBCDDOCX@@UAAXPAUIMsoControl@@PAPAXPAGHPAH@Z 100443c0 f tbcddocx.obj
 0001:000433c2       ?GetDropItem@TBCDDOCX@@UAAXPAUIMsoControl@@PAPAXPAGHPAH@Z 100443c2 f tbcddocx.obj
 0001:000433c4       __nep?CItems@TBCDDOCX@@UAAHPAUIMsoControl@@PAPAXPAH2@Z 100443c4 f tbcddocx.obj
 0001:000433c4       __pcd_tbl?CItems@TBCDDOCX@@UAAHPAUIMsoControl@@PAPAXPAH2@Z 100443c4 f tbcddocx.obj
 0001:000433cc       __fh?CItems@TBCDDOCX@@UAAHPAUIMsoControl@@PAPAXPAH2@Z 100443cc f tbcddocx.obj
 0001:000433ce       ?CItems@TBCDDOCX@@UAAHPAUIMsoControl@@PAPAXPAH2@Z 100443ce f tbcddocx.obj
 0001:000433d0       __pcd_tbl?CDropdownLines@TBCDDOCX@@UAAHPAUIMsoControl@@PAPAX@Z 100443d0 f tbcddocx.obj
 0001:000433d0       __nep?CDropdownLines@TBCDDOCX@@UAAHPAUIMsoControl@@PAPAX@Z 100443d0 f tbcddocx.obj
 0001:000433d8       __fh?CDropdownLines@TBCDDOCX@@UAAHPAUIMsoControl@@PAPAX@Z 100443d8 f tbcddocx.obj
 0001:000433da       ?CDropdownLines@TBCDDOCX@@UAAHPAUIMsoControl@@PAPAX@Z 100443da f tbcddocx.obj
 0001:000433dc       __pcd_tbl?DxDropdown@TBCDDOCX@@UAAHPAUIMsoControl@@PAPAXH@Z 100443dc f tbcddocx.obj
 0001:000433dc       __nep?DxDropdown@TBCDDOCX@@UAAHPAUIMsoControl@@PAPAXH@Z 100443dc f tbcddocx.obj
 0001:000433e4       __fh?DxDropdown@TBCDDOCX@@UAAHPAUIMsoControl@@PAPAXH@Z 100443e4 f tbcddocx.obj
 0001:000433e6       ?DxDropdown@TBCDDOCX@@UAAHPAUIMsoControl@@PAPAXH@Z 100443e6 f tbcddocx.obj
 0001:000433e8       __nep?DyDropdownItem@TBCDDOCX@@UAAHPAUIMsoControl@@PAPAXPAH@Z 100443e8 f tbcddocx.obj
 0001:000433e8       __pcd_tbl?DyDropdownItem@TBCDDOCX@@UAAHPAUIMsoControl@@PAPAXPAH@Z 100443e8 f tbcddocx.obj
 0001:000433f0       __fh?DyDropdownItem@TBCDDOCX@@UAAHPAUIMsoControl@@PAPAXPAH@Z 100443f0 f tbcddocx.obj
 0001:000433f2       ?DyDropdownItem@TBCDDOCX@@UAAHPAUIMsoControl@@PAPAXPAH@Z 100443f2 f tbcddocx.obj
 0001:000433f8       __pcd_tbl?ISelection@TBCDDOCX@@UAAHPAUIMsoControl@@PAPAX@Z 100443f8 f tbcddocx.obj
 0001:000433f8       __nep?ISelection@TBCDDOCX@@UAAHPAUIMsoControl@@PAPAX@Z 100443f8 f tbcddocx.obj
 0001:00043400       __fh?ISelection@TBCDDOCX@@UAAHPAUIMsoControl@@PAPAX@Z 10044400 f tbcddocx.obj
 0001:00043402       ?ISelection@TBCDDOCX@@UAAHPAUIMsoControl@@PAPAX@Z 10044402 f tbcddocx.obj
 0001:00043404       __nep?Dropping@TBCDDOCX@@UAAXPAUIMsoControl@@PAPAXPAUHFONT__@@@Z 10044404 f tbcddocx.obj
 0001:00043404       __pcd_tbl?Dropping@TBCDDOCX@@UAAXPAUIMsoControl@@PAPAXPAUHFONT__@@@Z 10044404 f tbcddocx.obj
 0001:0004340c       __fh?Dropping@TBCDDOCX@@UAAXPAUIMsoControl@@PAPAXPAUHFONT__@@@Z 1004440c f tbcddocx.obj
 0001:0004340e       ?Dropping@TBCDDOCX@@UAAXPAUIMsoControl@@PAPAXPAUHFONT__@@@Z 1004440e f tbcddocx.obj
 0001:0004341c       __nep?UpdateStatusBar@TBCDDOCX@@UAAXPAUIMsoControl@@PAPAXHPAG@Z 1004441c f tbcddocx.obj
 0001:0004341c       __pcd_tbl?UpdateStatusBar@TBCDDOCX@@UAAXPAUIMsoControl@@PAPAXHPAG@Z 1004441c f tbcddocx.obj
 0001:00043424       __fh?UpdateStatusBar@TBCDDOCX@@UAAXPAUIMsoControl@@PAPAXHPAG@Z 10044424 f tbcddocx.obj
 0001:00043426       ?UpdateStatusBar@TBCDDOCX@@UAAXPAUIMsoControl@@PAPAXHPAG@Z 10044426 f tbcddocx.obj
 0001:00043428       __nep?Pick@TBCDDOCX@@UAAXPAUIMsoControl@@PAPAXHH@Z 10044428 f tbcddocx.obj
 0001:00043428       __pcd_tbl?Pick@TBCDDOCX@@UAAXPAUIMsoControl@@PAPAXHH@Z 10044428 f tbcddocx.obj
 0001:00043430       __fh?Pick@TBCDDOCX@@UAAXPAUIMsoControl@@PAPAXHH@Z 10044430 f tbcddocx.obj
 0001:00043432       ?Pick@TBCDDOCX@@UAAXPAUIMsoControl@@PAPAXHH@Z 10044432 f tbcddocx.obj
 0001:00043434       __nep?EnterText@TBCDDOCX@@UAAXPAUIMsoControl@@PAPAXPAGH@Z 10044434 f tbcddocx.obj
 0001:00043434       __pcd_tbl?EnterText@TBCDDOCX@@UAAXPAUIMsoControl@@PAPAXPAGH@Z 10044434 f tbcddocx.obj
 0001:0004343c       __fh?EnterText@TBCDDOCX@@UAAXPAUIMsoControl@@PAPAXPAGH@Z 1004443c f tbcddocx.obj
 0001:0004343e       ?EnterText@TBCDDOCX@@UAAXPAUIMsoControl@@PAPAXPAGH@Z 1004443e f tbcddocx.obj
 0001:00043440       __nep?FSaveUserData@TBCDDOCX@@UAAHPAUIMsoControl@@PAPAXPAUIStream@@@Z 10044440 f tbcddocx.obj
 0001:00043440       __pcd_tbl?FSaveUserData@TBCDDOCX@@UAAHPAUIMsoControl@@PAPAXPAUIStream@@@Z 10044440 f tbcddocx.obj
