 MSO97DRh

 Timestamp is 318fe38c (Tue May 07 16:58:04 1996)

 Preferred load address is 10000000

 Start         Length     Name                   Class
 0001:00000000 001480d0H .text                   CODE
 0001:001480d0 00003f80H .text$_glue             CODE
 0002:00000000 0000a9e4H .data                   DATA
 0002:0000a9e4 00000004H .CRT$XCA                DATA
 0002:0000a9e8 0000000cH .CRT$XCU                DATA
 0002:0000a9f4 00000004H .CRT$XCZ                DATA
 0002:0000a9f8 00000004H .CRT$XIA                DATA
 0002:0000a9fc 00000008H .CRT$XIC                DATA
 0002:0000aa04 00000004H .CRT$XIZ                DATA
 0002:0000aa08 00000004H .CRT$XPA                DATA
 0002:0000aa0c 00000004H .CRT$XPZ                DATA
 0002:0000aa10 00000004H .CRT$XTA                DATA
 0002:0000aa14 00000004H .CRT$XTZ                DATA
 0002:0000aa18 00000000H .drectve                DATA
 0002:0000aa18 00000000H .ppcshl                 DATA
 0002:0000aa18 00028154H .rdata                  DATA
 0002:00032b70 0000133eH .bss                    DATA
 0003:00000000 0001b204H .ppcldr                 DATA
 0004:00000000 0000003cH ;;afp0                  DATA
 0005:00000000 00000110H .debug$E                DATA
 0005:00000110 00000000H .debug$F                DATA
 0005:00000110 00000038H .debug$H                DATA
 0005:ffe61000 00000000H .debug$P                DATA
 0005:ffe61000 00000000H .debug$S                DATA
 0005:ffe61000 00000000H .debug$T                DATA

  Address         Publics by Value              Rva+Base   Lib:Object

 0002:00030514       ._deflate_stored           1017e514   gz:deflate.obj
 0002:0000a9ec       ._$E2                      101589ec   gelpflat.obj
 0002:00030514       ._deflate_fast             1017e514   gz:deflate.obj
 0002:0000a9e8       ._$E3                      101589e8   drdgui.obj
 0002:00030514       ._deflate_slow             1017e514   gz:deflate.obj
 0002:0000a9ec       ._$E5                      101589ec   gelpflat.obj
 0001:00000000       __pcd_tbl??0GELPaletteMakerEntry@@QAA@K@Z 10001000 f drdlgfls.obj
 0001:00000000       __nep??0GELPaletteMakerEntry@@QAA@K@Z 10001000 f drdlgfls.obj
 0001:00000008       __fh??0GELPaletteMakerEntry@@QAA@K@Z 10001008 f drdlgfls.obj
 0001:0000000a       ??0GELPaletteMakerEntry@@QAA@K@Z 1000100a f drdlgfls.obj
 0001:00000030       __nep??0GELPaletteMakerEntry@@QAA@UtagPALETTEENTRY@@@Z 10001030 f drdlgfls.obj
 0001:00000030       __pcd_tbl??0GELPaletteMakerEntry@@QAA@UtagPALETTEENTRY@@@Z 10001030 f drdlgfls.obj
 0001:00000038       __fh??0GELPaletteMakerEntry@@QAA@UtagPALETTEENTRY@@@Z 10001038 f drdlgfls.obj
 0001:0000003a       ??0GELPaletteMakerEntry@@QAA@UtagPALETTEENTRY@@@Z 1000103a f drdlgfls.obj
 0001:00000060       __pcd_tbl?FCreateFillsDlg@DlgFills@@QAAHXZ 10001060 f drdlgfls.obj
 0001:00000064       __nep?FCreateFillsDlg@DlgFills@@QAAHXZ 10001064 f drdlgfls.obj
 0001:0000006c       __fh?FCreateFillsDlg@DlgFills@@QAAHXZ 1000106c f drdlgfls.obj
 0001:0000006e       ?FCreateFillsDlg@DlgFills@@QAAHXZ 1000106e f drdlgfls.obj
 0001:00000084       __pcd_tbl?FIsMsgForColor@@YAHPAUtagMSG@@@Z 10001084 f drdlgfls.obj
 0001:00000090       __nep?FIsMsgForColor@@YAHPAUtagMSG@@@Z 10001090 f drdlgfls.obj
 0001:00000098       __fh?FIsMsgForColor@@YAHPAUtagMSG@@@Z 10001098 f drdlgfls.obj
 0001:0000009a       ?FIsMsgForColor@@YAHPAUtagMSG@@@Z 1000109a f drdlgfls.obj
 0001:000000d0       __pcd_tbl?FIsMsgForFills@@YAHPAUtagMSG@@@Z 100010d0 f drdlgfls.obj
 0001:000000dc       __nep?FIsMsgForFills@@YAHPAUtagMSG@@@Z 100010dc f drdlgfls.obj
 0001:000000e4       __fh?FIsMsgForFills@@YAHPAUtagMSG@@@Z 100010e4 f drdlgfls.obj
 0001:000000e6       ?FIsMsgForFills@@YAHPAUtagMSG@@@Z 100010e6 f drdlgfls.obj
 0001:00000118       __pcd_tbl?FRunFillsDlg@DlgFills@@QAAHH@Z 10001118 f drdlgfls.obj
 0001:00000130       __nep?FRunFillsDlg@DlgFills@@QAAHH@Z 10001130 f drdlgfls.obj
 0001:00000138       __fh?FRunFillsDlg@DlgFills@@QAAHH@Z 10001138 f drdlgfls.obj
 0001:0000013a       ?FRunFillsDlg@DlgFills@@QAAHH@Z 1000113a f drdlgfls.obj
 0001:000001c0       __pcd_tbl?FSetCurrent@DlgFills@@UAAHXZ 100011c0 f drdlgfls.obj
 0001:000001c4       __nep?FSetCurrent@DlgFills@@UAAHXZ 100011c4 f drdlgfls.obj
 0001:000001cc       __fh?FSetCurrent@DlgFills@@UAAHXZ 100011cc f drdlgfls.obj
 0001:000001ce       ?FSetCurrent@DlgFills@@UAAHXZ 100011ce f drdlgfls.obj
 0001:000001dc       __pcd_tbl?FEndDlg@DlgFills@@UAAHPAH@Z 100011dc f drdlgfls.obj
 0001:000001f0       __nep?FEndDlg@DlgFills@@UAAHPAH@Z 100011f0 f drdlgfls.obj
 0001:000001f8       __fh?FEndDlg@DlgFills@@UAAHPAH@Z 100011f8 f drdlgfls.obj
 0001:000001fa       ?FEndDlg@DlgFills@@UAAHPAH@Z 100011fa f drdlgfls.obj
 0001:00000228       __pcd_tbl?Free@DlgFills@@UAAXXZ 10001228 f drdlgfls.obj
 0001:0000023c       __nep?Free@DlgFills@@UAAXXZ 1000123c f drdlgfls.obj
 0001:00000244       __fh?Free@DlgFills@@UAAXXZ 10001244 f drdlgfls.obj
 0001:00000246       ?Free@DlgFills@@UAAXXZ     10001246 f drdlgfls.obj
 0001:00000264       __pcd_tbl?GetWindow@DlgFills@@UAAPAUHWND__@@XZ 10001264 f drdlgfls.obj
 0001:00000268       __nep?GetWindow@DlgFills@@UAAPAUHWND__@@XZ 10001268 f drdlgfls.obj
 0001:00000270       __fh?GetWindow@DlgFills@@UAAPAUHWND__@@XZ 10001270 f drdlgfls.obj
 0001:00000272       ?GetWindow@DlgFills@@UAAPAUHWND__@@XZ 10001272 f drdlgfls.obj
 0001:00000274       __pcd_tbl?AvoidDialog@DlgFills@@UAAXPAUIMsoDrawingUserInterface@@@Z 10001274 f drdlgfls.obj
 0001:00000278       __nep?AvoidDialog@DlgFills@@UAAXPAUIMsoDrawingUserInterface@@@Z 10001278 f drdlgfls.obj
 0001:00000280       __fh?AvoidDialog@DlgFills@@UAAXPAUIMsoDrawingUserInterface@@@Z 10001280 f drdlgfls.obj
 0001:00000282       ?AvoidDialog@DlgFills@@UAAXPAUIMsoDrawingUserInterface@@@Z 10001282 f drdlgfls.obj
 0001:00000288       __pcd_tbl?FCreateColorsDlg@ColorDlg@@QAAHXZ 10001288 f drdlgfls.obj
 0001:0000028c       __nep?FCreateColorsDlg@ColorDlg@@QAAHXZ 1000128c f drdlgfls.obj
 0001:00000294       __fh?FCreateColorsDlg@ColorDlg@@QAAHXZ 10001294 f drdlgfls.obj
 0001:00000296       ?FCreateColorsDlg@ColorDlg@@QAAHXZ 10001296 f drdlgfls.obj
 0001:000002a4       __pcd_tbl?FRunColorsDlg@ColorDlg@@QAAHH@Z 100012a4 f drdlgfls.obj
 0001:000002bc       __nep?FRunColorsDlg@ColorDlg@@QAAHH@Z 100012bc f drdlgfls.obj
 0001:000002c4       __fh?FRunColorsDlg@ColorDlg@@QAAHH@Z 100012c4 f drdlgfls.obj
 0001:000002c6       ?FRunColorsDlg@ColorDlg@@QAAHH@Z 100012c6 f drdlgfls.obj
 0001:0000034c       __pcd_tbl?FSetCurrent@ColorDlg@@UAAHXZ 1000134c f drdlgfls.obj
 0001:00000350       __nep?FSetCurrent@ColorDlg@@UAAHXZ 10001350 f drdlgfls.obj
 0001:00000358       __fh?FSetCurrent@ColorDlg@@UAAHXZ 10001358 f drdlgfls.obj
 0001:0000035a       ?FSetCurrent@ColorDlg@@UAAHXZ 1000135a f drdlgfls.obj
 0001:00000368       __pcd_tbl?FEndDlg@ColorDlg@@UAAHPAH@Z 10001368 f drdlgfls.obj
 0001:0000037c       __nep?FEndDlg@ColorDlg@@UAAHPAH@Z 1000137c f drdlgfls.obj
 0001:00000384       __fh?FEndDlg@ColorDlg@@UAAHPAH@Z 10001384 f drdlgfls.obj
 0001:00000386       ?FEndDlg@ColorDlg@@UAAHPAH@Z 10001386 f drdlgfls.obj
 0001:000003b8       __pcd_tbl?Free@ColorDlg@@UAAXXZ 100013b8 f drdlgfls.obj
 0001:000003c8       __nep?Free@ColorDlg@@UAAXXZ 100013c8 f drdlgfls.obj
 0001:000003d0       __fh?Free@ColorDlg@@UAAXXZ 100013d0 f drdlgfls.obj
 0001:000003d2       ?Free@ColorDlg@@UAAXXZ     100013d2 f drdlgfls.obj
 0001:000003f4       __pcd_tbl?AvoidDialog@ColorDlg@@UAAXPAUIMsoDrawingUserInterface@@@Z 100013f4 f drdlgfls.obj
 0001:000003f8       __nep?AvoidDialog@ColorDlg@@UAAXPAUIMsoDrawingUserInterface@@@Z 100013f8 f drdlgfls.obj
 0001:00000400       __fh?AvoidDialog@ColorDlg@@UAAXPAUIMsoDrawingUserInterface@@@Z 10001400 f drdlgfls.obj
 0001:00000402       ?AvoidDialog@ColorDlg@@UAAXPAUIMsoDrawingUserInterface@@@Z 10001402 f drdlgfls.obj
 0001:00000408       __pcd_tbl?GetWindow@ColorDlg@@UAAPAUHWND__@@XZ 10001408 f drdlgfls.obj
 0001:0000040c       __nep?GetWindow@ColorDlg@@UAAPAUHWND__@@XZ 1000140c f drdlgfls.obj
 0001:00000414       __fh?GetWindow@ColorDlg@@UAAPAUHWND__@@XZ 10001414 f drdlgfls.obj
 0001:00000416       ?GetWindow@ColorDlg@@UAAPAUHWND__@@XZ 10001416 f drdlgfls.obj
 0001:00000418       __pcd_tbl?SetCurrInfo@DRPREVIEW@@QAAXXZ 10001418 f drdlgfls.obj
 0001:0000043c       __nep?SetCurrInfo@DRPREVIEW@@QAAXXZ 1000143c f drdlgfls.obj
 0001:00000444       __fh?SetCurrInfo@DRPREVIEW@@QAAXXZ 10001444 f drdlgfls.obj
 0001:00000446       ?SetCurrInfo@DRPREVIEW@@QAAXXZ 10001446 f drdlgfls.obj
 0001:000004d0       __pcd_tbl?SetInfo@DRPREVIEW@@QAAXPAX@Z 100014d0 f drdlgfls.obj
 0001:000004d4       __nep?SetInfo@DRPREVIEW@@QAAXPAX@Z 100014d4 f drdlgfls.obj
 0001:000004dc       __fh?SetInfo@DRPREVIEW@@QAAXPAX@Z 100014dc f drdlgfls.obj
 0001:000004de       ?SetInfo@DRPREVIEW@@QAAXPAX@Z 100014de f drdlgfls.obj
 0001:00000508       __pcd_tbl?CrTranslateColor@@YAKKH@Z 10001508 f drdlgfls.obj
 0001:00000508       __nep?CrTranslateColor@@YAKKH@Z 10001508 f drdlgfls.obj
 0001:00000510       __fh?CrTranslateColor@@YAKKH@Z 10001510 f drdlgfls.obj
 0001:00000512       ?CrTranslateColor@@YAKKH@Z 10001512 f drdlgfls.obj
 0001:0000059c       ?IUnTranslateColor@@YAHKK@Z 1000159c f drdlgfls.obj
 0001:000007bc       __pcd_tbl_FUpdateFillsColors 100017bc f drdlgfls.obj
 0001:000007d4       __nep_FUpdateFillsColors   100017d4 f drdlgfls.obj
 0001:000007dc       __fh_FUpdateFillsColors    100017dc f drdlgfls.obj
 0001:000007de       _FUpdateFillsColors        100017de f drdlgfls.obj
 0001:000008e0       __pcd_tbl?LookupColorCtlId@DlgFills@@QAAHI@Z 100018e0 f drdlgfls.obj
 0001:000008e0       __nep?LookupColorCtlId@DlgFills@@QAAHI@Z 100018e0 f drdlgfls.obj
 0001:000008e8       __fh?LookupColorCtlId@DlgFills@@QAAHI@Z 100018e8 f drdlgfls.obj
 0001:000008ea       ?LookupColorCtlId@DlgFills@@QAAHI@Z 100018ea f drdlgfls.obj
 0001:0000090c       __pcd_tbl?FInitPic@@YAHHIPAXPAU_rec@@@Z 1000190c f drdlgfls.obj
 0001:00000914       __nep?FInitPic@@YAHHIPAXPAU_rec@@@Z 10001914 f drdlgfls.obj
 0001:0000091c       __fh?FInitPic@@YAHHIPAXPAU_rec@@@Z 1000191c f drdlgfls.obj
 0001:0000091e       ?FInitPic@@YAHHIPAXPAU_rec@@@Z 1000191e f drdlgfls.obj
 0001:0000093c       __pcd_tbl?TermPic@@YAXI@Z  1000193c f drdlgfls.obj
 0001:00000944       __nep?TermPic@@YAXI@Z      10001944 f drdlgfls.obj
 0001:0000094c       __fh?TermPic@@YAXI@Z       1000194c f drdlgfls.obj
 0001:0000094e       ?TermPic@@YAXI@Z           1000194e f drdlgfls.obj
 0001:00000964       __pcd_tbl?InitTransparentCheckbox@@YAXW4MSOPID@@JPAI@Z 10001964 f drdlgfls.obj
 0001:00000968       __nep?InitTransparentCheckbox@@YAXW4MSOPID@@JPAI@Z 10001968 f drdlgfls.obj
 0001:00000970       __fh?InitTransparentCheckbox@@YAXW4MSOPID@@JPAI@Z 10001970 f drdlgfls.obj
 0001:00000972       ?InitTransparentCheckbox@@YAXW4MSOPID@@JPAI@Z 10001972 f drdlgfls.obj
 0001:00000988       __nep?GetTransparentCheckbox@@YAXJPAJ@Z 10001988 f drdlgfls.obj
 0001:00000988       __pcd_tbl?GetTransparentCheckbox@@YAXJPAJ@Z 10001988 f drdlgfls.obj
 0001:00000990       __fh?GetTransparentCheckbox@@YAXJPAJ@Z 10001990 f drdlgfls.obj
 0001:00000992       ?GetTransparentCheckbox@@YAXJPAJ@Z 10001992 f drdlgfls.obj
 0001:000009ac       __pcd_tbl?BeginColorsCmd@@YAXPAPAU_cabcolors@@PAVColorDlg@@@Z 100019ac f drdlgfls.obj
 0001:000009bc       __nep?BeginColorsCmd@@YAXPAPAU_cabcolors@@PAVColorDlg@@@Z 100019bc f drdlgfls.obj
 0001:000009c4       __fh?BeginColorsCmd@@YAXPAPAU_cabcolors@@PAVColorDlg@@@Z 100019c4 f drdlgfls.obj
 0001:000009c6       ?BeginColorsCmd@@YAXPAPAU_cabcolors@@PAVColorDlg@@@Z 100019c6 f drdlgfls.obj
 0001:00000a98       __pcd_tbl?AssertSameNinchColor@@YAXXZ 10001a98 f drdlgfls.obj
 0001:00000a98       __nep?AssertSameNinchColor@@YAXXZ 10001a98 f drdlgfls.obj
 0001:00000aa0       __fh?AssertSameNinchColor@@YAXXZ 10001aa0 f drdlgfls.obj
 0001:00000aa2       ?AssertSameNinchColor@@YAXXZ 10001aa2 f drdlgfls.obj
 0001:00000aa4       __nep?AssertSameNinchColorTransparent@@YAXXZ 10001aa4 f drdlgfls.obj
 0001:00000aa4       __pcd_tbl?AssertSameNinchColorTransparent@@YAXXZ 10001aa4 f drdlgfls.obj
 0001:00000aac       __fh?AssertSameNinchColorTransparent@@YAXXZ 10001aac f drdlgfls.obj
 0001:00000aae       ?AssertSameNinchColorTransparent@@YAXXZ 10001aae f drdlgfls.obj
 0001:00000ab0       __pcd_tbl?EndColorsCmd@@YAXPAPAU_cabcolors@@PAVColorDlg@@@Z 10001ab0 f drdlgfls.obj
 0001:00000ac0       __nep?EndColorsCmd@@YAXPAPAU_cabcolors@@PAVColorDlg@@@Z 10001ac0 f drdlgfls.obj
 0001:00000ac8       __fh?EndColorsCmd@@YAXPAPAU_cabcolors@@PAVColorDlg@@@Z 10001ac8 f drdlgfls.obj
 0001:00000aca       ?EndColorsCmd@@YAXPAPAU_cabcolors@@PAVColorDlg@@@Z 10001aca f drdlgfls.obj
 0001:00000b10       __nep?FIsOneColor2@@YAHKK@Z 10001b10 f drdlgfls.obj
 0001:00000b10       __pcd_tbl?FIsOneColor2@@YAHKK@Z 10001b10 f drdlgfls.obj
 0001:00000b18       __fh?FIsOneColor2@@YAHKK@Z 10001b18 f drdlgfls.obj
 0001:00000b1a       ?FIsOneColor2@@YAHKK@Z     10001b1a f drdlgfls.obj
 0001:00000c18       ?FIsOneColor@@YAHKK@Z      10001c18 f drdlgfls.obj
 0001:00000ec0       __pcd_tbl_MsoCcGetShadedColor 10001ec0 f drdlgfls.obj
 0001:00000ec8       __nep_MsoCcGetShadedColor  10001ec8 f drdlgfls.obj
 0001:00000ed0       __fh_MsoCcGetShadedColor   10001ed0 f drdlgfls.obj
 0001:00000ed2       _MsoCcGetShadedColor       10001ed2 f drdlgfls.obj
 0001:00000f18       __nep?FindAngleStyle@@YA?AW4MSOCOLORDLGSTYLE@@J@Z 10001f18 f drdlgfls.obj
 0001:00000f18       __pcd_tbl?FindAngleStyle@@YA?AW4MSOCOLORDLGSTYLE@@J@Z 10001f18 f drdlgfls.obj
 0001:00000f20       __fh?FindAngleStyle@@YA?AW4MSOCOLORDLGSTYLE@@J@Z 10001f20 f drdlgfls.obj
 0001:00000f22       ?FindAngleStyle@@YA?AW4MSOCOLORDLGSTYLE@@J@Z 10001f22 f drdlgfls.obj
 0001:00000f4c       __pcd_tbl_MsoLGetStyle     10001f4c f drdlgfls.obj
 0001:00000f50       __nep_MsoLGetStyle         10001f50 f drdlgfls.obj
 0001:00000f58       __fh_MsoLGetStyle          10001f58 f drdlgfls.obj
 0001:00000f5a       _MsoLGetStyle              10001f5a f drdlgfls.obj
 0001:00000f70       __pcd_tbl?CdsGetStyle@@YA?AW4MSOCOLORDLGSTYLE@@JW4MSOFILLTYPE@@HPAUtagRECT@@@Z 10001f70 f drdlgfls.obj
 0001:00000f78       __nep?CdsGetStyle@@YA?AW4MSOCOLORDLGSTYLE@@JW4MSOFILLTYPE@@HPAUtagRECT@@@Z 10001f78 f drdlgfls.obj
 0001:00000f80       __fh?CdsGetStyle@@YA?AW4MSOCOLORDLGSTYLE@@JW4MSOFILLTYPE@@HPAUtagRECT@@@Z 10001f80 f drdlgfls.obj
 0001:00000f82       ?CdsGetStyle@@YA?AW4MSOCOLORDLGSTYLE@@JW4MSOFILLTYPE@@HPAUtagRECT@@@Z 10001f82 f drdlgfls.obj
 0001:00000fac       __pcd_tbl_MsoPreMatchGradient 10001fac f drdlgfls.obj
 0001:00000fc0       __nep_MsoPreMatchGradient  10001fc0 f drdlgfls.obj
 0001:00000fc8       __fh_MsoPreMatchGradient   10001fc8 f drdlgfls.obj
 0001:00000fca       _MsoPreMatchGradient       10001fca f drdlgfls.obj
 0001:00001004       __pcd_tbl_MsoLGetBrightness 10002004 f drdlgfls.obj
 0001:00001008       __nep_MsoLGetBrightness    10002008 f drdlgfls.obj
 0001:00001010       __fh_MsoLGetBrightness     10002010 f drdlgfls.obj
 0001:00001012       _MsoLGetBrightness         10002012 f drdlgfls.obj
 0001:0000101c       ?LGetBrightness@@YAJK@Z    1000201c f drdlgfls.obj
 0001:000010d4       __pcd_tbl?BeginShadedCmd@@YAXPAPAU_cabfills@@PAVDlgFills@@@Z 100020d4 f drdlgfls.obj
 0001:000010f0       __nep?BeginShadedCmd@@YAXPAPAU_cabfills@@PAVDlgFills@@@Z 100020f0 f drdlgfls.obj
 0001:000010f8       __fh?BeginShadedCmd@@YAXPAPAU_cabfills@@PAVDlgFills@@@Z 100020f8 f drdlgfls.obj
 0001:000010fa       ?BeginShadedCmd@@YAXPAPAU_cabfills@@PAVDlgFills@@@Z 100020fa f drdlgfls.obj
 0001:000011ec       __pcd_tbl?FEndShadedCmd@@YAHPAPAU_cabfills@@PAVDlgFills@@@Z 100021ec f drdlgfls.obj
 0001:00001208       __nep?FEndShadedCmd@@YAHPAPAU_cabfills@@PAVDlgFills@@@Z 10002208 f drdlgfls.obj
 0001:00001210       __fh?FEndShadedCmd@@YAHPAPAU_cabfills@@PAVDlgFills@@@Z 10002210 f drdlgfls.obj
 0001:00001212       ?FEndShadedCmd@@YAHPAPAU_cabfills@@PAVDlgFills@@@Z 10002212 f drdlgfls.obj
 0001:00001328       __pcd_tbl?NumOfTextures@@YAHXZ 10002328 f drdlgfls.obj
 0001:0000132c       __nep?NumOfTextures@@YAHXZ 1000232c f drdlgfls.obj
 0001:00001334       __fh?NumOfTextures@@YAHXZ  10002334 f drdlgfls.obj
 0001:00001336       ?NumOfTextures@@YAHXZ      10002336 f drdlgfls.obj
 0001:00001338       __pcd_tbl?BeginTexturedCmd@@YAXPAPAU_cabfills@@PAVDlgFills@@@Z 10002338 f drdlgfls.obj
 0001:00001340       __nep?BeginTexturedCmd@@YAXPAPAU_cabfills@@PAVDlgFills@@@Z 10002340 f drdlgfls.obj
 0001:00001348       __fh?BeginTexturedCmd@@YAXPAPAU_cabfills@@PAVDlgFills@@@Z 10002348 f drdlgfls.obj
 0001:0000134a       ?BeginTexturedCmd@@YAXPAPAU_cabfills@@PAVDlgFills@@@Z 1000234a f drdlgfls.obj
 0001:00001394       __pcd_tbl?FEndTexturedCmd@@YAHPAPAU_cabfills@@PAVDlgFills@@@Z 10002394 f drdlgfls.obj
 0001:00001394       __nep?FEndTexturedCmd@@YAHPAPAU_cabfills@@PAVDlgFills@@@Z 10002394 f drdlgfls.obj
 0001:0000139c       __fh?FEndTexturedCmd@@YAHPAPAU_cabfills@@PAVDlgFills@@@Z 1000239c f drdlgfls.obj
 0001:0000139e       ?FEndTexturedCmd@@YAHPAPAU_cabfills@@PAVDlgFills@@@Z 1000239e f drdlgfls.obj
 0001:000013dc       __nep?BeginPatternedCmd@@YAXPAPAU_cabfills@@PAVDlgFills@@@Z 100023dc f drdlgfls.obj
 0001:000013dc       __pcd_tbl?BeginPatternedCmd@@YAXPAPAU_cabfills@@PAVDlgFills@@@Z 100023dc f drdlgfls.obj
 0001:000013e4       __fh?BeginPatternedCmd@@YAXPAPAU_cabfills@@PAVDlgFills@@@Z 100023e4 f drdlgfls.obj
 0001:000013e6       ?BeginPatternedCmd@@YAXPAPAU_cabfills@@PAVDlgFills@@@Z 100023e6 f drdlgfls.obj
 0001:00001408       __pcd_tbl?FEndPatternedCmd@@YAHPAPAU_cabfills@@PAVDlgFills@@@Z 10002408 f drdlgfls.obj
 0001:00001408       __nep?FEndPatternedCmd@@YAHPAPAU_cabfills@@PAVDlgFills@@@Z 10002408 f drdlgfls.obj
 0001:00001410       __fh?FEndPatternedCmd@@YAHPAPAU_cabfills@@PAVDlgFills@@@Z 10002410 f drdlgfls.obj
 0001:00001412       ?FEndPatternedCmd@@YAHPAPAU_cabfills@@PAVDlgFills@@@Z 10002412 f drdlgfls.obj
 0001:00001450       __pcd_tbl?BeginPictureCmd@@YAXPAPAU_cabfills@@PAVDlgFills@@@Z 10002450 f drdlgfls.obj
 0001:00001450       __nep?BeginPictureCmd@@YAXPAPAU_cabfills@@PAVDlgFills@@@Z 10002450 f drdlgfls.obj
 0001:00001458       __fh?BeginPictureCmd@@YAXPAPAU_cabfills@@PAVDlgFills@@@Z 10002458 f drdlgfls.obj
 0001:0000145a       ?BeginPictureCmd@@YAXPAPAU_cabfills@@PAVDlgFills@@@Z 1000245a f drdlgfls.obj
 0001:000014a8       __pcd_tbl?FEndPictureCmd@@YAHPAPAU_cabfills@@PAVDlgFills@@@Z 100024a8 f drdlgfls.obj
 0001:000014b8       __nep?FEndPictureCmd@@YAHPAPAU_cabfills@@PAVDlgFills@@@Z 100024b8 f drdlgfls.obj
 0001:000014c0       __fh?FEndPictureCmd@@YAHPAPAU_cabfills@@PAVDlgFills@@@Z 100024c0 f drdlgfls.obj
 0001:000014c2       ?FEndPictureCmd@@YAHPAPAU_cabfills@@PAVDlgFills@@@Z 100024c2 f drdlgfls.obj
 0001:00001514       __pcd_tbl?BeginFillsCmd@@YAXPAPAU_cabfills@@PAVDlgFills@@@Z 10002514 f drdlgfls.obj
 0001:00001528       __nep?BeginFillsCmd@@YAXPAPAU_cabfills@@PAVDlgFills@@@Z 10002528 f drdlgfls.obj
 0001:00001530       __fh?BeginFillsCmd@@YAXPAPAU_cabfills@@PAVDlgFills@@@Z 10002530 f drdlgfls.obj
 0001:00001532       ?BeginFillsCmd@@YAXPAPAU_cabfills@@PAVDlgFills@@@Z 10002532 f drdlgfls.obj
 0001:0000163c       __pcd_tbl?EndFillsCmd@@YAXPAPAU_cabfills@@PAVDlgFills@@@Z 1000263c f drdlgfls.obj
 0001:00001650       __nep?EndFillsCmd@@YAXPAPAU_cabfills@@PAVDlgFills@@@Z 10002650 f drdlgfls.obj
 0001:00001658       __fh?EndFillsCmd@@YAXPAPAU_cabfills@@PAVDlgFills@@@Z 10002658 f drdlgfls.obj
 0001:0000165a       ?EndFillsCmd@@YAXPAPAU_cabfills@@PAVDlgFills@@@Z 1000265a f drdlgfls.obj
 0001:00001720       __pcd_tbl?FUpdateFillBlipName@@YAHPAVDlgFills@@PAG@Z 10002720 f drdlgfls.obj
 0001:0000172c       __nep?FUpdateFillBlipName@@YAHPAVDlgFills@@PAG@Z 1000272c f drdlgfls.obj
 0001:00001734       __fh?FUpdateFillBlipName@@YAHPAVDlgFills@@PAG@Z 10002734 f drdlgfls.obj
 0001:00001736       ?FUpdateFillBlipName@@YAHPAVDlgFills@@PAG@Z 10002736 f drdlgfls.obj
 0001:0000175c       __pcd_tbl?UpdateSab@@YAXIPBI@Z 1000275c f drdlgfls.obj
 0001:00001760       __nep?UpdateSab@@YAXIPBI@Z 10002760 f drdlgfls.obj
 0001:00001768       __fh?UpdateSab@@YAXIPBI@Z  10002768 f drdlgfls.obj
 0001:0000176a       ?UpdateSab@@YAXIPBI@Z      1000276a f drdlgfls.obj
 0001:00001778       __pcd_tbl?CountTabs@@YAHK@Z 10002778 f drdlgfls.obj
 0001:00001778       __nep?CountTabs@@YAHK@Z    10002778 f drdlgfls.obj
 0001:00001780       __fh?CountTabs@@YAHK@Z     10002780 f drdlgfls.obj
 0001:00001782       ?CountTabs@@YAHK@Z         10002782 f drdlgfls.obj
 0001:000017a0       __pcd_tbl_WListEntblSttFill 100027a0 f drdlgfls.obj
 0001:000017a8       __nep_WListEntblSttFill    100027a8 f drdlgfls.obj
 0001:000017b0       __fh_WListEntblSttFill     100027b0 f drdlgfls.obj
 0001:000017b2       _WListEntblSttFill         100027b2 f drdlgfls.obj
 0001:00001818       __nep_BuildTabTable        10002818 f drdlgfls.obj
 0001:00001818       __pcd_tbl_BuildTabTable    10002818 f drdlgfls.obj
 0001:00001820       __fh_BuildTabTable         10002820 f drdlgfls.obj
 0001:00001822       _BuildTabTable             10002822 f drdlgfls.obj
 0001:00001850       __pcd_tbl_DoSmarts         10002850 f drdlgfls.obj
 0001:00001868       __nep_DoSmarts             10002868 f drdlgfls.obj
 0001:00001870       __fh_DoSmarts              10002870 f drdlgfls.obj
 0001:00001872       _DoSmarts                  10002872 f drdlgfls.obj
 0001:000018d8       __pcd_tbl_HwndGetFillDlgHandle 100028d8 f drdlgfls.obj
 0001:000018e4       __nep_HwndGetFillDlgHandle 100028e4 f drdlgfls.obj
 0001:000018ec       __fh_HwndGetFillDlgHandle  100028ec f drdlgfls.obj
 0001:000018ee       _HwndGetFillDlgHandle      100028ee f drdlgfls.obj
 0001:000018f4       __pcd_tbl_EraseEdgeFocus   100028f4 f drdlgfls.obj
 0001:00001908       __nep_EraseEdgeFocus       10002908 f drdlgfls.obj
 0001:00001910       __fh_EraseEdgeFocus        10002910 f drdlgfls.obj
 0001:00001912       _EraseEdgeFocus            10002912 f drdlgfls.obj
 0001:0000197c       __pcd_tbl_DlgFillsProc     1000297c f drdlgfls.obj
 0001:00001a00       __nep_DlgFillsProc         10002a00 f drdlgfls.obj
 0001:00001a08       __fh_DlgFillsProc          10002a08 f drdlgfls.obj
 0001:00001a0a       _DlgFillsProc              10002a0a f drdlgfls.obj
 0001:00001bf0       __pcd_tbl?CleanUpFillsDlg@@YAXXZ 10002bf0 f drdlgfls.obj
 0001:00001bf4       __nep?CleanUpFillsDlg@@YAXXZ 10002bf4 f drdlgfls.obj
 0001:00001bfc       __fh?CleanUpFillsDlg@@YAXXZ 10002bfc f drdlgfls.obj
 0001:00001bfe       ?CleanUpFillsDlg@@YAXXZ    10002bfe f drdlgfls.obj
 0001:00001c24       __pcd_tbl?FPibSelected@@YAHXZ 10002c24 f drdlgfls.obj
 0001:00001c28       __nep?FPibSelected@@YAHXZ  10002c28 f drdlgfls.obj
 0001:00001c30       __fh?FPibSelected@@YAHXZ   10002c30 f drdlgfls.obj
 0001:00001c32       ?FPibSelected@@YAHXZ       10002c32 f drdlgfls.obj
 0001:00001c40       __pcd_tbl?DrawPicture@@YAXPAUHDC__@@PAUtagRECT@@@Z 10002c40 f drdlgfls.obj
 0001:00001c48       __nep?DrawPicture@@YAXPAUHDC__@@PAUtagRECT@@@Z 10002c48 f drdlgfls.obj
 0001:00001c50       __fh?DrawPicture@@YAXPAUHDC__@@PAUtagRECT@@@Z 10002c50 f drdlgfls.obj
 0001:00001c52       ?DrawPicture@@YAXPAUHDC__@@PAUtagRECT@@@Z 10002c52 f drdlgfls.obj
 0001:00001c5c       __pcd_tbl?SetPicturePib@@YAXPAVDlgFills@@PAUIMsoBlip@@@Z 10002c5c f drdlgfls.obj
 0001:00001c6c       __nep?SetPicturePib@@YAXPAVDlgFills@@PAUIMsoBlip@@@Z 10002c6c f drdlgfls.obj
 0001:00001c74       __fh?SetPicturePib@@YAXPAVDlgFills@@PAUIMsoBlip@@@Z 10002c74 f drdlgfls.obj
 0001:00001c76       ?SetPicturePib@@YAXPAVDlgFills@@PAUIMsoBlip@@@Z 10002c76 f drdlgfls.obj
 0001:00001cac       __pcd_tbl?EnablePictureControls@@YAXHH@Z 10002cac f drdlgfls.obj
 0001:00001cb4       __nep?EnablePictureControls@@YAXHH@Z 10002cb4 f drdlgfls.obj
 0001:00001cbc       __fh?EnablePictureControls@@YAXHH@Z 10002cbc f drdlgfls.obj
 0001:00001cbe       ?EnablePictureControls@@YAXHH@Z 10002cbe f drdlgfls.obj
 0001:00001d38       __pcd_tbl?FSetFileName@@YAHPAU_MSOPICTDLGPARAM@@PAVDlgFills@@PAGH@Z 10002d38 f drdlgfls.obj
 0001:00001d50       __nep?FSetFileName@@YAHPAU_MSOPICTDLGPARAM@@PAVDlgFills@@PAGH@Z 10002d50 f drdlgfls.obj
 0001:00001d58       __fh?FSetFileName@@YAHPAU_MSOPICTDLGPARAM@@PAVDlgFills@@PAGH@Z 10002d58 f drdlgfls.obj
 0001:00001d5b       ?FSetFileName@@YAHPAU_MSOPICTDLGPARAM@@PAVDlgFills@@PAGH@Z 10002d5b f drdlgfls.obj
 0001:00001d94       __pcd_tbl?SetFilename@DlgFills@@UAAXPAGH@Z 10002d94 f drdlgfls.obj
 0001:00001d98       __nep?SetFilename@DlgFills@@UAAXPAGH@Z 10002d98 f drdlgfls.obj
 0001:00001da0       __fh?SetFilename@DlgFills@@UAAXPAGH@Z 10002da0 f drdlgfls.obj
 0001:00001da2       ?SetFilename@DlgFills@@UAAXPAGH@Z 10002da2 f drdlgfls.obj
 0001:00001dac       __pcd_tbl?FOpenInsertPictureDlg@@YAHH@Z 10002dac f drdlgfls.obj
 0001:00001dd0       __nep?FOpenInsertPictureDlg@@YAHH@Z 10002dd0 f drdlgfls.obj
 0001:00001dd8       __fh?FOpenInsertPictureDlg@@YAHH@Z 10002dd8 f drdlgfls.obj
 0001:00001ddb       ?FOpenInsertPictureDlg@@YAHH@Z 10002ddb f drdlgfls.obj
 0001:00001e54       __pcd_tbl?SetNewTextureScroll@@YAXK@Z 10002e54 f drdlgfls.obj
 0001:00001e5c       __nep?SetNewTextureScroll@@YAXK@Z 10002e5c f drdlgfls.obj
 0001:00001e64       __fh?SetNewTextureScroll@@YAXK@Z 10002e64 f drdlgfls.obj
 0001:00001e66       ?SetNewTextureScroll@@YAXK@Z 10002e66 f drdlgfls.obj
 0001:00001e74       __pcd_tbl?FHandleTextureClick@@YAHIIIII@Z 10002e74 f drdlgfls.obj
 0001:00001e8c       __nep?FHandleTextureClick@@YAHIIIII@Z 10002e8c f drdlgfls.obj
 0001:00001e94       __fh?FHandleTextureClick@@YAHIIIII@Z 10002e94 f drdlgfls.obj
 0001:00001e96       ?FHandleTextureClick@@YAHIIIII@Z 10002e96 f drdlgfls.obj
 0001:00001ec0       __pcd_tbl?ResetVariant@@YAXXZ 10002ec0 f drdlgfls.obj
 0001:00001ec4       __nep?ResetVariant@@YAXXZ  10002ec4 f drdlgfls.obj
 0001:00001ecc       __fh?ResetVariant@@YAXXZ   10002ecc f drdlgfls.obj
 0001:00001ece       ?ResetVariant@@YAXXZ       10002ece f drdlgfls.obj
 0001:00001ef4       __pcd_tbl?HandleShadedClick@@YAHIIIII@Z 10002ef4 f drdlgfls.obj
 0001:00001f1c       __nep?HandleShadedClick@@YAHIIIII@Z 10002f1c f drdlgfls.obj
 0001:00001f24       __fh?HandleShadedClick@@YAHIIIII@Z 10002f24 f drdlgfls.obj
 0001:00001f26       ?HandleShadedClick@@YAHIIIII@Z 10002f26 f drdlgfls.obj
 0001:00001fac       __pcd_tbl?SetCBVisible@@YAXIH@Z 10002fac f drdlgfls.obj
 0001:00001fb0       __nep?SetCBVisible@@YAXIH@Z 10002fb0 f drdlgfls.obj
 0001:00001fb8       __fh?SetCBVisible@@YAXIH@Z 10002fb8 f drdlgfls.obj
 0001:00001fba       ?SetCBVisible@@YAXIH@Z     10002fba f drdlgfls.obj
 0001:00001fc0       __pcd_tbl?ShowShadedCtl@@YAXI@Z 10002fc0 f drdlgfls.obj
 0001:00001fcc       __nep?ShowShadedCtl@@YAXI@Z 10002fcc f drdlgfls.obj
 0001:00001fd4       __fh?ShowShadedCtl@@YAXI@Z 10002fd4 f drdlgfls.obj
 0001:00001fd6       ?ShowShadedCtl@@YAXI@Z     10002fd6 f drdlgfls.obj
 0001:0000202c       __pcd_tbl?HidePictureControls@@YAXH@Z 1000302c f drdlgfls.obj
 0001:00002030       __nep?HidePictureControls@@YAXH@Z 10003030 f drdlgfls.obj
 0001:00002038       __fh?HidePictureControls@@YAXH@Z 10003038 f drdlgfls.obj
 0001:0000203a       ?HidePictureControls@@YAXH@Z 1000303a f drdlgfls.obj
 0001:00002074       __pcd_tbl?EnableOKButton@@YAXI@Z 10003074 f drdlgfls.obj
 0001:00002084       __nep?EnableOKButton@@YAXI@Z 10003084 f drdlgfls.obj
 0001:0000208c       __fh?EnableOKButton@@YAXI@Z 1000308c f drdlgfls.obj
 0001:0000208f       ?EnableOKButton@@YAXI@Z    1000308f f drdlgfls.obj
 0001:00002100       __pcd_tbl?ShowHideControls@@YAXIII@Z 10003100 f drdlgfls.obj
 0001:00002114       __nep?ShowHideControls@@YAXIII@Z 10003114 f drdlgfls.obj
 0001:0000211c       __fh?ShowHideControls@@YAXIII@Z 1000311c f drdlgfls.obj
 0001:0000211e       ?ShowHideControls@@YAXIII@Z 1000311e f drdlgfls.obj
 0001:0000215c       __pcd_tbl?MySetTextTmc@@YAXIPADH@Z 1000315c f drdlgfls.obj
 0001:0000216c       __nep?MySetTextTmc@@YAXIPADH@Z 1000316c f drdlgfls.obj
 0001:00002174       __fh?MySetTextTmc@@YAXIPADH@Z 10003174 f drdlgfls.obj
 0001:00002176       ?MySetTextTmc@@YAXIPADH@Z  10003176 f drdlgfls.obj
 0001:00002188       __pcd_tbl?MySetTextWzTmc@@YAXIPAGH@Z 10003188 f drdlgfls.obj
 0001:0000218c       __nep?MySetTextWzTmc@@YAXIPAGH@Z 1000318c f drdlgfls.obj
 0001:00002194       __fh?MySetTextWzTmc@@YAXIPAGH@Z 10003194 f drdlgfls.obj
 0001:00002196       ?MySetTextWzTmc@@YAXIPAGH@Z 10003196 f drdlgfls.obj
 0001:0000219c       __pcd_tbl?HandlePictureClick@@YAHIIIII@Z 1000319c f drdlgfls.obj
 0001:000021a0       __nep?HandlePictureClick@@YAHIIIII@Z 100031a0 f drdlgfls.obj
 0001:000021a8       __fh?HandlePictureClick@@YAHIIIII@Z 100031a8 f drdlgfls.obj
 0001:000021aa       ?HandlePictureClick@@YAHIIIII@Z 100031aa f drdlgfls.obj
 0001:000021b4       __pcd_tbl?FHandleClick@@YAHIIIII@Z 100031b4 f drdlgfls.obj
 0001:000021d8       __nep?FHandleClick@@YAHIIIII@Z 100031d8 f drdlgfls.obj
 0001:000021e0       __fh?FHandleClick@@YAHIIIII@Z 100031e0 f drdlgfls.obj
 0001:000021e2       ?FHandleClick@@YAHIIIII@Z  100031e2 f drdlgfls.obj
 0001:0000227c       __nep??0SHADEDSCROLL@@QAA@H@Z 1000327c f drdlgfls.obj
 0001:0000227c       __pcd_tbl??0SHADEDSCROLL@@QAA@H@Z 1000327c f drdlgfls.obj
 0001:00002284       __fh??0SHADEDSCROLL@@QAA@H@Z 10003284 f drdlgfls.obj
 0001:00002286       ??0SHADEDSCROLL@@QAA@H@Z   10003286 f drdlgfls.obj
 0001:000022a4       __pcd_tbl?FInitShadedDlg@@YAHXZ 100032a4 f drdlgfls.obj
 0001:000022d8       __nep?FInitShadedDlg@@YAHXZ 100032d8 f drdlgfls.obj
 0001:000022e0       __fh?FInitShadedDlg@@YAHXZ 100032e0 f drdlgfls.obj
 0001:000022e3       ?FInitShadedDlg@@YAHXZ     100032e3 f drdlgfls.obj
 0001:000023d0       __pcd_tbl?FChangeColorCtl@@YAHHH@Z 100033d0 f drdlgfls.obj
 0001:000023f8       __nep?FChangeColorCtl@@YAHHH@Z 100033f8 f drdlgfls.obj
 0001:00002400       __fh?FChangeColorCtl@@YAHHH@Z 10003400 f drdlgfls.obj
 0001:00002402       ?FChangeColorCtl@@YAHHH@Z  10003402 f drdlgfls.obj
 0001:00002564       __pcd_tbl?FUpdateVariants@@YAHI@Z 10003564 f drdlgfls.obj
 0001:00002598       __nep?FUpdateVariants@@YAHI@Z 10003598 f drdlgfls.obj
 0001:000025a0       __fh?FUpdateVariants@@YAHI@Z 100035a0 f drdlgfls.obj
 0001:000025a2       ?FUpdateVariants@@YAHI@Z   100035a2 f drdlgfls.obj
 0001:00002658       __pcd_tbl?LHandleScrollEvent@@YAKIIII@Z 10003658 f drdlgfls.obj
 0001:0000265c       __nep?LHandleScrollEvent@@YAKIIII@Z 1000365c f drdlgfls.obj
 0001:00002664       __fh?LHandleScrollEvent@@YAKIIII@Z 10003664 f drdlgfls.obj
 0001:00002666       ?LHandleScrollEvent@@YAKIIII@Z 10003666 f drdlgfls.obj
 0001:0000267c       __pcd_tbl?DefPicProc@@YAIIPAU_sdmp@@IIII@Z 1000367c f drdlgfls.obj
 0001:00002694       __nep?DefPicProc@@YAIIPAU_sdmp@@IIII@Z 10003694 f drdlgfls.obj
 0001:0000269c       __fh?DefPicProc@@YAIIPAU_sdmp@@IIII@Z 1000369c f drdlgfls.obj
 0001:0000269e       ?DefPicProc@@YAIIPAU_sdmp@@IIII@Z 1000369e f drdlgfls.obj
 0001:00002774       __pcd_tbl_WPicPicture      10003774 f drdlgfls.obj
 0001:00002784       __nep_WPicPicture          10003784 f drdlgfls.obj
 0001:0000278c       __fh_WPicPicture           1000378c f drdlgfls.obj
 0001:0000278e       _WPicPicture               1000378e f drdlgfls.obj
 0001:000027c0       __pcd_tbl_WPicShadedVariant 100037c0 f drdlgfls.obj
 0001:000027d4       __nep_WPicShadedVariant    100037d4 f drdlgfls.obj
 0001:000027dc       __fh_WPicShadedVariant     100037dc f drdlgfls.obj
 0001:000027de       _WPicShadedVariant         100037de f drdlgfls.obj
 0001:00002828       __pcd_tbl?NumOfRows@@YAHXZ 10003828 f drdlgfls.obj
 0001:0000282c       __nep?NumOfRows@@YAHXZ     1000382c f drdlgfls.obj
 0001:00002834       __fh?NumOfRows@@YAHXZ      10003834 f drdlgfls.obj
 0001:00002836       ?NumOfRows@@YAHXZ          10003836 f drdlgfls.obj
 0001:00002844       __pcd_tbl?OpenTexture@@YAXPAU_MSOPICTDLGPARAM@@PBG@Z 10003844 f drdlgfls.obj
 0001:00002864       __nep?OpenTexture@@YAXPAU_MSOPICTDLGPARAM@@PBG@Z 10003864 f drdlgfls.obj
 0001:0000286c       __fh?OpenTexture@@YAXPAU_MSOPICTDLGPARAM@@PBG@Z 1000386c f drdlgfls.obj
 0001:0000286e       ?OpenTexture@@YAXPAU_MSOPICTDLGPARAM@@PBG@Z 1000386e f drdlgfls.obj
 0001:0000289c       __pcd_tbl?UpdateTextureDlg@@YAXI@Z 1000389c f drdlgfls.obj
 0001:000028b8       __nep?UpdateTextureDlg@@YAXI@Z 100038b8 f drdlgfls.obj
 0001:000028c0       __fh?UpdateTextureDlg@@YAXI@Z 100038c0 f drdlgfls.obj
 0001:000028c3       ?UpdateTextureDlg@@YAXI@Z  100038c3 f drdlgfls.obj
 0001:00002918       __pcd_tbl?UpdateShadedDlg@@YAXI@Z 10003918 f drdlgfls.obj
 0001:00002928       __nep?UpdateShadedDlg@@YAXI@Z 10003928 f drdlgfls.obj
 0001:00002930       __fh?UpdateShadedDlg@@YAXI@Z 10003930 f drdlgfls.obj
 0001:00002932       ?UpdateShadedDlg@@YAXI@Z   10003932 f drdlgfls.obj
 0001:00002970       __pcd_tbl?SetRange@TEXTSCROLL@@QAAXHH@Z 10003970 f drdlgfls.obj
 0001:00002970       __nep?SetRange@TEXTSCROLL@@QAAXHH@Z 10003970 f drdlgfls.obj
 0001:00002978       __fh?SetRange@TEXTSCROLL@@QAAXHH@Z 10003978 f drdlgfls.obj
 0001:0000297a       ?SetRange@TEXTSCROLL@@QAAXHH@Z 1000397a f drdlgfls.obj
 0001:00002984       __nep?GetRange@TEXTSCROLL@@QAAXPAH0@Z 10003984 f drdlgfls.obj
 0001:00002984       __pcd_tbl?GetRange@TEXTSCROLL@@QAAXPAH0@Z 10003984 f drdlgfls.obj
 0001:0000298c       __fh?GetRange@TEXTSCROLL@@QAAXPAH0@Z 1000398c f drdlgfls.obj
 0001:0000298e       ?GetRange@TEXTSCROLL@@QAAXPAH0@Z 1000398e f drdlgfls.obj
 0001:00002998       __nep??0TEXTSCROLL@@QAA@H@Z 10003998 f drdlgfls.obj
 0001:00002998       __pcd_tbl??0TEXTSCROLL@@QAA@H@Z 10003998 f drdlgfls.obj
 0001:000029a0       __fh??0TEXTSCROLL@@QAA@H@Z 100039a0 f drdlgfls.obj
 0001:000029a2       ??0TEXTSCROLL@@QAA@H@Z     100039a2 f drdlgfls.obj
 0001:000029bc       __pcd_tbl?FHandleClick@DRSCROLL@@UAAHIPAII@Z 100039bc f drdlgfls.obj
 0001:000029bc       __nep?FHandleClick@DRSCROLL@@UAAHIPAII@Z 100039bc f drdlgfls.obj
 0001:000029c4       __fh?FHandleClick@DRSCROLL@@UAAHIPAII@Z 100039c4 f drdlgfls.obj
 0001:000029c6       ?FHandleClick@DRSCROLL@@UAAHIPAII@Z 100039c6 f drdlgfls.obj
 0001:00002a0c       __pcd_tbl?SetupTextureScroll@@YAXH@Z 10003a0c f drdlgfls.obj
 0001:00002a28       __nep?SetupTextureScroll@@YAXH@Z 10003a28 f drdlgfls.obj
 0001:00002a30       __fh?SetupTextureScroll@@YAXH@Z 10003a30 f drdlgfls.obj
 0001:00002a32       ?SetupTextureScroll@@YAXH@Z 10003a32 f drdlgfls.obj
 0001:00002a60       __pcd_tbl?FInitPictureDlg@@YAHXZ 10003a60 f drdlgfls.obj
 0001:00002a84       __nep?FInitPictureDlg@@YAHXZ 10003a84 f drdlgfls.obj
 0001:00002a8c       __fh?FInitPictureDlg@@YAHXZ 10003a8c f drdlgfls.obj
 0001:00002a8f       ?FInitPictureDlg@@YAHXZ    10003a8f f drdlgfls.obj
 0001:00002af8       __pcd_tbl?RowFromRealIndex@@YAHI@Z 10003af8 f drdlgfls.obj
 0001:00002af8       __nep?RowFromRealIndex@@YAHI@Z 10003af8 f drdlgfls.obj
 0001:00002b00       __fh?RowFromRealIndex@@YAHI@Z 10003b00 f drdlgfls.obj
 0001:00002b02       ?RowFromRealIndex@@YAHI@Z  10003b02 f drdlgfls.obj
 0001:00002b0c       __pcd_tbl?FInitTextureDlg@@YAHXZ 10003b0c f drdlgfls.obj
 0001:00002b24       __nep?FInitTextureDlg@@YAHXZ 10003b24 f drdlgfls.obj
 0001:00002b2c       __fh?FInitTextureDlg@@YAHXZ 10003b2c f drdlgfls.obj
 0001:00002b2f       ?FInitTextureDlg@@YAHXZ    10003b2f f drdlgfls.obj
 0001:00002b6c       __pcd_tbl?FindTextureRow@@YAXPAH0@Z 10003b6c f drdlgfls.obj
 0001:00002b78       __nep?FindTextureRow@@YAXPAH0@Z 10003b78 f drdlgfls.obj
 0001:00002b80       __fh?FindTextureRow@@YAXPAH0@Z 10003b80 f drdlgfls.obj
 0001:00002b82       ?FindTextureRow@@YAXPAH0@Z 10003b82 f drdlgfls.obj
 0001:00002ba8       __pcd_tbl_WPicTexture      10003ba8 f drdlgfls.obj
 0001:00002bd8       __nep_WPicTexture          10003bd8 f drdlgfls.obj
 0001:00002be0       __fh_WPicTexture           10003be0 f drdlgfls.obj
 0001:00002be3       _WPicTexture               10003be3 f drdlgfls.obj
 0001:00002cf8       __pcd_tbl?UpdatePatternColors@@YAXXZ 10003cf8 f drdlgfls.obj
 0001:00002d08       __nep?UpdatePatternColors@@YAXXZ 10003d08 f drdlgfls.obj
 0001:00002d10       __fh?UpdatePatternColors@@YAXXZ 10003d10 f drdlgfls.obj
 0001:00002d12       ?UpdatePatternColors@@YAXXZ 10003d12 f drdlgfls.obj
 0001:00002d30       __pcd_tbl?FInitPatternDlg@@YAHXZ 10003d30 f drdlgfls.obj
 0001:00002d44       __nep?FInitPatternDlg@@YAHXZ 10003d44 f drdlgfls.obj
 0001:00002d4c       __fh?FInitPatternDlg@@YAHXZ 10003d4c f drdlgfls.obj
 0001:00002d4f       ?FInitPatternDlg@@YAHXZ    10003d4f f drdlgfls.obj
 0001:00002d88       __pcd_tbl?UpdatePatternDlg@@YAXI@Z 10003d88 f drdlgfls.obj
 0001:00002da8       __nep?UpdatePatternDlg@@YAXI@Z 10003da8 f drdlgfls.obj
 0001:00002db0       __fh?UpdatePatternDlg@@YAXI@Z 10003db0 f drdlgfls.obj
 0001:00002db3       ?UpdatePatternDlg@@YAXI@Z  10003db3 f drdlgfls.obj
 0001:00002e0c       __pcd_tbl_WPicPatternSample 10003e0c f drdlgfls.obj
 0001:00002e20       __nep_WPicPatternSample    10003e20 f drdlgfls.obj
 0001:00002e28       __fh_WPicPatternSample     10003e28 f drdlgfls.obj
 0001:00002e2a       _WPicPatternSample         10003e2a f drdlgfls.obj
 0001:00002e74       __pcd_tbl_DlgColors        10003e74 f drdlgfls.obj
 0001:00002eb4       __nep_DlgColors            10003eb4 f drdlgfls.obj
 0001:00002ebc       __fh_DlgColors             10003ebc f drdlgfls.obj
 0001:00002ebe       _DlgColors                 10003ebe f drdlgfls.obj
 0001:00002fa8       __pcd_tbl?FInitColorsDlg@@YAHXZ 10003fa8 f drdlgfls.obj
 0001:00002fc0       __nep?FInitColorsDlg@@YAHXZ 10003fc0 f drdlgfls.obj
 0001:00002fc8       __fh?FInitColorsDlg@@YAHXZ 10003fc8 f drdlgfls.obj
 0001:00002fca       ?FInitColorsDlg@@YAHXZ     10003fca f drdlgfls.obj
 0001:00003034       __pcd_tbl_WPicFillPreview  10004034 f drdlgfls.obj
 0001:00003048       __nep_WPicFillPreview      10004048 f drdlgfls.obj
 0001:00003050       __fh_WPicFillPreview       10004050 f drdlgfls.obj
 0001:00003052       _WPicFillPreview           10004052 f drdlgfls.obj
 0001:0000309c       __pcd_tbl_WPicColorsHell   1000409c f drdlgfls.obj
 0001:000030b4       __nep_WPicColorsHell       100040b4 f drdlgfls.obj
 0001:000030bc       __fh_WPicColorsHell        100040bc f drdlgfls.obj
 0001:000030be       _WPicColorsHell            100040be f drdlgfls.obj
 0001:00003114       __pcd_tbl_WPicColorsLuminosity 10004114 f drdlgfls.obj
 0001:00003128       __nep_WPicColorsLuminosity 10004128 f drdlgfls.obj
 0001:00003130       __fh_WPicColorsLuminosity  10004130 f drdlgfls.obj
 0001:00003132       _WPicColorsLuminosity      10004132 f drdlgfls.obj
 0001:00003178       __pcd_tbl_WPicColorsBeehive 10004178 f drdlgfls.obj
 0001:00003194       __nep_WPicColorsBeehive    10004194 f drdlgfls.obj
 0001:0000319c       __fh_WPicColorsBeehive     1000419c f drdlgfls.obj
 0001:0000319e       _WPicColorsBeehive         1000419e f drdlgfls.obj
 0001:000031f8       __pcd_tbl?FlushFillsDlg@@YAXPAVDlgFills@@@Z 100041f8 f drdlgfls.obj
 0001:00003200       __nep?FlushFillsDlg@@YAXPAVDlgFills@@@Z 10004200 f drdlgfls.obj
 0001:00003208       __fh?FlushFillsDlg@@YAXPAVDlgFills@@@Z 10004208 f drdlgfls.obj
 0001:0000320a       ?FlushFillsDlg@@YAXPAVDlgFills@@@Z 1000420a f drdlgfls.obj
 0001:00003214       __pcd_tbl?FlushColorDlg@@YAXPAVColorDlg@@@Z 10004214 f drdlgfls.obj
 0001:0000321c       __nep?FlushColorDlg@@YAXPAVColorDlg@@@Z 1000421c f drdlgfls.obj
 0001:00003224       __fh?FlushColorDlg@@YAXPAVColorDlg@@@Z 10004224 f drdlgfls.obj
 0001:00003226       ?FlushColorDlg@@YAXPAVColorDlg@@@Z 10004226 f drdlgfls.obj
 0001:00003230       __pcd_tbl?FHandleDoubleClick@DRPCW@@UAAHXZ 10004230 f drdlgfls.obj
 0001:00003234       __nep?FHandleDoubleClick@DRPCW@@UAAHXZ 10004234 f drdlgfls.obj
 0001:0000323c       __fh?FHandleDoubleClick@DRPCW@@UAAHXZ 1000423c f drdlgfls.obj
 0001:0000323e       ?FHandleDoubleClick@DRPCW@@UAAHXZ 1000423e f drdlgfls.obj
 0001:00003248       __pcd_tbl?FHandleDoubleClick@DRCLRBAR@@UAAHXZ 10004248 f drdlgfls.obj
 0001:0000324c       __nep?FHandleDoubleClick@DRCLRBAR@@UAAHXZ 1000424c f drdlgfls.obj
 0001:00003254       __fh?FHandleDoubleClick@DRCLRBAR@@UAAHXZ 10004254 f drdlgfls.obj
 0001:00003256       ?FHandleDoubleClick@DRCLRBAR@@UAAHXZ 10004256 f drdlgfls.obj
 0001:00003260       __pcd_tbl?FHandleDoubleClick@DRCLRRAINBOW@@UAAHXZ 10004260 f drdlgfls.obj
 0001:00003264       __nep?FHandleDoubleClick@DRCLRRAINBOW@@UAAHXZ 10004264 f drdlgfls.obj
 0001:0000326c       __fh?FHandleDoubleClick@DRCLRRAINBOW@@UAAHXZ 1000426c f drdlgfls.obj
 0001:0000326e       ?FHandleDoubleClick@DRCLRRAINBOW@@UAAHXZ 1000426e f drdlgfls.obj
 0001:00003278       __pcd_tbl?FHandleDoubleClick@DRCLRBEE@@UAAHXZ 10004278 f drdlgfls.obj
 0001:0000327c       __nep?FHandleDoubleClick@DRCLRBEE@@UAAHXZ 1000427c f drdlgfls.obj
 0001:00003284       __fh?FHandleDoubleClick@DRCLRBEE@@UAAHXZ 10004284 f drdlgfls.obj
 0001:00003286       ?FHandleDoubleClick@DRCLRBEE@@UAAHXZ 10004286 f drdlgfls.obj
 0001:00003290       __pcd_tbl?ReloadPicker@@YAXK@Z 10004290 f drdlgfls.obj
 0001:000032ac       __nep?ReloadPicker@@YAXK@Z 100042ac f drdlgfls.obj
 0001:000032b4       __fh?ReloadPicker@@YAXK@Z  100042b4 f drdlgfls.obj
 0001:000032b6       ?ReloadPicker@@YAXK@Z      100042b6 f drdlgfls.obj
 0001:000032e4       __pcd_tbl?FUpdateColorDlg@@YAHIIIIPAI@Z 100042e4 f drdlgfls.obj
 0001:0000334c       __nep?FUpdateColorDlg@@YAHIIIIPAI@Z 1000434c f drdlgfls.obj
 0001:00003354       __fh?FUpdateColorDlg@@YAHIIIIPAI@Z 10004354 f drdlgfls.obj
 0001:00003356       ?FUpdateColorDlg@@YAHIIIIPAI@Z 10004356 f drdlgfls.obj
 0001:0000359c       __pcd_tbl?UlQueryLum@@YAKXZ 1000459c f drdlgfls.obj
 0001:000035a0       __nep?UlQueryLum@@YAKXZ    100045a0 f drdlgfls.obj
 0001:000035a8       __fh?UlQueryLum@@YAKXZ     100045a8 f drdlgfls.obj
 0001:000035aa       ?UlQueryLum@@YAKXZ         100045aa f drdlgfls.obj
 0001:000035b4       __pcd_tbl?UlQuerySat@@YAKXZ 100045b4 f drdlgfls.obj
 0001:000035b8       __nep?UlQuerySat@@YAKXZ    100045b8 f drdlgfls.obj
 0001:000035c0       __fh?UlQuerySat@@YAKXZ     100045c0 f drdlgfls.obj
 0001:000035c2       ?UlQuerySat@@YAKXZ         100045c2 f drdlgfls.obj
 0001:000035cc       __pcd_tbl?UlQueryHue@@YAKXZ 100045cc f drdlgfls.obj
 0001:000035d0       __nep?UlQueryHue@@YAKXZ    100045d0 f drdlgfls.obj
 0001:000035d8       __fh?UlQueryHue@@YAKXZ     100045d8 f drdlgfls.obj
 0001:000035da       ?UlQueryHue@@YAKXZ         100045da f drdlgfls.obj
 0001:000035e4       __pcd_tbl?CaptureMouse@@YAXIH@Z 100045e4 f drdlgfls.obj
 0001:000035e8       __nep?CaptureMouse@@YAXIH@Z 100045e8 f drdlgfls.obj
 0001:000035f0       __fh?CaptureMouse@@YAXIH@Z 100045f0 f drdlgfls.obj
 0001:000035f2       ?CaptureMouse@@YAXIH@Z     100045f2 f drdlgfls.obj
 0001:000035f8       __pcd_tbl?SetHLSEdit@@YAXHK@Z 100045f8 f drdlgfls.obj
 0001:000035fc       __nep?SetHLSEdit@@YAXHK@Z  100045fc f drdlgfls.obj
 0001:00003604       __fh?SetHLSEdit@@YAXHK@Z   10004604 f drdlgfls.obj
 0001:00003606       ?SetHLSEdit@@YAXHK@Z       10004606 f drdlgfls.obj
 0001:00003620       __pcd_tbl?SetRGBEdit@@YAXHK@Z 10004620 f drdlgfls.obj
 0001:00003624       __nep?SetRGBEdit@@YAXHK@Z  10004624 f drdlgfls.obj
 0001:0000362c       __fh?SetRGBEdit@@YAXHK@Z   1000462c f drdlgfls.obj
 0001:0000362e       ?SetRGBEdit@@YAXHK@Z       1000462e f drdlgfls.obj
 0001:00003664       __pcd_tbl?GetRGBEdit@@YAXHAAK@Z 10004664 f drdlgfls.obj
 0001:00003668       __nep?GetRGBEdit@@YAXHAAK@Z 10004668 f drdlgfls.obj
 0001:00003670       __fh?GetRGBEdit@@YAXHAAK@Z 10004670 f drdlgfls.obj
 0001:00003672       ?GetRGBEdit@@YAXHAAK@Z     10004672 f drdlgfls.obj
 0001:000036ac       __pcd_tbl?SdmFetchParent@@YAXPAPAUIMsoFillsDlg@@@Z 100046ac f drdlgfls.obj
 0001:000036b0       __nep?SdmFetchParent@@YAXPAPAUIMsoFillsDlg@@@Z 100046b0 f drdlgfls.obj
 0001:000036b8       __fh?SdmFetchParent@@YAXPAPAUIMsoFillsDlg@@@Z 100046b8 f drdlgfls.obj
 0001:000036ba       ?SdmFetchParent@@YAXPAPAUIMsoFillsDlg@@@Z 100046ba f drdlgfls.obj
 0001:000036c4       __pcd_tbl?GetMenuInfo@@YAXHPAKPAH@Z 100046c4 f drdlgfls.obj
 0001:000036c4       __nep?GetMenuInfo@@YAXHPAKPAH@Z 100046c4 f drdlgfls.obj
 0001:000036cc       __fh?GetMenuInfo@@YAXHPAKPAH@Z 100046cc f drdlgfls.obj
 0001:000036ce       ?GetMenuInfo@@YAXHPAKPAH@Z 100046ce f drdlgfls.obj
 0001:000036d0       __pcd_tbl?InvalidateSdmRect@@YAXHHHH@Z 100046d0 f drdlgfls.obj
 0001:000036d4       __nep?InvalidateSdmRect@@YAXHHHH@Z 100046d4 f drdlgfls.obj
 0001:000036dc       __fh?InvalidateSdmRect@@YAXHHHH@Z 100046dc f drdlgfls.obj
 0001:000036de       ?InvalidateSdmRect@@YAXHHHH@Z 100046de f drdlgfls.obj
 0001:000036ec       __pcd_tbl?UpdateFillsPreview@@YAXXZ 100046ec f drdlgfls.obj
 0001:0000370c       __nep?UpdateFillsPreview@@YAXXZ 1000470c f drdlgfls.obj
 0001:00003714       __fh?UpdateFillsPreview@@YAXXZ 10004714 f drdlgfls.obj
 0001:00003716       ?UpdateFillsPreview@@YAXXZ 10004716 f drdlgfls.obj
 0001:0000373c       __pcd_tbl_HandleSpinChange 1000473c f drdlgfls.obj
 0001:00003740       __nep_HandleSpinChange     10004740 f drdlgfls.obj
 0001:00003748       __fh_HandleSpinChange      10004748 f drdlgfls.obj
 0001:0000374a       _HandleSpinChange          1000474a f drdlgfls.obj
 0001:00003760       ??0DRPICTURE@@QAA@I@Z      10004760 f drdlgfls.obj
 0001:00003800       __nep?FValidIRect@DRPC@@UAAHH@Z 10004800 f drdlgfls.obj
 0001:00003800       __pcd_tbl?FValidIRect@DRPC@@UAAHH@Z 10004800 f drdlgfls.obj
 0001:00003808       __fh?FValidIRect@DRPC@@UAAHH@Z 10004808 f drdlgfls.obj
 0001:0000380a       ?FValidIRect@DRPC@@UAAHH@Z 1000480a f drdlgfls.obj
 0001:0000380c       __pcd_tbl?FIsEdge@DRPCW@@UAAHH@Z 1000480c f drdlgfls.obj
 0001:0000380c       __nep?FIsEdge@DRPCW@@UAAHH@Z 1000480c f drdlgfls.obj
 0001:00003814       __fh?FIsEdge@DRPCW@@UAAHH@Z 10004814 f drdlgfls.obj
 0001:00003816       ?FIsEdge@DRPCW@@UAAHH@Z    10004816 f drdlgfls.obj
 0001:00003818       __pcd_tbl?PrcOfVar@DRPCW@@UAAPAUtagRECT@@H@Z 10004818 f drdlgfls.obj
 0001:00003818       __nep?PrcOfVar@DRPCW@@UAAPAUtagRECT@@H@Z 10004818 f drdlgfls.obj
 0001:00003820       __fh?PrcOfVar@DRPCW@@UAAPAUtagRECT@@H@Z 10004820 f drdlgfls.obj
 0001:00003822       ?PrcOfVar@DRPCW@@UAAPAUtagRECT@@H@Z 10004822 f drdlgfls.obj
 0001:00003830       __nep?FHandleDoubleClick@DRPICTURE@@UAAHXZ 10004830 f drdlgfls.obj
 0001:00003830       __pcd_tbl?FHandleDoubleClick@DRPICTURE@@UAAHXZ 10004830 f drdlgfls.obj
 0001:00003838       __fh?FHandleDoubleClick@DRPICTURE@@UAAHXZ 10004838 f drdlgfls.obj
 0001:0000383a       ?FHandleDoubleClick@DRPICTURE@@UAAHXZ 1000483a f drdlgfls.obj
 0001:0000383c       __pcd_tbl??_GDRPICTURE@@UAAPAXI@Z 1000483c f drdlgfls.obj
 0001:00003844       __nep??_GDRPICTURE@@UAAPAXI@Z 10004844 f drdlgfls.obj
 0001:0000384c       __fh??_GDRPICTURE@@UAAPAXI@Z 1000484c f drdlgfls.obj
 0001:0000384e       ??_EDRPICTURE@@UAAPAXI@Z   1000484e f drdlgfls.obj
 0001:0000384e       ??_GDRPICTURE@@UAAPAXI@Z   1000484e f drdlgfls.obj
 0001:00003858       ??1DRPICTURE@@UAA@XZ       10004858 f drdlgfls.obj
 0001:000038f4       __pcd_tbl?DeleteCache@DRPICTURE@@QAAXXZ 100048f4 f drdlgfls.obj
 0001:000038f4       __nep?DeleteCache@DRPICTURE@@QAAXXZ 100048f4 f drdlgfls.obj
 0001:000038fc       __fh?DeleteCache@DRPICTURE@@QAAXXZ 100048fc f drdlgfls.obj
 0001:000038fe       ?DeleteCache@DRPICTURE@@QAAXXZ 100048fe f drdlgfls.obj
 0001:00003900       __pcd_tbl?SetPib@DRPICTURE@@QAAXPAUIMsoBlip@@@Z 10004900 f drdlgfls.obj
 0001:00003904       __nep?SetPib@DRPICTURE@@QAAXPAUIMsoBlip@@@Z 10004904 f drdlgfls.obj
 0001:0000390c       __fh?SetPib@DRPICTURE@@QAAXPAUIMsoBlip@@@Z 1000490c f drdlgfls.obj
 0001:0000390e       ?SetPib@DRPICTURE@@QAAXPAUIMsoBlip@@@Z 1000490e f drdlgfls.obj
 0001:00003934       __pcd_tbl?FPrepCache@DRPICTURE@@QAAHPAUHDC__@@PAUtagPOINT@@@Z 10004934 f drdlgfls.obj
 0001:0000394c       __nep?FPrepCache@DRPICTURE@@QAAHPAUHDC__@@PAUtagPOINT@@@Z 1000494c f drdlgfls.obj
 0001:00003954       __fh?FPrepCache@DRPICTURE@@QAAHPAUHDC__@@PAUtagPOINT@@@Z 10004954 f drdlgfls.obj
 0001:00003957       ?FPrepCache@DRPICTURE@@QAAHPAUHDC__@@PAUtagPOINT@@@Z 10004957 f drdlgfls.obj
 0001:000039b0       __pcd_tbl?DrawPic@DRPICTURE@@UAAXPAUHDC__@@PAUtagRECT@@HH@Z 100049b0 f drdlgfls.obj
 0001:000039bc       __nep?DrawPic@DRPICTURE@@UAAXPAUHDC__@@PAUtagRECT@@HH@Z 100049bc f drdlgfls.obj
 0001:000039c4       __fh?DrawPic@DRPICTURE@@UAAXPAUHDC__@@PAUtagRECT@@HH@Z 100049c4 f drdlgfls.obj
 0001:000039c6       ?DrawPic@DRPICTURE@@UAAXPAUHDC__@@PAUtagRECT@@HH@Z 100049c6 f drdlgfls.obj
 0001:000039e0       __pcd_tbl?DrawPib@DRPICTURE@@QAAXPAUHDC__@@PAUtagRECT@@@Z 100049e0 f drdlgfls.obj
 0001:000039e4       __nep?DrawPib@DRPICTURE@@QAAXPAUHDC__@@PAUtagRECT@@@Z 100049e4 f drdlgfls.obj
 0001:000039ec       __fh?DrawPib@DRPICTURE@@QAAXPAUHDC__@@PAUtagRECT@@@Z 100049ec f drdlgfls.obj
 0001:000039ee       ?DrawPib@DRPICTURE@@QAAXPAUHDC__@@PAUtagRECT@@@Z 100049ee f drdlgfls.obj
 0001:00003a00       __pcd_tbl?FInit@DRPICTURE@@UAAHXZ 10004a00 f drdlgfls.obj
 0001:00003a04       __nep?FInit@DRPICTURE@@UAAHXZ 10004a04 f drdlgfls.obj
 0001:00003a0c       __fh?FInit@DRPICTURE@@UAAHXZ 10004a0c f drdlgfls.obj
 0001:00003a0e       ?FInit@DRPICTURE@@UAAHXZ   10004a0e f drdlgfls.obj
 0001:00003a14       __pcd_tbl_FItemProcFillEdit 10004a14 f drdlgfls.obj
 0001:00003a14       __nep_FItemProcFillEdit    10004a14 f drdlgfls.obj
 0001:00003a1c       __fh_FItemProcFillEdit     10004a1c f drdlgfls.obj
 0001:00003a1e       _FItemProcFillEdit         10004a1e f drdlgfls.obj
 0001:00003a20       __pcd_tbl?EventFillEffect@@YAXW4MSODGCID@@PAVDGUI@@@Z 10004a20 f drdlgfls.obj
 0001:00003a2c       __nep?EventFillEffect@@YAXW4MSODGCID@@PAVDGUI@@@Z 10004a2c f drdlgfls.obj
 0001:00003a34       __fh?EventFillEffect@@YAXW4MSODGCID@@PAVDGUI@@@Z 10004a34 f drdlgfls.obj
 0001:00003a36       ?EventFillEffect@@YAXW4MSODGCID@@PAVDGUI@@@Z 10004a36 f drdlgfls.obj
 0001:00003a68       __pcd_tbl?FCommandFormatDrawObject@@YAHPAUDGCB@@@Z 10004a68 f drdlgfls.obj
 0001:00003a80       __nep?FCommandFormatDrawObject@@YAHPAUDGCB@@@Z 10004a80 f drdlgfls.obj
 0001:00003a88       __fh?FCommandFormatDrawObject@@YAHPAUDGCB@@@Z 10004a88 f drdlgfls.obj
 0001:00003a8b       ?FCommandFormatDrawObject@@YAHPAUDGCB@@@Z 10004a8b f drdlgfls.obj
 0001:00003bbc       __pcd_tbl?FCommandInsertPicture@@YAHPAUDGCB@@@Z 10004bbc f drdlgfls.obj
 0001:00003bc0       __nep?FCommandInsertPicture@@YAHPAUDGCB@@@Z 10004bc0 f drdlgfls.obj
 0001:00003bc8       __fh?FCommandInsertPicture@@YAHPAUDGCB@@@Z 10004bc8 f drdlgfls.obj
 0001:00003bca       ?FCommandInsertPicture@@YAHPAUDGCB@@@Z 10004bca f drdlgfls.obj
 0001:00003bd4       __pcd_tbl_FItmColorSC      10004bd4 f drdlgfls.obj
 0001:00003bec       __nep_FItmColorSC          10004bec f drdlgfls.obj
 0001:00003bf4       __fh_FItmColorSC           10004bf4 f drdlgfls.obj
 0001:00003bf6       _FItmColorSC               10004bf6 f drdlgfls.obj
 0001:00003c8c       __pcd_tbl?SetOpacityChange@@YAXXZ 10004c8c f drdlgfls.obj
 0001:00003c90       __nep?SetOpacityChange@@YAXXZ 10004c90 f drdlgfls.obj
 0001:00003c98       __fh?SetOpacityChange@@YAXXZ 10004c98 f drdlgfls.obj
 0001:00003c9a       ?SetOpacityChange@@YAXXZ   10004c9a f drdlgfls.obj
 0001:00003ca0       ?PdgciOfDgcid@@YAPAUDGCI@@PAU1@W4MSODGCID@@@Z 10004ca0 f drdgui.obj
 0001:00003e04       _MsoInitDguisi             10004e04 f drdgui.obj
 0001:00003eb8       _MsoFCreateDrawingUserInterface 10004eb8 f drdgui.obj
 0001:00003fc4       ??0DGUI@@QAA@XZ            10004fc4 f drdgui.obj
 0001:00004090       ??1DGUI@@QAA@XZ            10005090 f drdgui.obj
 0001:00004150       ?QueryInterface@DGUI@@UAAJABUGUID@@PAPAX@Z 10005150 f drdgui.obj
 0001:000041bc       ?FDebugMessage@DGUI@@UAAHPAUMSOINST@@IIJ@Z 100051bc f drdgui.obj
 0001:00004214       ?Free@DGUI@@UAAXXZ         10005214 f drdgui.obj
 0001:00004344       ?PdguisiBeginUpdate@DGUI@@UAAPAU_MSODGUISI@@H@Z 10005344 f drdgui.obj
 0001:000043a0       ?EndDguisiUpdate@DGUI@@UAAXPAU_MSODGUISI@@H@Z 100053a0 f drdgui.obj
 0001:000043f4       ?FRecordVBA@DGUI@@UAAHXZ   100053f4 f drdgui.obj
 0001:00004450       ?SetRecordVBA@DGUI@@UAAXH@Z 10005450 f drdgui.obj
 0001:000044ac       ?InitEvent@DGUI@@QAAXPAUMSODGUIEB@@W4MSODGE@@@Z 100054ac f drdgui.obj
 0001:00004504       ?FFireEvent@DGUI@@QAAHPAUMSODGUIEB@@H@Z 10005504 f drdgui.obj
 0001:000045a4       ?FAllocCommand@DGUI@@QAAHPAPAUDGC@@@Z 100055a4 f drdgui.obj
 0001:00004678       ?DeallocCommand@DGUI@@QAAXPAUDGC@@@Z 10005678 f drdgui.obj
 0001:0000471c       ?FCreateCommand@DGUI@@UAAHPAPAUMSODGC@@W4MSODGCID@@@Z 1000571c f drdgui.obj
 0001:000048f0       ?FreeCommand@DGUI@@UAAXPAUMSODGC@@@Z 100058f0 f drdgui.obj
 0001:00004998       ?FCloneCommand@DGUI@@UAAHPAUMSODGC@@PAPAU2@@Z 10005998 f drdgui.obj
 0001:00004aac       ?FCloneCommandForRepeat@DGUI@@QAAHPAUMSODGC@@PAPAU2@@Z 10005aac f drdgui.obj
 0001:00004be8       ?FIsCommandEnabled@DGUI@@UAAHPAUMSODGC@@@Z 10005be8 f drdgui.obj
 0001:00004c48       ?FIsDgcEnabled@DGUI@@QAAHPAUDGC@@H@Z 10005c48 f drdgui.obj
 0001:00005190       ?FIsDgcidEnabled@DGUI@@UAAHW4MSODGCID@@@Z 10006190 f drdgui.obj
 0001:0000529c       ?FIsCommandLatched@DGUI@@UAAHPAUMSODGC@@@Z 1000629c f drdgui.obj
 0001:00005360       ?FIsDgcidLatched@DGUI@@UAAHW4MSODGCID@@@Z 10006360 f drdgui.obj
 0001:0000542c       ?BeginQueryCommandEnabling@DGUI@@UAAXXZ 1000642c f drdgui.obj
 0001:0000548c       ?EndQueryCommandEnabling@DGUI@@UAAXXZ 1000648c f drdgui.obj
 0001:000054e8       ?FExecuteCommand@DGUI@@UAAHPAUMSODGC@@@Z 100064e8 f drdgui.obj
 0001:0000571c       ?FExecuteDgcid@DGUI@@UAAHW4MSODGCID@@@Z 1000671c f drdgui.obj
 0001:000057e8       ?FGetCommandString@DGUI@@UAAHPAUMSODGC@@W4MSODGCID@@KPAGHPAH@Z 100067e8 f drdgui.obj
 0001:00005e70       ?InitDgcb@DGUI@@QAAXPAUDGCB@@PAUDGC@@@Z 10006e70 f drdgui.obj
 0001:00005efc       ?FFillDgcb@DGUI@@QAAHPAUDGCB@@@Z 10006efc f drdgui.obj
 0001:00006008       ?FGetDgvForDgc@DGUI@@QAAHPAUDGCB@@@Z 10007008 f drdgui.obj
 0001:000060e4       ?FGetDgslForDgc@DGUI@@QAAHPAUDGCB@@@Z 100070e4 f drdgui.obj
 0001:000061ac       ?FGetDgForDgc@DGUI@@QAAHPAUDGCB@@@Z 100071ac f drdgui.obj
 0001:00006294       ?FGetDggForDgc@DGUI@@QAAHPAUDGCB@@@Z 10007294 f drdgui.obj
 0001:0000638c       ?FRequestExecuteCommand@DGUI@@QAAHPAUDGC@@HPAH@Z 1000738c f drdgui.obj
 0001:00006470       ?FRequestExecuteDgcid@DGUI@@QAAHW4MSODGCID@@H@Z 10007470 f drdgui.obj
 0001:00006550       ?FRequestExecuteDgcidPsp@DGUI@@QAAHW4MSODGCID@@PAUMSOSP@@H@Z 10007550 f drdgui.obj
 0001:0000663c       ?FSetFillEffectBlip@DGUI@@QAAHPAUIMsoBlip@@PAG@Z 1000763c f drdgui.obj
 0001:0000678c       ?UpdateFormatObjectBlip@DGUI@@QAAXXZ 1000778c f drdgui.obj
 0001:00006860       ?UpdateInCommand@@YAXPAUDGCB@@@Z 10007860 f drdgui.obj
 0001:000068f8       ?FAddColorToMRU@DGUI@@QAAHK@Z 100078f8 f drdgui.obj
 0001:000069c0       ?CColorsInMRU@DGUI@@QAAHXZ 100079c0 f drdgui.obj
 0001:00006a7c       ?FGetColorFromMRU@DGUI@@QAAHPAKH@Z 10007a7c f drdgui.obj
 0001:00006b4c       ?DgcidCurrentTool@DGUI@@QAA?AW4MSODGCID@@XZ 10007b4c f drdgui.obj
 0001:00006bf4       _FCommandDefault           10007bf4 f drdgui.obj
 0001:00006c6c       ?FCommandCut@@YAHPAUDGCB@@@Z 10007c6c f drdgui.obj
 0001:00006d14       ?FCommandCopy@@YAHPAUDGCB@@@Z 10007d14 f drdgui.obj
 0001:00006dc0       ?FCommandPaste@@YAHPAUDGCB@@@Z 10007dc0 f drdgui.obj
 0001:00006f34       ?FCommandRememberSelection@@YAHPAUDGCB@@@Z 10007f34 f drdgui.obj
 0001:00006fe8       ?FCommandToggleReshapeMode@@YAHPAUDGCB@@@Z 10007fe8 f drdgui.obj
 0001:00007110       ?FCommandToggleRotateMode@@YAHPAUDGCB@@@Z 10008110 f drdgui.obj
 0001:00007260       ?FCommandToggleCropMode@@YAHPAUDGCB@@@Z 10008260 f drdgui.obj
 0001:000073a8       ?FCommandResetAdjustHandle@@YAHPAUDGCB@@@Z 100083a8 f drdgui.obj
 0001:000074f0       ?FCommandToggleWrapPolygonMode@@YAHPAUDGCB@@@Z 100084f0 f drdgui.obj
 0001:000075f4       ?FCommandDguiMode@@YAHPAUDGCB@@@Z 100085f4 f drdgui.obj
 0001:000076bc       ?SetPointerMode@DGUI@@QAAXH@Z 100086bc f drdgui.obj
 0001:00007798       ?FCommandClear@@YAHPAUDGCB@@@Z 10008798 f drdgui.obj
 0001:0000780c       ?FCommandSelectAll@@YAHPAUDGCB@@@Z 1000880c f drdgui.obj
 0001:00007924       ?FCommandSelectShape@@YAHPAUDGCB@@@Z 10008924 f drdgui.obj
 0001:00007ab4       ?FCommandGroup@@YAHPAUDGCB@@@Z 10008ab4 f drdgui.obj
 0001:00007b64       ?FCommandUngroup@@YAHPAUDGCB@@@Z 10008b64 f drdgui.obj
 0001:00007bdc       ?FCommandRegroup@@YAHPAUDGCB@@@Z 10008bdc f drdgui.obj
 0001:00007ca8       ?FCommandDuplicate@@YAHPAUDGCB@@@Z 10008ca8 f drdgui.obj
 0001:00007d40       ?FCommandRepeat@@YAHPAUDGCB@@@Z 10008d40 f drdgui.obj
 0001:00007e54       ?FCommandInsertShape@@YAHPAUDGCB@@@Z 10008e54 f drdgui.obj
 0001:00008074       ?FCommandChooseTool@@YAHPAUDGCB@@@Z 10009074 f drdgui.obj
 0001:00008558       ?FCommandNudge@@YAHPAUDGCB@@@Z 10009558 f drdgui.obj
 0001:0000876c       ?FCommandRotate90@@YAHPAUDGCB@@@Z 1000976c f drdgui.obj
 0001:0000893c       ?FCommandRerouteConnections@@YAHPAUDGCB@@@Z 1000993c f drdgui.obj
 0001:000089dc       ?FCommandConnectorStyle@@YAHPAUDGCB@@@Z 100099dc f drdgui.obj
 0001:00008ae4       ?FCommandFlip@@YAHPAUDGCB@@@Z 10009ae4 f drdgui.obj
 0001:00008c7c       ?FCommandSetDefaults@@YAHPAUDGCB@@@Z 10009c7c f drdgui.obj
 0001:00008e08       ?FCommandDoToolEdit@@YAHPAUDGCB@@@Z 10009e08 f drdgui.obj
 0001:000091a0       ?FCommandStateFreeform@@YAHPAUDGCB@@@Z 1000a1a0 f drdgui.obj
 0001:00009450       ?FCommandAddFreeform@@YAHPAUDGCB@@@Z 1000a450 f drdgui.obj
 0001:000095c4       ?FCommandPolygonPtOp@@YAHPAUDGCB@@@Z 1000a5c4 f drdgui.obj
 0001:00009910       ?FDoPolygonCommand@@YAHPAUDGCB@@@Z 1000a910 f drdgui.obj
 0001:00009b7c       ?FCommandPolygonCreate@@YAHPAUDGCB@@@Z 1000ab7c f drdgui.obj
 0001:00009bd4       ?FCommandPolygonReshape@@YAHPAUDGCB@@@Z 1000abd4 f drdgui.obj
 0001:00009c2c       ?FCommandPolygonElementReshape@@YAHPAUDGCB@@@Z 1000ac2c f drdgui.obj
 0001:00009fd4       ?FCommandWrapPolygonCreate@@YAHPAUDGCB@@@Z 1000afd4 f drdgui.obj
 0001:0000a120       ?FCommandChangeZOrder@@YAHPAUDGCB@@@Z 1000b120 f drdgui.obj
 0001:0000a1a4       ?FCommandBringInFrontOfDocument@@YAHPAUDGCB@@@Z 1000b1a4 f drdgui.obj
 0001:0000a268       ?FVisibleTbid@DGUI@@QAAHH@Z 1000b268 f drdgui.obj
 0001:0000a328       ?FSetFVisibleTbid@DGUI@@QAAHHH@Z 1000b328 f drdgui.obj
 0001:0000a3f4       ?FCommandToggleToolbar@@YAHPAUDGCB@@@Z 1000b3f4 f drdgui.obj
 0001:0000a4dc       ?FCommandShowAutoShapesAndDrawingToolbars@@YAHPAUDGCB@@@Z 1000b4dc f drdgui.obj
 0001:0000a5a4       ?FCommandEditObject@@YAHPAUDGCB@@@Z 1000b5a4 f drdgui.obj
 0001:0000a6dc       ?FCommandEditPicture@@YAHPAUDGCB@@@Z 1000b6dc f drdgui.obj
 0001:0000a868       ?ClrOfSplitMenu@DGG@@UAAKW4MSODGCID@@@Z 1000b868 f drdgui.obj
 0001:0000a8e0       ?SetSplitMenuClr@DGG@@UAAXW4MSODGCID@@K@Z 1000b8e0 f drdgui.obj
 0001:0000a958       ?FGetSplitMenuTooltip@DGUI@@QAAHW4MSODGCID@@PAGHPAH@Z 1000b958 f drdgui.obj
 0001:0000ab9c       ?FCommandSplitMenu@@YAHPAUDGCB@@@Z 1000bb9c f drdgui.obj
 0001:0000ac54       ?FCommandNYI@@YAHPAUDGCB@@@Z 1000bc54 f drdgui.obj
 0001:0000acb8       ?FCreateDrawingControlUser@DGUI@@UAAHPAPAUIMsoControlUser@@W4MSODGCID@@@Z 1000bcb8 f drdgui.obj
 0001:0000ae4c       __pcd_tbl?FDebugMessage@TBDDUBASE@@UAAHPAUMSOINST@@IIJ@Z 1000be4c f drdgui.obj
 0001:0000ae4c       __nep?FDebugMessage@TBDDUBASE@@UAAHPAUMSOINST@@IIJ@Z 1000be4c f drdgui.obj
 0001:0000ae54       __fh?FDebugMessage@TBDDUBASE@@UAAHPAUMSOINST@@IIJ@Z 1000be54 f drdgui.obj
 0001:0000ae56       ?FDebugMessage@TBDDUBASE@@UAAHPAUMSOINST@@IIJ@Z 1000be56 f drdgui.obj
 0001:0000ae58       __nep?FCloneUserClient@TBDDUBASE@@UAAHPAUIMsoControl@@PAXPAPAXPAPAUIMsoControlUser@@@Z 1000be58 f drdgui.obj
 0001:0000ae58       __pcd_tbl?FCloneUserClient@TBDDUBASE@@UAAHPAUIMsoControl@@PAXPAPAXPAPAUIMsoControlUser@@@Z 1000be58 f drdgui.obj
 0001:0000ae60       __fh?FCloneUserClient@TBDDUBASE@@UAAHPAUIMsoControl@@PAXPAPAXPAPAUIMsoControlUser@@@Z 1000be60 f drdgui.obj
 0001:0000ae62       ?FCloneUserClient@TBDDUBASE@@UAAHPAUIMsoControl@@PAXPAPAXPAPAUIMsoControlUser@@@Z 1000be62 f drdgui.obj
 0001:0000ae68       __pcd_tbl?NotifyDelete@TBDDUBASE@@UAAXPAUIMsoControl@@PAPAX@Z 1000be68 f drdgui.obj
 0001:0000ae68       __nep?NotifyDelete@TBDDUBASE@@UAAXPAUIMsoControl@@PAPAX@Z 1000be68 f drdgui.obj
 0001:0000ae70       __fh?NotifyDelete@TBDDUBASE@@UAAXPAUIMsoControl@@PAPAX@Z 1000be70 f drdgui.obj
 0001:0000ae72       ?NotifyDelete@TBDDUBASE@@UAAXPAUIMsoControl@@PAPAX@Z 1000be72 f drdgui.obj
 0001:0000ae74       __pcd_tbl?FSaveUserData@TBDDUBASE@@UAAHPAUIMsoControl@@PAPAXPAUIStream@@@Z 1000be74 f drdgui.obj
 0001:0000ae74       __nep?FSaveUserData@TBDDUBASE@@UAAHPAUIMsoControl@@PAPAXPAUIStream@@@Z 1000be74 f drdgui.obj
 0001:0000ae7c       __fh?FSaveUserData@TBDDUBASE@@UAAHPAUIMsoControl@@PAPAXPAUIStream@@@Z 1000be7c f drdgui.obj
 0001:0000ae7e       ?FSaveUserData@TBDDUBASE@@UAAHPAUIMsoControl@@PAPAXPAUIStream@@@Z 1000be7e f drdgui.obj
 0001:0000ae80       __pcd_tbl?FAutoVisible@TBDDUBASE@@UAAHPAUIMsoControl@@PAPAX@Z 1000be80 f drdgui.obj
 0001:0000ae80       __nep?FAutoVisible@TBDDUBASE@@UAAHPAUIMsoControl@@PAPAX@Z 1000be80 f drdgui.obj
 0001:0000ae88       __fh?FAutoVisible@TBDDUBASE@@UAAHPAUIMsoControl@@PAPAX@Z 1000be88 f drdgui.obj
 0001:0000ae8a       ?FAutoVisible@TBDDUBASE@@UAAHPAUIMsoControl@@PAPAX@Z 1000be8a f drdgui.obj
 0001:0000ae8c       __pcd_tbl?FEnabled@TBDDUBASE@@UAAHPAUIMsoControl@@PAPAX@Z 1000be8c f drdgui.obj
 0001:0000ae8c       __nep?FEnabled@TBDDUBASE@@UAAHPAUIMsoControl@@PAPAX@Z 1000be8c f drdgui.obj
 0001:0000ae94       __fh?FEnabled@TBDDUBASE@@UAAHPAUIMsoControl@@PAPAX@Z 1000be94 f drdgui.obj
 0001:0000ae96       ?FEnabled@TBDDUBASE@@UAAHPAUIMsoControl@@PAPAX@Z 1000be96 f drdgui.obj
 0001:0000ae98       __pcd_tbl?FGetAlternateControl@TBDDUBASE@@UAAHPAUIMsoControl@@PAPAXPAPAU2@@Z 1000be98 f drdgui.obj
 0001:0000ae98       __nep?FGetAlternateControl@TBDDUBASE@@UAAHPAUIMsoControl@@PAPAXPAPAU2@@Z 1000be98 f drdgui.obj
 0001:0000aea0       __fh?FGetAlternateControl@TBDDUBASE@@UAAHPAUIMsoControl@@PAPAXPAPAU2@@Z 1000bea0 f drdgui.obj
 0001:0000aea2       ?FGetAlternateControl@TBDDUBASE@@UAAHPAUIMsoControl@@PAPAXPAPAU2@@Z 1000bea2 f drdgui.obj
 0001:0000aea4       __nep?FChangeLabel@TBDDUBASE@@UAAHPAUIMsoControl@@PAPAXPAG2@Z 1000bea4 f drdgui.obj
 0001:0000aea4       __pcd_tbl?FChangeLabel@TBDDUBASE@@UAAHPAUIMsoControl@@PAPAXPAG2@Z 1000bea4 f drdgui.obj
 0001:0000aeac       __fh?FChangeLabel@TBDDUBASE@@UAAHPAUIMsoControl@@PAPAXPAG2@Z 1000beac f drdgui.obj
 0001:0000aeae       ?FChangeLabel@TBDDUBASE@@UAAHPAUIMsoControl@@PAPAXPAG2@Z 1000beae f drdgui.obj
 0001:0000aeb0       __nep?FNotifyAction@TBDDUBASE@@UAAHPAUIMsoControl@@PAPAXH@Z 1000beb0 f drdgui.obj
 0001:0000aeb0       __pcd_tbl?FNotifyAction@TBDDUBASE@@UAAHPAUIMsoControl@@PAPAXH@Z 1000beb0 f drdgui.obj
 0001:0000aeb8       __fh?FNotifyAction@TBDDUBASE@@UAAHPAUIMsoControl@@PAPAXH@Z 1000beb8 f drdgui.obj
 0001:0000aeba       ?FNotifyAction@TBDDUBASE@@UAAHPAUIMsoControl@@PAPAXH@Z 1000beba f drdgui.obj
 0001:0000aebc       __pcd_tbl?TbcuOleUsage@TBDDUBASE@@UAAHPAUIMsoControl@@PAPAX@Z 1000bebc f drdgui.obj
 0001:0000aebc       __nep?TbcuOleUsage@TBDDUBASE@@UAAHPAUIMsoControl@@PAPAX@Z 1000bebc f drdgui.obj
 0001:0000aec4       __fh?TbcuOleUsage@TBDDUBASE@@UAAHPAUIMsoControl@@PAPAX@Z 1000bec4 f drdgui.obj
 0001:0000aec6       ?TbcuOleUsage@TBDDUBASE@@UAAHPAUIMsoControl@@PAPAX@Z 1000bec6 f drdgui.obj
 0001:0000aec8       __nep?FGetString@TBDDUBASE@@UAAHPAUIMsoControl@@PAPAXHPAG@Z 1000bec8 f drdgui.obj
 0001:0000aec8       __pcd_tbl?FGetString@TBDDUBASE@@UAAHPAUIMsoControl@@PAPAXHPAG@Z 1000bec8 f drdgui.obj
 0001:0000aed0       __fh?FGetString@TBDDUBASE@@UAAHPAUIMsoControl@@PAPAXHPAG@Z 1000bed0 f drdgui.obj
 0001:0000aed2       ?FGetString@TBDDUBASE@@UAAHPAUIMsoControl@@PAPAXHPAG@Z 1000bed2 f drdgui.obj
 0001:0000aed4       __nep?FGetQuickTip@TBDDUBASE@@UAAHPAUIMsoControl@@PAPAXPAGPAH@Z 1000bed4 f drdgui.obj
 0001:0000aed4       __pcd_tbl?FGetQuickTip@TBDDUBASE@@UAAHPAUIMsoControl@@PAPAXPAGPAH@Z 1000bed4 f drdgui.obj
 0001:0000aedc       __fh?FGetQuickTip@TBDDUBASE@@UAAHPAUIMsoControl@@PAPAXPAGPAH@Z 1000bedc f drdgui.obj
 0001:0000aede       ?FGetQuickTip@TBDDUBASE@@UAAHPAUIMsoControl@@PAPAXPAGPAH@Z 1000bede f drdgui.obj
 0001:0000aee0       __nep?FUpdate@TBDDUBASE@@UAAHPAUIMsoControl@@PAPAX@Z 1000bee0 f drdgui.obj
 0001:0000aee0       __pcd_tbl?FUpdate@TBDDUBASE@@UAAHPAUIMsoControl@@PAPAX@Z 1000bee0 f drdgui.obj
 0001:0000aee8       __fh?FUpdate@TBDDUBASE@@UAAHPAUIMsoControl@@PAPAX@Z 1000bee8 f drdgui.obj
 0001:0000aeea       ?FUpdate@TBDDUBASE@@UAAHPAUIMsoControl@@PAPAX@Z 1000beea f drdgui.obj
 0001:0000aeec       __pcd_tbl?GetText@TBDDUBASE@@UAAXPAUIMsoControl@@PAPAXPAG@Z 1000beec f drdgui.obj
 0001:0000aeec       __nep?GetText@TBDDUBASE@@UAAXPAUIMsoControl@@PAPAXPAG@Z 1000beec f drdgui.obj
 0001:0000aef4       __fh?GetText@TBDDUBASE@@UAAXPAUIMsoControl@@PAPAXPAG@Z 1000bef4 f drdgui.obj
 0001:0000aef6       ?GetText@TBDDUBASE@@UAAXPAUIMsoControl@@PAPAXPAG@Z 1000bef6 f drdgui.obj
 0001:0000aef8       __nep?GetDropItem@TBDDUBASE@@UAAXPAUIMsoControl@@PAPAXPAGHPAH@Z 1000bef8 f drdgui.obj
 0001:0000aef8       __pcd_tbl?GetDropItem@TBDDUBASE@@UAAXPAUIMsoControl@@PAPAXPAGHPAH@Z 1000bef8 f drdgui.obj
 0001:0000af00       __fh?GetDropItem@TBDDUBASE@@UAAXPAUIMsoControl@@PAPAXPAGHPAH@Z 1000bf00 f drdgui.obj
 0001:0000af02       ?GetDropItem@TBDDUBASE@@UAAXPAUIMsoControl@@PAPAXPAGHPAH@Z 1000bf02 f drdgui.obj
 0001:0000af04       __pcd_tbl?CItems@TBDDUBASE@@UAAHPAUIMsoControl@@PAPAXPAH2@Z 1000bf04 f drdgui.obj
 0001:0000af04       __nep?CItems@TBDDUBASE@@UAAHPAUIMsoControl@@PAPAXPAH2@Z 1000bf04 f drdgui.obj
 0001:0000af0c       __fh?CItems@TBDDUBASE@@UAAHPAUIMsoControl@@PAPAXPAH2@Z 1000bf0c f drdgui.obj
 0001:0000af0e       ?CItems@TBDDUBASE@@UAAHPAUIMsoControl@@PAPAXPAH2@Z 1000bf0e f drdgui.obj
 0001:0000af10       __nep?ISelection@TBDDUBASE@@UAAHPAUIMsoControl@@PAPAX@Z 1000bf10 f drdgui.obj
 0001:0000af10       __pcd_tbl?ISelection@TBDDUBASE@@UAAHPAUIMsoControl@@PAPAX@Z 1000bf10 f drdgui.obj
 0001:0000af18       __fh?ISelection@TBDDUBASE@@UAAHPAUIMsoControl@@PAPAX@Z 1000bf18 f drdgui.obj
 0001:0000af1a       ?ISelection@TBDDUBASE@@UAAHPAUIMsoControl@@PAPAX@Z 1000bf1a f drdgui.obj
 0001:0000af1c       __pcd_tbl?Pick@TBDDUBASE@@UAAXPAUIMsoControl@@PAPAXHH@Z 1000bf1c f drdgui.obj
 0001:0000af1c       __nep?Pick@TBDDUBASE@@UAAXPAUIMsoControl@@PAPAXHH@Z 1000bf1c f drdgui.obj
 0001:0000af24       __fh?Pick@TBDDUBASE@@UAAXPAUIMsoControl@@PAPAXHH@Z 1000bf24 f drdgui.obj
 0001:0000af26       ?Pick@TBDDUBASE@@UAAXPAUIMsoControl@@PAPAXHH@Z 1000bf26 f drdgui.obj
 0001:0000af28       __nep?EnterText@TBDDUBASE@@UAAXPAUIMsoControl@@PAPAXPAGH@Z 1000bf28 f drdgui.obj
 0001:0000af28       __pcd_tbl?EnterText@TBDDUBASE@@UAAXPAUIMsoControl@@PAPAXPAGH@Z 1000bf28 f drdgui.obj
 0001:0000af30       __fh?EnterText@TBDDUBASE@@UAAXPAUIMsoControl@@PAPAXPAGH@Z 1000bf30 f drdgui.obj
 0001:0000af32       ?EnterText@TBDDUBASE@@UAAXPAUIMsoControl@@PAPAXPAGH@Z 1000bf32 f drdgui.obj
 0001:0000af34       __pcd_tbl?CDropdownLines@TBDDUBASE@@UAAHPAUIMsoControl@@PAPAX@Z 1000bf34 f drdgui.obj
 0001:0000af34       __nep?CDropdownLines@TBDDUBASE@@UAAHPAUIMsoControl@@PAPAX@Z 1000bf34 f drdgui.obj
 0001:0000af3c       __fh?CDropdownLines@TBDDUBASE@@UAAHPAUIMsoControl@@PAPAX@Z 1000bf3c f drdgui.obj
 0001:0000af3e       ?CDropdownLines@TBDDUBASE@@UAAHPAUIMsoControl@@PAPAX@Z 1000bf3e f drdgui.obj
 0001:0000af40       __nep?DxDropdown@TBDDUBASE@@UAAHPAUIMsoControl@@PAPAXH@Z 1000bf40 f drdgui.obj
 0001:0000af40       __pcd_tbl?DxDropdown@TBDDUBASE@@UAAHPAUIMsoControl@@PAPAXH@Z 1000bf40 f drdgui.obj
 0001:0000af48       __fh?DxDropdown@TBDDUBASE@@UAAHPAUIMsoControl@@PAPAXH@Z 1000bf48 f drdgui.obj
 0001:0000af4a       ?DxDropdown@TBDDUBASE@@UAAHPAUIMsoControl@@PAPAXH@Z 1000bf4a f drdgui.obj
 0001:0000af4c       __pcd_tbl?DyDropdownItem@TBDDUBASE@@UAAHPAUIMsoControl@@PAPAXPAH@Z 1000bf4c f drdgui.obj
 0001:0000af4c       __nep?DyDropdownItem@TBDDUBASE@@UAAHPAUIMsoControl@@PAPAXPAH@Z 1000bf4c f drdgui.obj
 0001:0000af54       __fh?DyDropdownItem@TBDDUBASE@@UAAHPAUIMsoControl@@PAPAXPAH@Z 1000bf54 f drdgui.obj
 0001:0000af56       ?DyDropdownItem@TBDDUBASE@@UAAHPAUIMsoControl@@PAPAXPAH@Z 1000bf56 f drdgui.obj
 0001:0000af58       __pcd_tbl?Dropping@TBDDUBASE@@UAAXPAUIMsoControl@@PAPAXPAUHFONT__@@@Z 1000bf58 f drdgui.obj
 0001:0000af58       __nep?Dropping@TBDDUBASE@@UAAXPAUIMsoControl@@PAPAXPAUHFONT__@@@Z 1000bf58 f drdgui.obj
 0001:0000af60       __fh?Dropping@TBDDUBASE@@UAAXPAUIMsoControl@@PAPAXPAUHFONT__@@@Z 1000bf60 f drdgui.obj
 0001:0000af62       ?Dropping@TBDDUBASE@@UAAXPAUIMsoControl@@PAPAXPAUHFONT__@@@Z 1000bf62 f drdgui.obj
 0001:0000af64       __nep?UpdateStatusBar@TBDDUBASE@@UAAXPAUIMsoControl@@PAPAXHPAG@Z 1000bf64 f drdgui.obj
 0001:0000af64       __pcd_tbl?UpdateStatusBar@TBDDUBASE@@UAAXPAUIMsoControl@@PAPAXHPAG@Z 1000bf64 f drdgui.obj
 0001:0000af6c       __fh?UpdateStatusBar@TBDDUBASE@@UAAXPAUIMsoControl@@PAPAXHPAG@Z 1000bf6c f drdgui.obj
 0001:0000af6e       ?UpdateStatusBar@TBDDUBASE@@UAAXPAUIMsoControl@@PAPAXHPAG@Z 1000bf6e f drdgui.obj
 0001:0000af70       ?FCreateDGSU@@YAHPAVDGUI@@W4MSODGCID@@PAPAVDGSU@@@Z 1000bf70 f drdgui.obj
 0001:0000b340       __nep?FDebugMessage@TBCSUBASE@@UAAHPAUMSOINST@@IIJ@Z 1000c340 f drdgui.obj
 0001:0000b340       __pcd_tbl?FDebugMessage@TBCSUBASE@@UAAHPAUMSOINST@@IIJ@Z 1000c340 f drdgui.obj
 0001:0000b348       __fh?FDebugMessage@TBCSUBASE@@UAAHPAUMSOINST@@IIJ@Z 1000c348 f drdgui.obj
 0001:0000b34a       ?FDebugMessage@TBCSUBASE@@UAAHPAUMSOINST@@IIJ@Z 1000c34a f drdgui.obj
 0001:0000b34c       __nep?FCloneUserClient@TBCSUBASE@@UAAHPAUIMsoControl@@PAXPAPAXPAPAUIMsoControlUser@@@Z 1000c34c f drdgui.obj
 0001:0000b34c       __pcd_tbl?FCloneUserClient@TBCSUBASE@@UAAHPAUIMsoControl@@PAXPAPAXPAPAUIMsoControlUser@@@Z 1000c34c f drdgui.obj
 0001:0000b354       __fh?FCloneUserClient@TBCSUBASE@@UAAHPAUIMsoControl@@PAXPAPAXPAPAUIMsoControlUser@@@Z 1000c354 f drdgui.obj
 0001:0000b356       ?FCloneUserClient@TBCSUBASE@@UAAHPAUIMsoControl@@PAXPAPAXPAPAUIMsoControlUser@@@Z 1000c356 f drdgui.obj
 0001:0000b35c       __pcd_tbl?NotifyDelete@TBCSUBASE@@UAAXPAUIMsoControl@@PAPAX@Z 1000c35c f drdgui.obj
 0001:0000b35c       __nep?NotifyDelete@TBCSUBASE@@UAAXPAUIMsoControl@@PAPAX@Z 1000c35c f drdgui.obj
 0001:0000b364       __fh?NotifyDelete@TBCSUBASE@@UAAXPAUIMsoControl@@PAPAX@Z 1000c364 f drdgui.obj
 0001:0000b366       ?NotifyDelete@TBCSUBASE@@UAAXPAUIMsoControl@@PAPAX@Z 1000c366 f drdgui.obj
 0001:0000b368       __pcd_tbl?FSaveUserData@TBCSUBASE@@UAAHPAUIMsoControl@@PAPAXPAUIStream@@@Z 1000c368 f drdgui.obj
 0001:0000b368       __nep?FSaveUserData@TBCSUBASE@@UAAHPAUIMsoControl@@PAPAXPAUIStream@@@Z 1000c368 f drdgui.obj
 0001:0000b370       __fh?FSaveUserData@TBCSUBASE@@UAAHPAUIMsoControl@@PAPAXPAUIStream@@@Z 1000c370 f drdgui.obj
 0001:0000b372       ?FSaveUserData@TBCSUBASE@@UAAHPAUIMsoControl@@PAPAXPAUIStream@@@Z 1000c372 f drdgui.obj
 0001:0000b374       __nep?FAutoVisible@TBCSUBASE@@UAAHPAUIMsoControl@@PAPAX@Z 1000c374 f drdgui.obj
 0001:0000b374       __pcd_tbl?FAutoVisible@TBCSUBASE@@UAAHPAUIMsoControl@@PAPAX@Z 1000c374 f drdgui.obj
 0001:0000b37c       __fh?FAutoVisible@TBCSUBASE@@UAAHPAUIMsoControl@@PAPAX@Z 1000c37c f drdgui.obj
 0001:0000b37e       ?FAutoVisible@TBCSUBASE@@UAAHPAUIMsoControl@@PAPAX@Z 1000c37e f drdgui.obj
 0001:0000b380       __pcd_tbl?FEnabled@TBCSUBASE@@UAAHPAUIMsoControl@@PAPAX@Z 1000c380 f drdgui.obj
 0001:0000b380       __nep?FEnabled@TBCSUBASE@@UAAHPAUIMsoControl@@PAPAX@Z 1000c380 f drdgui.obj
 0001:0000b388       __fh?FEnabled@TBCSUBASE@@UAAHPAUIMsoControl@@PAPAX@Z 1000c388 f drdgui.obj
 0001:0000b38a       ?FEnabled@TBCSUBASE@@UAAHPAUIMsoControl@@PAPAX@Z 1000c38a f drdgui.obj
 0001:0000b38c       __nep?FGetAlternateControl@TBCSUBASE@@UAAHPAUIMsoControl@@PAPAXPAPAU2@@Z 1000c38c f drdgui.obj
 0001:0000b38c       __pcd_tbl?FGetAlternateControl@TBCSUBASE@@UAAHPAUIMsoControl@@PAPAXPAPAU2@@Z 1000c38c f drdgui.obj
 0001:0000b394       __fh?FGetAlternateControl@TBCSUBASE@@UAAHPAUIMsoControl@@PAPAXPAPAU2@@Z 1000c394 f drdgui.obj
 0001:0000b396       ?FGetAlternateControl@TBCSUBASE@@UAAHPAUIMsoControl@@PAPAXPAPAU2@@Z 1000c396 f drdgui.obj
 0001:0000b398       __pcd_tbl?FChangeLabel@TBCSUBASE@@UAAHPAUIMsoControl@@PAPAXPAG2@Z 1000c398 f drdgui.obj
 0001:0000b398       __nep?FChangeLabel@TBCSUBASE@@UAAHPAUIMsoControl@@PAPAXPAG2@Z 1000c398 f drdgui.obj
 0001:0000b3a0       __fh?FChangeLabel@TBCSUBASE@@UAAHPAUIMsoControl@@PAPAXPAG2@Z 1000c3a0 f drdgui.obj
 0001:0000b3a2       ?FChangeLabel@TBCSUBASE@@UAAHPAUIMsoControl@@PAPAXPAG2@Z 1000c3a2 f drdgui.obj
 0001:0000b3a4       __nep?FNotifyAction@TBCSUBASE@@UAAHPAUIMsoControl@@PAPAXH@Z 1000c3a4 f drdgui.obj
 0001:0000b3a4       __pcd_tbl?FNotifyAction@TBCSUBASE@@UAAHPAUIMsoControl@@PAPAXH@Z 1000c3a4 f drdgui.obj
 0001:0000b3ac       __fh?FNotifyAction@TBCSUBASE@@UAAHPAUIMsoControl@@PAPAXH@Z 1000c3ac f drdgui.obj
 0001:0000b3ae       ?FNotifyAction@TBCSUBASE@@UAAHPAUIMsoControl@@PAPAXH@Z 1000c3ae f drdgui.obj
 0001:0000b3b0       __nep?TbcuOleUsage@TBCSUBASE@@UAAHPAUIMsoControl@@PAPAX@Z 1000c3b0 f drdgui.obj
 0001:0000b3b0       __pcd_tbl?TbcuOleUsage@TBCSUBASE@@UAAHPAUIMsoControl@@PAPAX@Z 1000c3b0 f drdgui.obj
 0001:0000b3b8       __fh?TbcuOleUsage@TBCSUBASE@@UAAHPAUIMsoControl@@PAPAX@Z 1000c3b8 f drdgui.obj
 0001:0000b3ba       ?TbcuOleUsage@TBCSUBASE@@UAAHPAUIMsoControl@@PAPAX@Z 1000c3ba f drdgui.obj
 0001:0000b3bc       __nep?FGetString@TBCSUBASE@@UAAHPAUIMsoControl@@PAPAXHPAG@Z 1000c3bc f drdgui.obj
 0001:0000b3bc       __pcd_tbl?FGetString@TBCSUBASE@@UAAHPAUIMsoControl@@PAPAXHPAG@Z 1000c3bc f drdgui.obj
 0001:0000b3c4       __fh?FGetString@TBCSUBASE@@UAAHPAUIMsoControl@@PAPAXHPAG@Z 1000c3c4 f drdgui.obj
 0001:0000b3c6       ?FGetString@TBCSUBASE@@UAAHPAUIMsoControl@@PAPAXHPAG@Z 1000c3c6 f drdgui.obj
 0001:0000b3c8       __pcd_tbl?FGetQuickTip@TBCSUBASE@@UAAHPAUIMsoControl@@PAPAXPAGPAH@Z 1000c3c8 f drdgui.obj
 0001:0000b3c8       __nep?FGetQuickTip@TBCSUBASE@@UAAHPAUIMsoControl@@PAPAXPAGPAH@Z 1000c3c8 f drdgui.obj
 0001:0000b3d0       __fh?FGetQuickTip@TBCSUBASE@@UAAHPAUIMsoControl@@PAPAXPAGPAH@Z 1000c3d0 f drdgui.obj
 0001:0000b3d2       ?FGetQuickTip@TBCSUBASE@@UAAHPAUIMsoControl@@PAPAXPAGPAH@Z 1000c3d2 f drdgui.obj
 0001:0000b3d4       __nep?GetSwatches@TBCSUBASE@@UAAXPAUIMsoControl@@PAPAXPAU_msoswatchinfo@@@Z 1000c3d4 f drdgui.obj
 0001:0000b3d4       __pcd_tbl?GetSwatches@TBCSUBASE@@UAAXPAUIMsoControl@@PAPAXPAU_msoswatchinfo@@@Z 1000c3d4 f drdgui.obj
 0001:0000b3dc       __fh?GetSwatches@TBCSUBASE@@UAAXPAUIMsoControl@@PAPAXPAU_msoswatchinfo@@@Z 1000c3dc f drdgui.obj
 0001:0000b3de       ?GetSwatches@TBCSUBASE@@UAAXPAUIMsoControl@@PAPAXPAU_msoswatchinfo@@@Z 1000c3de f drdgui.obj
 0001:0000b3e0       __pcd_tbl?SupdUpdate@TBCSUBASE@@UAAHPAUIMsoControl@@PAPAXPAH2@Z 1000c3e0 f drdgui.obj
 0001:0000b3e0       __nep?SupdUpdate@TBCSUBASE@@UAAHPAUIMsoControl@@PAPAXPAH2@Z 1000c3e0 f drdgui.obj
 0001:0000b3e8       __fh?SupdUpdate@TBCSUBASE@@UAAHPAUIMsoControl@@PAPAXPAH2@Z 1000c3e8 f drdgui.obj
 0001:0000b3ea       ?SupdUpdate@TBCSUBASE@@UAAHPAUIMsoControl@@PAPAXPAH2@Z 1000c3ea f drdgui.obj
 0001:0000b3ec       __nep?TcidRenderSwatch@TBCSUBASE@@UAAHPAUIMsoControl@@PAPAXPAUHDC__@@PAUtagRECT@@HHHHHH@Z 1000c3ec f drdgui.obj
 0001:0000b3ec       __pcd_tbl?TcidRenderSwatch@TBCSUBASE@@UAAHPAUIMsoControl@@PAPAXPAUHDC__@@PAUtagRECT@@HHHHHH@Z 1000c3ec f drdgui.obj
 0001:0000b3f4       __fh?TcidRenderSwatch@TBCSUBASE@@UAAHPAUIMsoControl@@PAPAXPAUHDC__@@PAUtagRECT@@HHHHHH@Z 1000c3f4 f drdgui.obj
 0001:0000b3f6       ?TcidRenderSwatch@TBCSUBASE@@UAAHPAUIMsoControl@@PAPAXPAUHDC__@@PAUtagRECT@@HHHHHH@Z 1000c3f6 f drdgui.obj
 0001:0000b3f8       __pcd_tbl?FSwatchSelect@TBCSUBASE@@UAAHPAUIMsoControl@@PAPAXHH@Z 1000c3f8 f drdgui.obj
 0001:0000b3f8       __nep?FSwatchSelect@TBCSUBASE@@UAAHPAUIMsoControl@@PAPAXHH@Z 1000c3f8 f drdgui.obj
 0001:0000b400       __fh?FSwatchSelect@TBCSUBASE@@UAAHPAUIMsoControl@@PAPAXHH@Z 1000c400 f drdgui.obj
 0001:0000b402       ?FSwatchSelect@TBCSUBASE@@UAAHPAUIMsoControl@@PAPAXHH@Z 1000c402 f drdgui.obj
 0001:0000b404       __pcd_tbl?FGetStringEx@TBCSUBASE@@UAAHPAUIMsoControl@@PAPAXHPAGHH@Z 1000c404 f drdgui.obj
 0001:0000b404       __nep?FGetStringEx@TBCSUBASE@@UAAHPAUIMsoControl@@PAPAXHPAGHH@Z 1000c404 f drdgui.obj
 0001:0000b40c       __fh?FGetStringEx@TBCSUBASE@@UAAHPAUIMsoControl@@PAPAXHPAGHH@Z 1000c40c f drdgui.obj
 0001:0000b40e       ?FGetStringEx@TBCSUBASE@@UAAHPAUIMsoControl@@PAPAXHPAGHH@Z 1000c40e f drdgui.obj
 0001:0000b410       __nep?CCells@TBCSUBASE@@UAAHPAUIMsoControl@@PAPAX@Z 1000c410 f drdgui.obj
 0001:0000b410       __pcd_tbl?CCells@TBCSUBASE@@UAAHPAUIMsoControl@@PAPAX@Z 1000c410 f drdgui.obj
 0001:0000b418       __fh?CCells@TBCSUBASE@@UAAHPAUIMsoControl@@PAPAX@Z 1000c418 f drdgui.obj
 0001:0000b41a       ?CCells@TBCSUBASE@@UAAHPAUIMsoControl@@PAPAX@Z 1000c41a f drdgui.obj
 0001:0000b41c       ?FGetString@DGSU@@UAAHPAUIMsoControl@@PAPAXHPAG@Z 1000c41c f drdgui.obj
 0001:0000b47c       ?FEnabled@DGSU@@UAAHPAUIMsoControl@@PAPAX@Z 1000c47c f drdgui.obj
 0001:0000b4f0       ?FSaveUserData@DGSU@@UAAHPAUIMsoControl@@PAPAXPAUIStream@@@Z 1000c4f0 f drdgui.obj
 0001:0000b580       ??_GDGSU@@UAAPAXI@Z        1000c580 f drdgui.obj
 0001:0000b580       ??_EDGSU@@UAAPAXI@Z        1000c580 f drdgui.obj
 0001:0000b60c       ??_EDGBSU@@UAAPAXI@Z       1000c60c f drdgui.obj
 0001:0000b60c       ??_GDGBSU@@UAAPAXI@Z       1000c60c f drdgui.obj
 0001:0000b6a0       ??_EDGLBSU@@UAAPAXI@Z      1000c6a0 f drdgui.obj
 0001:0000b6a0       ??_GDGLBSU@@UAAPAXI@Z      1000c6a0 f drdgui.obj
 0001:0000b734       ??_GDGDBSU@@UAAPAXI@Z      1000c734 f drdgui.obj
 0001:0000b734       ??_EDGDBSU@@UAAPAXI@Z      1000c734 f drdgui.obj
 0001:0000b7c8       ??_EDGTBSU@@UAAPAXI@Z      1000c7c8 f drdgui.obj
 0001:0000b7c8       ??_GDGTBSU@@UAAPAXI@Z      1000c7c8 f drdgui.obj
 0001:0000b85c       ??_EDGMRUSU@@UAAPAXI@Z     1000c85c f drdgui.obj
 0001:0000b85c       ??_GDGMRUSU@@UAAPAXI@Z     1000c85c f drdgui.obj
 0001:0000b8ec       ?FInit@DGSU@@UAAHPAVDGUI@@W4MSODGCID@@@Z 1000c8ec f drdgui.obj
 0001:0000b96c       ?QueryInterface@DGSU@@UAAJABUGUID@@PAPAX@Z 1000c96c f drdgui.obj
 0001:0000b9d8       ?FDebugMessage@DGSU@@UAAHPAUMSOINST@@IIJ@Z 1000c9d8 f drdgui.obj
 0001:0000ba30       ?NotifyDelete@DGSU@@UAAXPAUIMsoControl@@PAPAX@Z 1000ca30 f drdgui.obj
 0001:0000baa8       ?FCloneUserClient@DGSU@@UAAHPAUIMsoControl@@PAXPAPAXPAPAUIMsoControlUser@@@Z 1000caa8 f drdgui.obj
 0001:0000bb28       ?GetSwatches@DGSU@@UAAXPAUIMsoControl@@PAPAXPAU_msoswatchinfo@@@Z 1000cb28 f drdgui.obj
 0001:0000bc54       ?FChangeSelection@DGSU@@IAAHPAK@Z 1000cc54 f drdgui.obj
 0001:0000bd64       ?SupdUpdate@DGSU@@UAAHPAUIMsoControl@@PAPAXPAH2@Z 1000cd64 f drdgui.obj
 0001:0000bed8       ?TcidRenderSwatch@DGSU@@UAAHPAUIMsoControl@@PAPAXPAUHDC__@@PAUtagRECT@@HHHHHH@Z 1000ced8 f drdgui.obj
 0001:0000bfe4       ?FSwatchSelect@DGSU@@UAAHPAUIMsoControl@@PAPAXHH@Z 1000cfe4 f drdgui.obj
 0001:0000c100       ?FGetStringEx@DGSU@@UAAHPAUIMsoControl@@PAPAXHPAGHH@Z 1000d100 f drdgui.obj
 0001:0000c1bc       ?SupdUpdate@DGMRUSU@@UAAHPAUIMsoControl@@PAPAXPAH2@Z 1000d1bc f drdgui.obj
 0001:0000c36c       ?FSwatchSelect@DGMRUSU@@UAAHPAUIMsoControl@@PAPAXHH@Z 1000d36c f drdgui.obj
 0001:0000c468       ?TcidRenderSwatch@DGMRUSU@@UAAHPAUIMsoControl@@PAPAXPAUHDC__@@PAUtagRECT@@HHHHHH@Z 1000d468 f drdgui.obj
 0001:0000c54c       ?FGetStringEx@DGMRUSU@@UAAHPAUIMsoControl@@PAPAXHPAGHH@Z 1000d54c f drdgui.obj
 0001:0000c5c0       ?CCells@DGMRUSU@@UAAHPAUIMsoControl@@PAPAX@Z 1000d5c0 f drdgui.obj
 0001:0000c618       ?FAutoVisible@DGMRUSU@@UAAHPAUIMsoControl@@PAPAX@Z 1000d618 f drdgui.obj
 0001:0000c684       ?FInit@DGBSU@@UAAHPAVDGUI@@W4MSODGCID@@@Z 1000d684 f drdgui.obj
 0001:0000c73c       ??1DGBSU@@UAA@XZ           1000d73c f drdgui.obj
 0001:0000c7c0       ?FDebugMessage@DGBSU@@UAAHPAUMSOINST@@IIJ@Z 1000d7c0 f drdgui.obj
 0001:0000c818       ?GetSwatches@DGBSU@@UAAXPAUIMsoControl@@PAPAXPAU_msoswatchinfo@@@Z 1000d818 f drdgui.obj
 0001:0000c8b4       ?TcidRenderSwatch@DGBSU@@UAAHPAUIMsoControl@@PAPAXPAUHDC__@@PAUtagRECT@@HHHHHH@Z 1000d8b4 f drdgui.obj
 0001:0000c98c       ?FSetHBstrip@DGBSU@@QAAHK@Z 1000d98c f drdgui.obj
 0001:0000cab4       ?FGetStringEx@DGBSU@@UAAHPAUIMsoControl@@PAPAXHPAGHH@Z 1000dab4 f drdgui.obj
 0001:0000cb5c       ?FInit@DGLBSU@@UAAHPAVDGUI@@W4MSODGCID@@@Z 1000db5c f drdgui.obj
 0001:0000cc14       ??1DGLBSU@@UAA@XZ          1000dc14 f drdgui.obj
 0001:0000cca4       ?FDebugMessage@DGLBSU@@UAAHPAUMSOINST@@IIJ@Z 1000dca4 f drdgui.obj
 0001:0000ccfc       ?TcidRenderSwatch@DGLBSU@@UAAHPAUIMsoControl@@PAPAXPAUHDC__@@PAUtagRECT@@HHHHHH@Z 1000dcfc f drdgui.obj
 0001:0000ce38       ?GetSwatches@DGTBSU@@UAAXPAUIMsoControl@@PAPAXPAU_msoswatchinfo@@@Z 1000de38 f drdgui.obj
 0001:0000cff0       ?TcidRenderSwatch@DGTBSU@@UAAHPAUIMsoControl@@PAPAXPAUHDC__@@PAUtagRECT@@HHHHHH@Z 1000dff0 f drdgui.obj
 0001:0000d240       ?FGetStringEx@DGTBSU@@UAAHPAUIMsoControl@@PAPAXHPAGHH@Z 1000e240 f drdgui.obj
 0001:0000d298       ?FDebugMessage@DGDBSU@@UAAHPAUMSOINST@@IIJ@Z 1000e298 f drdgui.obj
 0001:0000d2f0       ?GetSwatches@DGDBSU@@UAAXPAUIMsoControl@@PAPAXPAU_msoswatchinfo@@@Z 1000e2f0 f drdgui.obj
 0001:0000d390       ?FEnabled@DGDBSU@@UAAHPAUIMsoControl@@PAPAX@Z 1000e390 f drdgui.obj
 0001:0000d4a0       ?TcidRenderSwatch@DGDBSU@@UAAHPAUIMsoControl@@PAPAXPAUHDC__@@PAUtagRECT@@HHHHHH@Z 1000e4a0 f drdgui.obj
 0001:0000d610       ?FSwatchSelect@DGDBSU@@UAAHPAUIMsoControl@@PAPAXHH@Z 1000e610 f drdgui.obj
 0001:0000d6b0       ?FGetStringEx@DGDBSU@@UAAHPAUIMsoControl@@PAPAXHPAGHH@Z 1000e6b0 f drdgui.obj
 0001:0000d758       ??0DGMU@@QAA@XZ            1000e758 f drdgui.obj
 0001:0000d7e0       __nep?FDebugMessage@TBMUBASE@@UAAHPAUMSOINST@@IIJ@Z 1000e7e0 f drdgui.obj
 0001:0000d7e0       __pcd_tbl?FDebugMessage@TBMUBASE@@UAAHPAUMSOINST@@IIJ@Z 1000e7e0 f drdgui.obj
 0001:0000d7e8       __fh?FDebugMessage@TBMUBASE@@UAAHPAUMSOINST@@IIJ@Z 1000e7e8 f drdgui.obj
 0001:0000d7ea       ?FDebugMessage@TBMUBASE@@UAAHPAUMSOINST@@IIJ@Z 1000e7ea f drdgui.obj
 0001:0000d7ec       __nep?FCloneUserClient@TBMUBASE@@UAAHPAUIMsoControl@@PAXPAPAXPAPAUIMsoControlUser@@@Z 1000e7ec f drdgui.obj
 0001:0000d7ec       __pcd_tbl?FCloneUserClient@TBMUBASE@@UAAHPAUIMsoControl@@PAXPAPAXPAPAUIMsoControlUser@@@Z 1000e7ec f drdgui.obj
 0001:0000d7f4       __fh?FCloneUserClient@TBMUBASE@@UAAHPAUIMsoControl@@PAXPAPAXPAPAUIMsoControlUser@@@Z 1000e7f4 f drdgui.obj
 0001:0000d7f6       ?FCloneUserClient@TBMUBASE@@UAAHPAUIMsoControl@@PAXPAPAXPAPAUIMsoControlUser@@@Z 1000e7f6 f drdgui.obj
 0001:0000d7fc       __nep?NotifyDelete@TBMUBASE@@UAAXPAUIMsoControl@@PAPAX@Z 1000e7fc f drdgui.obj
 0001:0000d7fc       __pcd_tbl?NotifyDelete@TBMUBASE@@UAAXPAUIMsoControl@@PAPAX@Z 1000e7fc f drdgui.obj
 0001:0000d804       __fh?NotifyDelete@TBMUBASE@@UAAXPAUIMsoControl@@PAPAX@Z 1000e804 f drdgui.obj
 0001:0000d806       ?NotifyDelete@TBMUBASE@@UAAXPAUIMsoControl@@PAPAX@Z 1000e806 f drdgui.obj
 0001:0000d808       __nep?FSaveUserData@TBMUBASE@@UAAHPAUIMsoControl@@PAPAXPAUIStream@@@Z 1000e808 f drdgui.obj
 0001:0000d808       __pcd_tbl?FSaveUserData@TBMUBASE@@UAAHPAUIMsoControl@@PAPAXPAUIStream@@@Z 1000e808 f drdgui.obj
 0001:0000d810       __fh?FSaveUserData@TBMUBASE@@UAAHPAUIMsoControl@@PAPAXPAUIStream@@@Z 1000e810 f drdgui.obj
 0001:0000d812       ?FSaveUserData@TBMUBASE@@UAAHPAUIMsoControl@@PAPAXPAUIStream@@@Z 1000e812 f drdgui.obj
 0001:0000d814       __pcd_tbl?FAutoVisible@TBMUBASE@@UAAHPAUIMsoControl@@PAPAX@Z 1000e814 f drdgui.obj
 0001:0000d814       __nep?FAutoVisible@TBMUBASE@@UAAHPAUIMsoControl@@PAPAX@Z 1000e814 f drdgui.obj
 0001:0000d81c       __fh?FAutoVisible@TBMUBASE@@UAAHPAUIMsoControl@@PAPAX@Z 1000e81c f drdgui.obj
 0001:0000d81e       ?FAutoVisible@TBMUBASE@@UAAHPAUIMsoControl@@PAPAX@Z 1000e81e f drdgui.obj
 0001:0000d820       __nep?FEnabled@TBMUBASE@@UAAHPAUIMsoControl@@PAPAX@Z 1000e820 f drdgui.obj
 0001:0000d820       __pcd_tbl?FEnabled@TBMUBASE@@UAAHPAUIMsoControl@@PAPAX@Z 1000e820 f drdgui.obj
 0001:0000d828       __fh?FEnabled@TBMUBASE@@UAAHPAUIMsoControl@@PAPAX@Z 1000e828 f drdgui.obj
 0001:0000d82a       ?FEnabled@TBMUBASE@@UAAHPAUIMsoControl@@PAPAX@Z 1000e82a f drdgui.obj
 0001:0000d82c       __nep?FGetAlternateControl@TBMUBASE@@UAAHPAUIMsoControl@@PAPAXPAPAU2@@Z 1000e82c f drdgui.obj
 0001:0000d82c       __pcd_tbl?FGetAlternateControl@TBMUBASE@@UAAHPAUIMsoControl@@PAPAXPAPAU2@@Z 1000e82c f drdgui.obj
 0001:0000d834       __fh?FGetAlternateControl@TBMUBASE@@UAAHPAUIMsoControl@@PAPAXPAPAU2@@Z 1000e834 f drdgui.obj
 0001:0000d836       ?FGetAlternateControl@TBMUBASE@@UAAHPAUIMsoControl@@PAPAXPAPAU2@@Z 1000e836 f drdgui.obj
 0001:0000d838       __pcd_tbl?FChangeLabel@TBMUBASE@@UAAHPAUIMsoControl@@PAPAXPAG2@Z 1000e838 f drdgui.obj
 0001:0000d838       __nep?FChangeLabel@TBMUBASE@@UAAHPAUIMsoControl@@PAPAXPAG2@Z 1000e838 f drdgui.obj
 0001:0000d840       __fh?FChangeLabel@TBMUBASE@@UAAHPAUIMsoControl@@PAPAXPAG2@Z 1000e840 f drdgui.obj
 0001:0000d842       ?FChangeLabel@TBMUBASE@@UAAHPAUIMsoControl@@PAPAXPAG2@Z 1000e842 f drdgui.obj
 0001:0000d844       __pcd_tbl?FNotifyAction@TBMUBASE@@UAAHPAUIMsoControl@@PAPAXH@Z 1000e844 f drdgui.obj
 0001:0000d844       __nep?FNotifyAction@TBMUBASE@@UAAHPAUIMsoControl@@PAPAXH@Z 1000e844 f drdgui.obj
 0001:0000d84c       __fh?FNotifyAction@TBMUBASE@@UAAHPAUIMsoControl@@PAPAXH@Z 1000e84c f drdgui.obj
 0001:0000d84e       ?FNotifyAction@TBMUBASE@@UAAHPAUIMsoControl@@PAPAXH@Z 1000e84e f drdgui.obj
 0001:0000d850       __nep?TbcuOleUsage@TBMUBASE@@UAAHPAUIMsoControl@@PAPAX@Z 1000e850 f drdgui.obj
 0001:0000d850       __pcd_tbl?TbcuOleUsage@TBMUBASE@@UAAHPAUIMsoControl@@PAPAX@Z 1000e850 f drdgui.obj
 0001:0000d858       __fh?TbcuOleUsage@TBMUBASE@@UAAHPAUIMsoControl@@PAPAX@Z 1000e858 f drdgui.obj
 0001:0000d85a       ?TbcuOleUsage@TBMUBASE@@UAAHPAUIMsoControl@@PAPAX@Z 1000e85a f drdgui.obj
 0001:0000d85c       __nep?FGetString@TBMUBASE@@UAAHPAUIMsoControl@@PAPAXHPAG@Z 1000e85c f drdgui.obj
 0001:0000d85c       __pcd_tbl?FGetString@TBMUBASE@@UAAHPAUIMsoControl@@PAPAXHPAG@Z 1000e85c f drdgui.obj
 0001:0000d864       __fh?FGetString@TBMUBASE@@UAAHPAUIMsoControl@@PAPAXHPAG@Z 1000e864 f drdgui.obj
 0001:0000d866       ?FGetString@TBMUBASE@@UAAHPAUIMsoControl@@PAPAXHPAG@Z 1000e866 f drdgui.obj
 0001:0000d868       __nep?FGetQuickTip@TBMUBASE@@UAAHPAUIMsoControl@@PAPAXPAGPAH@Z 1000e868 f drdgui.obj
 0001:0000d868       __pcd_tbl?FGetQuickTip@TBMUBASE@@UAAHPAUIMsoControl@@PAPAXPAGPAH@Z 1000e868 f drdgui.obj
 0001:0000d870       __fh?FGetQuickTip@TBMUBASE@@UAAHPAUIMsoControl@@PAPAXPAGPAH@Z 1000e870 f drdgui.obj
 0001:0000d872       ?FGetQuickTip@TBMUBASE@@UAAHPAUIMsoControl@@PAPAXPAGPAH@Z 1000e872 f drdgui.obj
 0001:0000d874       __nep?IMenuGroup@TBMUBASE@@UAAHPAUIMsoControl@@PAPAX@Z 1000e874 f drdgui.obj
 0001:0000d874       __pcd_tbl?IMenuGroup@TBMUBASE@@UAAHPAUIMsoControl@@PAPAX@Z 1000e874 f drdgui.obj
 0001:0000d87c       __fh?IMenuGroup@TBMUBASE@@UAAHPAUIMsoControl@@PAPAX@Z 1000e87c f drdgui.obj
 0001:0000d87e       ?IMenuGroup@TBMUBASE@@UAAHPAUIMsoControl@@PAPAX@Z 1000e87e f drdgui.obj
 0001:0000d880       __pcd_tbl?Tbbs@TBMUBASE@@UAAIPAUIMsoControl@@PAPAX@Z 1000e880 f drdgui.obj
 0001:0000d880       __nep?Tbbs@TBMUBASE@@UAAIPAUIMsoControl@@PAPAX@Z 1000e880 f drdgui.obj
 0001:0000d888       __fh?Tbbs@TBMUBASE@@UAAIPAUIMsoControl@@PAPAX@Z 1000e888 f drdgui.obj
 0001:0000d88a       ?Tbbs@TBMUBASE@@UAAIPAUIMsoControl@@PAPAX@Z 1000e88a f drdgui.obj
 0001:0000d88c       __pcd_tbl?TbbodDraw@TBMUBASE@@UAAHPAUIMsoControl@@PAPAXPAUHDC__@@PAUtagRECT@@PAHU_msoceo@@HH@Z 1000e88c f drdgui.obj
 0001:0000d88c       __nep?TbbodDraw@TBMUBASE@@UAAHPAUIMsoControl@@PAPAXPAUHDC__@@PAUtagRECT@@PAHU_msoceo@@HH@Z 1000e88c f drdgui.obj
 0001:0000d894       __fh?TbbodDraw@TBMUBASE@@UAAHPAUIMsoControl@@PAPAXPAUHDC__@@PAUtagRECT@@PAHU_msoceo@@HH@Z 1000e894 f drdgui.obj
 0001:0000d896       ?TbbodDraw@TBMUBASE@@UAAHPAUIMsoControl@@PAPAXPAUHDC__@@PAUtagRECT@@PAHU_msoceo@@HH@Z 1000e896 f drdgui.obj
 0001:0000d898       __pcd_tbl?FClick@TBMUBASE@@UAAHPAUIMsoControl@@PAPAXPAH@Z 1000e898 f drdgui.obj
 0001:0000d898       __nep?FClick@TBMUBASE@@UAAHPAUIMsoControl@@PAPAXPAH@Z 1000e898 f drdgui.obj
 0001:0000d8a0       __fh?FClick@TBMUBASE@@UAAHPAUIMsoControl@@PAPAXPAH@Z 1000e8a0 f drdgui.obj
 0001:0000d8a2       ?FClick@TBMUBASE@@UAAHPAUIMsoControl@@PAPAXPAH@Z 1000e8a2 f drdgui.obj
 0001:0000d8a4       ?FGetString@DGMU@@UAAHPAUIMsoControl@@PAPAXHPAG@Z 1000e8a4 f drdgui.obj
 0001:0000d920       ?FInit@DGMU@@QAAHW4MSODGCID@@PAUIMsoSwatchUser@@1PAVDGUI@@@Z 1000e920 f drdgui.obj
 0001:0000d980       ??1DGMU@@QAA@XZ            1000e980 f drdgui.obj
 0001:0000d9d4       ?FDebugMessage@DGMU@@UAAHPAUMSOINST@@IIJ@Z 1000e9d4 f drdgui.obj
 0001:0000da2c       ?FDrawBStripInWindow@@YAHPAUHDC__@@HHHHPAUBSTRIP@@HH@Z 1000ea2c f drdgui.obj
 0001:0000dbc0       ?DrawFillItem@@YAXPAUHDC__@@PAUtagRECT@@KPAVDGUI@@I@Z 1000ebc0 f drdgui.obj
 0001:0000dfb4       ?TbbodDraw@DGMU@@UAAHPAUIMsoControl@@PAPAXPAUHDC__@@PAUtagRECT@@PAHU_msoceo@@HH@Z 1000efb4 f drdgui.obj
 0001:0000e7a4       ?NotifyDelete@DGMU@@UAAXPAUIMsoControl@@PAPAX@Z 1000f7a4 f drdgui.obj
 0001:0000e86c       ?FDebugMessage@DGBU@@UAAHPAUMSOINST@@IIJ@Z 1000f86c f drdgui.obj
 0001:0000e8c4       ?FClick@DGBU@@UAAHPAUIMsoControl@@PAPAXPAHH@Z 1000f8c4 f drdgui.obj
 0001:0000eae0       ?FEnabled@DGBU@@UAAHPAUIMsoControl@@PAPAX@Z 1000fae0 f drdgui.obj
 0001:0000eb80       ?NotifyDelete@DGBU@@UAAXPAUIMsoControl@@PAPAX@Z 1000fb80 f drdgui.obj
 0001:0000ebd8       ?FCreateMRU@@YAHPAPAVMRU@@HH@Z 1000fbd8 f drdgui.obj
 0001:0000ec7c       ??0MRU@@QAA@XZ             1000fc7c f drdgui.obj
 0001:0000eccc       ??1MRU@@QAA@XZ             1000fccc f drdgui.obj
 0001:0000ed44       ?CEntries@MRU@@QAAHXZ      1000fd44 f drdgui.obj
 0001:0000edb0       ?FAddEntry@MRU@@QAAHPAX@Z  1000fdb0 f drdgui.obj
 0001:0000eedc       ?FGetEntry@MRU@@QAAHPAPAXHH@Z 1000fedc f drdgui.obj
 0001:0000ef7c       ?FQuerySwatchSelection@DGUI@@UAAHPAUMSODGC@@@Z 1000ff7c f drdgui.obj
 0001:0000f060       ?SetPib@DGUI@@UAAXPAUIMsoBlip@@PAG1W4MSOBLIPFLAGS@@HH@Z 10010060 f drdgui.obj
 0001:0000f140       ?PicuGetControlUser@@YAPAUIMsoControlUser@@PAVDGUI@@W4MSODGCID@@H@Z 10010140 f drdgui.obj
 0001:0000f218       ?FCreateFillEffDlgToolbar@@YAHPAVDGUI@@PAUMSOINST@@PAUIMsoToolbarSet@@PAUIMsoToolbarUser@@HPAPAUIMsoToolbar@@PAH@Z 10010218 f drdgui.obj
 0001:0000f6f0       __nep?FDebugMessage@TBUBASE@@UAAHPAUMSOINST@@IIJ@Z 100106f0 f drdgui.obj
 0001:0000f6f0       __pcd_tbl?FDebugMessage@TBUBASE@@UAAHPAUMSOINST@@IIJ@Z 100106f0 f drdgui.obj
 0001:0000f6f8       __fh?FDebugMessage@TBUBASE@@UAAHPAUMSOINST@@IIJ@Z 100106f8 f drdgui.obj
 0001:0000f6fa       ?FDebugMessage@TBUBASE@@UAAHPAUMSOINST@@IIJ@Z 100106fa f drdgui.obj
 0001:0000f6fc       __pcd_tbl?FAutoVisible@TBUBASE@@UAAHPAPAXPAUIMsoToolbar@@@Z 100106fc f drdgui.obj
 0001:0000f6fc       __nep?FAutoVisible@TBUBASE@@UAAHPAPAXPAUIMsoToolbar@@@Z 100106fc f drdgui.obj
 0001:0000f704       __fh?FAutoVisible@TBUBASE@@UAAHPAPAXPAUIMsoToolbar@@@Z 10010704 f drdgui.obj
 0001:0000f706       ?FAutoVisible@TBUBASE@@UAAHPAPAXPAUIMsoToolbar@@@Z 10010706 f drdgui.obj
 0001:0000f708       __pcd_tbl?FEnabled@TBUBASE@@UAAHPAPAXPAUIMsoToolbar@@@Z 10010708 f drdgui.obj
 0001:0000f708       __nep?FEnabled@TBUBASE@@UAAHPAPAXPAUIMsoToolbar@@@Z 10010708 f drdgui.obj
 0001:0000f710       __fh?FEnabled@TBUBASE@@UAAHPAPAXPAUIMsoToolbar@@@Z 10010710 f drdgui.obj
 0001:0000f712       ?FEnabled@TBUBASE@@UAAHPAPAXPAUIMsoToolbar@@@Z 10010712 f drdgui.obj
 0001:0000f714       __nep?FSaveUserData@TBUBASE@@UAAHPAPAXPAUIStream@@PAUIMsoToolbar@@@Z 10010714 f drdgui.obj
 0001:0000f714       __pcd_tbl?FSaveUserData@TBUBASE@@UAAHPAPAXPAUIStream@@PAUIMsoToolbar@@@Z 10010714 f drdgui.obj
 0001:0000f71c       __fh?FSaveUserData@TBUBASE@@UAAHPAPAXPAUIStream@@PAUIMsoToolbar@@@Z 1001071c f drdgui.obj
 0001:0000f71e       ?FSaveUserData@TBUBASE@@UAAHPAPAXPAUIStream@@PAUIMsoToolbar@@@Z 1001071e f drdgui.obj
 0001:0000f720       __nep?FLoadUserData@TBUBASE@@UAAHPAPAXPAUIStream@@PAUIMsoToolbar@@@Z 10010720 f drdgui.obj
 0001:0000f720       __pcd_tbl?FLoadUserData@TBUBASE@@UAAHPAPAXPAUIStream@@PAUIMsoToolbar@@@Z 10010720 f drdgui.obj
 0001:0000f728       __fh?FLoadUserData@TBUBASE@@UAAHPAPAXPAUIStream@@PAUIMsoToolbar@@@Z 10010728 f drdgui.obj
 0001:0000f72a       ?FLoadUserData@TBUBASE@@UAAHPAPAXPAUIStream@@PAUIMsoToolbar@@@Z 1001072a f drdgui.obj
 0001:0000f72c       __pcd_tbl?FCtlCustomized@TBUBASE@@UAAHPAPAX0HHHPAU_msotcr@@PAUIMsoToolbar@@H@Z 1001072c f drdgui.obj
 0001:0000f72c       __nep?FCtlCustomized@TBUBASE@@UAAHPAPAX0HHHPAU_msotcr@@PAUIMsoToolbar@@H@Z 1001072c f drdgui.obj
 0001:0000f734       __fh?FCtlCustomized@TBUBASE@@UAAHPAPAX0HHHPAU_msotcr@@PAUIMsoToolbar@@H@Z 10010734 f drdgui.obj
 0001:0000f736       ?FCtlCustomized@TBUBASE@@UAAHPAPAX0HHHPAU_msotcr@@PAUIMsoToolbar@@H@Z 10010736 f drdgui.obj
 0001:0000f738       __pcd_tbl?FSetToolbarControls@TBUBASE@@UAAHPAPAXHPAUIMsoToolbar@@@Z 10010738 f drdgui.obj
 0001:0000f738       __nep?FSetToolbarControls@TBUBASE@@UAAHPAPAXHPAUIMsoToolbar@@@Z 10010738 f drdgui.obj
 0001:0000f740       __fh?FSetToolbarControls@TBUBASE@@UAAHPAPAXHPAUIMsoToolbar@@@Z 10010740 f drdgui.obj
 0001:0000f742       ?FSetToolbarControls@TBUBASE@@UAAHPAPAXHPAUIMsoToolbar@@@Z 10010742 f drdgui.obj
 0001:0000f744       __pcd_tbl?NotifyDelete@TBUBASE@@UAAXPAPAXPAUIMsoToolbar@@@Z 10010744 f drdgui.obj
 0001:0000f744       __nep?NotifyDelete@TBUBASE@@UAAXPAPAXPAUIMsoToolbar@@@Z 10010744 f drdgui.obj
 0001:0000f74c       __fh?NotifyDelete@TBUBASE@@UAAXPAPAXPAUIMsoToolbar@@@Z 1001074c f drdgui.obj
 0001:0000f74e       ?NotifyDelete@TBUBASE@@UAAXPAPAXPAUIMsoToolbar@@@Z 1001074e f drdgui.obj
 0001:0000f750       __nep?GetContext@TBUBASE@@UAAXPAPAXPAGPAUIMsoToolbar@@@Z 10010750 f drdgui.obj
 0001:0000f750       __pcd_tbl?GetContext@TBUBASE@@UAAXPAPAXPAGPAUIMsoToolbar@@@Z 10010750 f drdgui.obj
 0001:0000f758       __fh?GetContext@TBUBASE@@UAAXPAPAXPAGPAUIMsoToolbar@@@Z 10010758 f drdgui.obj
 0001:0000f75a       ?GetContext@TBUBASE@@UAAXPAPAXPAGPAUIMsoToolbar@@@Z 1001075a f drdgui.obj
 0001:0000f75c       __pcd_tbl?FSetContext@TBUBASE@@UAAHPAPAXPAGPAUIMsoToolbar@@@Z 1001075c f drdgui.obj
 0001:0000f75c       __nep?FSetContext@TBUBASE@@UAAHPAPAXPAGPAUIMsoToolbar@@@Z 1001075c f drdgui.obj
 0001:0000f764       __fh?FSetContext@TBUBASE@@UAAHPAPAXPAGPAUIMsoToolbar@@@Z 10010764 f drdgui.obj
 0001:0000f766       ?FSetContext@TBUBASE@@UAAHPAPAXPAGPAUIMsoToolbar@@@Z 10010766 f drdgui.obj
 0001:0000f768       __pcd_tbl?TbidGetTearOff@TBUBASE@@UAAHPAPAXPAUIMsoToolbar@@@Z 10010768 f drdgui.obj
 0001:0000f768       __nep?TbidGetTearOff@TBUBASE@@UAAHPAPAXPAUIMsoToolbar@@@Z 10010768 f drdgui.obj
 0001:0000f770       __fh?TbidGetTearOff@TBUBASE@@UAAHPAPAXPAUIMsoToolbar@@@Z 10010770 f drdgui.obj
 0001:0000f772       ?TbidGetTearOff@TBUBASE@@UAAHPAPAXPAUIMsoToolbar@@@Z 10010772 f drdgui.obj
 0001:0000f774       __nep?FCloneUserClient@TBUBASE@@UAAHPAUIMsoToolbar@@PAXPAPAXPAPAUIMsoToolbarUser@@@Z 10010774 f drdgui.obj
 0001:0000f774       __pcd_tbl?FCloneUserClient@TBUBASE@@UAAHPAUIMsoToolbar@@PAXPAPAXPAPAUIMsoToolbarUser@@@Z 10010774 f drdgui.obj
 0001:0000f77c       __fh?FCloneUserClient@TBUBASE@@UAAHPAUIMsoToolbar@@PAXPAPAXPAPAUIMsoToolbarUser@@@Z 1001077c f drdgui.obj
 0001:0000f77e       ?FCloneUserClient@TBUBASE@@UAAHPAUIMsoToolbar@@PAXPAPAXPAPAUIMsoToolbarUser@@@Z 1001077e f drdgui.obj
 0001:0000f784       __nep?FSelectCmdHelper@TBUBASE@@UAAHPAUIMsoToolbar@@PAPAXPAH@Z 10010784 f drdgui.obj
 0001:0000f784       __pcd_tbl?FSelectCmdHelper@TBUBASE@@UAAHPAUIMsoToolbar@@PAPAXPAH@Z 10010784 f drdgui.obj
 0001:0000f78c       __fh?FSelectCmdHelper@TBUBASE@@UAAHPAUIMsoToolbar@@PAPAXPAH@Z 1001078c f drdgui.obj
 0001:0000f78e       ?FSelectCmdHelper@TBUBASE@@UAAHPAUIMsoToolbar@@PAPAXPAH@Z 1001078e f drdgui.obj
 0001:0000f794       __nep?FCreateControlForCustomize@TBUBASE@@UAAHPAUIMsoToolbar@@PAPAXPAU_msotcr@@0H2@Z 10010794 f drdgui.obj
 0001:0000f794       __pcd_tbl?FCreateControlForCustomize@TBUBASE@@UAAHPAUIMsoToolbar@@PAPAXPAU_msotcr@@0H2@Z 10010794 f drdgui.obj
 0001:0000f79c       __fh?FCreateControlForCustomize@TBUBASE@@UAAHPAUIMsoToolbar@@PAPAXPAU_msotcr@@0H2@Z 1001079c f drdgui.obj
 0001:0000f79e       ?FCreateControlForCustomize@TBUBASE@@UAAHPAUIMsoToolbar@@PAPAXPAU_msotcr@@0H2@Z 1001079e f drdgui.obj
 0001:0000f7a0       __nep?FNotifyAction@TBUBASE@@UAAHPAUIMsoToolbar@@PAPAXH@Z 100107a0 f drdgui.obj
 0001:0000f7a0       __pcd_tbl?FNotifyAction@TBUBASE@@UAAHPAUIMsoToolbar@@PAPAXH@Z 100107a0 f drdgui.obj
 0001:0000f7a8       __fh?FNotifyAction@TBUBASE@@UAAHPAUIMsoToolbar@@PAPAXH@Z 100107a8 f drdgui.obj
 0001:0000f7aa       ?FNotifyAction@TBUBASE@@UAAHPAUIMsoToolbar@@PAPAXH@Z 100107aa f drdgui.obj
 0001:0000f7ac       ?FCreateDlgControls@DGUI@@UAAHPAUIMsoControlContainer@@IIPAH11@Z 100107ac f drdgui.obj
 0001:00010e98       ?FIsModalToolbarVisible@DGUI@@UAAHHPAX@Z 10011e98 f drdgui.obj
 0001:00010fe4       ?GetCommandInfo@DGUI@@UAAXPAUMSODGCI@@W4MSODGCID@@@Z 10011fe4 f drdgui.obj
 0001:00011044       ?DgcidFromTcid@DGUI@@UAA?AW4MSODGCID@@H@Z 10012044 f drdgui.obj
 0001:0001117c       ?GetCommandTcid@DGUI@@UAAXPAUMSODGC@@W4MSODGCID@@PAH2@Z 1001217c f drdgui.obj
 0001:000112fc       ?GetCommandDgcidForUndo@DGUI@@UAAXPAUMSODGC@@PAW4MSODGCID@@@Z 100122fc f drdgui.obj
 0001:000113b0       ?FWzToFixed@DGUI@@QAAHPAGPAJ@Z 100123b0 f drdgui.obj
 0001:000114ac       ?FWzFromFixed@DGUI@@QAAHPAGJ@Z 100124ac f drdgui.obj
 0001:00011590       ?FWzFromEMU@DGUI@@QAAHPAGJHK@Z 10012590 f drdgui.obj
 0001:000116ac       ?FWzToEMU@DGUI@@QAAHPAGPAJHPAH@Z 100126ac f drdgui.obj
 0001:0001188c       ?FInitDialog@DGUI@@QAAHXZ  1001288c f drdgui.obj
 0001:000118e0       _DoDGUINotifyDlg           100128e0 f drdgui.obj
 0001:00011934       ?NotifyDlg@DGUI@@QAAXPAUtagRECT@@@Z 10012934 f drdgui.obj
 0001:00011998       ?FCreateDrawingMenuUser@DGUI@@QAAHPAPAUIMsoControlUser@@W4MSODGCID@@PAUIMsoSwatchUser@@2@Z 10012998 f drdgui.obj
 0001:00011a94       ?FCreateDrawingButtonUser@DGUI@@QAAHPAPAUIMsoControlUser@@@Z 10012a94 f drdgui.obj
 0001:00011b68       __nep?FDebugMessage@TBBUBASE@@UAAHPAUMSOINST@@IIJ@Z 10012b68 f drdgui.obj
 0001:00011b68       __pcd_tbl?FDebugMessage@TBBUBASE@@UAAHPAUMSOINST@@IIJ@Z 10012b68 f drdgui.obj
 0001:00011b70       __fh?FDebugMessage@TBBUBASE@@UAAHPAUMSOINST@@IIJ@Z 10012b70 f drdgui.obj
 0001:00011b72       ?FDebugMessage@TBBUBASE@@UAAHPAUMSOINST@@IIJ@Z 10012b72 f drdgui.obj
 0001:00011b74       __nep?FCloneUserClient@TBBUBASE@@UAAHPAUIMsoControl@@PAXPAPAXPAPAUIMsoControlUser@@@Z 10012b74 f drdgui.obj
 0001:00011b74       __pcd_tbl?FCloneUserClient@TBBUBASE@@UAAHPAUIMsoControl@@PAXPAPAXPAPAUIMsoControlUser@@@Z 10012b74 f drdgui.obj
 0001:00011b7c       __fh?FCloneUserClient@TBBUBASE@@UAAHPAUIMsoControl@@PAXPAPAXPAPAUIMsoControlUser@@@Z 10012b7c f drdgui.obj
 0001:00011b7e       ?FCloneUserClient@TBBUBASE@@UAAHPAUIMsoControl@@PAXPAPAXPAPAUIMsoControlUser@@@Z 10012b7e f drdgui.obj
 0001:00011b84       __nep?NotifyDelete@TBBUBASE@@UAAXPAUIMsoControl@@PAPAX@Z 10012b84 f drdgui.obj
 0001:00011b84       __pcd_tbl?NotifyDelete@TBBUBASE@@UAAXPAUIMsoControl@@PAPAX@Z 10012b84 f drdgui.obj
 0001:00011b8c       __fh?NotifyDelete@TBBUBASE@@UAAXPAUIMsoControl@@PAPAX@Z 10012b8c f drdgui.obj
 0001:00011b8e       ?NotifyDelete@TBBUBASE@@UAAXPAUIMsoControl@@PAPAX@Z 10012b8e f drdgui.obj
 0001:00011b90       __pcd_tbl?FSaveUserData@TBBUBASE@@UAAHPAUIMsoControl@@PAPAXPAUIStream@@@Z 10012b90 f drdgui.obj
 0001:00011b90       __nep?FSaveUserData@TBBUBASE@@UAAHPAUIMsoControl@@PAPAXPAUIStream@@@Z 10012b90 f drdgui.obj
 0001:00011b98       __fh?FSaveUserData@TBBUBASE@@UAAHPAUIMsoControl@@PAPAXPAUIStream@@@Z 10012b98 f drdgui.obj
 0001:00011b9a       ?FSaveUserData@TBBUBASE@@UAAHPAUIMsoControl@@PAPAXPAUIStream@@@Z 10012b9a f drdgui.obj
 0001:00011b9c       __pcd_tbl?FAutoVisible@TBBUBASE@@UAAHPAUIMsoControl@@PAPAX@Z 10012b9c f drdgui.obj
 0001:00011b9c       __nep?FAutoVisible@TBBUBASE@@UAAHPAUIMsoControl@@PAPAX@Z 10012b9c f drdgui.obj
 0001:00011ba4       __fh?FAutoVisible@TBBUBASE@@UAAHPAUIMsoControl@@PAPAX@Z 10012ba4 f drdgui.obj
 0001:00011ba6       ?FAutoVisible@TBBUBASE@@UAAHPAUIMsoControl@@PAPAX@Z 10012ba6 f drdgui.obj
 0001:00011ba8       __pcd_tbl?FEnabled@TBBUBASE@@UAAHPAUIMsoControl@@PAPAX@Z 10012ba8 f drdgui.obj
 0001:00011ba8       __nep?FEnabled@TBBUBASE@@UAAHPAUIMsoControl@@PAPAX@Z 10012ba8 f drdgui.obj
 0001:00011bb0       __fh?FEnabled@TBBUBASE@@UAAHPAUIMsoControl@@PAPAX@Z 10012bb0 f drdgui.obj
 0001:00011bb2       ?FEnabled@TBBUBASE@@UAAHPAUIMsoControl@@PAPAX@Z 10012bb2 f drdgui.obj
 0001:00011bb4       __pcd_tbl?FGetAlternateControl@TBBUBASE@@UAAHPAUIMsoControl@@PAPAXPAPAU2@@Z 10012bb4 f drdgui.obj
 0001:00011bb4       __nep?FGetAlternateControl@TBBUBASE@@UAAHPAUIMsoControl@@PAPAXPAPAU2@@Z 10012bb4 f drdgui.obj
 0001:00011bbc       __fh?FGetAlternateControl@TBBUBASE@@UAAHPAUIMsoControl@@PAPAXPAPAU2@@Z 10012bbc f drdgui.obj
 0001:00011bbe       ?FGetAlternateControl@TBBUBASE@@UAAHPAUIMsoControl@@PAPAXPAPAU2@@Z 10012bbe f drdgui.obj
 0001:00011bc0       __nep?FChangeLabel@TBBUBASE@@UAAHPAUIMsoControl@@PAPAXPAG2@Z 10012bc0 f drdgui.obj
 0001:00011bc0       __pcd_tbl?FChangeLabel@TBBUBASE@@UAAHPAUIMsoControl@@PAPAXPAG2@Z 10012bc0 f drdgui.obj
 0001:00011bc8       __fh?FChangeLabel@TBBUBASE@@UAAHPAUIMsoControl@@PAPAXPAG2@Z 10012bc8 f drdgui.obj
 0001:00011bca       ?FChangeLabel@TBBUBASE@@UAAHPAUIMsoControl@@PAPAXPAG2@Z 10012bca f drdgui.obj
 0001:00011bcc       __pcd_tbl?FNotifyAction@TBBUBASE@@UAAHPAUIMsoControl@@PAPAXH@Z 10012bcc f drdgui.obj
 0001:00011bcc       __nep?FNotifyAction@TBBUBASE@@UAAHPAUIMsoControl@@PAPAXH@Z 10012bcc f drdgui.obj
 0001:00011bd4       __fh?FNotifyAction@TBBUBASE@@UAAHPAUIMsoControl@@PAPAXH@Z 10012bd4 f drdgui.obj
 0001:00011bd6       ?FNotifyAction@TBBUBASE@@UAAHPAUIMsoControl@@PAPAXH@Z 10012bd6 f drdgui.obj
 0001:00011bd8       __nep?TbcuOleUsage@TBBUBASE@@UAAHPAUIMsoControl@@PAPAX@Z 10012bd8 f drdgui.obj
 0001:00011bd8       __pcd_tbl?TbcuOleUsage@TBBUBASE@@UAAHPAUIMsoControl@@PAPAX@Z 10012bd8 f drdgui.obj
 0001:00011be0       __fh?TbcuOleUsage@TBBUBASE@@UAAHPAUIMsoControl@@PAPAX@Z 10012be0 f drdgui.obj
 0001:00011be2       ?TbcuOleUsage@TBBUBASE@@UAAHPAUIMsoControl@@PAPAX@Z 10012be2 f drdgui.obj
 0001:00011be4       __nep?FGetString@TBBUBASE@@UAAHPAUIMsoControl@@PAPAXHPAG@Z 10012be4 f drdgui.obj
 0001:00011be4       __pcd_tbl?FGetString@TBBUBASE@@UAAHPAUIMsoControl@@PAPAXHPAG@Z 10012be4 f drdgui.obj
 0001:00011bec       __fh?FGetString@TBBUBASE@@UAAHPAUIMsoControl@@PAPAXHPAG@Z 10012bec f drdgui.obj
 0001:00011bee       ?FGetString@TBBUBASE@@UAAHPAUIMsoControl@@PAPAXHPAG@Z 10012bee f drdgui.obj
 0001:00011bf0       __pcd_tbl?FGetQuickTip@TBBUBASE@@UAAHPAUIMsoControl@@PAPAXPAGPAH@Z 10012bf0 f drdgui.obj
 0001:00011bf0       __nep?FGetQuickTip@TBBUBASE@@UAAHPAUIMsoControl@@PAPAXPAGPAH@Z 10012bf0 f drdgui.obj
 0001:00011bf8       __fh?FGetQuickTip@TBBUBASE@@UAAHPAUIMsoControl@@PAPAXPAGPAH@Z 10012bf8 f drdgui.obj
 0001:00011bfa       ?FGetQuickTip@TBBUBASE@@UAAHPAUIMsoControl@@PAPAXPAGPAH@Z 10012bfa f drdgui.obj
 0001:00011bfc       __pcd_tbl?Tbbs@TBBUBASE@@UAAIPAUIMsoControl@@PAPAX@Z 10012bfc f drdgui.obj
 0001:00011bfc       __nep?Tbbs@TBBUBASE@@UAAIPAUIMsoControl@@PAPAX@Z 10012bfc f drdgui.obj
 0001:00011c04       __fh?Tbbs@TBBUBASE@@UAAIPAUIMsoControl@@PAPAX@Z 10012c04 f drdgui.obj
 0001:00011c06       ?Tbbs@TBBUBASE@@UAAIPAUIMsoControl@@PAPAX@Z 10012c06 f drdgui.obj
 0001:00011c08       __pcd_tbl?FSetCursor@TBBUBASE@@UAAHPAUIMsoControl@@PAPAXH@Z 10012c08 f drdgui.obj
 0001:00011c08       __nep?FSetCursor@TBBUBASE@@UAAHPAUIMsoControl@@PAPAXH@Z 10012c08 f drdgui.obj
 0001:00011c10       __fh?FSetCursor@TBBUBASE@@UAAHPAUIMsoControl@@PAPAXH@Z 10012c10 f drdgui.obj
 0001:00011c12       ?FSetCursor@TBBUBASE@@UAAHPAUIMsoControl@@PAPAXH@Z 10012c12 f drdgui.obj
 0001:00011c14       __nep?FClick@TBBUBASE@@UAAHPAUIMsoControl@@PAPAXPAHH@Z 10012c14 f drdgui.obj
 0001:00011c14       __pcd_tbl?FClick@TBBUBASE@@UAAHPAUIMsoControl@@PAPAXPAHH@Z 10012c14 f drdgui.obj
 0001:00011c1c       __fh?FClick@TBBUBASE@@UAAHPAUIMsoControl@@PAPAXPAHH@Z 10012c1c f drdgui.obj
 0001:00011c1e       ?FClick@TBBUBASE@@UAAHPAUIMsoControl@@PAPAXPAHH@Z 10012c1e f drdgui.obj
 0001:00011c20       __nep?FFindCustomBtnface@TBBUBASE@@UAAHPAUIMsoControl@@PAPAXHHPAPAUBSTRIP@@PAHH@Z 10012c20 f drdgui.obj
 0001:00011c20       __pcd_tbl?FFindCustomBtnface@TBBUBASE@@UAAHPAUIMsoControl@@PAPAXHHPAPAUBSTRIP@@PAHH@Z 10012c20 f drdgui.obj
 0001:00011c28       __fh?FFindCustomBtnface@TBBUBASE@@UAAHPAUIMsoControl@@PAPAXHHPAPAUBSTRIP@@PAHH@Z 10012c28 f drdgui.obj
 0001:00011c2a       ?FFindCustomBtnface@TBBUBASE@@UAAHPAUIMsoControl@@PAPAXHHPAPAUBSTRIP@@PAHH@Z 10012c2a f drdgui.obj
 0001:00011c2c       __nep?FWtzGetAccelerator@TBBUBASE@@UAAHPAUIMsoControl@@PAPAXPAG@Z 10012c2c f drdgui.obj
 0001:00011c2c       __pcd_tbl?FWtzGetAccelerator@TBBUBASE@@UAAHPAUIMsoControl@@PAPAXPAG@Z 10012c2c f drdgui.obj
 0001:00011c34       __fh?FWtzGetAccelerator@TBBUBASE@@UAAHPAUIMsoControl@@PAPAXPAG@Z 10012c34 f drdgui.obj
 0001:00011c36       ?FWtzGetAccelerator@TBBUBASE@@UAAHPAUIMsoControl@@PAPAXPAG@Z 10012c36 f drdgui.obj
 0001:00011c38       __pcd_tbl?TbbodDraw@TBBUBASE@@UAAHPAUIMsoControl@@PAPAXPAUHDC__@@PAUtagRECT@@3U_msoceo@@HH@Z 10012c38 f drdgui.obj
 0001:00011c38       __nep?TbbodDraw@TBBUBASE@@UAAHPAUIMsoControl@@PAPAXPAUHDC__@@PAUtagRECT@@3U_msoceo@@HH@Z 10012c38 f drdgui.obj
 0001:00011c40       __fh?TbbodDraw@TBBUBASE@@UAAHPAUIMsoControl@@PAPAXPAUHDC__@@PAUtagRECT@@3U_msoceo@@HH@Z 10012c40 f drdgui.obj
 0001:00011c42       ?TbbodDraw@TBBUBASE@@UAAHPAUIMsoControl@@PAPAXPAUHDC__@@PAUtagRECT@@3U_msoceo@@HH@Z 10012c42 f drdgui.obj
 0001:00011c44       ?FCommandFormatPainter@@YAHPAUDGCB@@@Z 10012c44 f drdgui.obj
 0001:00011ce4       ?FCommandPickUpFormat@@YAHPAUDGCB@@@Z 10012ce4 f drdgui.obj
 0001:00011e50       ?FCommandApplyFormat@@YAHPAUDGCB@@@Z 10012e50 f drdgui.obj
 0001:00011fa0       ?FCommandApplyFormatToDefaults@@YAHPAUDGCB@@@Z 10012fa0 f drdgui.obj
 0001:00012154       ?FCommandChangeShape@@YAHPAUDGCB@@@Z 10013154 f drdgui.obj
 0001:000122d0       ?FCommandContextMenu@@YAHPAUDGCB@@@Z 100132d0 f drdgui.obj
 0001:000123b0       ?FCommandUpdateBlips@@YAHPAUDGCB@@@Z 100133b0 f drdgui.obj
 0001:00012520       ?FCommandSwatchProperty@@YAHPAUDGCB@@@Z 10013520 f drdgui.obj
 0001:000129f0       ?FCommandSwatchPreset@@YAHPAUDGCB@@@Z 100139f0 f drdgui.obj
 0001:00012cec       ?PfndlgFromDgcid@@YAP6AXW4MSODGCID@@PAVDGUI@@@Z0@Z 10013cec f drdgui.obj
 0001:00012d68       ?FCommandSwatchDialog@@YAHPAUDGCB@@@Z 10013d68 f drdgui.obj
 0001:00012f88       ?FCommandLineStyleSwatchDialog@@YAHPAUDGCB@@@Z 10013f88 f drdgui.obj
 0001:000131bc       ?FCommandLineWidthSwatchDialog@@YAHPAUDGCB@@@Z 100141bc f drdgui.obj
 0001:0001331c       ?FCommandAlign@@YAHPAUDGCB@@@Z 1001431c f drdgui.obj
 0001:00013448       ?FCommandDistribute@@YAHPAUDGCB@@@Z 10014448 f drdgui.obj
 0001:00013560       ?FCommandToggleRelative@@YAHPAUDGCB@@@Z 10014560 f drdgui.obj
 0001:00013638       ?FCommandActivateText@@YAHPAUDGCB@@@Z 10014638 f drdgui.obj
 0001:000137f4       ?FCommandToggleProp@@YAHPAUDGCB@@@Z 100147f4 f drdgui.obj
 0001:00013958       ?FCommandToggleOpacity@@YAHPAUDGCB@@@Z 10014958 f drdgui.obj
 0001:00013b08       ?FApplyTt@DGUI@@UAAHPAUIMsoDrawingSelection@@W4MSOTTID@@PAX2@Z 10014b08 f drdgui.obj
 0001:00013dc8       ?FGetTtFromSelection@DGUI@@UAAHPAUIMsoDrawingSelection@@W4MSOTTID@@PAX2@Z 10014dc8 f drdgui.obj
 0001:00013ea0       ?FGetNextDgcid@DGUI@@UAAHPAW4MSODGCID@@K@Z 10014ea0 f drdgui.obj
 0001:00013f8c       __nep?FFindColorIndexFromColor@@YAHKPAH@Z 10014f8c f drbee.obj
 0001:00013f8c       __pcd_tbl?FFindColorIndexFromColor@@YAHKPAH@Z 10014f8c f drbee.obj
 0001:00013f94       __fh?FFindColorIndexFromColor@@YAHKPAH@Z 10014f94 f drbee.obj
 0001:00013f96       ?FFindColorIndexFromColor@@YAHKPAH@Z 10014f96 f drbee.obj
 0001:00013fc4       __pcd_tbl??0ColorPaletteCtrl@@QAA@PAUtagRECT@@@Z 10014fc4 f drbee.obj
 0001:00013fd0       __nep??0ColorPaletteCtrl@@QAA@PAUtagRECT@@@Z 10014fd0 f drbee.obj
 0001:00013fd8       __fh??0ColorPaletteCtrl@@QAA@PAUtagRECT@@@Z 10014fd8 f drbee.obj
 0001:00013fdb       ??0ColorPaletteCtrl@@QAA@PAUtagRECT@@@Z 10014fdb f drbee.obj
 0001:00014288       __pcd_tbl?OnCompletion@ColorPaletteCtrl@@MAAXABH@Z 10015288 f drbee.obj
 0001:00014288       __nep?OnCompletion@ColorPaletteCtrl@@MAAXABH@Z 10015288 f drbee.obj
 0001:00014290       __fh?OnCompletion@ColorPaletteCtrl@@MAAXABH@Z 10015290 f drbee.obj
 0001:00014292       ?OnCompletion@ColorPaletteCtrl@@MAAXABH@Z 10015292 f drbee.obj
 0001:00014294       __pcd_tbl??_GColorPaletteCtrl@@UAAPAXI@Z 10015294 f drbee.obj
 0001:0001429c       __nep??_GColorPaletteCtrl@@UAAPAXI@Z 1001529c f drbee.obj
 0001:000142a4       __fh??_GColorPaletteCtrl@@UAAPAXI@Z 100152a4 f drbee.obj
 0001:000142a6       ??_EColorPaletteCtrl@@UAAPAXI@Z 100152a6 f drbee.obj
 0001:000142a6       ??_GColorPaletteCtrl@@UAAPAXI@Z 100152a6 f drbee.obj
 0001:000142b0       __pcd_tbl??1ColorPaletteCtrl@@UAA@XZ 100152b0 f drbee.obj
 0001:000142b4       __nep??1ColorPaletteCtrl@@UAA@XZ 100152b4 f drbee.obj
 0001:000142bc       __fh??1ColorPaletteCtrl@@UAA@XZ 100152bc f drbee.obj
 0001:000142be       ??1ColorPaletteCtrl@@UAA@XZ 100152be f drbee.obj
 0001:000142cc       __nep?GetWindowSize@ColorPaletteCtrl@@IAAXAAH0@Z 100152cc f drbee.obj
 0001:000142cc       __pcd_tbl?GetWindowSize@ColorPaletteCtrl@@IAAXAAH0@Z 100152cc f drbee.obj
 0001:000142d4       __fh?GetWindowSize@ColorPaletteCtrl@@IAAXAAH0@Z 100152d4 f drbee.obj
 0001:000142d6       ?GetWindowSize@ColorPaletteCtrl@@IAAXAAH0@Z 100152d6 f drbee.obj
 0001:000142d8       __pcd_tbl?InsetHex@ColorPaletteCtrl@@IAAXPAVGPolygon@@H@Z 100152d8 f drbee.obj
 0001:000142d8       __nep?InsetHex@ColorPaletteCtrl@@IAAXPAVGPolygon@@H@Z 100152d8 f drbee.obj
 0001:000142e0       __fh?InsetHex@ColorPaletteCtrl@@IAAXPAVGPolygon@@H@Z 100152e0 f drbee.obj
 0001:000142e2       ?InsetHex@ColorPaletteCtrl@@IAAXPAVGPolygon@@H@Z 100152e2 f drbee.obj
 0001:00014318       __pcd_tbl?DrawSelection@ColorPaletteCtrl@@IAAXPAUHDC__@@H@Z 10015318 f drbee.obj
 0001:00014344       __nep?DrawSelection@ColorPaletteCtrl@@IAAXPAUHDC__@@H@Z 10015344 f drbee.obj
 0001:0001434c       __fh?DrawSelection@ColorPaletteCtrl@@IAAXPAUHDC__@@H@Z 1001534c f drbee.obj
 0001:0001434e       ?DrawSelection@ColorPaletteCtrl@@IAAXPAUHDC__@@H@Z 1001534e f drbee.obj
 0001:0001439c       __pcd_tbl?DrawFocus@ColorPaletteCtrl@@IAAXPAUHDC__@@HH@Z 1001539c f drbee.obj
 0001:0001439c       __nep?DrawFocus@ColorPaletteCtrl@@IAAXPAUHDC__@@HH@Z 1001539c f drbee.obj
 0001:000143a4       __fh?DrawFocus@ColorPaletteCtrl@@IAAXPAUHDC__@@HH@Z 100153a4 f drbee.obj
 0001:000143a6       ?DrawFocus@ColorPaletteCtrl@@IAAXPAUHDC__@@HH@Z 100153a6 f drbee.obj
 0001:000143a8       __pcd_tbl?GetHex@ColorPaletteCtrl@@IAAAAVGPolygon@@H@Z 100153a8 f drbee.obj
 0001:000143b0       __nep?GetHex@ColorPaletteCtrl@@IAAAAVGPolygon@@H@Z 100153b0 f drbee.obj
 0001:000143b8       __fh?GetHex@ColorPaletteCtrl@@IAAAAVGPolygon@@H@Z 100153b8 f drbee.obj
 0001:000143ba       ?GetHex@ColorPaletteCtrl@@IAAAAVGPolygon@@H@Z 100153ba f drbee.obj
 0001:00014404       __pcd_tbl?DrawHex@ColorPaletteCtrl@@IAAXPAUHDC__@@H@Z 10015404 f drbee.obj
 0001:00014420       __nep?DrawHex@ColorPaletteCtrl@@IAAXPAUHDC__@@H@Z 10015420 f drbee.obj
 0001:00014428       __fh?DrawHex@ColorPaletteCtrl@@IAAXPAUHDC__@@H@Z 10015428 f drbee.obj
 0001:0001442a       ?DrawHex@ColorPaletteCtrl@@IAAXPAUHDC__@@H@Z 1001542a f drbee.obj
 0001:00014458       __nep?GetHexColor@ColorPaletteCtrl@@IAAHH@Z 10015458 f drbee.obj
 0001:00014458       __pcd_tbl?GetHexColor@ColorPaletteCtrl@@IAAHH@Z 10015458 f drbee.obj
 0001:00014460       __fh?GetHexColor@ColorPaletteCtrl@@IAAHH@Z 10015460 f drbee.obj
 0001:00014462       ?GetHexColor@ColorPaletteCtrl@@IAAHH@Z 10015462 f drbee.obj
 0001:00014480       __pcd_tbl?Paint@ColorPaletteCtrl@@IAAXPAUHDC__@@@Z 10015480 f drbee.obj
 0001:00014494       __nep?Paint@ColorPaletteCtrl@@IAAXPAUHDC__@@@Z 10015494 f drbee.obj
 0001:0001449c       __fh?Paint@ColorPaletteCtrl@@IAAXPAUHDC__@@@Z 1001549c f drbee.obj
 0001:0001449e       ?Paint@ColorPaletteCtrl@@IAAXPAUHDC__@@@Z 1001549e f drbee.obj
 0001:000144dc       __pcd_tbl?HitTest@ColorPaletteCtrl@@IAAXPAUtagPOINT@@AAH@Z 100154dc f drbee.obj
 0001:000144ec       __nep?HitTest@ColorPaletteCtrl@@IAAXPAUtagPOINT@@AAH@Z 100154ec f drbee.obj
 0001:000144f4       __fh?HitTest@ColorPaletteCtrl@@IAAXPAUtagPOINT@@AAH@Z 100154f4 f drbee.obj
 0001:000144f6       ?HitTest@ColorPaletteCtrl@@IAAXPAUtagPOINT@@AAH@Z 100154f6 f drbee.obj
 0001:000145b8       __pcd_tbl?GetColorIndex@ColorPaletteCtrl@@IAAHH@Z 100155b8 f drbee.obj
 0001:000145b8       __nep?GetColorIndex@ColorPaletteCtrl@@IAAHH@Z 100155b8 f drbee.obj
 0001:000145c0       __fh?GetColorIndex@ColorPaletteCtrl@@IAAHH@Z 100155c0 f drbee.obj
 0001:000145c2       ?GetColorIndex@ColorPaletteCtrl@@IAAHH@Z 100155c2 f drbee.obj
 0001:000145c4       __pcd_tbl?OnSetFocus@ColorPaletteCtrl@@IAAXXZ 100155c4 f drbee.obj
 0001:000145c4       __nep?OnSetFocus@ColorPaletteCtrl@@IAAXXZ 100155c4 f drbee.obj
 0001:000145cc       __fh?OnSetFocus@ColorPaletteCtrl@@IAAXXZ 100155cc f drbee.obj
 0001:000145ce       ?OnSetFocus@ColorPaletteCtrl@@IAAXXZ 100155ce f drbee.obj
 0001:000145d0       __pcd_tbl?OnKillFocus@ColorPaletteCtrl@@IAAXXZ 100155d0 f drbee.obj
 0001:000145d0       __nep?OnKillFocus@ColorPaletteCtrl@@IAAXXZ 100155d0 f drbee.obj
 0001:000145d8       __fh?OnKillFocus@ColorPaletteCtrl@@IAAXXZ 100155d8 f drbee.obj
 0001:000145da       ?OnKillFocus@ColorPaletteCtrl@@IAAXXZ 100155da f drbee.obj
 0001:000145dc       __nep?OnSelection@ColorPaletteCtrl@@IAAXH@Z 100155dc f drbee.obj
 0001:000145dc       __pcd_tbl?OnSelection@ColorPaletteCtrl@@IAAXH@Z 100155dc f drbee.obj
 0001:000145e4       __fh?OnSelection@ColorPaletteCtrl@@IAAXH@Z 100155e4 f drbee.obj
 0001:000145e6       ?OnSelection@ColorPaletteCtrl@@IAAXH@Z 100155e6 f drbee.obj
 0001:000145e8       __pcd_tbl?DownLeft@ColorPaletteCtrl@@IAAHH@Z 100155e8 f drbee.obj
 0001:000145e8       __nep?DownLeft@ColorPaletteCtrl@@IAAHH@Z 100155e8 f drbee.obj
 0001:000145f0       __fh?DownLeft@ColorPaletteCtrl@@IAAHH@Z 100155f0 f drbee.obj
 0001:000145f2       ?DownLeft@ColorPaletteCtrl@@IAAHH@Z 100155f2 f drbee.obj
 0001:0001461c       __pcd_tbl?DownRight@ColorPaletteCtrl@@IAAHH@Z 1001561c f drbee.obj
 0001:00014620       __nep?DownRight@ColorPaletteCtrl@@IAAHH@Z 10015620 f drbee.obj
 0001:00014628       __fh?DownRight@ColorPaletteCtrl@@IAAHH@Z 10015628 f drbee.obj
 0001:0001462a       ?DownRight@ColorPaletteCtrl@@IAAHH@Z 1001562a f drbee.obj
 0001:00014638       __pcd_tbl?UpRight@ColorPaletteCtrl@@IAAHH@Z 10015638 f drbee.obj
 0001:00014638       __nep?UpRight@ColorPaletteCtrl@@IAAHH@Z 10015638 f drbee.obj
 0001:00014640       __fh?UpRight@ColorPaletteCtrl@@IAAHH@Z 10015640 f drbee.obj
 0001:00014642       ?UpRight@ColorPaletteCtrl@@IAAHH@Z 10015642 f drbee.obj
 0001:0001466c       __pcd_tbl?UpLeft@ColorPaletteCtrl@@IAAHH@Z 1001566c f drbee.obj
 0001:00014670       __nep?UpLeft@ColorPaletteCtrl@@IAAHH@Z 10015670 f drbee.obj
 0001:00014678       __fh?UpLeft@ColorPaletteCtrl@@IAAHH@Z 10015678 f drbee.obj
 0001:0001467a       ?UpLeft@ColorPaletteCtrl@@IAAHH@Z 1001567a f drbee.obj
 0001:00014688       __pcd_tbl?EraseEdgeHex@ColorPaletteCtrl@@IAAXPAUHDC__@@H@Z 10015688 f drbee.obj
 0001:000146a0       __nep?EraseEdgeHex@ColorPaletteCtrl@@IAAXPAUHDC__@@H@Z 100156a0 f drbee.obj
 0001:000146a8       __fh?EraseEdgeHex@ColorPaletteCtrl@@IAAXPAUHDC__@@H@Z 100156a8 f drbee.obj
 0001:000146aa       ?EraseEdgeHex@ColorPaletteCtrl@@IAAXPAUHDC__@@H@Z 100156aa f drbee.obj
 0001:000146e0       __pcd_tbl?RemoveSelection@ColorPaletteCtrl@@IAAXPAUHDC__@@HH@Z 100156e0 f drbee.obj
 0001:000146f8       __nep?RemoveSelection@ColorPaletteCtrl@@IAAXPAUHDC__@@HH@Z 100156f8 f drbee.obj
 0001:00014700       __fh?RemoveSelection@ColorPaletteCtrl@@IAAXPAUHDC__@@HH@Z 10015700 f drbee.obj
 0001:00014702       ?RemoveSelection@ColorPaletteCtrl@@IAAXPAUHDC__@@HH@Z 10015702 f drbee.obj
 0001:00014770       ??0DRGCRV@@QAA@PAVDG@@PAVDGV@@W4MSODGCID@@@Z 10015770 f drbezier.obj
 0001:000149a4       ??1DRGCRV@@QAA@XZ          100159a4 f drbezier.obj
 0001:00014b54       __pcd_tbl?FCrvFromDrgcrv@DRGCRV@@QAAHPAPAVCURVE@@@Z 10015b54 f drbezier.obj
 0001:00014b68       __nep?FCrvFromDrgcrv@DRGCRV@@QAAHPAPAVCURVE@@@Z 10015b68 f drbezier.obj
 0001:00014b70       __fh?FCrvFromDrgcrv@DRGCRV@@QAAHPAPAVCURVE@@@Z 10015b70 f drbezier.obj
 0001:00014b72       ?FCrvFromDrgcrv@DRGCRV@@QAAHPAPAVCURVE@@@Z 10015b72 f drbezier.obj
 0001:00014c1c       __nep??0CURVE@@QAA@XZ      10015c1c f drbezier.obj
 0001:00014c1c       __pcd_tbl??0CURVE@@QAA@XZ  10015c1c f drbezier.obj
 0001:00014c24       __fh??0CURVE@@QAA@XZ       10015c24 f drbezier.obj
 0001:00014c26       ??0CURVE@@QAA@XZ           10015c26 f drbezier.obj
 0001:00014c30       __pcd_tbl??1CURVE@@QAA@XZ  10015c30 f drbezier.obj
 0001:00014c34       __nep??1CURVE@@QAA@XZ      10015c34 f drbezier.obj
 0001:00014c3c       __fh??1CURVE@@QAA@XZ       10015c3c f drbezier.obj
 0001:00014c3e       ??1CURVE@@QAA@XZ           10015c3e f drbezier.obj
 0001:00014c50       __pcd_tbl?FWriteBe@CURVE@@QAAHJH@Z 10015c50 f drbezier.obj
 0001:00014c50       __nep?FWriteBe@CURVE@@QAAHJH@Z 10015c50 f drbezier.obj
 0001:00014c58       __fh?FWriteBe@CURVE@@QAAHJH@Z 10015c58 f drbezier.obj
 0001:00014c5a       ?FWriteBe@CURVE@@QAAHJH@Z  10015c5a f drbezier.obj
 0001:00014c5c       __pcd_tbl?FInit@CURVE@@QAAHHH@Z 10015c5c f drbezier.obj
 0001:00014c60       __nep?FInit@CURVE@@QAAHHH@Z 10015c60 f drbezier.obj
 0001:00014c68       __fh?FInit@CURVE@@QAAHHH@Z 10015c68 f drbezier.obj
 0001:00014c6a       ?FInit@CURVE@@QAAHHH@Z     10015c6a f drbezier.obj
 0001:00014c8c       __pcd_tbl?FClone@CURVE@@QAAHPAPAV1@@Z 10015c8c f drbezier.obj
 0001:00014ca0       __nep?FClone@CURVE@@QAAHPAPAV1@@Z 10015ca0 f drbezier.obj
 0001:00014ca8       __fh?FClone@CURVE@@QAAHPAPAV1@@Z 10015ca8 f drbezier.obj
 0001:00014caa       ?FClone@CURVE@@QAAHPAPAV1@@Z 10015caa f drbezier.obj
 0001:00014ce4       __pcd_tbl?PescConvertToLine@DRGCRV@@QAA?AW4MSOPATHESCAPE@@W42@@Z 10015ce4 f drbezier.obj
 0001:00014ce4       __nep?PescConvertToLine@DRGCRV@@QAA?AW4MSOPATHESCAPE@@W42@@Z 10015ce4 f drbezier.obj
 0001:00014cec       __fh?PescConvertToLine@DRGCRV@@QAA?AW4MSOPATHESCAPE@@W42@@Z 10015cec f drbezier.obj
 0001:00014cee       ?PescConvertToLine@DRGCRV@@QAA?AW4MSOPATHESCAPE@@W42@@Z 10015cee f drbezier.obj
 0001:00014d0c       __nep?PescConvertToCurve@DRGCRV@@QAA?AW4MSOPATHESCAPE@@W42@@Z 10015d0c f drbezier.obj
 0001:00014d0c       __pcd_tbl?PescConvertToCurve@DRGCRV@@QAA?AW4MSOPATHESCAPE@@W42@@Z 10015d0c f drbezier.obj
 0001:00014d14       __fh?PescConvertToCurve@DRGCRV@@QAA?AW4MSOPATHESCAPE@@W42@@Z 10015d14 f drbezier.obj
 0001:00014d16       ?PescConvertToCurve@DRGCRV@@QAA?AW4MSOPATHESCAPE@@W42@@Z 10015d16 f drbezier.obj
 0001:00014d34       __pcd_tbl?DrawTangent@DRGCRV@@QAAXPAUHDC__@@PAUtagPOINT@@1HHH@Z 10015d34 f drbezier.obj
 0001:00014d50       __nep?DrawTangent@DRGCRV@@QAAXPAUHDC__@@PAUtagPOINT@@1HHH@Z 10015d50 f drbezier.obj
 0001:00014d58       __fh?DrawTangent@DRGCRV@@QAAXPAUHDC__@@PAUtagPOINT@@1HHH@Z 10015d58 f drbezier.obj
 0001:00014d5a       ?DrawTangent@DRGCRV@@QAAXPAUHDC__@@PAUtagPOINT@@1HHH@Z 10015d5a f drbezier.obj
 0001:00014e00       __pcd_tbl?DrawRect@DRGCRV@@QAAXPAUHDC__@@PAUtagPOINT@@HH@Z 10015e00 f drbezier.obj
 0001:00014e0c       __nep?DrawRect@DRGCRV@@QAAXPAUHDC__@@PAUtagPOINT@@HH@Z 10015e0c f drbezier.obj
 0001:00014e14       __fh?DrawRect@DRGCRV@@QAAXPAUHDC__@@PAUtagPOINT@@HH@Z 10015e14 f drbezier.obj
 0001:00014e16       ?DrawRect@DRGCRV@@QAAXPAUHDC__@@PAUtagPOINT@@HH@Z 10015e16 f drbezier.obj
 0001:00014e44       __pcd_tbl?DrawWrapPolygon@DRGCRV@@QAAXPAUHDC__@@@Z 10015e44 f drbezier.obj
 0001:00014e58       __nep?DrawWrapPolygon@DRGCRV@@QAAXPAUHDC__@@@Z 10015e58 f drbezier.obj
 0001:00014e60       __fh?DrawWrapPolygon@DRGCRV@@QAAXPAUHDC__@@@Z 10015e60 f drbezier.obj
 0001:00014e62       ?DrawWrapPolygon@DRGCRV@@QAAXPAUHDC__@@@Z 10015e62 f drbezier.obj
 0001:00014e98       __pcd_tbl?DrawAllControls@DRGCRV@@QAAXPAUHDC__@@K@Z 10015e98 f drbezier.obj
 0001:00014ea8       __nep?DrawAllControls@DRGCRV@@QAAXPAUHDC__@@K@Z 10015ea8 f drbezier.obj
 0001:00014eb0       __fh?DrawAllControls@DRGCRV@@QAAXPAUHDC__@@K@Z 10015eb0 f drbezier.obj
 0001:00014eb2       ?DrawAllControls@DRGCRV@@QAAXPAUHDC__@@K@Z 10015eb2 f drbezier.obj
 0001:00014f44       __pcd_tbl?UpdateBounds@DRGCRV@@QAAXXZ 10015f44 f drbezier.obj
 0001:00014f44       __nep?UpdateBounds@DRGCRV@@QAAXXZ 10015f44 f drbezier.obj
 0001:00014f4c       __fh?UpdateBounds@DRGCRV@@QAAXXZ 10015f4c f drbezier.obj
 0001:00014f4e       ?UpdateBounds@DRGCRV@@QAAXXZ 10015f4e f drbezier.obj
 0001:00014fc4       __nep?FPtIsNearPt@DRGCRV@@QAAHPAUtagPOINT@@0H@Z 10015fc4 f drbezier.obj
 0001:00014fc4       __pcd_tbl?FPtIsNearPt@DRGCRV@@QAAHPAUtagPOINT@@0H@Z 10015fc4 f drbezier.obj
 0001:00014fcc       __fh?FPtIsNearPt@DRGCRV@@QAAHPAUtagPOINT@@0H@Z 10015fcc f drbezier.obj
 0001:00014fce       ?FPtIsNearPt@DRGCRV@@QAAHPAUtagPOINT@@0H@Z 10015fce f drbezier.obj
 0001:00014fe8       ?FitBezier@DRGCRV@@QAAXHHHPAVDGV@@@Z 10015fe8 f drbezier.obj
 0001:000156d0       __pcd_tbl?CleanupFinalPxs@DRGCRV@@QAAXXZ 100166d0 f drbezier.obj
 0001:000156d4       __nep?CleanupFinalPxs@DRGCRV@@QAAXXZ 100166d4 f drbezier.obj
 0001:000156dc       __fh?CleanupFinalPxs@DRGCRV@@QAAXXZ 100166dc f drbezier.obj
 0001:000156de       ?CleanupFinalPxs@DRGCRV@@QAAXXZ 100166de f drbezier.obj
 0001:000156fc       __pcd_tbl?FLoadDataInV@DRGCRV@@QAAHPAUMSOSP@@PAVDGV@@PAU_MSOSVI@@H@Z 100166fc f drbezier.obj
 0001:0001570c       __nep?FLoadDataInV@DRGCRV@@QAAHPAUMSOSP@@PAVDGV@@PAU_MSOSVI@@H@Z 1001670c f drbezier.obj
 0001:00015714       __fh?FLoadDataInV@DRGCRV@@QAAHPAUMSOSP@@PAVDGV@@PAU_MSOSVI@@H@Z 10016714 f drbezier.obj
 0001:00015716       ?FLoadDataInV@DRGCRV@@QAAHPAUMSOSP@@PAVDGV@@PAU_MSOSVI@@H@Z 10016716 f drbezier.obj
 0001:00015778       ?FLoadDataInH@DRGCRV@@QAAHPAUMSOSP@@PAUtagRECT@@HHHJ@Z 10016778 f drbezier.obj
 0001:00015ed8       __pcd_tbl??_GGTransform@@UAAPAXI@Z 10016ed8 f drbezier.obj
 0001:00015edc       __nep??_GGTransform@@UAAPAXI@Z 10016edc f drbezier.obj
 0001:00015ee4       __fh??_GGTransform@@UAAPAXI@Z 10016ee4 f drbezier.obj
 0001:00015ee6       ??_EGTransform@@UAAPAXI@Z  10016ee6 f drbezier.obj
 0001:00015ee6       ??_GGTransform@@UAAPAXI@Z  10016ee6 f drbezier.obj
 0001:00015ef4       __pcd_tbl?PescOfIpt@DRGCRV@@QAA?AW4MSOPATHESCAPE@@PAUMSOSP@@H@Z 10016ef4 f drbezier.obj
 0001:00015f14       __nep?PescOfIpt@DRGCRV@@QAA?AW4MSOPATHESCAPE@@PAUMSOSP@@H@Z 10016f14 f drbezier.obj
 0001:00015f1c       __fh?PescOfIpt@DRGCRV@@QAA?AW4MSOPATHESCAPE@@PAUMSOSP@@H@Z 10016f1c f drbezier.obj
 0001:00015f1e       ?PescOfIpt@DRGCRV@@QAA?AW4MSOPATHESCAPE@@PAUMSOSP@@H@Z 10016f1e f drbezier.obj
 0001:00015fc8       __pcd_tbl?Init@DRGCRV@@QAAXH@Z 10016fc8 f drbezier.obj
 0001:00015fd0       __nep?Init@DRGCRV@@QAAXH@Z 10016fd0 f drbezier.obj
 0001:00015fd8       __fh?Init@DRGCRV@@QAAXH@Z  10016fd8 f drbezier.obj
 0001:00015fda       ?Init@DRGCRV@@QAAXH@Z      10016fda f drbezier.obj
 0001:00016014       __pcd_tbl?FStartedDrag@DRGCRV@@QAAHPAVDGVDRG@@@Z 10017014 f drbezier.obj
 0001:00016018       __nep?FStartedDrag@DRGCRV@@QAAHPAVDGVDRG@@@Z 10017018 f drbezier.obj
 0001:00016020       __fh?FStartedDrag@DRGCRV@@QAAHPAVDGVDRG@@@Z 10017020 f drbezier.obj
 0001:00016022       ?FStartedDrag@DRGCRV@@QAAHPAVDGVDRG@@@Z 10017022 f drbezier.obj
 0001:00016038       __pcd_tbl?FInitPlexes@DRGCRV@@QAAHPAUtagPOINT@@0@Z 10017038 f drbezier.obj
 0001:00016040       __nep?FInitPlexes@DRGCRV@@QAAHPAUtagPOINT@@0@Z 10017040 f drbezier.obj
 0001:00016048       __fh?FInitPlexes@DRGCRV@@QAAHPAUtagPOINT@@0@Z 10017048 f drbezier.obj
 0001:0001604a       ?FInitPlexes@DRGCRV@@QAAHPAUtagPOINT@@0@Z 1001704a f drbezier.obj
 0001:000160e4       __nep?IptFromIptVba@DRGCRV@@QAAHHPAUtagPOINT@@PAW4MSOPATHESCAPE@@@Z 100170e4 f drbezier.obj
 0001:000160e4       __pcd_tbl?IptFromIptVba@DRGCRV@@QAAHHPAUtagPOINT@@PAW4MSOPATHESCAPE@@@Z 100170e4 f drbezier.obj
 0001:000160ec       __fh?IptFromIptVba@DRGCRV@@QAAHHPAUtagPOINT@@PAW4MSOPATHESCAPE@@@Z 100170ec f drbezier.obj
 0001:000160ee       ?IptFromIptVba@DRGCRV@@QAAHHPAUtagPOINT@@PAW4MSOPATHESCAPE@@@Z 100170ee f drbezier.obj
 0001:00016164       __pcd_tbl?IptVbaFromIpt@DRGCRV@@QAAHH@Z 10017164 f drbezier.obj
 0001:00016164       __nep?IptVbaFromIpt@DRGCRV@@QAAHH@Z 10017164 f drbezier.obj
 0001:0001616c       __fh?IptVbaFromIpt@DRGCRV@@QAAHH@Z 1001716c f drbezier.obj
 0001:0001616e       ?IptVbaFromIpt@DRGCRV@@QAAHH@Z 1001716e f drbezier.obj
 0001:000161d4       __pcd_tbl?DoMouseMove@DRGCRV@@QAAXPAVDGVDRG@@PAUtagMSG@@@Z 100171d4 f drbezier.obj
 0001:000161d8       __nep?DoMouseMove@DRGCRV@@QAAXPAVDGVDRG@@PAUtagMSG@@@Z 100171d8 f drbezier.obj
 0001:000161e0       __fh?DoMouseMove@DRGCRV@@QAAXPAVDGVDRG@@PAUtagMSG@@@Z 100171e0 f drbezier.obj
 0001:000161e2       ?DoMouseMove@DRGCRV@@QAAXPAVDGVDRG@@PAUtagMSG@@@Z 100171e2 f drbezier.obj
 0001:00016264       __pcd_tbl?FFinishPolygon@DRGCRV@@QAAHPAVDGV@@HH@Z 10017264 f drbezier.obj
 0001:00016270       __nep?FFinishPolygon@DRGCRV@@QAAHPAVDGV@@HH@Z 10017270 f drbezier.obj
 0001:00016278       __fh?FFinishPolygon@DRGCRV@@QAAHPAVDGV@@HH@Z 10017278 f drbezier.obj
 0001:0001627a       ?FFinishPolygon@DRGCRV@@QAAHPAVDGV@@HH@Z 1001727a f drbezier.obj
 0001:000162a8       __pcd_tbl?DoDblClick@DRGCRV@@QAAXPAVDGVDRG@@PAUtagMSG@@H@Z 100172a8 f drbezier.obj
 0001:000162b0       __nep?DoDblClick@DRGCRV@@QAAXPAVDGVDRG@@PAUtagMSG@@H@Z 100172b0 f drbezier.obj
 0001:000162b8       __fh?DoDblClick@DRGCRV@@QAAXPAVDGVDRG@@PAUtagMSG@@H@Z 100172b8 f drbezier.obj
 0001:000162ba       ?DoDblClick@DRGCRV@@QAAXPAVDGVDRG@@PAUtagMSG@@H@Z 100172ba f drbezier.obj
 0001:000162c8       __pcd_tbl?FAppendPt@DRGCRV@@QAAHPAUtagPOINT@@W4MSOPATHESCAPE@@PAH@Z 100172c8 f drbezier.obj
 0001:000162dc       __nep?FAppendPt@DRGCRV@@QAAHPAUtagPOINT@@W4MSOPATHESCAPE@@PAH@Z 100172dc f drbezier.obj
 0001:000162e4       __fh?FAppendPt@DRGCRV@@QAAHPAUtagPOINT@@W4MSOPATHESCAPE@@PAH@Z 100172e4 f drbezier.obj
 0001:000162e6       ?FAppendPt@DRGCRV@@QAAHPAUtagPOINT@@W4MSOPATHESCAPE@@PAH@Z 100172e6 f drbezier.obj
 0001:000163b4       __pcd_tbl?DoMouseUp@DRGCRV@@QAAXPAVDGVDRG@@PAUtagMSG@@@Z 100173b4 f drbezier.obj
 0001:00016410       __nep?DoMouseUp@DRGCRV@@QAAXPAVDGVDRG@@PAUtagMSG@@@Z 10017410 f drbezier.obj
 0001:00016418       __fh?DoMouseUp@DRGCRV@@QAAXPAVDGVDRG@@PAUtagMSG@@@Z 10017418 f drbezier.obj
 0001:0001641b       ?DoMouseUp@DRGCRV@@QAAXPAVDGVDRG@@PAUtagMSG@@@Z 1001741b f drbezier.obj
 0001:000167dc       __pcd_tbl?DoMouseDown@DRGCRV@@QAAXPAVDGVDRG@@PAUtagMSG@@@Z 100177dc f drbezier.obj
 0001:000167f8       __nep?DoMouseDown@DRGCRV@@QAAXPAVDGVDRG@@PAUtagMSG@@@Z 100177f8 f drbezier.obj
 0001:00016800       __fh?DoMouseDown@DRGCRV@@QAAXPAVDGVDRG@@PAUtagMSG@@@Z 10017800 f drbezier.obj
 0001:00016802       ?DoMouseDown@DRGCRV@@QAAXPAVDGVDRG@@PAUtagMSG@@@Z 10017802 f drbezier.obj
 0001:00016890       __pcd_tbl?DoKeyDown@DRGCRV@@QAAXPAVDGVDRG@@PAUtagMSG@@@Z 10017890 f drbezier.obj
 0001:000168d4       __nep?DoKeyDown@DRGCRV@@QAAXPAVDGVDRG@@PAUtagMSG@@@Z 100178d4 f drbezier.obj
 0001:000168dc       __fh?DoKeyDown@DRGCRV@@QAAXPAVDGVDRG@@PAUtagMSG@@@Z 100178dc f drbezier.obj
 0001:000168df       ?DoKeyDown@DRGCRV@@QAAXPAVDGVDRG@@PAUtagMSG@@@Z 100178df f drbezier.obj
 0001:00016cc8       __pcd_tbl?FClosePolygon@DRGCRV@@QAAHXZ 10017cc8 f drbezier.obj
 0001:00016cd4       __nep?FClosePolygon@DRGCRV@@QAAHXZ 10017cd4 f drbezier.obj
 0001:00016cdc       __fh?FClosePolygon@DRGCRV@@QAAHXZ 10017cdc f drbezier.obj
 0001:00016cde       ?FClosePolygon@DRGCRV@@QAAHXZ 10017cde f drbezier.obj
 0001:00016d38       __pcd_tbl?FOpenPolygon@DRGCRV@@QAAHHPAUtagPOINT@@@Z 10017d38 f drbezier.obj
 0001:00016d44       __nep?FOpenPolygon@DRGCRV@@QAAHHPAUtagPOINT@@@Z 10017d44 f drbezier.obj
 0001:00016d4c       __fh?FOpenPolygon@DRGCRV@@QAAHHPAUtagPOINT@@@Z 10017d4c f drbezier.obj
 0001:00016d4e       ?FOpenPolygon@DRGCRV@@QAAHHPAUtagPOINT@@@Z 10017d4e f drbezier.obj
 0001:00016e20       ?FGeneratePathInfo@DRGCRV@@QAAHHHH@Z 10017e20 f drbezier.obj
 0001:000173c0       ?GeneratePoint@DRGCRV@@QAAXPAUtagPOINT@@00K@Z 100183c0 f drbezier.obj
 0001:00017738       __pcd_tbl?_FInsertPt@DRGCRV@@QAAHPAUtagPOINT@@HW4MSOPATHESCAPE@@PAVDGV@@H@Z 10018738 f drbezier.obj
 0001:00017754       __nep?_FInsertPt@DRGCRV@@QAAHPAUtagPOINT@@HW4MSOPATHESCAPE@@PAVDGV@@H@Z 10018754 f drbezier.obj
 0001:0001775c       __fh?_FInsertPt@DRGCRV@@QAAHPAUtagPOINT@@HW4MSOPATHESCAPE@@PAVDGV@@H@Z 1001875c f drbezier.obj
 0001:0001775f       ?_FInsertPt@DRGCRV@@QAAHPAUtagPOINT@@HW4MSOPATHESCAPE@@PAVDGV@@H@Z 1001875f f drbezier.obj
 0001:000179e8       __pcd_tbl?FInsertPt@DRGCRV@@QAAHPAU_MSOCURVEPT@@H@Z 100189e8 f drbezier.obj
 0001:000179f4       __nep?FInsertPt@DRGCRV@@QAAHPAU_MSOCURVEPT@@H@Z 100189f4 f drbezier.obj
 0001:000179fc       __fh?FInsertPt@DRGCRV@@QAAHPAU_MSOCURVEPT@@H@Z 100189fc f drbezier.obj
 0001:000179fe       ?FInsertPt@DRGCRV@@QAAHPAU_MSOCURVEPT@@H@Z 100189fe f drbezier.obj
 0001:00017a40       __pcd_tbl?FAddVertex@DRGCRV@@QAAHPAVDGV@@PAUtagPOINT@@H@Z 10018a40 f drbezier.obj
 0001:00017a50       __nep?FAddVertex@DRGCRV@@QAAHPAVDGV@@PAUtagPOINT@@H@Z 10018a50 f drbezier.obj
 0001:00017a58       __fh?FAddVertex@DRGCRV@@QAAHPAVDGV@@PAUtagPOINT@@H@Z 10018a58 f drbezier.obj
 0001:00017a5a       ?FAddVertex@DRGCRV@@QAAHPAVDGV@@PAUtagPOINT@@H@Z 10018a5a f drbezier.obj
 0001:00017a80       __pcd_tbl?FDeletePt@DRGCRV@@QAAHPAU_MSOCURVEPT@@@Z 10018a80 f drbezier.obj
 0001:00017a88       __nep?FDeletePt@DRGCRV@@QAAHPAU_MSOCURVEPT@@@Z 10018a88 f drbezier.obj
 0001:00017a90       __fh?FDeletePt@DRGCRV@@QAAHPAU_MSOCURVEPT@@@Z 10018a90 f drbezier.obj
 0001:00017a92       ?FDeletePt@DRGCRV@@QAAHPAU_MSOCURVEPT@@@Z 10018a92 f drbezier.obj
 0001:00017aa8       __pcd_tbl?FDeleteVertex@DRGCRV@@QAAHPAVDGV@@HH@Z 10018aa8 f drbezier.obj
 0001:00017ab8       __nep?FDeleteVertex@DRGCRV@@QAAHPAVDGV@@HH@Z 10018ab8 f drbezier.obj
 0001:00017ac0       __fh?FDeleteVertex@DRGCRV@@QAAHPAVDGV@@HH@Z 10018ac0 f drbezier.obj
 0001:00017ac3       ?FDeleteVertex@DRGCRV@@QAAHPAVDGV@@HH@Z 10018ac3 f drbezier.obj
 0001:00017d10       __pcd_tbl?FDeleteClosed@DRGCRV@@QAAHPAVDGV@@HH@Z 10018d10 f drbezier.obj
 0001:00017d24       __nep?FDeleteClosed@DRGCRV@@QAAHPAVDGV@@HH@Z 10018d24 f drbezier.obj
 0001:00017d2c       __fh?FDeleteClosed@DRGCRV@@QAAHPAVDGV@@HH@Z 10018d2c f drbezier.obj
 0001:00017d2f       ?FDeleteClosed@DRGCRV@@QAAHPAVDGV@@HH@Z 10018d2f f drbezier.obj
 0001:00017f28       ?Subdivide@DRGCRV@@QAAXPAUtagPOINT@@00@Z 10018f28 f drbezier.obj
 0001:000182c0       __pcd_tbl?FHitSegment@DRGCRV@@QAAHPAUtagPOINT@@HPAK@Z 100192c0 f drbezier.obj
 0001:000182cc       __nep?FHitSegment@DRGCRV@@QAAHPAUtagPOINT@@HPAK@Z 100192cc f drbezier.obj
 0001:000182d4       __fh?FHitSegment@DRGCRV@@QAAHPAUtagPOINT@@HPAK@Z 100192d4 f drbezier.obj
 0001:000182d7       ?FHitSegment@DRGCRV@@QAAHPAUtagPOINT@@HPAK@Z 100192d7 f drbezier.obj
 0001:00018420       __pcd_tbl?FHitTestCurve@DRGCRV@@QAAHPAUtagPOINT@@PAH@Z 10019420 f drbezier.obj
 0001:00018430       __nep?FHitTestCurve@DRGCRV@@QAAHPAUtagPOINT@@PAH@Z 10019430 f drbezier.obj
 0001:00018438       __fh?FHitTestCurve@DRGCRV@@QAAHPAUtagPOINT@@PAH@Z 10019438 f drbezier.obj
 0001:0001843a       ?FHitTestCurve@DRGCRV@@QAAHPAUtagPOINT@@PAH@Z 1001943a f drbezier.obj
 0001:00018480       __pcd_tbl?ConvertToAuto@DRGCRV@@QAAXH@Z 10019480 f drbezier.obj
 0001:0001848c       __nep?ConvertToAuto@DRGCRV@@QAAXH@Z 1001948c f drbezier.obj
 0001:00018494       __fh?ConvertToAuto@DRGCRV@@QAAXH@Z 10019494 f drbezier.obj
 0001:00018497       ?ConvertToAuto@DRGCRV@@QAAXH@Z 10019497 f drbezier.obj
 0001:0001860c       __pcd_tbl?ConvertToSymmetric@DRGCRV@@QAAXH@Z 1001960c f drbezier.obj
 0001:00018618       __nep?ConvertToSymmetric@DRGCRV@@QAAXH@Z 10019618 f drbezier.obj
 0001:00018620       __fh?ConvertToSymmetric@DRGCRV@@QAAXH@Z 10019620 f drbezier.obj
 0001:00018622       ?ConvertToSymmetric@DRGCRV@@QAAXH@Z 10019622 f drbezier.obj
 0001:00018784       ?ConvertToSmooth@DRGCRV@@QAAXH@Z 10019784 f drbezier.obj
 0001:00018b7c       __pcd_tbl?ConvertToCorner@DRGCRV@@QAAXH@Z 10019b7c f drbezier.obj
 0001:00018b84       __nep?ConvertToCorner@DRGCRV@@QAAXH@Z 10019b84 f drbezier.obj
 0001:00018b8c       __fh?ConvertToCorner@DRGCRV@@QAAXH@Z 10019b8c f drbezier.obj
 0001:00018b8e       ?ConvertToCorner@DRGCRV@@QAAXH@Z 10019b8e f drbezier.obj
 0001:00018d58       __pcd_tbl?ConvertToLine@DRGCRV@@QAAXH@Z 10019d58 f drbezier.obj
 0001:00018d60       __nep?ConvertToLine@DRGCRV@@QAAXH@Z 10019d60 f drbezier.obj
 0001:00018d68       __fh?ConvertToLine@DRGCRV@@QAAXH@Z 10019d68 f drbezier.obj
 0001:00018d6a       ?ConvertToLine@DRGCRV@@QAAXH@Z 10019d6a f drbezier.obj
 0001:00018db0       __pcd_tbl?ConvertToCurve@DRGCRV@@QAAXH@Z 10019db0 f drbezier.obj
 0001:00018dbc       __nep?ConvertToCurve@DRGCRV@@QAAXH@Z 10019dbc f drbezier.obj
 0001:00018dc4       __fh?ConvertToCurve@DRGCRV@@QAAXH@Z 10019dc4 f drbezier.obj
 0001:00018dc6       ?ConvertToCurve@DRGCRV@@QAAXH@Z 10019dc6 f drbezier.obj
 0001:00018e10       __pcd_tbl?RecalcAuto@DRGCRV@@QAAXHPAUtagPOINT@@0@Z 10019e10 f drbezier.obj
 0001:00018e10       __nep?RecalcAuto@DRGCRV@@QAAXHPAUtagPOINT@@0@Z 10019e10 f drbezier.obj
 0001:00018e18       __fh?RecalcAuto@DRGCRV@@QAAXHPAUtagPOINT@@0@Z 10019e18 f drbezier.obj
 0001:00018e1a       ?RecalcAuto@DRGCRV@@QAAXHPAUtagPOINT@@0@Z 10019e1a f drbezier.obj
 0001:00018e54       __pcd_tbl?CosineSqr@DRGCRV@@QAAJPAUtagPOINT@@00@Z 10019e54 f drbezier.obj
 0001:00018e58       __nep?CosineSqr@DRGCRV@@QAAJPAUtagPOINT@@00@Z 10019e58 f drbezier.obj
 0001:00018e60       __fh?CosineSqr@DRGCRV@@QAAJPAUtagPOINT@@00@Z 10019e60 f drbezier.obj
 0001:00018e62       ?CosineSqr@DRGCRV@@QAAJPAUtagPOINT@@00@Z 10019e62 f drbezier.obj
 0001:00018ea0       __pcd_tbl?GenerateParams@DRGCRV@@QAAXH@Z 10019ea0 f drbezier.obj
 0001:00018ea8       __nep?GenerateParams@DRGCRV@@QAAXH@Z 10019ea8 f drbezier.obj
 0001:00018eb0       __fh?GenerateParams@DRGCRV@@QAAXH@Z 10019eb0 f drbezier.obj
 0001:00018eb2       ?GenerateParams@DRGCRV@@QAAXH@Z 10019eb2 f drbezier.obj
 0001:00018f14       ?CreateBSpline@DRGCRV@@QAAXPAUtagPOINT@@0000@Z 10019f14 f drbezier.obj
 0001:00019368       __pcd_tbl?Move@DRGCRV@@QAAXPAVDGVDRG@@@Z 1001a368 f drbezier.obj
 0001:00019394       __nep?Move@DRGCRV@@QAAXPAVDGVDRG@@@Z 1001a394 f drbezier.obj
 0001:0001939c       __fh?Move@DRGCRV@@QAAXPAVDGVDRG@@@Z 1001a39c f drbezier.obj
 0001:0001939f       ?Move@DRGCRV@@QAAXPAVDGVDRG@@@Z 1001a39f f drbezier.obj
 0001:000194b4       __pcd_tbl?CptMoveToPt@DRGCRV@@QAAHPAUtagPOINT@@@Z 1001a4b4 f drbezier.obj
 0001:000194b8       __nep?CptMoveToPt@DRGCRV@@QAAHPAUtagPOINT@@@Z 1001a4b8 f drbezier.obj
 0001:000194c0       __fh?CptMoveToPt@DRGCRV@@QAAHPAUtagPOINT@@@Z 1001a4c0 f drbezier.obj
 0001:000194c3       ?CptMoveToPt@DRGCRV@@QAAHPAUtagPOINT@@@Z 1001a4c3 f drbezier.obj
 0001:00019584       __pcd_tbl?Erase@DRGCRV@@QAAXPAVDGVDRG@@@Z 1001a584 f drbezier.obj
 0001:0001959c       __nep?Erase@DRGCRV@@QAAXPAVDGVDRG@@@Z 1001a59c f drbezier.obj
 0001:000195a4       __fh?Erase@DRGCRV@@QAAXPAVDGVDRG@@@Z 1001a5a4 f drbezier.obj
 0001:000195a6       ?Erase@DRGCRV@@QAAXPAVDGVDRG@@@Z 1001a5a6 f drbezier.obj
 0001:000195cc       __pcd_tbl?Draw@DRGCRV@@QAAXPAVDGVDRG@@@Z 1001a5cc f drbezier.obj
 0001:000195e8       __nep?Draw@DRGCRV@@QAAXPAVDGVDRG@@@Z 1001a5e8 f drbezier.obj
 0001:000195f0       __fh?Draw@DRGCRV@@QAAXPAVDGVDRG@@@Z 1001a5f0 f drbezier.obj
 0001:000195f2       ?Draw@DRGCRV@@QAAXPAVDGVDRG@@@Z 1001a5f2 f drbezier.obj
 0001:00019630       __pcd_tbl?FPtInRect@DRGCRV@@QAAHPAUtagPOINT@@H0@Z 1001a630 f drbezier.obj
 0001:00019634       __nep?FPtInRect@DRGCRV@@QAAHPAUtagPOINT@@H0@Z 1001a634 f drbezier.obj
 0001:0001963c       __fh?FPtInRect@DRGCRV@@QAAHPAUtagPOINT@@H0@Z 1001a63c f drbezier.obj
 0001:0001963e       ?FPtInRect@DRGCRV@@QAAHPAUtagPOINT@@H0@Z 1001a63e f drbezier.obj
 0001:0001965c       __pcd_tbl?FHitTest@DRGCRV@@QAAHPAUtagPOINT@@KPAH1@Z 1001a65c f drbezier.obj
 0001:00019664       __nep?FHitTest@DRGCRV@@QAAHPAUtagPOINT@@KPAH1@Z 1001a664 f drbezier.obj
 0001:0001966c       __fh?FHitTest@DRGCRV@@QAAHPAUtagPOINT@@KPAH1@Z 1001a66c f drbezier.obj
 0001:0001966e       ?FHitTest@DRGCRV@@QAAHPAUtagPOINT@@KPAH1@Z 1001a66e f drbezier.obj
 0001:000197a8       __pcd_tbl?MovePoint@DRGCRV@@QAAXPAVDGVDRG@@@Z 1001a7a8 f drbezier.obj
 0001:000197bc       __nep?MovePoint@DRGCRV@@QAAXPAVDGVDRG@@@Z 1001a7bc f drbezier.obj
 0001:000197c4       __fh?MovePoint@DRGCRV@@QAAXPAVDGVDRG@@@Z 1001a7c4 f drbezier.obj
 0001:000197c6       ?MovePoint@DRGCRV@@QAAXPAVDGVDRG@@@Z 1001a7c6 f drbezier.obj
 0001:000198e4       __pcd_tbl?FChangePt@DRGCRV@@QAAHPAU_MSOCURVEPT@@@Z 1001a8e4 f drbezier.obj
 0001:000198f0       __nep?FChangePt@DRGCRV@@QAAHPAU_MSOCURVEPT@@@Z 1001a8f0 f drbezier.obj
 0001:000198f8       __fh?FChangePt@DRGCRV@@QAAHPAU_MSOCURVEPT@@@Z 1001a8f8 f drbezier.obj
 0001:000198fa       ?FChangePt@DRGCRV@@QAAHPAU_MSOCURVEPT@@@Z 1001a8fa f drbezier.obj
 0001:00019920       __pcd_tbl?RecalcAutoCurve@DRGCRV@@QAAXHPAUtagPOINT@@0PAH1@Z 1001a920 f drbezier.obj
 0001:00019924       __nep?RecalcAutoCurve@DRGCRV@@QAAXHPAUtagPOINT@@0PAH1@Z 1001a924 f drbezier.obj
 0001:0001992c       __fh?RecalcAutoCurve@DRGCRV@@QAAXHPAUtagPOINT@@0PAH1@Z 1001a92c f drbezier.obj
 0001:0001992e       ?RecalcAutoCurve@DRGCRV@@QAAXHPAUtagPOINT@@0PAH1@Z 1001a92e f drbezier.obj
 0001:00019a70       __pcd_tbl?RecalcSymmetricCurve@DRGCRV@@QAAXHPAUtagPOINT@@0PAH1@Z 1001aa70 f drbezier.obj
 0001:00019a70       __nep?RecalcSymmetricCurve@DRGCRV@@QAAXHPAUtagPOINT@@0PAH1@Z 1001aa70 f drbezier.obj
 0001:00019a78       __fh?RecalcSymmetricCurve@DRGCRV@@QAAXHPAUtagPOINT@@0PAH1@Z 1001aa78 f drbezier.obj
 0001:00019a7a       ?RecalcSymmetricCurve@DRGCRV@@QAAXHPAUtagPOINT@@0PAH1@Z 1001aa7a f drbezier.obj
 0001:00019bd4       ?RecalcSmoothCurve@DRGCRV@@QAAXHPAUtagPOINT@@0PAH1@Z 1001abd4 f drbezier.obj
 0001:0001a12c       __nep?CalcGhostParams@DRGCRV@@QAAXHPAH0@Z 1001b12c f drbezier.obj
 0001:0001a12c       __pcd_tbl?CalcGhostParams@DRGCRV@@QAAXHPAH0@Z 1001b12c f drbezier.obj
 0001:0001a134       __fh?CalcGhostParams@DRGCRV@@QAAXHPAH0@Z 1001b134 f drbezier.obj
 0001:0001a136       ?CalcGhostParams@DRGCRV@@QAAXHPAH0@Z 1001b136 f drbezier.obj
 0001:0001a178       __pcd_tbl?EraseDragGhost@DRGCRV@@QAAXPAVDGVDRG@@@Z 1001b178 f drbezier.obj
 0001:0001a198       __nep?EraseDragGhost@DRGCRV@@QAAXPAVDGVDRG@@@Z 1001b198 f drbezier.obj
 0001:0001a1a0       __fh?EraseDragGhost@DRGCRV@@QAAXPAVDGVDRG@@@Z 1001b1a0 f drbezier.obj
 0001:0001a1a3       ?EraseDragGhost@DRGCRV@@QAAXPAVDGVDRG@@@Z 1001b1a3 f drbezier.obj
 0001:0001a55c       __pcd_tbl?ReshapeCurve@DRGCRV@@QAAXPAUtagPOINT@@0PAVDGV@@PAUHDC__@@H@Z 1001b55c f drbezier.obj
 0001:0001a588       __nep?ReshapeCurve@DRGCRV@@QAAXPAUtagPOINT@@0PAVDGV@@PAUHDC__@@H@Z 1001b588 f drbezier.obj
 0001:0001a590       __fh?ReshapeCurve@DRGCRV@@QAAXPAUtagPOINT@@0PAVDGV@@PAUHDC__@@H@Z 1001b590 f drbezier.obj
 0001:0001a593       ?ReshapeCurve@DRGCRV@@QAAXPAUtagPOINT@@0PAVDGV@@PAUHDC__@@H@Z 1001b593 f drbezier.obj
 0001:0001af0c       __pcd_tbl?ReshapeClosedCurve@DRGCRV@@QAAXPAUtagPOINT@@0PAVDGV@@PAUHDC__@@H@Z 1001bf0c f drbezier.obj
 0001:0001af34       __nep?ReshapeClosedCurve@DRGCRV@@QAAXPAUtagPOINT@@0PAVDGV@@PAUHDC__@@H@Z 1001bf34 f drbezier.obj
 0001:0001af3c       __fh?ReshapeClosedCurve@DRGCRV@@QAAXPAUtagPOINT@@0PAVDGV@@PAUHDC__@@H@Z 1001bf3c f drbezier.obj
 0001:0001af3f       ?ReshapeClosedCurve@DRGCRV@@QAAXPAUtagPOINT@@0PAVDGV@@PAUHDC__@@H@Z 1001bf3f f drbezier.obj
 0001:0001b894       __pcd_tbl?Finish@DRGCRV@@QAAXPAVDGVDRG@@@Z 1001c894 f drbezier.obj
 0001:0001b89c       __nep?Finish@DRGCRV@@QAAXPAVDGVDRG@@@Z 1001c89c f drbezier.obj
 0001:0001b8a4       __fh?Finish@DRGCRV@@QAAXPAVDGVDRG@@@Z 1001c8a4 f drbezier.obj
 0001:0001b8a6       ?Finish@DRGCRV@@QAAXPAVDGVDRG@@@Z 1001c8a6 f drbezier.obj
 0001:0001b8b8       __pcd_tbl?DAvgMouseMoveDist@DRGCRV@@QAANPAVFPState@@PAU_DPOINT@@H@Z 1001c8b8 f drbezier.obj
 0001:0001b8bc       __nep?DAvgMouseMoveDist@DRGCRV@@QAANPAVFPState@@PAU_DPOINT@@H@Z 1001c8bc f drbezier.obj
 0001:0001b8c4       __fh?DAvgMouseMoveDist@DRGCRV@@QAANPAVFPState@@PAU_DPOINT@@H@Z 1001c8c4 f drbezier.obj
 0001:0001b8c6       ?DAvgMouseMoveDist@DRGCRV@@QAANPAVFPState@@PAU_DPOINT@@H@Z 1001c8c6 f drbezier.obj
 0001:0001b92c       __pcd_tbl?FCheckBezier@DRGCRV@@QAAHPAU_DPOINT@@0HHN@Z 1001c92c f drbezier.obj
 0001:0001b930       __nep?FCheckBezier@DRGCRV@@QAAHPAU_DPOINT@@0HHN@Z 1001c930 f drbezier.obj
 0001:0001b938       __fh?FCheckBezier@DRGCRV@@QAAHPAU_DPOINT@@0HHN@Z 1001c938 f drbezier.obj
 0001:0001b93d       ?FCheckBezier@DRGCRV@@QAAHPAU_DPOINT@@0HHN@Z 1001c93d f drbezier.obj
 0001:0001ba08       __pcd_tbl?AddBezierCurve@DRGCRV@@QAAXPAV?$MSOTPX@UtagPOINT@@@@HPAU_DPOINT@@@Z 1001ca08 f drbezier.obj
 0001:0001ba0c       __nep?AddBezierCurve@DRGCRV@@QAAXPAV?$MSOTPX@UtagPOINT@@@@HPAU_DPOINT@@@Z 1001ca0c f drbezier.obj
 0001:0001ba14       __fh?AddBezierCurve@DRGCRV@@QAAXPAV?$MSOTPX@UtagPOINT@@@@HPAU_DPOINT@@@Z 1001ca14 f drbezier.obj
 0001:0001ba16       ?AddBezierCurve@DRGCRV@@QAAXPAV?$MSOTPX@UtagPOINT@@@@HPAU_DPOINT@@@Z 1001ca16 f drbezier.obj
 0001:0001ba50       ?FFitCurveTwice@DRGCRV@@QAAHPAV?$MSOTPX@UtagPOINT@@@@PAVFPState@@PAU_DPOINT@@HN@Z 1001ca50 f drbezier.obj
 0001:0001bd28       __pcd_tbl?FFitCurve@DRGCRV@@QAAHPAV?$MSOTPX@UtagPOINT@@@@PAVFPState@@PAU_DPOINT@@HN@Z 1001cd28 f drbezier.obj
 0001:0001bd3c       __nep?FFitCurve@DRGCRV@@QAAHPAV?$MSOTPX@UtagPOINT@@@@PAVFPState@@PAU_DPOINT@@HN@Z 1001cd3c f drbezier.obj
 0001:0001bd44       __fh?FFitCurve@DRGCRV@@QAAHPAV?$MSOTPX@UtagPOINT@@@@PAVFPState@@PAU_DPOINT@@HN@Z 1001cd44 f drbezier.obj
 0001:0001bd49       ?FFitCurve@DRGCRV@@QAAHPAV?$MSOTPX@UtagPOINT@@@@PAVFPState@@PAU_DPOINT@@HN@Z 1001cd49 f drbezier.obj
 0001:0001bdac       __pcd_tbl?FitCubic@DRGCRV@@QAAXPAVFPState@@PAV?$MSOTPX@UtagPOINT@@@@PAU_DPOINT@@HHU4@3NPAN42@Z 1001cdac f drbezier.obj
 0001:0001bde0       __nep?FitCubic@DRGCRV@@QAAXPAVFPState@@PAV?$MSOTPX@UtagPOINT@@@@PAU_DPOINT@@HHU4@3NPAN42@Z 1001cde0 f drbezier.obj
 0001:0001bde8       __fh?FitCubic@DRGCRV@@QAAXPAVFPState@@PAV?$MSOTPX@UtagPOINT@@@@PAU_DPOINT@@HHU4@3NPAN42@Z 1001cde8 f drbezier.obj
 0001:0001bdee       ?FitCubic@DRGCRV@@QAAXPAVFPState@@PAV?$MSOTPX@UtagPOINT@@@@PAU_DPOINT@@HHU4@3NPAN42@Z 1001cdee f drbezier.obj
 0001:0001bf70       __pcd_tbl?GenerateBezier@DRGCRV@@QAAXPAU_DPOINT@@HHPANU2@20@Z 1001cf70 f drbezier.obj
 0001:0001bfa8       __nep?GenerateBezier@DRGCRV@@QAAXPAU_DPOINT@@HHPANU2@20@Z 1001cfa8 f drbezier.obj
 0001:0001bfb0       __fh?GenerateBezier@DRGCRV@@QAAXPAU_DPOINT@@HHPANU2@20@Z 1001cfb0 f drbezier.obj
 0001:0001bfb3       ?GenerateBezier@DRGCRV@@QAAXPAU_DPOINT@@HHPANU2@20@Z 1001cfb3 f drbezier.obj
 0001:0001c268       __pcd_tbl?Reparameterize@DRGCRV@@QAAXPAU_DPOINT@@HHPAN01@Z 1001d268 f drbezier.obj
 0001:0001c26c       __nep?Reparameterize@DRGCRV@@QAAXPAU_DPOINT@@HHPAN01@Z 1001d26c f drbezier.obj
 0001:0001c274       __fh?Reparameterize@DRGCRV@@QAAXPAU_DPOINT@@HHPAN01@Z 1001d274 f drbezier.obj
 0001:0001c276       ?Reparameterize@DRGCRV@@QAAXPAU_DPOINT@@HHPAN01@Z 1001d276 f drbezier.obj
 0001:0001c2b8       __pcd_tbl?DNewtonRaphsonRootFind@DRGCRV@@QAANPAU_DPOINT@@U2@N@Z 1001d2b8 f drbezier.obj
 0001:0001c2bc       __nep?DNewtonRaphsonRootFind@DRGCRV@@QAANPAU_DPOINT@@U2@N@Z 1001d2bc f drbezier.obj
 0001:0001c2c4       __fh?DNewtonRaphsonRootFind@DRGCRV@@QAANPAU_DPOINT@@U2@N@Z 1001d2c4 f drbezier.obj
 0001:0001c2ca       ?DNewtonRaphsonRootFind@DRGCRV@@QAANPAU_DPOINT@@U2@N@Z 1001d2ca f drbezier.obj
 0001:0001c3fc       __pcd_tbl?DptBezier@DRGCRV@@QAA?AU_DPOINT@@HPAU2@N@Z 1001d3fc f drbezier.obj
 0001:0001c3fc       __nep?DptBezier@DRGCRV@@QAA?AU_DPOINT@@HPAU2@N@Z 1001d3fc f drbezier.obj
 0001:0001c404       __fh?DptBezier@DRGCRV@@QAA?AU_DPOINT@@HPAU2@N@Z 1001d404 f drbezier.obj
 0001:0001c409       ?DptBezier@DRGCRV@@QAA?AU_DPOINT@@HPAU2@N@Z 1001d409 f drbezier.obj
 0001:0001c480       __nep?DB0@DRGCRV@@QAANN@Z  1001d480 f drbezier.obj
 0001:0001c480       __pcd_tbl?DB0@DRGCRV@@QAANN@Z 1001d480 f drbezier.obj
 0001:0001c488       __fh?DB0@DRGCRV@@QAANN@Z   1001d488 f drbezier.obj
 0001:0001c48d       ?DB0@DRGCRV@@QAANN@Z       1001d48d f drbezier.obj
 0001:0001c4b0       __nep?DB1@DRGCRV@@QAANN@Z  1001d4b0 f drbezier.obj
 0001:0001c4b0       __pcd_tbl?DB1@DRGCRV@@QAANN@Z 1001d4b0 f drbezier.obj
 0001:0001c4b8       __fh?DB1@DRGCRV@@QAANN@Z   1001d4b8 f drbezier.obj
 0001:0001c4bd       ?DB1@DRGCRV@@QAANN@Z       1001d4bd f drbezier.obj
 0001:0001c4e0       __nep?DB2@DRGCRV@@QAANN@Z  1001d4e0 f drbezier.obj
 0001:0001c4e0       __pcd_tbl?DB2@DRGCRV@@QAANN@Z 1001d4e0 f drbezier.obj
 0001:0001c4e8       __fh?DB2@DRGCRV@@QAANN@Z   1001d4e8 f drbezier.obj
 0001:0001c4ed       ?DB2@DRGCRV@@QAANN@Z       1001d4ed f drbezier.obj
 0001:0001c50c       __nep?DB3@DRGCRV@@QAANN@Z  1001d50c f drbezier.obj
 0001:0001c50c       __pcd_tbl?DB3@DRGCRV@@QAANN@Z 1001d50c f drbezier.obj
 0001:0001c514       __fh?DB3@DRGCRV@@QAANN@Z   1001d514 f drbezier.obj
 0001:0001c519       ?DB3@DRGCRV@@QAANN@Z       1001d519 f drbezier.obj
 0001:0001c52c       __pcd_tbl?ComputeLeftTangent@DRGCRV@@QAAXPAU_DPOINT@@H0@Z 1001d52c f drbezier.obj
 0001:0001c534       __nep?ComputeLeftTangent@DRGCRV@@QAAXPAU_DPOINT@@H0@Z 1001d534 f drbezier.obj
 0001:0001c53c       __fh?ComputeLeftTangent@DRGCRV@@QAAXPAU_DPOINT@@H0@Z 1001d53c f drbezier.obj
 0001:0001c53e       ?ComputeLeftTangent@DRGCRV@@QAAXPAU_DPOINT@@H0@Z 1001d53e f drbezier.obj
 0001:0001c550       __pcd_tbl?ComputeRightTangent@DRGCRV@@QAAXPAU_DPOINT@@H0@Z 1001d550 f drbezier.obj
 0001:0001c558       __nep?ComputeRightTangent@DRGCRV@@QAAXPAU_DPOINT@@H0@Z 1001d558 f drbezier.obj
 0001:0001c560       __fh?ComputeRightTangent@DRGCRV@@QAAXPAU_DPOINT@@H0@Z 1001d560 f drbezier.obj
 0001:0001c562       ?ComputeRightTangent@DRGCRV@@QAAXPAU_DPOINT@@H0@Z 1001d562 f drbezier.obj
 0001:0001c578       __pcd_tbl?ComputeCenterTangent@DRGCRV@@QAAXPAU_DPOINT@@H0@Z 1001d578 f drbezier.obj
 0001:0001c580       __nep?ComputeCenterTangent@DRGCRV@@QAAXPAU_DPOINT@@H0@Z 1001d580 f drbezier.obj
 0001:0001c588       __fh?ComputeCenterTangent@DRGCRV@@QAAXPAU_DPOINT@@H0@Z 1001d588 f drbezier.obj
 0001:0001c58a       ?ComputeCenterTangent@DRGCRV@@QAAXPAU_DPOINT@@H0@Z 1001d58a f drbezier.obj
 0001:0001c5c8       __pcd_tbl?ChordLengthParameterize@DRGCRV@@QAAXPAU_DPOINT@@HHPAN@Z 1001d5c8 f drbezier.obj
 0001:0001c5cc       __nep?ChordLengthParameterize@DRGCRV@@QAAXPAU_DPOINT@@HHPAN@Z 1001d5cc f drbezier.obj
 0001:0001c5d4       __fh?ChordLengthParameterize@DRGCRV@@QAAXPAU_DPOINT@@HHPAN@Z 1001d5d4 f drbezier.obj
 0001:0001c5d6       ?ChordLengthParameterize@DRGCRV@@QAAXPAU_DPOINT@@HHPAN@Z 1001d5d6 f drbezier.obj
 0001:0001c64c       __pcd_tbl?DComputeMaxError@DRGCRV@@QAANPAU_DPOINT@@HH0PANPAH@Z 1001d64c f drbezier.obj
 0001:0001c658       __nep?DComputeMaxError@DRGCRV@@QAANPAU_DPOINT@@HH0PANPAH@Z 1001d658 f drbezier.obj
 0001:0001c660       __fh?DComputeMaxError@DRGCRV@@QAANPAU_DPOINT@@HH0PANPAH@Z 1001d660 f drbezier.obj
 0001:0001c662       ?DComputeMaxError@DRGCRV@@QAANPAU_DPOINT@@HH0PANPAH@Z 1001d662 f drbezier.obj
 0001:0001c6cc       ?FInitSp@DG@@QAAHPAUMSOSP@@@Z 1001d6cc f drdg.obj
 0001:0001c760       ?FGetDispatchObj@MSOSP@@UAAHPAUMSOINST@@PAVDG@@PAVDGUI@@PAPAUIDispatch@@@Z 1001d760 f drdg.obj
 0001:0001c958       ?PsplNext@@YAPAUSPL@@PAU1@@Z 1001d958 f drdg.obj
 0001:0001c9c0       ?PsplParent@@YAPAUSPL@@PAU1@@Z 1001d9c0 f drdg.obj
 0001:0001ca1c       ?PsplPrevSibling@@YAPAUSPL@@PAU1@0@Z 1001da1c f drdg.obj
 0001:0001caa0       ?PspOfPsplAny@@YAPAUMSOSP@@PAUSPL@@@Z 1001daa0 f drdg.obj
 0001:0001cb28       ?PsplOfPsp@@YAPAUSPL@@PAUMSOSP@@HH@Z 1001db28 f drdg.obj
 0001:0001cba8       _MsoInitDgsi               1001dba8 f drdg.obj
 0001:0001cc1c       ??0DG@@QAA@XZ              1001dc1c f drdg.obj
 0001:0001cd08       __pcd_tbl?FMakingUndoRecord@DG@@UAAHXZ 1001dd08 f drdg.obj
 0001:0001cd08       __nep?FMakingUndoRecord@DG@@UAAHXZ 1001dd08 f drdg.obj
 0001:0001cd10       __fh?FMakingUndoRecord@DG@@UAAHXZ 1001dd10 f drdg.obj
 0001:0001cd12       ?FMakingUndoRecord@DG@@UAAHXZ 1001dd12 f drdg.obj
 0001:0001cd1c       ??1DG@@QAA@XZ              1001dd1c f drdg.obj
 0001:0001d004       ?FInit@DG@@QAAHXZ          1001e004 f drdg.obj
 0001:0001d124       ?PeventList@DG@@QAAPAVGELEventList@@XZ 1001e124 f drdg.obj
 0001:0001d21c       ?HandleEvents@DG@@UAAXXZ   1001e21c f drdg.obj
 0001:0001d38c       ?QueryInterface@DG@@UAAJABUGUID@@PAPAX@Z 1001e38c f drdg.obj
 0001:0001d534       ?Free@DG@@UAAXXZ           1001e534 f drdg.obj
 0001:0001d5a4       ?PdgsiBeginUpdate@DG@@UAAPAU_MSODGSI@@H@Z 1001e5a4 f drdg.obj
 0001:0001d5fc       ?EndDgsiUpdate@DG@@UAAXPAU_MSODGSI@@H@Z 1001e5fc f drdg.obj
 0001:0001d64c       ?InitAccessRequest@DG@@UAAXPAUMSODGAR@@@Z 1001e64c f drdg.obj
 0001:0001d6a0       ?FMakeAccessRequest@DG@@UAAHPAUMSODGAR@@@Z 1001e6a0 f drdg.obj
 0001:0001d6f8       ?ReleaseAccessRequest@DG@@UAAXPAUMSODGAR@@@Z 1001e6f8 f drdg.obj
 0001:0001d750       ?FBeginReadAccess@DG@@UAAHXZ 1001e750 f drdg.obj
 0001:0001d7a8       ?EndReadAccess@DG@@UAAXXZ  1001e7a8 f drdg.obj
 0001:0001d7f8       ?FBeginWriteAccess@DG@@UAAHXZ 1001e7f8 f drdg.obj
 0001:0001d850       ?EndWriteAccess@DG@@UAAXXZ 1001e850 f drdg.obj
 0001:0001d8a0       ?FQueryShape@DG@@UAAHPAUMSOSP@@W4MSOSPQ@@@Z 1001e8a0 f drdg.obj
 0001:0001d9d4       ?FBeginMarkShapes@DG@@UAAHXZ 1001e9d4 f drdg.obj
 0001:0001da7c       ?MarkShape@DG@@UAAXPAUMSOSP@@@Z 1001ea7c f drdg.obj
 0001:0001dad4       ?FIsShapeMarked@DG@@UAAHPAUMSOSP@@@Z 1001ead4 f drdg.obj
 0001:0001db30       ?FIsShapeMarkedSelected@DG@@UAAHPAUMSOSP@@@Z 1001eb30 f drdg.obj
 0001:0001db94       ?EndMarkShapes@DG@@UAAXH@Z 1001eb94 f drdg.obj
 0001:0001dc78       ?BeginEnumerateShapes@DG@@UAAXPAUMSODGEN@@@Z 1001ec78 f drdg.obj
 0001:0001dd14       ?FEnumerateShapes@DG@@UAAHPAUMSODGEN@@@Z 1001ed14 f drdg.obj
 0001:0001e010       ?SkipChildrenWhileEnumerateShapes@DG@@UAAXPAUMSODGEN@@@Z 1001f010 f drdg.obj
 0001:0001e0a0       ?BeginEnumerateShapeAndChildren@DG@@QAAXPAUMSODGEN@@PAUMSOSP@@@Z 1001f0a0 f drdg.obj
 0001:0001e11c       ?FEnumerateShapeAndChildren@DG@@QAAHPAUMSODGEN@@@Z 1001f11c f drdg.obj
 0001:0001e220       ?BeginEnumerateAllShapes@DG@@QAAXPAUMSODGEN@@@Z 1001f220 f drdg.obj
 0001:0001e2b0       ?FEnumerateAllShapes@DG@@QAAHPAUMSODGEN@@@Z 1001f2b0 f drdg.obj
 0001:0001e3e4       ?FIsShapeGroup@DG@@UAAHPAUMSOSP@@@Z 1001f3e4 f drdg.obj
 0001:0001e440       ?FIsShapeChild@DG@@UAAHPAUMSOSP@@@Z 1001f440 f drdg.obj
 0001:0001e49c       ?FIsShapeDeleted@DG@@UAAHPAUMSOSP@@@Z 1001f49c f drdg.obj
 0001:0001e4fc       ?FPurge@DG@@UAAHPAX@Z      1001f4fc f drdg.obj
 0001:0001e620       ?FAquireBlipsInShapes@DG@@QAAHPAV?$MSOTPX@UBIDC@@@@PAVDGG@@H@Z 1001f620 f drdg.obj
 0001:0001e8c0       ?FIsTextureBlip@@YAHPAVOPT@@@Z 1001f8c0 f drdg.obj
 0001:0001e948       ?FGetBidcs@DG@@QAAHPAV?$MSOTPX@UBIDC@@@@PAVDGG@@@Z 1001f948 f drdg.obj
 0001:0001e998       ?ReleaseBogusBlips@DG@@QAAXPAV?$MSOTPX@UBIDC@@@@PAVDGG@@@Z 1001f998 f drdg.obj
 0001:0001ea2c       ?CommitBlipsToShapes@DG@@QAAXPAV?$MSOTPX@UBIDC@@@@PAVDGG@@HH@Z 1001fa2c f drdg.obj
 0001:0001ec10       ?FMove@DG@@UAAHPAUIMsoDrawingGroup@@PAX@Z 1001fc10 f drdg.obj
 0001:0001eec8       ?FClone@DG@@UAAHPAUIMsoDrawingGroup@@PAU_MSODGSI@@PAPAUIMsoDrawing@@HPAX@Z 1001fec8 f drdg.obj
 0001:0001efe4       ?FDeleteOrPurgeMarkedSp@DG@@QAAHHHPAUDGC@@PAUMSOPSD@@@Z 1001ffe4 f drdg.obj
 0001:0001f188       ?FDeleteSp@DG@@QAAHPAUMSOSP@@HHPAUDGC@@@Z 10020188 f drdg.obj
 0001:0001f44c       ?FUndeleteSp@DG@@QAAHPAUMSOSP@@H@Z 1002044c f drdg.obj
 0001:0001f600       ?PurgeSp@DG@@QAAXPAUMSOSP@@PAUDGC@@PAUMSOPSD@@@Z 10020600 f drdg.obj
 0001:0001f7c0       ?FExtractSp@DG@@QAAHPAUSPL@@00@Z 100207c0 f drdg.obj
 0001:0001f888       ?PsplExtractShape@DG@@QAAPAUSPL@@PAU2@0@Z 10020888 f drdg.obj
 0001:0001f8f8       ?ExtractSpNoUndo@DG@@QAAXPAUSPL@@00@Z 100208f8 f drdg.obj
 0001:0001f970       ?FInsertShapes@DG@@QAAHPAUSPL@@00@Z 10020970 f drdg.obj
 0001:0001fa38       ?FPropChangesWrap@DG@@QAAHW4MSOPID@@@Z 10020a38 f drdg.obj
 0001:0001fac0       ?FApplyPropertiesToShape@DG@@UAAHPAUMSOSP@@PAUMSOSPP@@HK@Z 10020ac0 f drdg.obj
 0001:0001fb20       ?FApplyRgsppToSp@DG@@QAAHPAUMSOSP@@PAUMSOSPP@@HK@Z 10020b20 f drdg.obj
 0001:0001fdb0       ?FApplyRgsppToOneSp@DG@@QAAHPAUMSOSP@@PAUMSOSPP@@HK@Z 10020db0 f drdg.obj
 0001:0001fe70       ?FHandleFakeSppid@@YAHPAVDG@@PAUMSOSP@@UMSOSPP@@KHPAH@Z 10020e70 f drdg.obj
 0001:00020ab0       ?FShapeCanHaveProperty@@YAHPAUMSOSP@@PAUMSOSPP@@@Z 10021ab0 f drdg.obj
 0001:00020d28       ?FApplySppToOneSp@DG@@QAAHPAUMSOSP@@PAUMSOSPP@@K@Z 10021d28 f drdg.obj
 0001:00021134       ?FFetchPropertiesFromShape@DG@@UAAHPAUMSOSP@@PAUMSOSPP@@HK@Z 10022134 f drdg.obj
 0001:00021194       ?FFetchRgsppFromSp@DG@@QAAHPAUMSOSP@@PAUMSOSPP@@HK@Z 10022194 f drdg.obj
 0001:00021308       ?FDeleteShape@DG@@UAAHPAUMSOSP@@HPAX@Z 10022308 f drdg.obj
 0001:000213f4       ?FCloneShapeCore@DG@@QAAHPAUMSOSP@@PAV1@PAPAU2@HHPAUMSOCSD@@@Z 100223f4 f drdg.obj
 0001:000217ac       ?FCloneShape@DG@@UAAHPAUMSOSP@@PAUIMsoDrawing@@PAPAU2@HPAX@Z 100227ac f drdg.obj
 0001:000218b4       ?FDeleteMarkedShapes@DG@@UAAHHHPAX@Z 100228b4 f drdg.obj
 0001:000219cc       ?FCloneShapesCore@DG@@QAAHPAV1@HHHPAUMSOCSD@@@Z 100229cc f drdg.obj
 0001:0002212c       ?FCloneMarkedShapes@DG@@UAAHPAUIMsoDrawing@@HHPAX@Z 1002312c f drdg.obj
 0001:00022260       ?PidggGet@DG@@UAAPAUIMsoDrawingGroup@@XZ 10023260 f drdg.obj
 0001:000222b0       ?FDebugMessage@DG@@UAAHPAUMSOINST@@IIJ@Z 100232b0 f drdg.obj
 0001:00022304       ?InitEnumAllGroups@DG@@QAAXPAUDGEN@@@Z 10023304 f drdg.obj
 0001:00022360       ?FEnumAllGroups@DG@@QAAHPAUDGEN@@@Z 10023360 f drdg.obj
 0001:00022434       ?BeginUsingTempShapeSpace@DG@@UAAXH@Z 10023434 f drdg.obj
 0001:00022538       ?EndUsingTempShapeSpace@DG@@UAAXXZ 10023538 f drdg.obj
 0001:000225a0       ?SetTempShapeSpace@DG@@UAAXPAUMSOSP@@K@Z 100235a0 f drdg.obj
 0001:000225f8       ?GetTempShapeSpace@DG@@UAAXPAUMSOSP@@PAK@Z 100235f8 f drdg.obj
 0001:00022654       ?FSortShapesByTempSpace@DG@@UAAHXZ 10023654 f drdg.obj
 0001:000228d4       ?FChangeUndelete@DG@@QAAHPAUMSOSP@@@Z 100238d4 f drdg.obj
 0001:00022974       ?FChangePspl@DG@@QAAHPAUSPL@@0@Z 10023974 f drdg.obj
 0001:000229ec       ?FChangeBounds@DG@@QAAHPAUMSOSP@@PAPAXE@Z 100239ec f drdg.obj
 0001:00022ad0       ?FChangePvAnchor@DG@@QAAHPAUMSOSP@@PAUtagRECT@@HPAX@Z 10023ad0 f drdg.obj
 0001:00022ba0       ?FChangeRit@DG@@QAAHHPAURIT@@E@Z 10023ba0 f drdg.obj
 0001:00022c78       ?FBeginUndoRecord@DG@@UAAHXZ 10023c78 f drdg.obj
 0001:00022d98       ?FEndUndoRecord@DG@@UAAHHPAUIMsoDrawingSelection@@@Z 10023d98 f drdg.obj
 0001:00022f48       ?FEnsureRoomInUndoRecord@DG@@QAAHH@Z 10023f48 f drdg.obj
 0001:00023000       ?FAddToUndoRecord@DG@@QAAHPAEH@Z 10024000 f drdg.obj
 0001:000230cc       ?FAddToUndoRecordMaybe@DG@@QAAHPAEH@Z 100240cc f drdg.obj
 0001:00023144       ?FBeginUndo@DG@@QAAHXZ     10024144 f drdg.obj
 0001:000231dc       ?FBeginUndo2@DG@@QAAHXZ    100241dc f drdg.obj
 0001:0002325c       ?FEndUndo@DG@@QAAHHH@Z     1002425c f drdg.obj
 0001:00023300       ?FEndUndo2@DG@@QAAHHH@Z    10024300 f drdg.obj
 0001:000233dc       ?FExecuteUndoRecord@DG@@UAAHPAXHPAUIMsoDrawingSelection@@@Z 100243dc f drdg.obj
 0001:00023ad8       ?FCloneUndoRecord@DG@@UAAHPAXPAPAX@Z 10024ad8 f drdg.obj
 0001:00023f64       ?FBeginReconcile@DG@@UAAHPAUIMsoDrawing@@@Z 10024f64 f drdg.obj
 0001:00024100       ?EndReconcile@DG@@UAAXXZ   10025100 f drdg.obj
 0001:00024174       ?FCompareSp@@YAHPAUSPSORT@@0@Z 10025174 f drdg.obj
 0001:000241dc       ?FReconcile@DG@@UAAHXZ     100251dc f drdg.obj
 0001:00024604       ?FreeUndoRecord@DG@@UAAXPAXH@Z 10025604 f drdg.obj
 0001:000246d4       ?FreeUndoRecordPiece@DG@@QAAXPAEH@Z 100256d4 f drdg.obj
 0001:00024974       ?FRegisterShapeUndoRecord@DG@@UAAHPAXPAUMSOSP@@@Z 10025974 f drdg.obj
 0001:000249f0       ?FRegisterRuleUndoRecord@DG@@UAAHPAXPAUIMsoRule@@@Z 100259f0 f drdg.obj
 0001:00024a9c       ?FRegisterUndoSelection@DG@@QAAHPAUIMsoDrawingSelection@@E@Z 10025a9c f drdg.obj
 0001:00024bdc       ?FRegisterUndoSolver@DG@@QAAHPAUIMsoRule@@E@Z 10025bdc f drdg.obj
 0001:00024c84       ?SetPvAnchorOfHsp@DG@@UAAXPAXPAUMSOSP@@@Z 10025c84 f drdg.obj
 0001:00024d0c       ?GetPvAnchorOfHsp@DG@@UAAXPAPAXPAUMSOSP@@@Z 10025d0c f drdg.obj
 0001:00024d6c       ?SetClientDataOfHsp@DG@@UAAXPAXPAUMSOSP@@@Z 10025d6c f drdg.obj
 0001:00024de0       ?GetClientDataOfHsp@DG@@UAAXPAPAXPAUMSOSP@@@Z 10025de0 f drdg.obj
 0001:00024e40       _MsoGetPvAnchorOfHsp       10025e40 f drdg.obj
 0001:00024e9c       _MsoGetClientDataOfHsp     10025e9c f drdg.obj
 0001:00024ef8       _MsoPidgFromHsp            10025ef8 f drdg.obj
 0001:00024f48       ?FDeletedHsp@DG@@UAAHPAUMSOSP@@@Z 10025f48 f drdg.obj
 0001:00024fa4       ?MarkDrilledGroups@DG@@QAAXXZ 10025fa4 f drdg.obj
 0001:000250b4       ?UngroupShape@DG@@QAAXPAUSPL@@@Z 100260b4 f drdg.obj
 0001:0002519c       ?RemoveEmptyGroup@DG@@QAAXPAVSPGR@@@Z 1002619c f drdg.obj
 0001:00025270       ?MarkRgpsp@@YAXPAPAUMSOSP@@H@Z 10026270 f drdg.obj
 0001:000252dc       ?FConvertShapeToPolygon@DG@@UAAHPAUMSOSP@@HHPAPAUtagPOINT@@PAKPAH@Z 100262dc f drdg.obj
 0001:00025354       ?FDrawShape@DG@@UAAHPAUMSOSP@@PAUMSODC@@PAU_MSOSVI@@@Z 10026354 f drdg.obj
 0001:000253fc       ?FDrawShapes@DG@@QAAHPAUMSODC@@PAUtagPOINT@@PAUtagRECT@@HH2@Z 100263fc f drdg.obj
 0001:00025ab4       ?HDrawShapesInMetafile@DG@@UAAPAXPADH@Z 10026ab4 f drdg.obj
 0001:00025d54       ?FCancelCreateShape@DG@@QAAHPAUMSOSP@@@Z 10026d54 f drdg.obj
 0001:00025df0       ?FCreateBuiltInShape@DG@@UAAHPAPAUMSOSP@@PAUtagRECT@@PAXW4MSOSPT@@@Z 10026df0 f drdg.obj
 0001:0002605c       ?FCreatePolyLineShape@DG@@UAAHPAPAUMSOSP@@W4MSOSPT@@PAUtagRECT@@PAXPBUMSOCPLB@@@Z 1002705c f drdg.obj
 0001:000262cc       ?FCreatePolygon@DG@@QAAHPAUDGCB@@PAVCURVE@@@Z 100272cc f drdg.obj
 0001:000269c0       ?FCreateBlipShape@DG@@UAAHPAPAUMSOSP@@PAUtagRECT@@PAXPAUIMsoBlip@@PBG4W4MSOBLIPFLAGS@@HH@Z 100279c0 f drdg.obj
 0001:00027008       ?ApplyDefaultsToNewShape@DG@@QAAXPAUMSOSP@@@Z 10028008 f drdg.obj
 0001:00027190       ?FUpdateBlips@DG@@UAAHPAUMSOSP@@H@Z 10028190 f drdg.obj
 0001:000272f4       ?FAppendShape@DG@@UAAHPAUMSOSP@@PAUIMsoDrawingSelection@@@Z 100282f4 f drdg.obj
 0001:000273cc       ?FCreateHsp@DG@@UAAHPAPAUMSOSP@@W4MSOSPT@@PAUtagRECT@@PAXPAU2@4PAPAXH@Z 100283cc f drdg.obj
 0001:000279d0       ?FAddTextToShape@DG@@QAAHPAUMSOSP@@@Z 100289d0 f drdg.obj
 0001:00027b30       ?FGetRelatedShape@DG@@UAAHPAPAUMSOSP@@W4MSODGRST@@@Z 10028b30 f drdg.obj
 0001:00027be4       _MsoFGetRelatedShape       10028be4 f drdg.obj
 0001:00027d38       _MsoHspNextRoot            10028d38 f drdg.obj
 0001:00027dc4       _MsoHspNextAll             10028dc4 f drdg.obj
 0001:00027e68       ?FGetFirstShape@DG@@UAAHPAPAUMSOSP@@PAPAX@Z 10028e68 f drdg.obj
 0001:00027f08       ?FGetLastShape@DG@@UAAHPAPAUMSOSP@@PAPAX@Z 10028f08 f drdg.obj
 0001:00027fa8       ?FMarkTreeOfHsp@DG@@QAAHPAUMSOSP@@@Z 10028fa8 f drdg.obj
 0001:0002808c       ?FSetPrchOfHsp@DG@@QAAHPAUtagRECT@@PAUMSOSP@@H@Z 1002908c f drdg.obj
 0001:0002874c       ?FLocatePrchOfHsp@DG@@UAAHPAUtagRECT@@PAUMSOSP@@@Z 1002974c f drdg.obj
 0001:0002895c       ?FGetXfrmOfHsp@DG@@QAAHPAUXFRM@@PAUMSOSP@@@Z 1002995c f drdg.obj
 0001:00028b9c       ?FBuildSpcrdOfChildren@DG@@QAAHPAUMSOSP@@PAU_SPCOORD@@PAV?$MSOTPX@U_SPCOORD@@@@H@Z 10029b9c f drdg.obj
 0001:00029a90       ?FLocateRotatedPrchOfHsp@DG@@QAAHPAUtagRECT@@PAUMSOSP@@@Z 1002aa90 f drdg.obj
 0001:00029b4c       ?FGetTxid@DG@@UAAHPAUMSOSP@@PAJ@Z 1002ab4c f drdg.obj
 0001:00029ba8       ?FSetTxid@DG@@UAAHPAUMSOSP@@JH@Z 1002aba8 f drdg.obj
 0001:00029c08       ?FGetTextFrameRch@DG@@UAAHPAUMSOSP@@PAUtagRECT@@@Z 1002ac08 f drdg.obj
 0001:00029c7c       ?FGetNextTextHsp@DG@@UAAHPAUMSOSP@@PAPAU2@@Z 1002ac7c f drdg.obj
 0001:00029ce0       ?FSetNextTextHsp@DG@@UAAHPAUMSOSP@@0H@Z 1002ace0 f drdg.obj
 0001:00029d48       ?FSetTextFrameRch@DG@@UAAHPAUMSOSP@@PAUtagRECT@@@Z 1002ad48 f drdg.obj
 0001:00029dbc       ?NCollectGarbage@DG@@UAAHXZ 1002adbc f drdg.obj
 0001:00029ea4       ?EnumFontRecord@@YA?AW4MSORECOLORRESULT@@PBUMSOBDRAWPARAM@@W4MSOBLIPTYPE@@PAXPAJ2J@Z 1002aea4 f drdg.obj
 0001:00029ffc       ?FEnumFonts@DG@@UAAHP6AHPBUtagLOGFONTW@@PAX@Z1K@Z 1002affc f drdg.obj
 0001:0002a374       ?FSetArc@DG@@UAAHPAUMSOSP@@PAUtagRECT@@PAUtagPOINT@@2@Z 1002b374 f drdg.obj
 0001:0002a4a8       ?GetArc@DG@@UAAXPAUMSOSP@@PAUtagRECT@@PAUtagPOINT@@2@Z 1002b4a8 f drdg.obj
 0001:0002a53c       ?FCreateViewGroup@DG@@UAAHPAPAUIMsoDrawingViewGroup@@@Z 1002b53c f drdg.obj
 0001:0002a67c       ?FCreateSelection@DG@@UAAHPAPAUIMsoDrawingSelection@@PAU_MSODGSLSI@@@Z 1002b67c f drdg.obj
 0001:0002a72c       ?CShapes@DG@@UAAHH@Z       1002b72c f drdg.obj
 0001:0002a808       ?Update@DG@@UAAXXZ         1002b808 f drdg.obj
 0001:0002a888       ?Invalidate@DG@@UAAXKPAUMSOSP@@@Z 1002b888 f drdg.obj
 0001:0002aad0       ?EveryoneCopeWithInval@DG@@QAAXXZ 1002bad0 f drdg.obj
 0001:0002abf0       ?ClearInval@DG@@QAAXXZ     1002bbf0 f drdg.obj
 0001:0002acf8       ?FGetDispShapes@DG@@UAAHPAUIMsoDrawingUserInterface@@PAPAUIDispatch@@@Z 1002bcf8 f drdg.obj
 0001:0002ade4       ?FGetDispShape@DG@@QAAHHPAVDGSL@@PAVDGUI@@PAPAUIDispatch@@@Z 1002bde4 f drdg.obj
 0001:0002af88       ?FGetWrappedDispShape@DG@@QAAHHPAVDGSL@@PAVDGUI@@PAPAUIDispatch@@@Z 1002bf88 f drdg.obj
 0001:0002b030       ?PidispFromHsp@DG@@UAAPAUIDispatch@@PAUMSOSP@@PAUIMsoDrawingUserInterface@@@Z 1002c030 f drdg.obj
 0001:0002b184       ?PidispWrappedFromHsp@DG@@QAAPAUIDispatch@@PAUMSOSP@@PAVDGUI@@@Z 1002c184 f drdg.obj
 0001:0002b25c       ?HspFromPidisp@DG@@UAAPAUMSOSP@@PAUIDispatch@@@Z 1002c25c f drdg.obj
 0001:0002b33c       ?FCreateConnector@DG@@UAAHPAPAUMSOSP@@PAUtagRECT@@PAXW4MSOCXSTYLE@@@Z 1002c33c f drdg.obj
 0001:0002b65c       ?FIsConnector@DG@@UAAHPAUMSOSP@@@Z 1002c65c f drdg.obj
 0001:0002b6b8       ?FAttach@DG@@UAAHPAUMSOSP@@W4MSOCXSP@@0H@Z 1002c6b8 f drdg.obj
 0001:0002b7f8       ?FIsAttached@DG@@UAAHPAUMSOSP@@W4MSOCXSP@@PAPAU2@PAH@Z 1002c7f8 f drdg.obj
 0001:0002b918       ?FCreateSolver@DG@@QAAHXZ  1002c918 f drdg.obj
 0001:0002b99c       ?FAddRule@DG@@UAAHPAUIMsoRule@@@Z 1002c99c f drdg.obj
 0001:0002ba68       ?RemoveRule@DG@@UAAXPAUIMsoRule@@@Z 1002ca68 f drdg.obj
 0001:0002bac8       ?CRules@DG@@UAAHXZ         1002cac8 f drdg.obj
 0001:0002bb2c       ?GetRule@DG@@UAAXHPAPAUIMsoRule@@@Z 1002cb2c f drdg.obj
 0001:0002bb8c       ?PiruFromRuid@DG@@UAAPAUIMsoRule@@K@Z 1002cb8c f drdg.obj
 0001:0002bbf8       ?FOnRuleChange@DG@@UAAHPAUIMsoRule@@W4MSORUC@@H@Z 1002cbf8 f drdg.obj
 0001:0002bc64       ?FHasPropChanges@DG@@UAAHPAUMSOSP@@W4MSOPID@@1@Z 1002cc64 f drdg.obj
 0001:0002bce4       ?RemovePropChange@DG@@UAAXPAUMSOSP@@W4MSOPID@@@Z 1002cce4 f drdg.obj
 0001:0002bd5c       ?RemovePropSetChange@DG@@UAAXPAUMSOSP@@W4MSOPSID@@@Z 1002cd5c f drdg.obj
 0001:0002bdd8       ?FetchPropWithChanges@DG@@UAAXPAUMSOSP@@W4MSOPID@@PAX@Z 1002cdd8 f drdg.obj
 0001:0002be88       ?FetchPropSetWithChanges@DG@@UAAXPAUMSOSP@@W4MSOPSID@@PAX@Z 1002ce88 f drdg.obj
 0001:0002bf30       ?FSetProp@DG@@UAAHPAUMSOSP@@W4MSOPID@@PAX@Z 1002cf30 f drdg.obj
 0001:0002bfbc       ?FResetProp@DG@@UAAHPAUMSOSP@@W4MSOPID@@@Z 1002cfbc f drdg.obj
 0001:0002c040       ?FSetPropSet@DG@@UAAHPAUMSOSP@@W4MSOPSID@@PAX@Z 1002d040 f drdg.obj
 0001:0002c0d0       ?FetchProp@DG@@UAAXPAUMSOSP@@W4MSOPID@@PAX@Z 1002d0d0 f drdg.obj
 0001:0002c15c       ?FetchPropSet@DG@@UAAXPAUMSOSP@@W4MSOPSID@@PAX@Z 1002d15c f drdg.obj
 0001:0002c1e0       ?InitEnumProps@DG@@UAAXPAUMSOSP@@PAUMSOPENUM@@@Z 1002d1e0 f drdg.obj
 0001:0002c260       ?FEnumProps@DG@@UAAHPAUMSOSP@@PAUMSOPENUM@@@Z 1002d260 f drdg.obj
 0001:0002c5b0       ?FPropInfoFromSz@DG@@UAAHPADPAUMSOPENUM@@@Z 1002d5b0 f drdg.obj
 0001:0002c68c       ?FAddWrapPolygon@DG@@UAAHPAUMSOSP@@H@Z 1002d68c f drdg.obj
 0001:0002c8c4       ?FShrinkWrap@DG@@QAAHPAUMSOSP@@PAPAUtagPOINT@@PAH@Z 1002d8c4 f drdg.obj
 0001:0002cad8       ?FGetBounds@DG@@QAAHPAUtagRECT@@@Z 1002dad8 f drdg.obj
 0001:0002cc04       ?GetUrpInfo@@YAXPAE0PAH@Z  1002dc04 f drdg.obj
 0001:0002cd44       ?ReversePbUrpList@@YAXPAEH@Z 1002dd44 f drdg.obj
 0001:0002cf1c       ?InitEvent@DG@@QAAXPAUMSODGEB@@W4MSODGE@@@Z 1002df1c f drdg.obj
 0001:0002cf70       ?FFireEvent@DG@@QAAHPAUMSODGEB@@H@Z 1002df70 f drdg.obj
 0001:0002d00c       ?FFireEvent@DG@@QAAHW4MSODGE@@IJH@Z 1002e00c f drdg.obj
 0001:0002d0d0       _MsoInitDggsi              1002e0d0 f drdg.obj
 0001:0002d148       _MsoFCreateDrawingGroup    1002e148 f drdg.obj
 0001:0002d2c0       ??0DGG@@QAA@XZ             1002e2c0 f drdg.obj
 0001:0002d3ac       ??1DGG@@QAA@XZ             1002e3ac f drdg.obj
 0001:0002d554       ?QueryInterface@DGG@@UAAJABUGUID@@PAPAX@Z 1002e554 f drdg.obj
 0001:0002d670       ?Free@DGG@@UAAXXZ          1002e670 f drdg.obj
 0001:0002d6e0       ?PdggsiBeginUpdate@DGG@@UAAPAU_MSODGGSI@@H@Z 1002e6e0 f drdg.obj
 0001:0002d738       ?EndDggsiUpdate@DGG@@UAAXPAU_MSODGGSI@@H@Z 1002e738 f drdg.obj
 0001:0002d78c       ?FClone@DGG@@UAAHPAU_MSODGGSI@@PAPAUIMsoDrawingGroup@@@Z 1002e78c f drdg.obj
 0001:0002d918       ?ClearPurgedProps@DGG@@QAAXPAUMSOSP@@@Z 1002e918 f drdg.obj
 0001:0002d9dc       ?FFreePurgedStuff@DGG@@UAAHXZ 1002e9dc f drdg.obj
 0001:0002dcf8       ?FFindDrawing@DGG@@UAAHPAPAUIMsoDrawing@@K@Z 1002ecf8 f drdg.obj
 0001:0002dd80       ?PidgFromPidisp@DGG@@UAAPAUIMsoDrawing@@PAUIDispatch@@@Z 1002ed80 f drdg.obj
 0001:0002de44       ?FEnumFonts@DGG@@UAAHP6AHPBUtagLOGFONTW@@PAX@Z1K@Z 1002ee44 f drdg.obj
 0001:0002df0c       ?FCreateDrawing@DGG@@UAAHPAPAUIMsoDrawing@@PAU_MSODGSI@@@Z 1002ef0c f drdg.obj
 0001:0002df9c       ?FCreateDrawingCore@DGG@@QAAHPAPAVDG@@PAU_MSODGSI@@@Z 1002ef9c f drdg.obj
 0001:0002e0f8       ?FRemoveDrawingFromList@DGG@@QAAHPAVDG@@@Z 1002f0f8 f drdg.obj
 0001:0002e1d8       ?FDebugMessage@DGG@@UAAHPAUMSOINST@@IIJ@Z 1002f1d8 f drdg.obj
 0001:0002e22c       ?InitEnumAllDrawings@DGG@@QAAXPAUDGGEN@@@Z 1002f22c f drdg.obj
 0001:0002e28c       ?FEnumAllDrawings@DGG@@QAAHPAUDGGEN@@@Z 1002f28c f drdg.obj
 0001:0002e304       ?FFireEvent@DGG@@QAAHW4MSODGE@@IJH@Z 1002f304 f drdg.obj
 0001:0002e3b0       ?FApplyRgsppToDefaults@DGG@@QAAHPAUMSOSPP@@HK@Z 1002f3b0 f drdg.obj
 0001:0002e57c       ?FFetchDefaults@DGG@@UAAHPAUMSOSPP@@HK@Z 1002f57c f drdg.obj
 0001:0002e5e8       ?FSetDefaults@DGG@@UAAHPAUMSOSPP@@HK@Z 1002f5e8 f drdg.obj
 0001:0002e63c       ?FApplyDefaults@DGG@@UAAHPAUIMsoDrawingGroup@@K@Z 1002f63c f drdg.obj
 0001:0002e6ec       ?FAddColorToMRU@DGG@@UAAHK@Z 1002f6ec f drdg.obj
 0001:0002e790       ?CColorsInMRU@DGG@@UAAHXZ  1002f790 f drdg.obj
 0001:0002e7fc       ?FGetColorFromMRU@DGG@@UAAHPAKH@Z 1002f7fc f drdg.obj
 0001:0002e870       ?InitRgsppCore@@YAXPAUMSOSPP@@PAHPAUMSOPIDEN@@@Z 1002f870 f drdg.obj
 0001:0002e95c       _MsoInitRgspp              1002f95c f drdg.obj
 0001:0002ea0c       _MsoInitDefaultsRgspp      1002fa0c f drdg.obj
 0001:0002eaac       ?InitStyleRgspp@@YAXPAUMSOSPP@@PAH@Z 1002faac f drdg.obj
 0001:0002eb44       _MsoFreeSppCore            1002fb44 f drdg.obj
 0001:0002ebb4       _MsoFreeRgspp              1002fbb4 f drdg.obj
 0001:0002ec4c       _MsoClearRgspp             1002fc4c f drdg.obj
 0001:0002ecd0       _MsoFCloneSppCore          1002fcd0 f drdg.obj
 0001:0002edc8       _MsoFCloneRgspp            1002fdc8 f drdg.obj
 0001:0002eeb0       _MsoMoveRgspp              1002feb0 f drdg.obj
 0001:0002ef58       _MsoPsppiFromSppid         1002ff58 f drdg.obj
 0001:0002efb0       _MsoPsppsiFromSppid        1002ffb0 f drdg.obj
 0001:0002f010       ?GetPtOfDot@@YAXHPBUtagRECT@@PAUtagPOINT@@@Z 10030010 f drdg.obj
 0001:0002f12c       ?GetPtOppositeOfDot@@YAXHPBUtagRECT@@PAUtagPOINT@@@Z 1003012c f drdg.obj
 0001:0002f234       ?CalcDotPt@@YAXHPBUtagRECT@@PAUtagPOINT@@@Z 10030234 f drdg.obj
 0001:0002f39c       ?HpictFromHmfp@@YAPAPAUPicture@@PAX@Z 1003039c f drdg.obj
 0001:0002f460       ?HmfpFromHpict@@YAPAXPAPAUPicture@@@Z 10030460 f drdg.obj
 0001:0002f584       ?HUnwrapHandleCf@@YAPAXPAXH@Z 10030584 f drdg.obj
 0001:0002f620       ?HWrapHandleCf@@YAPAXPAPADH@Z 10030620 f drdg.obj
 0001:0002f6c0       ?FSaveShape@DG@@UAAHPAUMSOSVB@@PAUMSOSP@@@Z 100306c0 f drdg.obj
 0001:0002f814       ?FLoadShape@DG@@UAAHPAUMSOLDB@@PAPAUMSOSP@@PAX@Z 10030814 f drdg.obj
 0001:0002fa6c       ?HspGetBackgroundShape@DG@@UAAPAUMSOSP@@XZ 10030a6c f drdg.obj
 0001:0002fac8       ?HspGetRootParent@DG@@UAAPAUMSOSP@@PAU2@@Z 10030ac8 f drdg.obj
 0001:0002fb54       ?FCreateBackgroundShape@DG@@QAAHXZ 10030b54 f drdg.obj
 0001:0002fd00       __nep_MsoInitDgslsi        10030d00 f drdgsl.obj
 0001:0002fd00       __pcd_tbl_MsoInitDgslsi    10030d00 f drdgsl.obj
 0001:0002fd08       __fh_MsoInitDgslsi         10030d08 f drdgsl.obj
 0001:0002fd0a       _MsoInitDgslsi             10030d0a f drdgsl.obj
 0001:0002fd10       ??0DGSL@@QAA@XZ            10030d10 f drdgsl.obj
 0001:0002fdc4       ??1DGSL@@QAA@XZ            10030dc4 f drdgsl.obj
 0001:0002fe80       __pcd_tbl?FCreateDgsl@DGSL@@SAHPAPAV1@PAVDG@@PAU_MSODGSLSI@@PAV1@@Z 10030e80 f drdgsl.obj
 0001:0002fe98       __nep?FCreateDgsl@DGSL@@SAHPAPAV1@PAVDG@@PAU_MSODGSLSI@@PAV1@@Z 10030e98 f drdgsl.obj
 0001:0002fea0       __fh?FCreateDgsl@DGSL@@SAHPAPAV1@PAVDG@@PAU_MSODGSLSI@@PAV1@@Z 10030ea0 f drdgsl.obj
 0001:0002fea2       ?FCreateDgsl@DGSL@@SAHPAPAV1@PAVDG@@PAU_MSODGSLSI@@PAV1@@Z 10030ea2 f drdgsl.obj
 0001:0002ff30       __nep?QueryInterface@DGSL@@UAAJABUGUID@@PAPAX@Z 10030f30 f drdgsl.obj
 0001:0002ff30       __pcd_tbl?QueryInterface@DGSL@@UAAJABUGUID@@PAPAX@Z 10030f30 f drdgsl.obj
 0001:0002ff38       __fh?QueryInterface@DGSL@@UAAJABUGUID@@PAPAX@Z 10030f38 f drdgsl.obj
 0001:0002ff3a       ?QueryInterface@DGSL@@UAAJABUGUID@@PAPAX@Z 10030f3a f drdgsl.obj
 0001:0002ff94       __pcd_tbl?AddRef@DGSL@@UAAKXZ 10030f94 f drdgsl.obj
 0001:0002ff94       __nep?AddRef@DGSL@@UAAKXZ  10030f94 f drdgsl.obj
 0001:0002ff9c       __fh?AddRef@DGSL@@UAAKXZ   10030f9c f drdgsl.obj
 0001:0002ff9e       ?AddRef@DGSL@@UAAKXZ       10030f9e f drdgsl.obj
 0001:0002ffa8       __pcd_tbl?Release@DGSL@@UAAKXZ 10030fa8 f drdgsl.obj
 0001:0002ffb0       __nep?Release@DGSL@@UAAKXZ 10030fb0 f drdgsl.obj
 0001:0002ffb8       __fh?Release@DGSL@@UAAKXZ  10030fb8 f drdgsl.obj
 0001:0002ffba       ?Release@DGSL@@UAAKXZ      10030fba f drdgsl.obj
 0001:0002ffcc       __pcd_tbl?FDebugMessage@DGSL@@UAAHPAUMSOINST@@IIJ@Z 10030fcc f drdgsl.obj
 0001:0002ffcc       __nep?FDebugMessage@DGSL@@UAAHPAUMSOINST@@IIJ@Z 10030fcc f drdgsl.obj
 0001:0002ffd4       __fh?FDebugMessage@DGSL@@UAAHPAUMSOINST@@IIJ@Z 10030fd4 f drdgsl.obj
 0001:0002ffd6       ?FDebugMessage@DGSL@@UAAHPAUMSOINST@@IIJ@Z 10030fd6 f drdgsl.obj
 0001:0002ffd8       __nep?PdgslsiBeginUpdate@DGSL@@UAAPAU_MSODGSLSI@@H@Z 10030fd8 f drdgsl.obj
 0001:0002ffd8       __pcd_tbl?PdgslsiBeginUpdate@DGSL@@UAAPAU_MSODGSLSI@@H@Z 10030fd8 f drdgsl.obj
 0001:0002ffe0       __fh?PdgslsiBeginUpdate@DGSL@@UAAPAU_MSODGSLSI@@H@Z 10030fe0 f drdgsl.obj
 0001:0002ffe2       ?PdgslsiBeginUpdate@DGSL@@UAAPAU_MSODGSLSI@@H@Z 10030fe2 f drdgsl.obj
 0001:0002ffe8       __pcd_tbl?EndDgslsiUpdate@DGSL@@UAAXPAU_MSODGSLSI@@H@Z 10030fe8 f drdgsl.obj
 0001:0002ffe8       __nep?EndDgslsiUpdate@DGSL@@UAAXPAU_MSODGSLSI@@H@Z 10030fe8 f drdgsl.obj
 0001:0002fff0       __fh?EndDgslsiUpdate@DGSL@@UAAXPAU_MSODGSLSI@@H@Z 10030ff0 f drdgsl.obj
 0001:0002fff2       ?EndDgslsiUpdate@DGSL@@UAAXPAU_MSODGSLSI@@H@Z 10030ff2 f drdgsl.obj
 0001:0002fff4       __pcd_tbl?DgrFormatShape@DGSL@@QAA?AW4MSODGR@@HPAPAX@Z 10030ff4 f drdgsl.obj
 0001:0002fffc       __nep?DgrFormatShape@DGSL@@QAA?AW4MSODGR@@HPAPAX@Z 10030ffc f drdgsl.obj
 0001:00030004       __fh?DgrFormatShape@DGSL@@QAA?AW4MSODGR@@HPAPAX@Z 10031004 f drdgsl.obj
 0001:00030006       ?DgrFormatShape@DGSL@@QAA?AW4MSODGR@@HPAPAX@Z 10031006 f drdgsl.obj
 0001:00030018       __pcd_tbl?FSetSelectionMode@DGSL@@UAAHW4MSODGSLK@@@Z 10031018 f drdgsl.obj
 0001:0003002c       __nep?FSetSelectionMode@DGSL@@UAAHW4MSODGSLK@@@Z 1003102c f drdgsl.obj
 0001:00030034       __fh?FSetSelectionMode@DGSL@@UAAHW4MSODGSLK@@@Z 10031034 f drdgsl.obj
 0001:00030036       ?FSetSelectionMode@DGSL@@UAAHW4MSODGSLK@@@Z 10031036 f drdgsl.obj
 0001:000300f8       __pcd_tbl?FClone@DGSL@@UAAHPAPAUIMsoDrawingSelection@@@Z 100310f8 f drdgsl.obj
 0001:000300fc       __nep?FClone@DGSL@@UAAHPAPAUIMsoDrawingSelection@@@Z 100310fc f drdgsl.obj
 0001:00030104       __fh?FClone@DGSL@@UAAHPAPAUIMsoDrawingSelection@@@Z 10031104 f drdgsl.obj
 0001:00030106       ?FClone@DGSL@@UAAHPAPAUIMsoDrawingSelection@@@Z 10031106 f drdgsl.obj
 0001:0003011c       __pcd_tbl?PidgGetDrawing@DGSL@@UAAPAUIMsoDrawing@@XZ 1003111c f drdgsl.obj
 0001:0003011c       __nep?PidgGetDrawing@DGSL@@UAAPAUIMsoDrawing@@XZ 1003111c f drdgsl.obj
 0001:00030124       __fh?PidgGetDrawing@DGSL@@UAAPAUIMsoDrawing@@XZ 10031124 f drdgsl.obj
 0001:00030126       ?PidgGetDrawing@DGSL@@UAAPAUIMsoDrawing@@XZ 10031126 f drdgsl.obj
 0001:0003012c       __nep?FGetView@DGSL@@UAAHPAPAUIMsoDrawingView@@HPAH@Z 1003112c f drdgsl.obj
 0001:0003012c       __pcd_tbl?FGetView@DGSL@@UAAHPAPAUIMsoDrawingView@@HPAH@Z 1003112c f drdgsl.obj
 0001:00030134       __fh?FGetView@DGSL@@UAAHPAPAUIMsoDrawingView@@HPAH@Z 10031134 f drdgsl.obj
 0001:00030136       ?FGetView@DGSL@@UAAHPAPAUIMsoDrawingView@@HPAH@Z 10031136 f drdgsl.obj
 0001:00030178       __pcd_tbl?FSelectShapeCore@DGSL@@QAAHPAUMSOSP@@H@Z 10031178 f drdgsl.obj
 0001:00030194       __nep?FSelectShapeCore@DGSL@@QAAHPAUMSOSP@@H@Z 10031194 f drdgsl.obj
 0001:0003019c       __fh?FSelectShapeCore@DGSL@@QAAHPAUMSOSP@@H@Z 1003119c f drdgsl.obj
 0001:0003019e       ?FSelectShapeCore@DGSL@@QAAHPAUMSOSP@@H@Z 1003119e f drdgsl.obj
 0001:00030268       __pcd_tbl?FSelectShape@DGSL@@UAAHPAUMSOSP@@@Z 10031268 f drdgsl.obj
 0001:0003026c       __nep?FSelectShape@DGSL@@UAAHPAUMSOSP@@@Z 1003126c f drdgsl.obj
 0001:00030274       __fh?FSelectShape@DGSL@@UAAHPAUMSOSP@@@Z 10031274 f drdgsl.obj
 0001:00030276       ?FSelectShape@DGSL@@UAAHPAUMSOSP@@@Z 10031276 f drdgsl.obj
 0001:0003027c       __pcd_tbl?UnselectShapeCore@DGSL@@QAAXPAUMSOSP@@H@Z 1003127c f drdgsl.obj
 0001:00030290       __nep?UnselectShapeCore@DGSL@@QAAXPAUMSOSP@@H@Z 10031290 f drdgsl.obj
 0001:00030298       __fh?UnselectShapeCore@DGSL@@QAAXPAUMSOSP@@H@Z 10031298 f drdgsl.obj
 0001:0003029a       ?UnselectShapeCore@DGSL@@QAAXPAUMSOSP@@H@Z 1003129a f drdgsl.obj
 0001:000302c8       __pcd_tbl?UnselectShapeCore2@DGSL@@QAAXH@Z 100312c8 f drdgsl.obj
 0001:000302cc       __nep?UnselectShapeCore2@DGSL@@QAAXH@Z 100312cc f drdgsl.obj
 0001:000302d4       __fh?UnselectShapeCore2@DGSL@@QAAXH@Z 100312d4 f drdgsl.obj
 0001:000302d6       ?UnselectShapeCore2@DGSL@@QAAXH@Z 100312d6 f drdgsl.obj
 0001:00030314       __pcd_tbl?UnselectShape@DGSL@@UAAXPAUMSOSP@@@Z 10031314 f drdgsl.obj
 0001:00030318       __nep?UnselectShape@DGSL@@UAAXPAUMSOSP@@@Z 10031318 f drdgsl.obj
 0001:00030320       __fh?UnselectShape@DGSL@@UAAXPAUMSOSP@@@Z 10031320 f drdgsl.obj
 0001:00030322       ?UnselectShape@DGSL@@UAAXPAUMSOSP@@@Z 10031322 f drdgsl.obj
 0001:00030328       __pcd_tbl?UnselectAllShapesCore@DGSL@@QAAXH@Z 10031328 f drdgsl.obj
 0001:0003033c       __nep?UnselectAllShapesCore@DGSL@@QAAXH@Z 1003133c f drdgsl.obj
 0001:00030344       __fh?UnselectAllShapesCore@DGSL@@QAAXH@Z 10031344 f drdgsl.obj
 0001:00030346       ?UnselectAllShapesCore@DGSL@@QAAXH@Z 10031346 f drdgsl.obj
 0001:000303ac       __pcd_tbl?UnselectAllShapes@DGSL@@UAAXXZ 100313ac f drdgsl.obj
 0001:000303b0       __nep?UnselectAllShapes@DGSL@@UAAXXZ 100313b0 f drdgsl.obj
 0001:000303b8       __fh?UnselectAllShapes@DGSL@@UAAXXZ 100313b8 f drdgsl.obj
 0001:000303ba       ?UnselectAllShapes@DGSL@@UAAXXZ 100313ba f drdgsl.obj
 0001:000303c0       __pcd_tbl?FSelectOneShape@DGSL@@QAAHPAUMSOSP@@H@Z 100313c0 f drdgsl.obj
 0001:000303dc       __nep?FSelectOneShape@DGSL@@QAAHPAUMSOSP@@H@Z 100313dc f drdgsl.obj
 0001:000303e4       __fh?FSelectOneShape@DGSL@@QAAHPAUMSOSP@@H@Z 100313e4 f drdgsl.obj
 0001:000303e6       ?FSelectOneShape@DGSL@@QAAHPAUMSOSP@@H@Z 100313e6 f drdgsl.obj
 0001:0003044c       __pcd_tbl?DgslkSelectionMode@DGSL@@UAA?AW4MSODGSLK@@XZ 1003144c f drdgsl.obj
 0001:0003044c       __nep?DgslkSelectionMode@DGSL@@UAA?AW4MSODGSLK@@XZ 1003144c f drdgsl.obj
 0001:00030454       __fh?DgslkSelectionMode@DGSL@@UAA?AW4MSODGSLK@@XZ 10031454 f drdgsl.obj
 0001:00030456       ?DgslkSelectionMode@DGSL@@UAA?AW4MSODGSLK@@XZ 10031456 f drdgsl.obj
 0001:0003045c       __nep?FSetDrghFocus@DGSL@@QAAHPAUMSOSP@@K@Z 1003145c f drdgsl.obj
 0001:0003045c       __pcd_tbl?FSetDrghFocus@DGSL@@QAAHPAUMSOSP@@K@Z 1003145c f drdgsl.obj
 0001:00030464       __fh?FSetDrghFocus@DGSL@@QAAHPAUMSOSP@@K@Z 10031464 f drdgsl.obj
 0001:00030466       ?FSetDrghFocus@DGSL@@QAAHPAUMSOSP@@K@Z 10031466 f drdgsl.obj
 0001:00030478       __nep?SetFocusPth@DGSL@@QAAXPAUtagPOINT@@@Z 10031478 f drdgsl.obj
 0001:00030478       __pcd_tbl?SetFocusPth@DGSL@@QAAXPAUtagPOINT@@@Z 10031478 f drdgsl.obj
 0001:00030480       __fh?SetFocusPth@DGSL@@QAAXPAUtagPOINT@@@Z 10031480 f drdgsl.obj
 0001:00030482       ?SetFocusPth@DGSL@@QAAXPAUtagPOINT@@@Z 10031482 f drdgsl.obj
 0001:0003048c       __pcd_tbl?DrghFocus@DGSL@@QAAKPAUMSOSP@@@Z 1003148c f drdgsl.obj
 0001:0003048c       __nep?DrghFocus@DGSL@@QAAKPAUMSOSP@@@Z 1003148c f drdgsl.obj
 0001:00030494       __fh?DrghFocus@DGSL@@QAAKPAUMSOSP@@@Z 10031494 f drdgsl.obj
 0001:00030496       ?DrghFocus@DGSL@@QAAKPAUMSOSP@@@Z 10031496 f drdgsl.obj
 0001:000304a0       __nep?SetFocusShape@DGSL@@UAAXPAUMSOSP@@@Z 100314a0 f drdgsl.obj
 0001:000304a0       __pcd_tbl?SetFocusShape@DGSL@@UAAXPAUMSOSP@@@Z 100314a0 f drdgsl.obj
 0001:000304a8       __fh?SetFocusShape@DGSL@@UAAXPAUMSOSP@@@Z 100314a8 f drdgsl.obj
 0001:000304aa       ?SetFocusShape@DGSL@@UAAXPAUMSOSP@@@Z 100314aa f drdgsl.obj
 0001:000304cc       __pcd_tbl?CSelectedShapes@DGSL@@UAAHXZ 100314cc f drdgsl.obj
 0001:000304d0       __nep?CSelectedShapes@DGSL@@UAAHXZ 100314d0 f drdgsl.obj
 0001:000304d8       __fh?CSelectedShapes@DGSL@@UAAHXZ 100314d8 f drdgsl.obj
 0001:000304da       ?CSelectedShapes@DGSL@@UAAHXZ 100314da f drdgsl.obj
 0001:000304ec       __pcd_tbl?CSelectedGroups@DGSL@@UAAHXZ 100314ec f drdgsl.obj
 0001:000304ec       __nep?CSelectedGroups@DGSL@@UAAHXZ 100314ec f drdgsl.obj
 0001:000304f4       __fh?CSelectedGroups@DGSL@@UAAHXZ 100314f4 f drdgsl.obj
 0001:000304f6       ?CSelectedGroups@DGSL@@UAAHXZ 100314f6 f drdgsl.obj
 0001:0003051c       __pcd_tbl?CSelectedPictures@DGSL@@UAAHXZ 1003151c f drdgsl.obj
 0001:00030520       __nep?CSelectedPictures@DGSL@@UAAHXZ 10031520 f drdgsl.obj
 0001:00030528       __fh?CSelectedPictures@DGSL@@UAAHXZ 10031528 f drdgsl.obj
 0001:0003052a       ?CSelectedPictures@DGSL@@UAAHXZ 1003152a f drdgsl.obj
 0001:00030568       __nep?CSelectedPolygons@DGSL@@UAAHH@Z 10031568 f drdgsl.obj
 0001:00030568       __pcd_tbl?CSelectedPolygons@DGSL@@UAAHH@Z 10031568 f drdgsl.obj
 0001:00030570       __fh?CSelectedPolygons@DGSL@@UAAHH@Z 10031570 f drdgsl.obj
 0001:00030572       ?CSelectedPolygons@DGSL@@UAAHH@Z 10031572 f drdgsl.obj
 0001:000305a8       __nep?CSelectedOLEShapes@DGSL@@QAAHXZ 100315a8 f drdgsl.obj
 0001:000305a8       __pcd_tbl?CSelectedOLEShapes@DGSL@@QAAHXZ 100315a8 f drdgsl.obj
 0001:000305b0       __fh?CSelectedOLEShapes@DGSL@@QAAHXZ 100315b0 f drdgsl.obj
 0001:000305b2       ?CSelectedOLEShapes@DGSL@@QAAHXZ 100315b2 f drdgsl.obj
 0001:000305d8       __pcd_tbl?CSelectedConnectors@DGSL@@QAAHXZ 100315d8 f drdgsl.obj
 0001:000305dc       __nep?CSelectedConnectors@DGSL@@QAAHXZ 100315dc f drdgsl.obj
 0001:000305e4       __fh?CSelectedConnectors@DGSL@@QAAHXZ 100315e4 f drdgsl.obj
 0001:000305e6       ?CSelectedConnectors@DGSL@@QAAHXZ 100315e6 f drdgsl.obj
 0001:0003060c       __pcd_tbl?CSelectedTextEffects@DGSL@@QAAHXZ 1003160c f drdgsl.obj
 0001:00030610       __nep?CSelectedTextEffects@DGSL@@QAAHXZ 10031610 f drdgsl.obj
 0001:00030618       __fh?CSelectedTextEffects@DGSL@@QAAHXZ 10031618 f drdgsl.obj
 0001:0003061a       ?CSelectedTextEffects@DGSL@@QAAHXZ 1003161a f drdgsl.obj
 0001:00030644       __nep?HspGet@DGSL@@UAAPAUMSOSP@@H@Z 10031644 f drdgsl.obj
 0001:00030644       __pcd_tbl?HspGet@DGSL@@UAAPAUMSOSP@@H@Z 10031644 f drdgsl.obj
 0001:0003064c       __fh?HspGet@DGSL@@UAAPAUMSOSP@@H@Z 1003164c f drdgsl.obj
 0001:0003064e       ?HspGet@DGSL@@UAAPAUMSOSP@@H@Z 1003164e f drdgsl.obj
 0001:00030660       __pcd_tbl?PhspSel@DGSL@@UAAPAPAUMSOSP@@XZ 10031660 f drdgsl.obj
 0001:00030660       __nep?PhspSel@DGSL@@UAAPAPAUMSOSP@@XZ 10031660 f drdgsl.obj
 0001:00030668       __fh?PhspSel@DGSL@@UAAPAPAUMSOSP@@XZ 10031668 f drdgsl.obj
 0001:0003066a       ?PhspSel@DGSL@@UAAPAPAUMSOSP@@XZ 1003166a f drdgsl.obj
 0001:00030674       __pcd_tbl?SetChangeNotify@DGSL@@UAAXH@Z 10031674 f drdgsl.obj
 0001:00030680       __nep?SetChangeNotify@DGSL@@UAAXH@Z 10031680 f drdgsl.obj
 0001:00030688       __fh?SetChangeNotify@DGSL@@UAAXH@Z 10031688 f drdgsl.obj
 0001:0003068b       ?SetChangeNotify@DGSL@@UAAXH@Z 1003168b f drdgsl.obj
 0001:000306f8       __nep?FGetFocusShape@DGSL@@UAAHPAPAUMSOSP@@@Z 100316f8 f drdgsl.obj
 0001:000306f8       __pcd_tbl?FGetFocusShape@DGSL@@UAAHPAPAUMSOSP@@@Z 100316f8 f drdgsl.obj
 0001:00030700       __fh?FGetFocusShape@DGSL@@UAAHPAPAUMSOSP@@@Z 10031700 f drdgsl.obj
 0001:00030702       ?FGetFocusShape@DGSL@@UAAHPAPAUMSOSP@@@Z 10031702 f drdgsl.obj
 0001:0003070c       __pcd_tbl?FShapeSelected@DGSL@@UAAHPAUMSOSP@@@Z 1003170c f drdgsl.obj
 0001:00030710       __nep?FShapeSelected@DGSL@@UAAHPAUMSOSP@@@Z 10031710 f drdgsl.obj
 0001:00030718       __fh?FShapeSelected@DGSL@@UAAHPAUMSOSP@@@Z 10031718 f drdgsl.obj
 0001:0003071a       ?FShapeSelected@DGSL@@UAAHPAUMSOSP@@@Z 1003171a f drdgsl.obj
 0001:00030720       __nep?FVisible@DGSL@@UAAHXZ 10031720 f drdgsl.obj
 0001:00030720       __pcd_tbl?FVisible@DGSL@@UAAHXZ 10031720 f drdgsl.obj
 0001:00030728       __fh?FVisible@DGSL@@UAAHXZ 10031728 f drdgsl.obj
 0001:0003072a       ?FVisible@DGSL@@UAAHXZ     1003172a f drdgsl.obj
 0001:00030730       __pcd_tbl?SetVisible@DGSL@@UAAXH@Z 10031730 f drdgsl.obj
 0001:00030730       __nep?SetVisible@DGSL@@UAAXH@Z 10031730 f drdgsl.obj
 0001:00030738       __fh?SetVisible@DGSL@@UAAXH@Z 10031738 f drdgsl.obj
 0001:0003073a       ?SetVisible@DGSL@@UAAXH@Z  1003173a f drdgsl.obj
 0001:00030768       __pcd_tbl?GrfdgslqOneShapeQuery@@YAKPAUMSOSP@@KK@Z 10031768 f drdgsl.obj
 0001:00030774       __nep?GrfdgslqOneShapeQuery@@YAKPAUMSOSP@@KK@Z 10031774 f drdgsl.obj
 0001:0003077c       __fh?GrfdgslqOneShapeQuery@@YAKPAUMSOSP@@KK@Z 1003177c f drdgsl.obj
 0001:0003077e       ?GrfdgslqOneShapeQuery@@YAKPAUMSOSP@@KK@Z 1003177e f drdgsl.obj
 0001:00030854       __pcd_tbl?GrfdgslqQuery@DGSL@@UAAKK@Z 10031854 f drdgsl.obj
 0001:0003086c       __nep?GrfdgslqQuery@DGSL@@UAAKK@Z 1003186c f drdgsl.obj
 0001:00030874       __fh?GrfdgslqQuery@DGSL@@UAAKK@Z 10031874 f drdgsl.obj
 0001:00030877       ?GrfdgslqQuery@DGSL@@UAAKK@Z 10031877 f drdgsl.obj
 0001:00030920       __pcd_tbl?FQuery@DGSL@@UAAHW4MSODGSLQ@@@Z 10031920 f drdgsl.obj
 0001:00030920       __nep?FQuery@DGSL@@UAAHW4MSODGSLQ@@@Z 10031920 f drdgsl.obj
 0001:00030928       __fh?FQuery@DGSL@@UAAHW4MSODGSLQ@@@Z 10031928 f drdgsl.obj
 0001:0003092a       ?FQuery@DGSL@@UAAHW4MSODGSLQ@@@Z 1003192a f drdgsl.obj
 0001:00030970       __pcd_tbl?FMarkSelectedShapes@DGSL@@UAAHXZ 10031970 f drdgsl.obj
 0001:00030974       __nep?FMarkSelectedShapes@DGSL@@UAAHXZ 10031974 f drdgsl.obj
 0001:0003097c       __fh?FMarkSelectedShapes@DGSL@@UAAHXZ 1003197c f drdgsl.obj
 0001:0003097e       ?FMarkSelectedShapes@DGSL@@UAAHXZ 1003197e f drdgsl.obj
 0001:00030984       __nep?FMarkSp@DGSL@@QAAHHH@Z 10031984 f drdgsl.obj
 0001:00030984       __pcd_tbl?FMarkSp@DGSL@@QAAHHH@Z 10031984 f drdgsl.obj
 0001:0003098c       __fh?FMarkSp@DGSL@@QAAHHH@Z 1003198c f drdgsl.obj
 0001:0003098e       ?FMarkSp@DGSL@@QAAHHH@Z    1003198e f drdgsl.obj
 0001:000309c4       __pcd_tbl?MarkDependentShapes@DGSL@@QAAXXZ 100319c4 f drdgsl.obj
 0001:000309d0       __nep?MarkDependentShapes@DGSL@@QAAXXZ 100319d0 f drdgsl.obj
 0001:000309d8       __fh?MarkDependentShapes@DGSL@@QAAXXZ 100319d8 f drdgsl.obj
 0001:000309da       ?MarkDependentShapes@DGSL@@QAAXXZ 100319da f drdgsl.obj
 0001:00030a20       __pcd_tbl?InitEnumSelectedGroups@DGSL@@QAAXPAUDGEN@@@Z 10031a20 f drdgsl.obj
 0001:00030a28       __nep?InitEnumSelectedGroups@DGSL@@QAAXPAUDGEN@@@Z 10031a28 f drdgsl.obj
 0001:00030a30       __fh?InitEnumSelectedGroups@DGSL@@QAAXPAUDGEN@@@Z 10031a30 f drdgsl.obj
 0001:00030a32       ?InitEnumSelectedGroups@DGSL@@QAAXPAUDGEN@@@Z 10031a32 f drdgsl.obj
 0001:00030a44       __pcd_tbl?FEnumSelectedGroups@DGSL@@QAAHPAUDGEN@@@Z 10031a44 f drdgsl.obj
 0001:00030a48       __nep?FEnumSelectedGroups@DGSL@@QAAHPAUDGEN@@@Z 10031a48 f drdgsl.obj
 0001:00030a50       __fh?FEnumSelectedGroups@DGSL@@QAAHPAUDGEN@@@Z 10031a50 f drdgsl.obj
 0001:00030a52       ?FEnumSelectedGroups@DGSL@@QAAHPAUDGEN@@@Z 10031a52 f drdgsl.obj
 0001:00030a70       __pcd_tbl?InitEnumSelectedShapes@DGSL@@QAAXPAUDGEN@@@Z 10031a70 f drdgsl.obj
 0001:00030a70       __nep?InitEnumSelectedShapes@DGSL@@QAAXPAUDGEN@@@Z 10031a70 f drdgsl.obj
 0001:00030a78       __fh?InitEnumSelectedShapes@DGSL@@QAAXPAUDGEN@@@Z 10031a78 f drdgsl.obj
 0001:00030a7a       ?InitEnumSelectedShapes@DGSL@@QAAXPAUDGEN@@@Z 10031a7a f drdgsl.obj
 0001:00030ab8       __pcd_tbl?FEnumSelectedShapes@DGSL@@QAAHPAUDGEN@@@Z 10031ab8 f drdgsl.obj
 0001:00030abc       __nep?FEnumSelectedShapes@DGSL@@QAAHPAUDGEN@@@Z 10031abc f drdgsl.obj
 0001:00030ac4       __fh?FEnumSelectedShapes@DGSL@@QAAHPAUDGEN@@@Z 10031ac4 f drdgsl.obj
 0001:00030ac6       ?FEnumSelectedShapes@DGSL@@QAAHPAUDGEN@@@Z 10031ac6 f drdgsl.obj
 0001:00030b20       __pcd_tbl?CopeWithDgInval@DGSL@@QAAXXZ 10031b20 f drdgsl.obj
 0001:00030b2c       __nep?CopeWithDgInval@DGSL@@QAAXXZ 10031b2c f drdgsl.obj
 0001:00030b34       __fh?CopeWithDgInval@DGSL@@QAAXXZ 10031b34 f drdgsl.obj
 0001:00030b36       ?CopeWithDgInval@DGSL@@QAAXXZ 10031b36 f drdgsl.obj
 0001:00030b7c       __pcd_tbl?DgrDefault@DGSL@@QAA?AW4MSODGR@@HPAPAX@Z 10031b7c f drdgsl.obj
 0001:00030b80       __nep?DgrDefault@DGSL@@QAA?AW4MSODGR@@HPAPAX@Z 10031b80 f drdgsl.obj
 0001:00030b88       __fh?DgrDefault@DGSL@@QAA?AW4MSODGR@@HPAPAX@Z 10031b88 f drdgsl.obj
 0001:00030b8a       ?DgrDefault@DGSL@@QAA?AW4MSODGR@@HPAPAX@Z 10031b8a f drdgsl.obj
 0001:00030ba8       __pcd_tbl?BeginEnumerateSelectedShapes@DGSL@@UAAXPAUMSODGEN@@@Z 10031ba8 f drdgsl.obj
 0001:00030ba8       __nep?BeginEnumerateSelectedShapes@DGSL@@UAAXPAUMSODGEN@@@Z 10031ba8 f drdgsl.obj
 0001:00030bb0       __fh?BeginEnumerateSelectedShapes@DGSL@@UAAXPAUMSODGEN@@@Z 10031bb0 f drdgsl.obj
 0001:00030bb2       ?BeginEnumerateSelectedShapes@DGSL@@UAAXPAUMSODGEN@@@Z 10031bb2 f drdgsl.obj
 0001:00030bbc       __pcd_tbl?FEnumerateSelectedShapes@DGSL@@UAAHPAUMSODGEN@@@Z 10031bbc f drdgsl.obj
 0001:00030bbc       __nep?FEnumerateSelectedShapes@DGSL@@UAAHPAUMSODGEN@@@Z 10031bbc f drdgsl.obj
 0001:00030bc4       __fh?FEnumerateSelectedShapes@DGSL@@UAAHPAUMSODGEN@@@Z 10031bc4 f drdgsl.obj
 0001:00030bc6       ?FEnumerateSelectedShapes@DGSL@@UAAHPAUMSODGEN@@@Z 10031bc6 f drdgsl.obj
 0001:00030c14       __pcd_tbl?FSelectAll@DGSL@@UAAHXZ 10031c14 f drdgsl.obj
 0001:00030c28       __nep?FSelectAll@DGSL@@UAAHXZ 10031c28 f drdgsl.obj
 0001:00030c30       __fh?FSelectAll@DGSL@@UAAHXZ 10031c30 f drdgsl.obj
 0001:00030c32       ?FSelectAll@DGSL@@UAAHXZ   10031c32 f drdgsl.obj
 0001:00030c9c       __pcd_tbl?DgrCreateShape@DGSL@@UAA?AW4MSODGR@@W4MSOSPT@@PAUtagRECT@@PAPAUMSOSP@@HPAPAX@Z 10031c9c f drdgsl.obj
 0001:00030ca8       __nep?DgrCreateShape@DGSL@@UAA?AW4MSODGR@@W4MSOSPT@@PAUtagRECT@@PAPAUMSOSP@@HPAPAX@Z 10031ca8 f drdgsl.obj
 0001:00030cb0       __fh?DgrCreateShape@DGSL@@UAA?AW4MSODGR@@W4MSOSPT@@PAUtagRECT@@PAPAUMSOSP@@HPAPAX@Z 10031cb0 f drdgsl.obj
 0001:00030cb2       ?DgrCreateShape@DGSL@@UAA?AW4MSODGR@@W4MSOSPT@@PAUtagRECT@@PAPAUMSOSP@@HPAPAX@Z 10031cb2 f drdgsl.obj
 0001:00030cd8       __pcd_tbl?DgrCreatePolyLine@DGSL@@UAA?AW4MSODGR@@W4MSOSPT@@PAUtagRECT@@PAUtagPOINT@@HPAGHHPAPAUMSOSP@@PAPAX@Z 10031cd8 f drdgsl.obj
 0001:00030ce4       __nep?DgrCreatePolyLine@DGSL@@UAA?AW4MSODGR@@W4MSOSPT@@PAUtagRECT@@PAUtagPOINT@@HPAGHHPAPAUMSOSP@@PAPAX@Z 10031ce4 f drdgsl.obj
 0001:00030cec       __fh?DgrCreatePolyLine@DGSL@@UAA?AW4MSODGR@@W4MSOSPT@@PAUtagRECT@@PAUtagPOINT@@HPAGHHPAPAUMSOSP@@PAPAX@Z 10031cec f drdgsl.obj
 0001:00030cee       ?DgrCreatePolyLine@DGSL@@UAA?AW4MSODGR@@W4MSOSPT@@PAUtagRECT@@PAUtagPOINT@@HPAGHHPAPAUMSOSP@@PAPAX@Z 10031cee f drdgsl.obj
 0001:00030d1c       __pcd_tbl?DgrCreateBlipShape@DGSL@@UAA?AW4MSODGR@@PAUtagRECT@@PAPAUMSOSP@@PAUIMsoBlip@@PBG3W4MSOBLIPFLAGS@@HHPAPAX@Z 10031d1c f drdgsl.obj
 0001:00030d44       __nep?DgrCreateBlipShape@DGSL@@UAA?AW4MSODGR@@PAUtagRECT@@PAPAUMSOSP@@PAUIMsoBlip@@PBG3W4MSOBLIPFLAGS@@HHPAPAX@Z 10031d44 f drdgsl.obj
 0001:00030d4c       __fh?DgrCreateBlipShape@DGSL@@UAA?AW4MSODGR@@PAUtagRECT@@PAPAUMSOSP@@PAUIMsoBlip@@PBG3W4MSOBLIPFLAGS@@HHPAPAX@Z 10031d4c f drdgsl.obj
 0001:00030d4e       ?DgrCreateBlipShape@DGSL@@UAA?AW4MSODGR@@PAUtagRECT@@PAPAUMSOSP@@PAUIMsoBlip@@PBG3W4MSOBLIPFLAGS@@HHPAPAX@Z 10031d4e f drdgsl.obj
 0001:00030ea0       __pcd_tbl?DgrAppendShape@DGSL@@QAA?AW4MSODGR@@PAUMSOSP@@PAUtagRECT@@PAPAU3@HPAPAX@Z 10031ea0 f drdgsl.obj
 0001:00030eb0       __nep?DgrAppendShape@DGSL@@QAA?AW4MSODGR@@PAUMSOSP@@PAUtagRECT@@PAPAU3@HPAPAX@Z 10031eb0 f drdgsl.obj
 0001:00030eb8       __fh?DgrAppendShape@DGSL@@QAA?AW4MSODGR@@PAUMSOSP@@PAUtagRECT@@PAPAU3@HPAPAX@Z 10031eb8 f drdgsl.obj
 0001:00030eba       ?DgrAppendShape@DGSL@@QAA?AW4MSODGR@@PAUMSOSP@@PAUtagRECT@@PAPAU3@HPAPAX@Z 10031eba f drdgsl.obj
 0001:00030f44       __pcd_tbl?DgrValidate@DGSL@@UAA?AW4MSODGR@@W4MSODGCID@@@Z 10031f44 f drdgsl.obj
 0001:00030f8c       __nep?DgrValidate@DGSL@@UAA?AW4MSODGR@@W4MSODGCID@@@Z 10031f8c f drdgsl.obj
 0001:00030f94       __fh?DgrValidate@DGSL@@UAA?AW4MSODGR@@W4MSODGCID@@@Z 10031f94 f drdgsl.obj
 0001:00030f96       ?DgrValidate@DGSL@@UAA?AW4MSODGR@@W4MSODGCID@@@Z 10031f96 f drdgsl.obj
 0001:00031078       __pcd_tbl?DgrExecute@DGSL@@UAA?AW4MSODGR@@W4MSODGCID@@PAPAX@Z 10032078 f drdgsl.obj
 0001:000310c8       __nep?DgrExecute@DGSL@@UAA?AW4MSODGR@@W4MSODGCID@@PAPAX@Z 100320c8 f drdgsl.obj
 0001:000310d0       __fh?DgrExecute@DGSL@@UAA?AW4MSODGR@@W4MSODGCID@@PAPAX@Z 100320d0 f drdgsl.obj
 0001:000310d2       ?DgrExecute@DGSL@@UAA?AW4MSODGR@@W4MSODGCID@@PAPAX@Z 100320d2 f drdgsl.obj
 0001:00031248       __pcd_tbl?DgrRepeat@DGSL@@UAA?AW4MSODGR@@W4MSODGCID@@PAX@Z 10032248 f drdgsl.obj
 0001:00031290       __nep?DgrRepeat@DGSL@@UAA?AW4MSODGR@@W4MSODGCID@@PAX@Z 10032290 f drdgsl.obj
 0001:00031298       __fh?DgrRepeat@DGSL@@UAA?AW4MSODGR@@W4MSODGCID@@PAX@Z 10032298 f drdgsl.obj
 0001:0003129a       ?DgrRepeat@DGSL@@UAA?AW4MSODGR@@W4MSODGCID@@PAX@Z 1003229a f drdgsl.obj
 0001:000313b8       __pcd_tbl?DgrFreeRepeat@DGSL@@UAA?AW4MSODGR@@W4MSODGCID@@PAX@Z 100323b8 f drdgsl.obj
 0001:00031400       __nep?DgrFreeRepeat@DGSL@@UAA?AW4MSODGR@@W4MSODGCID@@PAX@Z 10032400 f drdgsl.obj
 0001:00031408       __fh?DgrFreeRepeat@DGSL@@UAA?AW4MSODGR@@W4MSODGCID@@PAX@Z 10032408 f drdgsl.obj
 0001:0003140a       ?DgrFreeRepeat@DGSL@@UAA?AW4MSODGR@@W4MSODGCID@@PAX@Z 1003240a f drdgsl.obj
 0001:00031520       __pcd_tbl?FCreateDrgcrv@DGSL@@QAAHPAUMSOSP@@PAPAVDRGCRV@@PAHW4MSODGCID@@@Z 10032520 f drdgsl.obj
 0001:00031540       __nep?FCreateDrgcrv@DGSL@@QAAHPAUMSOSP@@PAPAVDRGCRV@@PAHW4MSODGCID@@@Z 10032540 f drdgsl.obj
 0001:00031548       __fh?FCreateDrgcrv@DGSL@@QAAHPAUMSOSP@@PAPAVDRGCRV@@PAHW4MSODGCID@@@Z 10032548 f drdgsl.obj
 0001:0003154a       ?FCreateDrgcrv@DGSL@@QAAHPAUMSOSP@@PAPAVDRGCRV@@PAHW4MSODGCID@@@Z 1003254a f drdgsl.obj
 0001:000315ac       __pcd_tbl?DgrReshapeCurve@DGSL@@QAA?AW4MSODGR@@HPAPAXW4VTXK@@@Z 100325ac f drdgsl.obj
 0001:000315ac       __nep?DgrReshapeCurve@DGSL@@QAA?AW4MSODGR@@HPAPAXW4VTXK@@@Z 100325ac f drdgsl.obj
 0001:000315b4       __fh?DgrReshapeCurve@DGSL@@QAA?AW4MSODGR@@HPAPAXW4VTXK@@@Z 100325b4 f drdgsl.obj
 0001:000315b6       ?DgrReshapeCurve@DGSL@@QAA?AW4MSODGR@@HPAPAXW4VTXK@@@Z 100325b6 f drdgsl.obj
 0001:000315b8       __pcd_tbl?DgrAddWrapPolygon@DGSL@@QAA?AW4MSODGR@@HPAPAX@Z 100325b8 f drdgsl.obj
 0001:000315dc       __nep?DgrAddWrapPolygon@DGSL@@QAA?AW4MSODGR@@HPAPAX@Z 100325dc f drdgsl.obj
 0001:000315e4       __fh?DgrAddWrapPolygon@DGSL@@QAA?AW4MSODGR@@HPAPAX@Z 100325e4 f drdgsl.obj
 0001:000315e6       ?DgrAddWrapPolygon@DGSL@@QAA?AW4MSODGR@@HPAPAX@Z 100325e6 f drdgsl.obj
 0001:00031650       __pcd_tbl?DgrClear@DGSL@@QAA?AW4MSODGR@@HPAPAXH@Z 10032650 f drdgsl.obj
 0001:00031664       __nep?DgrClear@DGSL@@QAA?AW4MSODGR@@HPAPAXH@Z 10032664 f drdgsl.obj
 0001:0003166c       __fh?DgrClear@DGSL@@QAA?AW4MSODGR@@HPAPAXH@Z 1003266c f drdgsl.obj
 0001:0003166e       ?DgrClear@DGSL@@QAA?AW4MSODGR@@HPAPAXH@Z 1003266e f drdgsl.obj
 0001:000316b0       __pcd_tbl?DgrBringToFront@DGSL@@QAA?AW4MSODGR@@HPAPAX@Z 100326b0 f drdgsl.obj
 0001:000316d4       __nep?DgrBringToFront@DGSL@@QAA?AW4MSODGR@@HPAPAX@Z 100326d4 f drdgsl.obj
 0001:000316dc       __fh?DgrBringToFront@DGSL@@QAA?AW4MSODGR@@HPAPAX@Z 100326dc f drdgsl.obj
 0001:000316df       ?DgrBringToFront@DGSL@@QAA?AW4MSODGR@@HPAPAX@Z 100326df f drdgsl.obj
 0001:00031760       __pcd_tbl?DgrSendToBack@DGSL@@QAA?AW4MSODGR@@HPAPAX@Z 10032760 f drdgsl.obj
 0001:00031784       __nep?DgrSendToBack@DGSL@@QAA?AW4MSODGR@@HPAPAX@Z 10032784 f drdgsl.obj
 0001:0003178c       __fh?DgrSendToBack@DGSL@@QAA?AW4MSODGR@@HPAPAX@Z 1003278c f drdgsl.obj
 0001:0003178f       ?DgrSendToBack@DGSL@@QAA?AW4MSODGR@@HPAPAX@Z 1003278f f drdgsl.obj
 0001:0003180c       __pcd_tbl?DgrBringForward@DGSL@@QAA?AW4MSODGR@@HPAPAX@Z 1003280c f drdgsl.obj
 0001:00031834       __nep?DgrBringForward@DGSL@@QAA?AW4MSODGR@@HPAPAX@Z 10032834 f drdgsl.obj
 0001:0003183c       __fh?DgrBringForward@DGSL@@QAA?AW4MSODGR@@HPAPAX@Z 1003283c f drdgsl.obj
 0001:0003183f       ?DgrBringForward@DGSL@@QAA?AW4MSODGR@@HPAPAX@Z 1003283f f drdgsl.obj
 0001:000318e4       __pcd_tbl?DgrSendBackward@DGSL@@QAA?AW4MSODGR@@HPAPAX@Z 100328e4 f drdgsl.obj
 0001:00031918       __nep?DgrSendBackward@DGSL@@QAA?AW4MSODGR@@HPAPAX@Z 10032918 f drdgsl.obj
 0001:00031920       __fh?DgrSendBackward@DGSL@@QAA?AW4MSODGR@@HPAPAX@Z 10032920 f drdgsl.obj
 0001:00031923       ?DgrSendBackward@DGSL@@QAA?AW4MSODGR@@HPAPAX@Z 10032923 f drdgsl.obj
 0001:000319d0       __pcd_tbl?DgrGroup@DGSL@@QAA?AW4MSODGR@@HPAPAXH@Z 100329d0 f drdgsl.obj
 0001:000319f0       __nep?DgrGroup@DGSL@@QAA?AW4MSODGR@@HPAPAXH@Z 100329f0 f drdgsl.obj
 0001:000319f8       __fh?DgrGroup@DGSL@@QAA?AW4MSODGR@@HPAPAXH@Z 100329f8 f drdgsl.obj
 0001:000319fa       ?DgrGroup@DGSL@@QAA?AW4MSODGR@@HPAPAXH@Z 100329fa f drdgsl.obj
 0001:00031a68       __pcd_tbl?DgrUngroup@DGSL@@QAA?AW4MSODGR@@HPAPAX@Z 10032a68 f drdgsl.obj
 0001:00031a80       __nep?DgrUngroup@DGSL@@QAA?AW4MSODGR@@HPAPAX@Z 10032a80 f drdgsl.obj
 0001:00031a88       __fh?DgrUngroup@DGSL@@QAA?AW4MSODGR@@HPAPAX@Z 10032a88 f drdgsl.obj
 0001:00031a8a       ?DgrUngroup@DGSL@@QAA?AW4MSODGR@@HPAPAX@Z 10032a8a f drdgsl.obj
 0001:00031adc       __pcd_tbl?DgrRegroup@DGSL@@QAA?AW4MSODGR@@HPAPAX@Z 10032adc f drdgsl.obj
 0001:00031af0       __nep?DgrRegroup@DGSL@@QAA?AW4MSODGR@@HPAPAX@Z 10032af0 f drdgsl.obj
 0001:00031af8       __fh?DgrRegroup@DGSL@@QAA?AW4MSODGR@@HPAPAX@Z 10032af8 f drdgsl.obj
 0001:00031afa       ?DgrRegroup@DGSL@@QAA?AW4MSODGR@@HPAPAX@Z 10032afa f drdgsl.obj
 0001:00031b44       __pcd_tbl?DgrDuplicate@DGSL@@QAA?AW4MSODGR@@HPAPAX@Z 10032b44 f drdgsl.obj
 0001:00031b54       __nep?DgrDuplicate@DGSL@@QAA?AW4MSODGR@@HPAPAX@Z 10032b54 f drdgsl.obj
 0001:00031b5c       __fh?DgrDuplicate@DGSL@@QAA?AW4MSODGR@@HPAPAX@Z 10032b5c f drdgsl.obj
 0001:00031b5e       ?DgrDuplicate@DGSL@@QAA?AW4MSODGR@@HPAPAX@Z 10032b5e f drdgsl.obj
 0001:00031b98       __pcd_tbl?FCopy@DGSL@@QAAHPAVDGUI@@@Z 10032b98 f drdgsl.obj
 0001:00031bac       __nep?FCopy@DGSL@@QAAHPAVDGUI@@@Z 10032bac f drdgsl.obj
 0001:00031bb4       __fh?FCopy@DGSL@@QAAHPAVDGUI@@@Z 10032bb4 f drdgsl.obj
 0001:00031bb6       ?FCopy@DGSL@@QAAHPAVDGUI@@@Z 10032bb6 f drdgsl.obj
 0001:00031c68       __pcd_tbl?FPaste@DGSL@@QAAHPAVDGUI@@I@Z 10032c68 f drdgsl.obj
 0001:00031cd0       __nep?FPaste@DGSL@@QAAHPAVDGUI@@I@Z 10032cd0 f drdgsl.obj
 0001:00031cd8       __fh?FPaste@DGSL@@QAAHPAVDGUI@@I@Z 10032cd8 f drdgsl.obj
 0001:00031cdb       ?FPaste@DGSL@@QAAHPAVDGUI@@I@Z 10032cdb f drdgsl.obj
 0001:000320c8       __pcd_tbl?FSave@DGSL@@UAAHPAUMSOSVB@@@Z 100330c8 f drdgsl.obj
 0001:000320dc       __nep?FSave@DGSL@@UAAHPAUMSOSVB@@@Z 100330dc f drdgsl.obj
 0001:000320e4       __fh?FSave@DGSL@@UAAHPAUMSOSVB@@@Z 100330e4 f drdgsl.obj
 0001:000320e6       ?FSave@DGSL@@UAAHPAUMSOSVB@@@Z 100330e6 f drdgsl.obj
 0001:0003219c       __pcd_tbl?LSwapIfMac@@YAHJ@Z 1003319c f drdgsl.obj
 0001:0003219c       __nep?LSwapIfMac@@YAHJ@Z   1003319c f drdgsl.obj
 0001:000321a4       __fh?LSwapIfMac@@YAHJ@Z    100331a4 f drdgsl.obj
 0001:000321a6       ?LSwapIfMac@@YAHJ@Z        100331a6 f drdgsl.obj
 0001:000321c4       __pcd_tbl?FLoad@DGSL@@UAAHPAUMSOLDB@@@Z 100331c4 f drdgsl.obj
 0001:000321d8       __nep?FLoad@DGSL@@UAAHPAUMSOLDB@@@Z 100331d8 f drdgsl.obj
 0001:000321e0       __fh?FLoad@DGSL@@UAAHPAUMSOLDB@@@Z 100331e0 f drdgsl.obj
 0001:000321e2       ?FLoad@DGSL@@UAAHPAUMSOLDB@@@Z 100331e2 f drdgsl.obj
 0001:000322f0       __pcd_tbl?DgrCut@DGSL@@QAA?AW4MSODGR@@HPAPAX@Z 100332f0 f drdgsl.obj
 0001:000322f4       __nep?DgrCut@DGSL@@QAA?AW4MSODGR@@HPAPAX@Z 100332f4 f drdgsl.obj
 0001:000322fc       __fh?DgrCut@DGSL@@QAA?AW4MSODGR@@HPAPAX@Z 100332fc f drdgsl.obj
 0001:000322fe       ?DgrCut@DGSL@@QAA?AW4MSODGR@@HPAPAX@Z 100332fe f drdgsl.obj
 0001:0003230c       __pcd_tbl?DgrCopy@DGSL@@QAA?AW4MSODGR@@HPAPAX@Z 1003330c f drdgsl.obj
 0001:00032310       __nep?DgrCopy@DGSL@@QAA?AW4MSODGR@@HPAPAX@Z 10033310 f drdgsl.obj
 0001:00032318       __fh?DgrCopy@DGSL@@QAA?AW4MSODGR@@HPAPAX@Z 10033318 f drdgsl.obj
 0001:0003231a       ?DgrCopy@DGSL@@QAA?AW4MSODGR@@HPAPAX@Z 1003331a f drdgsl.obj
 0001:00032328       __nep?FCfFromDataObject@DGSL@@QAAHIPAUIDataObject@@PAUtagFORMATETC@@@Z 10033328 f drdgsl.obj
 0001:00032328       __pcd_tbl?FCfFromDataObject@DGSL@@QAAHIPAUIDataObject@@PAUtagFORMATETC@@@Z 10033328 f drdgsl.obj
 0001:00032330       __fh?FCfFromDataObject@DGSL@@QAAHIPAUIDataObject@@PAUtagFORMATETC@@@Z 10033330 f drdgsl.obj
 0001:00032332       ?FCfFromDataObject@DGSL@@QAAHIPAUIDataObject@@PAUtagFORMATETC@@@Z 10033332 f drdgsl.obj
 0001:000323cc       __pcd_tbl?DgrPaste@DGSL@@QAA?AW4MSODGR@@HPAPAXI@Z 100333cc f drdgsl.obj
 0001:000323d8       __nep?DgrPaste@DGSL@@QAA?AW4MSODGR@@HPAPAXI@Z 100333d8 f drdgsl.obj
 0001:000323e0       __fh?DgrPaste@DGSL@@QAA?AW4MSODGR@@HPAPAXI@Z 100333e0 f drdgsl.obj
 0001:000323e2       ?DgrPaste@DGSL@@QAA?AW4MSODGR@@HPAPAXI@Z 100333e2 f drdgsl.obj
 0001:00032434       __pcd_tbl?FActivateTextCore@DGSL@@QAAHPAUMSOSP@@@Z 10033434 f drdgsl.obj
 0001:00032448       __nep?FActivateTextCore@DGSL@@QAAHPAUMSOSP@@@Z 10033448 f drdgsl.obj
 0001:00032450       __fh?FActivateTextCore@DGSL@@QAAHPAUMSOSP@@@Z 10033450 f drdgsl.obj
 0001:00032452       ?FActivateTextCore@DGSL@@QAAHPAUMSOSP@@@Z 10033452 f drdgsl.obj
 0001:000324b0       __pcd_tbl?FActivateText@DGSL@@UAAHXZ 100334b0 f drdgsl.obj
 0001:000324b4       __nep?FActivateText@DGSL@@UAAHXZ 100334b4 f drdgsl.obj
 0001:000324bc       __fh?FActivateText@DGSL@@UAAHXZ 100334bc f drdgsl.obj
 0001:000324be       ?FActivateText@DGSL@@UAAHXZ 100334be f drdgsl.obj
 0001:000324d8       __pcd_tbl?FGetDispShapeRange@DGSL@@UAAHPAUIMsoDrawingUserInterface@@PAPAUIDispatch@@@Z 100334d8 f drdgsl.obj
 0001:000324dc       __nep?FGetDispShapeRange@DGSL@@UAAHPAUIMsoDrawingUserInterface@@PAPAUIDispatch@@@Z 100334dc f drdgsl.obj
 0001:000324e4       __fh?FGetDispShapeRange@DGSL@@UAAHPAUIMsoDrawingUserInterface@@PAPAUIDispatch@@@Z 100334e4 f drdgsl.obj
 0001:000324e6       ?FGetDispShapeRange@DGSL@@UAAHPAUIMsoDrawingUserInterface@@PAPAUIDispatch@@@Z 100334e6 f drdgsl.obj
 0001:000324ec       __pcd_tbl?FGetDispShapeRangeCore@DGSL@@QAAHPAUIMsoDrawingUserInterface@@PAPAUIDispatch@@PAPAVDispShapeRange@@@Z 100334ec f drdgsl.obj
 0001:00032504       __nep?FGetDispShapeRangeCore@DGSL@@QAAHPAUIMsoDrawingUserInterface@@PAPAUIDispatch@@PAPAVDispShapeRange@@@Z 10033504 f drdgsl.obj
 0001:0003250c       __fh?FGetDispShapeRangeCore@DGSL@@QAAHPAUIMsoDrawingUserInterface@@PAPAUIDispatch@@PAPAVDispShapeRange@@@Z 1003350c f drdgsl.obj
 0001:0003250e       ?FGetDispShapeRangeCore@DGSL@@QAAHPAUIMsoDrawingUserInterface@@PAPAUIDispatch@@PAPAVDispShapeRange@@@Z 1003350e f drdgsl.obj
 0001:00032574       __pcd_tbl?FCanAlign@DGSL@@QAAHHH@Z 10033574 f drdgsl.obj
 0001:00032584       __nep?FCanAlign@DGSL@@QAAHHH@Z 10033584 f drdgsl.obj
 0001:0003258c       __fh?FCanAlign@DGSL@@QAAHHH@Z 1003358c f drdgsl.obj
 0001:0003258e       ?FCanAlign@DGSL@@QAAHHH@Z  1003358e f drdgsl.obj
 0001:000325bc       __pcd_tbl?FAlignUndo@DGSL@@QAAHHPAVDGV@@H@Z 100335bc f drdgsl.obj
 0001:000325cc       __nep?FAlignUndo@DGSL@@QAAHHPAVDGV@@H@Z 100335cc f drdgsl.obj
 0001:000325d4       __fh?FAlignUndo@DGSL@@QAAHHPAVDGV@@H@Z 100335d4 f drdgsl.obj
 0001:000325d6       ?FAlignUndo@DGSL@@QAAHHPAVDGV@@H@Z 100335d6 f drdgsl.obj
 0001:000325f4       __pcd_tbl?FAlign@DGSL@@QAAHHPAVDGV@@H@Z 100335f4 f drdgsl.obj
 0001:00032618       __nep?FAlign@DGSL@@QAAHHPAVDGV@@H@Z 10033618 f drdgsl.obj
 0001:00032620       __fh?FAlign@DGSL@@QAAHHPAVDGV@@H@Z 10033620 f drdgsl.obj
 0001:00032623       ?FAlign@DGSL@@QAAHHPAVDGV@@H@Z 10033623 f drdgsl.obj
 0001:000326b4       __pcd_tbl?FCalcUprightBounds@DGSL@@QAAHPAUtagRECT@@@Z 100336b4 f drdgsl.obj
 0001:000326cc       __nep?FCalcUprightBounds@DGSL@@QAAHPAUtagRECT@@@Z 100336cc f drdgsl.obj
 0001:000326d4       __fh?FCalcUprightBounds@DGSL@@QAAHPAUtagRECT@@@Z 100336d4 f drdgsl.obj
 0001:000326d6       ?FCalcUprightBounds@DGSL@@QAAHPAUtagRECT@@@Z 100336d6 f drdgsl.obj
 0001:000326f8       __pcd_tbl?FAlignShape@DGSL@@QAAHHPAUMSOSP@@PAUtagRECT@@@Z 100336f8 f drdgsl.obj
 0001:00032704       __nep?FAlignShape@DGSL@@QAAHHPAUMSOSP@@PAUtagRECT@@@Z 10033704 f drdgsl.obj
 0001:0003270c       __fh?FAlignShape@DGSL@@QAAHHPAUMSOSP@@PAUtagRECT@@@Z 1003370c f drdgsl.obj
 0001:0003270e       ?FAlignShape@DGSL@@QAAHHPAUMSOSP@@PAUtagRECT@@@Z 1003370e f drdgsl.obj
 0001:0003277c       __pcd_tbl?FCanDistribute@DGSL@@QAAHHH@Z 1003377c f drdgsl.obj
 0001:0003278c       __nep?FCanDistribute@DGSL@@QAAHHH@Z 1003378c f drdgsl.obj
 0001:00032794       __fh?FCanDistribute@DGSL@@QAAHHH@Z 10033794 f drdgsl.obj
 0001:00032796       ?FCanDistribute@DGSL@@QAAHHH@Z 10033796 f drdgsl.obj
 0001:000327c0       __pcd_tbl?FDistributeUndo@DGSL@@QAAHHH@Z 100337c0 f drdgsl.obj
 0001:000327d0       __nep?FDistributeUndo@DGSL@@QAAHHH@Z 100337d0 f drdgsl.obj
 0001:000327d8       __fh?FDistributeUndo@DGSL@@QAAHHH@Z 100337d8 f drdgsl.obj
 0001:000327da       ?FDistributeUndo@DGSL@@QAAHHH@Z 100337da f drdgsl.obj
 0001:000327f8       __pcd_tbl?FDistribute@DGSL@@QAAHHH@Z 100337f8 f drdgsl.obj
 0001:00032800       __nep?FDistribute@DGSL@@QAAHHH@Z 10033800 f drdgsl.obj
 0001:00032808       __fh?FDistribute@DGSL@@QAAHHH@Z 10033808 f drdgsl.obj
 0001:0003280a       ?FDistribute@DGSL@@QAAHHH@Z 1003380a f drdgsl.obj
 0001:00032820       ?FDistHorz@DGSL@@QAAHH@Z   10033820 f drdgsl.obj
 0001:00032820       .?SgnCmpHorzDSE@@YAHPBX0@Z 10033820   drdgsl.obj
 0001:00032cd0       ?FDistVert@DGSL@@QAAHH@Z   10033cd0 f drdgsl.obj
 0001:00032cd0       .?SgnCmpVertDSE@@YAHPBX0@Z 10033cd0   drdgsl.obj
 0001:0003319c       __pcd_tbl?FChangeShapeUndo@DGSL@@QAAHW4MSOSPT@@@Z 1003419c f drdgsl.obj
 0001:000331a8       __nep?FChangeShapeUndo@DGSL@@QAAHW4MSOSPT@@@Z 100341a8 f drdgsl.obj
 0001:000331b0       __fh?FChangeShapeUndo@DGSL@@QAAHW4MSOSPT@@@Z 100341b0 f drdgsl.obj
 0001:000331b2       ?FChangeShapeUndo@DGSL@@QAAHW4MSOSPT@@@Z 100341b2 f drdgsl.obj
 0001:000331d8       __pcd_tbl?FChangeShape@DGSL@@QAAHW4MSOSPT@@@Z 100341d8 f drdgsl.obj
 0001:000331e4       __nep?FChangeShape@DGSL@@QAAHW4MSOSPT@@@Z 100341e4 f drdgsl.obj
 0001:000331ec       __fh?FChangeShape@DGSL@@QAAHW4MSOSPT@@@Z 100341ec f drdgsl.obj
 0001:000331ef       ?FChangeShape@DGSL@@QAAHW4MSOSPT@@@Z 100341ef f drdgsl.obj
 0001:00033258       __pcd_tbl?FCanReroute@DGSL@@QAAHXZ 10034258 f drdgsl.obj
 0001:00033268       __nep?FCanReroute@DGSL@@QAAHXZ 10034268 f drdgsl.obj
 0001:00033270       __fh?FCanReroute@DGSL@@QAAHXZ 10034270 f drdgsl.obj
 0001:00033272       ?FCanReroute@DGSL@@QAAHXZ  10034272 f drdgsl.obj
 0001:00033294       __pcd_tbl?FRerouteUndo@DGSL@@QAAHXZ 10034294 f drdgsl.obj
 0001:000332a4       __nep?FRerouteUndo@DGSL@@QAAHXZ 100342a4 f drdgsl.obj
 0001:000332ac       __fh?FRerouteUndo@DGSL@@QAAHXZ 100342ac f drdgsl.obj
 0001:000332ae       ?FRerouteUndo@DGSL@@QAAHXZ 100342ae f drdgsl.obj
 0001:000332c8       __pcd_tbl?FReroute@DGSL@@QAAHXZ 100342c8 f drdgsl.obj
 0001:000332d8       __nep?FReroute@DGSL@@QAAHXZ 100342d8 f drdgsl.obj
 0001:000332e0       __fh?FReroute@DGSL@@QAAHXZ 100342e0 f drdgsl.obj
 0001:000332e2       ?FReroute@DGSL@@QAAHXZ     100342e2 f drdgsl.obj
 0001:00033314       __pcd_tbl?FetchProp@DGSL@@UAAXW4MSOPID@@PAX@Z 10034314 f drdgsl.obj
 0001:00033334       __nep?FetchProp@DGSL@@UAAXW4MSOPID@@PAX@Z 10034334 f drdgsl.obj
 0001:0003333c       __fh?FetchProp@DGSL@@UAAXW4MSOPID@@PAX@Z 1003433c f drdgsl.obj
 0001:0003333f       ?FetchProp@DGSL@@UAAXW4MSOPID@@PAX@Z 1003433f f drdgsl.obj
 0001:000333fc       __pcd_tbl?CProp@DGSL@@QAAHW4MSOPID@@K@Z 100343fc f drdgsl.obj
 0001:00033400       __nep?CProp@DGSL@@QAAHW4MSOPID@@K@Z 10034400 f drdgsl.obj
 0001:00033408       __fh?CProp@DGSL@@QAAHW4MSOPID@@K@Z 10034408 f drdgsl.obj
 0001:0003340a       ?CProp@DGSL@@QAAHW4MSOPID@@K@Z 1003440a f drdgsl.obj
 0001:00033438       __pcd_tbl?GetNinchOrNull@DGSL@@QAAXPBUMSOPINFO@@PAX@Z 10034438 f drdgsl.obj
 0001:00033438       __nep?GetNinchOrNull@DGSL@@QAAXPBUMSOPINFO@@PAX@Z 10034438 f drdgsl.obj
 0001:00033440       __fh?GetNinchOrNull@DGSL@@QAAXPBUMSOPINFO@@PAX@Z 10034440 f drdgsl.obj
 0001:00033442       ?GetNinchOrNull@DGSL@@QAAXPBUMSOPINFO@@PAX@Z 10034442 f drdgsl.obj
 0001:0003345c       __pcd_tbl?DgrSetProp@DGSL@@UAA?AW4MSODGR@@W4MSOPID@@PBXHPAPAX@Z 1003445c f drdgsl.obj
 0001:00033460       __nep?DgrSetProp@DGSL@@UAA?AW4MSODGR@@W4MSOPID@@PBXHPAPAX@Z 10034460 f drdgsl.obj
 0001:00033468       __fh?DgrSetProp@DGSL@@UAA?AW4MSODGR@@W4MSOPID@@PBXHPAPAX@Z 10034468 f drdgsl.obj
 0001:0003346a       ?DgrSetProp@DGSL@@UAA?AW4MSODGR@@W4MSOPID@@PBXHPAPAX@Z 1003446a f drdgsl.obj
 0001:00033480       __pcd_tbl?FSetPropUndo@DGSL@@QAAHW4MSOPID@@PBXHHHPAH@Z 10034480 f drdgsl.obj
 0001:000334c0       __nep?FSetPropUndo@DGSL@@QAAHW4MSOPID@@PBXHHHPAH@Z 100344c0 f drdgsl.obj
 0001:000334c8       __fh?FSetPropUndo@DGSL@@QAAHW4MSOPID@@PBXHHHPAH@Z 100344c8 f drdgsl.obj
 0001:000334cb       ?FSetPropUndo@DGSL@@QAAHW4MSOPID@@PBXHHHPAH@Z 100344cb f drdgsl.obj
 0001:00033624       __pcd_tbl?DgrResetProp@DGSL@@UAA?AW4MSODGR@@W4MSOPID@@PAPAX@Z 10034624 f drdgsl.obj
 0001:00033650       __nep?DgrResetProp@DGSL@@UAA?AW4MSODGR@@W4MSOPID@@PAPAX@Z 10034650 f drdgsl.obj
 0001:00033658       __fh?DgrResetProp@DGSL@@UAA?AW4MSODGR@@W4MSOPID@@PAPAX@Z 10034658 f drdgsl.obj
 0001:0003365b       ?DgrResetProp@DGSL@@UAA?AW4MSODGR@@W4MSOPID@@PAPAX@Z 1003465b f drdgsl.obj
 0001:0003373c       __pcd_tbl?FFetchPropSet@DGSL@@UAAHW4MSOPSID@@PAX@Z 1003473c f drdgsl.obj
 0001:00033744       __nep?FFetchPropSet@DGSL@@UAAHW4MSOPSID@@PAX@Z 10034744 f drdgsl.obj
 0001:0003374c       __fh?FFetchPropSet@DGSL@@UAAHW4MSOPSID@@PAX@Z 1003474c f drdgsl.obj
 0001:0003374e       ?FFetchPropSet@DGSL@@UAAHW4MSOPSID@@PAX@Z 1003474e f drdgsl.obj
 0001:00033768       __pcd_tbl?FSetPropSetUndo@DGSL@@QAAHW4MSOPSID@@PBXHPAPAXH@Z 10034768 f drdgsl.obj
 0001:000337b8       __nep?FSetPropSetUndo@DGSL@@QAAHW4MSOPSID@@PBXHPAPAXH@Z 100347b8 f drdgsl.obj
 0001:000337c0       __fh?FSetPropSetUndo@DGSL@@QAAHW4MSOPSID@@PBXHPAPAXH@Z 100347c0 f drdgsl.obj
 0001:000337c3       ?FSetPropSetUndo@DGSL@@QAAHW4MSOPSID@@PBXHPAPAXH@Z 100347c3 f drdgsl.obj
 0001:00033934       __pcd_tbl?DgrSetPropSet@DGSL@@UAA?AW4MSODGR@@W4MSOPSID@@PBXHPAPAX@Z 10034934 f drdgsl.obj
 0001:00033938       __nep?DgrSetPropSet@DGSL@@UAA?AW4MSODGR@@W4MSOPSID@@PBXHPAPAX@Z 10034938 f drdgsl.obj
 0001:00033940       __fh?DgrSetPropSet@DGSL@@UAA?AW4MSODGR@@W4MSOPSID@@PBXHPAPAX@Z 10034940 f drdgsl.obj
 0001:00033942       ?DgrSetPropSet@DGSL@@UAA?AW4MSODGR@@W4MSOPSID@@PBXHPAPAX@Z 10034942 f drdgsl.obj
 0001:00033954       ?FRecordFillProp@DGSL@@QAAHPAUDGCB@@W4MSOPID@@PAXH@Z 10034954 f drdgsl.obj
 0001:00033ca8       __pcd_tbl?FRecordTransformPropSet@DGSL@@QAAHPAUDGCB@@PAX@Z 10034ca8 f drdgsl.obj
 0001:00033ca8       __nep?FRecordTransformPropSet@DGSL@@QAAHPAUDGCB@@PAX@Z 10034ca8 f drdgsl.obj
 0001:00033cb0       __fh?FRecordTransformPropSet@DGSL@@QAAHPAUDGCB@@PAX@Z 10034cb0 f drdgsl.obj
 0001:00033cb2       ?FRecordTransformPropSet@DGSL@@QAAHPAUDGCB@@PAX@Z 10034cb2 f drdgsl.obj
 0001:00033cb4       __pcd_tbl?FRecordProtectionProp@DGSL@@QAAHPAUDGCB@@W4MSOPID@@PAXH@Z 10034cb4 f drdgsl.obj
 0001:00033cc4       __nep?FRecordProtectionProp@DGSL@@QAAHPAUDGCB@@W4MSOPID@@PAXH@Z 10034cc4 f drdgsl.obj
 0001:00033ccc       __fh?FRecordProtectionProp@DGSL@@QAAHPAUDGCB@@W4MSOPID@@PAXH@Z 10034ccc f drdgsl.obj
 0001:00033ccf       ?FRecordProtectionProp@DGSL@@QAAHPAUDGCB@@W4MSOPID@@PAXH@Z 10034ccf f drdgsl.obj
 0001:00033d44       __pcd_tbl?FRecordProtectionPropSet@DGSL@@QAAHPAUDGCB@@PAUMSOPSProtection@@@Z 10034d44 f drdgsl.obj
 0001:00033d48       __nep?FRecordProtectionPropSet@DGSL@@QAAHPAUDGCB@@PAUMSOPSProtection@@@Z 10034d48 f drdgsl.obj
 0001:00033d50       __fh?FRecordProtectionPropSet@DGSL@@QAAHPAUDGCB@@PAUMSOPSProtection@@@Z 10034d50 f drdgsl.obj
 0001:00033d52       ?FRecordProtectionPropSet@DGSL@@QAAHPAUDGCB@@PAUMSOPSProtection@@@Z 10034d52 f drdgsl.obj
 0001:00033d6c       ?FRecordTextProp@DGSL@@QAAHPAUDGCB@@W4MSOPID@@PAXH@Z 10034d6c f drdgsl.obj
 0001:00034074       __pcd_tbl?FRecordTextPropSet@DGSL@@QAAHPAUDGCB@@PAUMSOPSText@@@Z 10035074 f drdgsl.obj
 0001:00034078       __nep?FRecordTextPropSet@DGSL@@QAAHPAUDGCB@@PAUMSOPSText@@@Z 10035078 f drdgsl.obj
 0001:00034080       __fh?FRecordTextPropSet@DGSL@@QAAHPAUDGCB@@PAUMSOPSText@@@Z 10035080 f drdgsl.obj
 0001:00034082       ?FRecordTextPropSet@DGSL@@QAAHPAUDGCB@@PAUMSOPSText@@@Z 10035082 f drdgsl.obj
 0001:000340bc       ?FRecordGeoTextProp@DGSL@@QAAHPAUDGCB@@W4MSOPID@@PAXH@Z 100350bc f drdgsl.obj
 0001:00034844       __pcd_tbl?FRecordGeoTextPropSet@DGSL@@QAAHPAUDGCB@@PAUMSOPSGeoText@@@Z 10035844 f drdgsl.obj
 0001:0003484c       __nep?FRecordGeoTextPropSet@DGSL@@QAAHPAUDGCB@@PAUMSOPSGeoText@@@Z 1003584c f drdgsl.obj
 0001:00034854       __fh?FRecordGeoTextPropSet@DGSL@@QAAHPAUDGCB@@PAUMSOPSGeoText@@@Z 10035854 f drdgsl.obj
 0001:00034856       ?FRecordGeoTextPropSet@DGSL@@QAAHPAUDGCB@@PAUMSOPSGeoText@@@Z 10035856 f drdgsl.obj
 0001:00034938       __pcd_tbl?FRecordPictureColorType@DGSL@@QAAHPAUDGCB@@PAUMSOPSBlip@@H@Z 10035938 f drdgsl.obj
 0001:00034940       __nep?FRecordPictureColorType@DGSL@@QAAHPAUDGCB@@PAUMSOPSBlip@@H@Z 10035940 f drdgsl.obj
 0001:00034948       __fh?FRecordPictureColorType@DGSL@@QAAHPAUDGCB@@PAUMSOPSBlip@@H@Z 10035948 f drdgsl.obj
 0001:0003494a       ?FRecordPictureColorType@DGSL@@QAAHPAUDGCB@@PAUMSOPSBlip@@H@Z 1003594a f drdgsl.obj
 0001:0003499c       __pcd_tbl?FRecordPictureColorType@DGSL@@QAAHPAUDGCB@@W4MsoPictureColorType@@H@Z 1003599c f drdgsl.obj
 0001:000349a8       __nep?FRecordPictureColorType@DGSL@@QAAHPAUDGCB@@W4MsoPictureColorType@@H@Z 100359a8 f drdgsl.obj
 0001:000349b0       __fh?FRecordPictureColorType@DGSL@@QAAHPAUDGCB@@W4MsoPictureColorType@@H@Z 100359b0 f drdgsl.obj
 0001:000349b3       ?FRecordPictureColorType@DGSL@@QAAHPAUDGCB@@W4MsoPictureColorType@@H@Z 100359b3 f drdgsl.obj
 0001:000349e4       ?FRecordBlipProp@DGSL@@QAAHPAUDGCB@@W4MSOPID@@PAXH@Z 100359e4 f drdgsl.obj
 0001:00034eb0       __pcd_tbl?FRecordBlipPropSet@DGSL@@QAAHPAUDGCB@@PAUMSOPSBlip@@@Z 10035eb0 f drdgsl.obj
 0001:00034eb8       __nep?FRecordBlipPropSet@DGSL@@QAAHPAUDGCB@@PAUMSOPSBlip@@@Z 10035eb8 f drdgsl.obj
 0001:00034ec0       __fh?FRecordBlipPropSet@DGSL@@QAAHPAUDGCB@@PAUMSOPSBlip@@@Z 10035ec0 f drdgsl.obj
 0001:00034ec2       ?FRecordBlipPropSet@DGSL@@QAAHPAUDGCB@@PAUMSOPSBlip@@@Z 10035ec2 f drdgsl.obj
 0001:00034f14       __pcd_tbl?FRecordGeometryPropSet@DGSL@@QAAHPAUDGCB@@PAUMSOPSGeometry@@@Z 10035f14 f drdgsl.obj
 0001:00034f14       __nep?FRecordGeometryPropSet@DGSL@@QAAHPAUDGCB@@PAUMSOPSGeometry@@@Z 10035f14 f drdgsl.obj
 0001:00034f1c       __fh?FRecordGeometryPropSet@DGSL@@QAAHPAUDGCB@@PAUMSOPSGeometry@@@Z 10035f1c f drdgsl.obj
 0001:00034f1e       ?FRecordGeometryPropSet@DGSL@@QAAHPAUDGCB@@PAUMSOPSGeometry@@@Z 10035f1e f drdgsl.obj
 0001:00034f20       ?FRecordShadedFill@DGSL@@QAAHPAUDGCB@@PAXH@Z 10035f20 f drdgsl.obj
 0001:00035308       __pcd_tbl?FRecordPatternFill@DGSL@@QAAHPAUDGCB@@PAXH@Z 10036308 f drdgsl.obj
 0001:00035324       __nep?FRecordPatternFill@DGSL@@QAAHPAUDGCB@@PAXH@Z 10036324 f drdgsl.obj
 0001:0003532c       __fh?FRecordPatternFill@DGSL@@QAAHPAUDGCB@@PAXH@Z 1003632c f drdgsl.obj
 0001:0003532f       ?FRecordPatternFill@DGSL@@QAAHPAUDGCB@@PAXH@Z 1003632f f drdgsl.obj
 0001:00035434       __pcd_tbl?FRecordFillPropSet@DGSL@@QAAHPAUDGCB@@PAX@Z 10036434 f drdgsl.obj
 0001:00035440       __nep?FRecordFillPropSet@DGSL@@QAAHPAUDGCB@@PAX@Z 10036440 f drdgsl.obj
 0001:00035448       __fh?FRecordFillPropSet@DGSL@@QAAHPAUDGCB@@PAX@Z 10036448 f drdgsl.obj
 0001:0003544a       ?FRecordFillPropSet@DGSL@@QAAHPAUDGCB@@PAX@Z 1003644a f drdgsl.obj
 0001:00035498       ?FRecordLineProp@DGSL@@QAAHPAUDGCB@@W4MSOPID@@PAXH@Z 10036498 f drdgsl.obj
 0001:00035bdc       __pcd_tbl?FRecordLinePropSet@DGSL@@QAAHPAUDGCB@@PAUMSOPSLineStyle@@@Z 10036bdc f drdgsl.obj
 0001:00035be0       __nep?FRecordLinePropSet@DGSL@@QAAHPAUDGCB@@PAUMSOPSLineStyle@@@Z 10036be0 f drdgsl.obj
 0001:00035be8       __fh?FRecordLinePropSet@DGSL@@QAAHPAUDGCB@@PAUMSOPSLineStyle@@@Z 10036be8 f drdgsl.obj
 0001:00035bea       ?FRecordLinePropSet@DGSL@@QAAHPAUDGCB@@PAUMSOPSLineStyle@@@Z 10036bea f drdgsl.obj
 0001:00035c88       ?FRecordShadowProp@DGSL@@QAAHPAUDGCB@@W4MSOPID@@PAXH@Z 10036c88 f drdgsl.obj
 0001:00036150       __pcd_tbl?FRecordShadowPropSet@DGSL@@QAAHPAUDGCB@@PAUMSOPSShadowStyle@@@Z 10037150 f drdgsl.obj
 0001:00036154       __nep?FRecordShadowPropSet@DGSL@@QAAHPAUDGCB@@PAUMSOPSShadowStyle@@@Z 10037154 f drdgsl.obj
 0001:0003615c       __fh?FRecordShadowPropSet@DGSL@@QAAHPAUDGCB@@PAUMSOPSShadowStyle@@@Z 1003715c f drdgsl.obj
 0001:0003615e       ?FRecordShadowPropSet@DGSL@@QAAHPAUDGCB@@PAUMSOPSShadowStyle@@@Z 1003715e f drdgsl.obj
 0001:000361a8       ?FRecord3DObjectProp@DGSL@@QAAHPAUDGCB@@W4MSOPID@@PAXH@Z 100371a8 f drdgsl.obj
 0001:000364e8       __pcd_tbl?FRecordPreset@DGSL@@QAAHPAUDGCB@@W4MSOPRE@@@Z 100374e8 f drdgsl.obj
 0001:00036524       __nep?FRecordPreset@DGSL@@QAAHPAUDGCB@@W4MSOPRE@@@Z 10037524 f drdgsl.obj
 0001:0003652c       __fh?FRecordPreset@DGSL@@QAAHPAUDGCB@@W4MSOPRE@@@Z 1003752c f drdgsl.obj
 0001:0003652f       ?FRecordPreset@DGSL@@QAAHPAUDGCB@@W4MSOPRE@@@Z 1003752f f drdgsl.obj
 0001:000366a4       __pcd_tbl?FRecordPresetValue@DGSL@@QAAHPAUDGCB@@W4MSOPRE@@@Z 100376a4 f drdgsl.obj
 0001:000366dc       __nep?FRecordPresetValue@DGSL@@QAAHPAUDGCB@@W4MSOPRE@@@Z 100376dc f drdgsl.obj
 0001:000366e4       __fh?FRecordPresetValue@DGSL@@QAAHPAUDGCB@@W4MSOPRE@@@Z 100376e4 f drdgsl.obj
 0001:000366e7       ?FRecordPresetValue@DGSL@@QAAHPAUDGCB@@W4MSOPRE@@@Z 100376e7 f drdgsl.obj
 0001:0003694c       __pcd_tbl?FRecord3DObjectPropSet@DGSL@@QAAHPAUDGCB@@PAUMSOPS3DObject@@@Z 1003794c f drdgsl.obj
 0001:00036950       __nep?FRecord3DObjectPropSet@DGSL@@QAAHPAUDGCB@@PAUMSOPS3DObject@@@Z 10037950 f drdgsl.obj
 0001:00036958       __fh?FRecord3DObjectPropSet@DGSL@@QAAHPAUDGCB@@PAUMSOPS3DObject@@@Z 10037958 f drdgsl.obj
 0001:0003695a       ?FRecord3DObjectPropSet@DGSL@@QAAHPAUDGCB@@PAUMSOPS3DObject@@@Z 1003795a f drdgsl.obj
 0001:00036990       ?FRecord3DStyleProp@DGSL@@QAAHPAUDGCB@@W4MSOPID@@PAXH@Z 10037990 f drdgsl.obj
 0001:00036bd4       __pcd_tbl?FRecord3DStylePropSet@DGSL@@QAAHPAUDGCB@@PAUMSOPS3DStyle@@@Z 10037bd4 f drdgsl.obj
 0001:00036bd8       __nep?FRecord3DStylePropSet@DGSL@@QAAHPAUDGCB@@PAUMSOPS3DStyle@@@Z 10037bd8 f drdgsl.obj
 0001:00036be0       __fh?FRecord3DStylePropSet@DGSL@@QAAHPAUDGCB@@PAUMSOPS3DStyle@@@Z 10037be0 f drdgsl.obj
 0001:00036be2       ?FRecord3DStylePropSet@DGSL@@QAAHPAUDGCB@@PAUMSOPS3DStyle@@@Z 10037be2 f drdgsl.obj
 0001:00036c08       __nep?FRecordPerspectiveStylePropSet@DGSL@@QAAHPAUDGCB@@PAUMSOPSPerspectiveStyle@@@Z 10037c08 f drdgsl.obj
 0001:00036c08       __pcd_tbl?FRecordPerspectiveStylePropSet@DGSL@@QAAHPAUDGCB@@PAUMSOPSPerspectiveStyle@@@Z 10037c08 f drdgsl.obj
 0001:00036c10       __fh?FRecordPerspectiveStylePropSet@DGSL@@QAAHPAUDGCB@@PAUMSOPSPerspectiveStyle@@@Z 10037c10 f drdgsl.obj
 0001:00036c12       ?FRecordPerspectiveStylePropSet@DGSL@@QAAHPAUDGCB@@PAUMSOPSPerspectiveStyle@@@Z 10037c12 f drdgsl.obj
 0001:00036c14       __pcd_tbl?FRecordCXStyle@DGSL@@QAAHPAUDGCB@@W4MSOCXSTYLE@@@Z 10037c14 f drdgsl.obj
 0001:00036c24       __nep?FRecordCXStyle@DGSL@@QAAHPAUDGCB@@W4MSOCXSTYLE@@@Z 10037c24 f drdgsl.obj
 0001:00036c2c       __fh?FRecordCXStyle@DGSL@@QAAHPAUDGCB@@W4MSOCXSTYLE@@@Z 10037c2c f drdgsl.obj
 0001:00036c2f       ?FRecordCXStyle@DGSL@@QAAHPAUDGCB@@W4MSOCXSTYLE@@@Z 10037c2f f drdgsl.obj
 0001:00036c78       ?FRecordShapeProp@DGSL@@QAAHPAUDGCB@@W4MSOPID@@PAXH@Z 10037c78 f drdgsl.obj
 0001:00036e40       __pcd_tbl?FRecordShapePropSet@DGSL@@QAAHPAUDGCB@@PAUMSOPSShape@@@Z 10037e40 f drdgsl.obj
 0001:00036e48       __nep?FRecordShapePropSet@DGSL@@QAAHPAUDGCB@@PAUMSOPSShape@@@Z 10037e48 f drdgsl.obj
 0001:00036e50       __fh?FRecordShapePropSet@DGSL@@QAAHPAUDGCB@@PAUMSOPSShape@@@Z 10037e50 f drdgsl.obj
 0001:00036e52       ?FRecordShapePropSet@DGSL@@QAAHPAUDGCB@@PAUMSOPSShape@@@Z 10037e52 f drdgsl.obj
 0001:00036e68       ?FRecordCalloutProp@DGSL@@QAAHPAUDGCB@@W4MSOPID@@PAXH@Z 10037e68 f drdgsl.obj
 0001:00037544       __pcd_tbl?FRecordCalloutPropSet@DGSL@@QAAHPAUDGCB@@PAUMSOPSCallout@@@Z 10038544 f drdgsl.obj
 0001:00037548       __nep?FRecordCalloutPropSet@DGSL@@QAAHPAUDGCB@@PAUMSOPSCallout@@@Z 10038548 f drdgsl.obj
 0001:00037550       __fh?FRecordCalloutPropSet@DGSL@@QAAHPAUDGCB@@PAUMSOPSCallout@@@Z 10038550 f drdgsl.obj
 0001:00037552       ?FRecordCalloutPropSet@DGSL@@QAAHPAUDGCB@@PAUMSOPSCallout@@@Z 10038552 f drdgsl.obj
 0001:000375e4       __pcd_tbl?FRecordProp@DGSL@@QAAHPAUDGCB@@W4MSOPID@@PBX@Z 100385e4 f drdgsl.obj
 0001:00037614       __nep?FRecordProp@DGSL@@QAAHPAUDGCB@@W4MSOPID@@PBX@Z 10038614 f drdgsl.obj
 0001:0003761c       __fh?FRecordProp@DGSL@@QAAHPAUDGCB@@W4MSOPID@@PBX@Z 1003861c f drdgsl.obj
 0001:0003761e       ?FRecordProp@DGSL@@QAAHPAUDGCB@@W4MSOPID@@PBX@Z 1003861e f drdgsl.obj
 0001:00037750       __pcd_tbl?FComputeCrop@DGSL@@QAAHW4MSOPID@@JPAJ@Z 10038750 f drdgsl.obj
 0001:0003775c       __nep?FComputeCrop@DGSL@@QAAHW4MSOPID@@JPAJ@Z 1003875c f drdgsl.obj
 0001:00037764       __fh?FComputeCrop@DGSL@@QAAHW4MSOPID@@JPAJ@Z 10038764 f drdgsl.obj
 0001:00037766       ?FComputeCrop@DGSL@@QAAHW4MSOPID@@JPAJ@Z 10038766 f drdgsl.obj
 0001:000377e0       __pcd_tbl?FRecordFakeSppid@DGSL@@QAAHPAUDGCB@@PAUMSOSPP@@@Z 100387e0 f drdgsl.obj
 0001:000377f8       __nep?FRecordFakeSppid@DGSL@@QAAHPAUDGCB@@PAUMSOSPP@@@Z 100387f8 f drdgsl.obj
 0001:00037800       __fh?FRecordFakeSppid@DGSL@@QAAHPAUDGCB@@PAUMSOSPP@@@Z 10038800 f drdgsl.obj
 0001:00037803       ?FRecordFakeSppid@DGSL@@QAAHPAUDGCB@@PAUMSOSPP@@@Z 10038803 f drdgsl.obj
 0001:000378a8       __pcd_tbl?FRecordRgspp@DGSL@@QAAHPAUDGCB@@PAUMSOSPP@@H@Z 100388a8 f drdgsl.obj
 0001:000378c0       __nep?FRecordRgspp@DGSL@@QAAHPAUDGCB@@PAUMSOSPP@@H@Z 100388c0 f drdgsl.obj
 0001:000378c8       __fh?FRecordRgspp@DGSL@@QAAHPAUDGCB@@PAUMSOSPP@@H@Z 100388c8 f drdgsl.obj
 0001:000378ca       ?FRecordRgspp@DGSL@@QAAHPAUDGCB@@PAUMSOSPP@@H@Z 100388ca f drdgsl.obj
 0001:000379e8       __pcd_tbl?FRecordPropSet@DGSL@@QAAHPAUDGCB@@W4MSOPSID@@PAX@Z 100389e8 f drdgsl.obj
 0001:00037a20       __nep?FRecordPropSet@DGSL@@QAAHPAUDGCB@@W4MSOPSID@@PAX@Z 10038a20 f drdgsl.obj
 0001:00037a28       __fh?FRecordPropSet@DGSL@@QAAHPAUDGCB@@W4MSOPSID@@PAX@Z 10038a28 f drdgsl.obj
 0001:00037a2a       ?FRecordPropSet@DGSL@@QAAHPAUDGCB@@W4MSOPSID@@PAX@Z 10038a2a f drdgsl.obj
 0001:00037aa4       __pcd_tbl?DgrResetPropSet@DGSL@@UAA?AW4MSODGR@@W4MSOPSID@@PAPAX@Z 10038aa4 f drdgsl.obj
 0001:00037ad4       __nep?DgrResetPropSet@DGSL@@UAA?AW4MSODGR@@W4MSOPSID@@PAPAX@Z 10038ad4 f drdgsl.obj
 0001:00037adc       __fh?DgrResetPropSet@DGSL@@UAA?AW4MSODGR@@W4MSOPSID@@PAPAX@Z 10038adc f drdgsl.obj
 0001:00037adf       ?DgrResetPropSet@DGSL@@UAA?AW4MSODGR@@W4MSOPSID@@PAPAX@Z 10038adf f drdgsl.obj
 0001:00037bec       __pcd_tbl?PreMatchPreset@DGSL@@UAA?AW4MSOPRE@@W42@0W4MSOPID@@@Z 10038bec f drdgsl.obj
 0001:00037bfc       __nep?PreMatchPreset@DGSL@@UAA?AW4MSOPRE@@W42@0W4MSOPID@@@Z 10038bfc f drdgsl.obj
 0001:00037c04       __fh?PreMatchPreset@DGSL@@UAA?AW4MSOPRE@@W42@0W4MSOPID@@@Z 10038c04 f drdgsl.obj
 0001:00037c06       ?PreMatchPreset@DGSL@@UAA?AW4MSOPRE@@W42@0W4MSOPID@@@Z 10038c06 f drdgsl.obj
 0001:00037c48       __pcd_tbl?DgrApplyPreset@DGSL@@UAA?AW4MSODGR@@W4MSOPRE@@PAPAXH@Z 10038c48 f drdgsl.obj
 0001:00037c74       __nep?DgrApplyPreset@DGSL@@UAA?AW4MSODGR@@W4MSOPRE@@PAPAXH@Z 10038c74 f drdgsl.obj
 0001:00037c7c       __fh?DgrApplyPreset@DGSL@@UAA?AW4MSODGR@@W4MSOPRE@@PAPAXH@Z 10038c7c f drdgsl.obj
 0001:00037c7f       ?DgrApplyPreset@DGSL@@UAA?AW4MSODGR@@W4MSOPRE@@PAPAXH@Z 10038c7f f drdgsl.obj
 0001:00037d74       __pcd_tbl?DgrDisconnect@DGSL@@QAA?AW4MSODGR@@HPAPAX@Z 10038d74 f drdgsl.obj
 0001:00037d78       __nep?DgrDisconnect@DGSL@@QAA?AW4MSODGR@@HPAPAX@Z 10038d78 f drdgsl.obj
 0001:00037d80       __fh?DgrDisconnect@DGSL@@QAA?AW4MSODGR@@HPAPAX@Z 10038d80 f drdgsl.obj
 0001:00037d82       ?DgrDisconnect@DGSL@@QAA?AW4MSODGR@@HPAPAX@Z 10038d82 f drdgsl.obj
 0001:00037d88       __nep?GetDrawing@DGSL@@UAAXPAPAUIMsoDrawing@@@Z 10038d88 f drdgsl.obj
 0001:00037d88       __pcd_tbl?GetDrawing@DGSL@@UAAXPAPAUIMsoDrawing@@@Z 10038d88 f drdgsl.obj
 0001:00037d90       __fh?GetDrawing@DGSL@@UAAXPAPAUIMsoDrawing@@@Z 10038d90 f drdgsl.obj
 0001:00037d92       ?GetDrawing@DGSL@@UAAXPAPAUIMsoDrawing@@@Z 10038d92 f drdgsl.obj
 0001:00037d98       __nep?FPspSelected@DGSL@@QAAHPAUMSOSP@@PAH@Z 10038d98 f drdgsl.obj
 0001:00037d98       __pcd_tbl?FPspSelected@DGSL@@QAAHPAUMSOSP@@PAH@Z 10038d98 f drdgsl.obj
 0001:00037da0       __fh?FPspSelected@DGSL@@QAAHPAUMSOSP@@PAH@Z 10038da0 f drdgsl.obj
 0001:00037da2       ?FPspSelected@DGSL@@QAAHPAUMSOSP@@PAH@Z 10038da2 f drdgsl.obj
 0001:00037df8       __pcd_tbl?PspFirst@DGSL@@QAAPAUMSOSP@@XZ 10038df8 f drdgsl.obj
 0001:00037df8       __nep?PspFirst@DGSL@@QAAPAUMSOSP@@XZ 10038df8 f drdgsl.obj
 0001:00037e00       __fh?PspFirst@DGSL@@QAAPAUMSOSP@@XZ 10038e00 f drdgsl.obj
 0001:00037e02       ?PspFirst@DGSL@@QAAPAUMSOSP@@XZ 10038e02 f drdgsl.obj
 0001:00037e0c       __pcd_tbl?BeforeChange@DGSL@@QAAXXZ 10038e0c f drdgsl.obj
 0001:00037e10       __nep?BeforeChange@DGSL@@QAAXXZ 10038e10 f drdgsl.obj
 0001:00037e18       __fh?BeforeChange@DGSL@@QAAXXZ 10038e18 f drdgsl.obj
 0001:00037e1a       ?BeforeChange@DGSL@@QAAXXZ 10038e1a f drdgsl.obj
 0001:00037e38       __pcd_tbl?AfterChange@DGSL@@QAAXH@Z 10038e38 f drdgsl.obj
 0001:00037e44       __nep?AfterChange@DGSL@@QAAXH@Z 10038e44 f drdgsl.obj
 0001:00037e4c       __fh?AfterChange@DGSL@@QAAXH@Z 10038e4c f drdgsl.obj
 0001:00037e4f       ?AfterChange@DGSL@@QAAXH@Z 10038e4f f drdgsl.obj
 0001:00037f0c       __pcd_tbl?Update@DGSL@@UAAXXZ 10038f0c f drdgsl.obj
 0001:00037f0c       __nep?Update@DGSL@@UAAXXZ  10038f0c f drdgsl.obj
 0001:00037f14       __fh?Update@DGSL@@UAAXXZ   10038f14 f drdgsl.obj
 0001:00037f16       ?Update@DGSL@@UAAXXZ       10038f16 f drdgsl.obj
 0001:00037f30       __pcd_tbl?FToggleReshapeMode@DGSL@@QAAHXZ 10038f30 f drdgsl.obj
 0001:00037f30       __nep?FToggleReshapeMode@DGSL@@QAAHXZ 10038f30 f drdgsl.obj
 0001:00037f38       __fh?FToggleReshapeMode@DGSL@@QAAHXZ 10038f38 f drdgsl.obj
 0001:00037f3a       ?FToggleReshapeMode@DGSL@@QAAHXZ 10038f3a f drdgsl.obj
 0001:00037f54       __pcd_tbl?FToggleRotateMode@DGSL@@QAAHXZ 10038f54 f drdgsl.obj
 0001:00037f54       __nep?FToggleRotateMode@DGSL@@QAAHXZ 10038f54 f drdgsl.obj
 0001:00037f5c       __fh?FToggleRotateMode@DGSL@@QAAHXZ 10038f5c f drdgsl.obj
 0001:00037f5e       ?FToggleRotateMode@DGSL@@QAAHXZ 10038f5e f drdgsl.obj
 0001:00037f88       __pcd_tbl?FToggleWrapPolygonMode@DGSL@@QAAHXZ 10038f88 f drdgsl.obj
 0001:00037f88       __nep?FToggleWrapPolygonMode@DGSL@@QAAHXZ 10038f88 f drdgsl.obj
 0001:00037f90       __fh?FToggleWrapPolygonMode@DGSL@@QAAHXZ 10038f90 f drdgsl.obj
 0001:00037f92       ?FToggleWrapPolygonMode@DGSL@@QAAHXZ 10038f92 f drdgsl.obj
 0001:00037fbc       __pcd_tbl?FClearUndo@DGSL@@QAAHXZ 10038fbc f drdgsl.obj
 0001:00037fc8       __nep?FClearUndo@DGSL@@QAAHXZ 10038fc8 f drdgsl.obj
 0001:00037fd0       __fh?FClearUndo@DGSL@@QAAHXZ 10038fd0 f drdgsl.obj
 0001:00037fd2       ?FClearUndo@DGSL@@QAAHXZ   10038fd2 f drdgsl.obj
 0001:00037fe8       __pcd_tbl?FClearOp@DGSL@@QAAHXZ 10038fe8 f drdgsl.obj
 0001:00037fec       __nep?FClearOp@DGSL@@QAAHXZ 10038fec f drdgsl.obj
 0001:00037ff4       __fh?FClearOp@DGSL@@QAAHXZ 10038ff4 f drdgsl.obj
 0001:00037ff6       ?FClearOp@DGSL@@QAAHXZ     10038ff6 f drdgsl.obj
 0001:00038018       __pcd_tbl?FClear@DGSL@@QAAHXZ 10039018 f drdgsl.obj
 0001:00038024       __nep?FClear@DGSL@@QAAHXZ  10039024 f drdgsl.obj
 0001:0003802c       __fh?FClear@DGSL@@QAAHXZ   1003902c f drdgsl.obj
 0001:0003802e       ?FClear@DGSL@@QAAHXZ       1003902e f drdgsl.obj
 0001:00038068       __pcd_tbl?FGroupUndo@DGSL@@QAAHXZ 10039068 f drdgsl.obj
 0001:00038074       __nep?FGroupUndo@DGSL@@QAAHXZ 10039074 f drdgsl.obj
 0001:0003807c       __fh?FGroupUndo@DGSL@@QAAHXZ 1003907c f drdgsl.obj
 0001:0003807e       ?FGroupUndo@DGSL@@QAAHXZ   1003907e f drdgsl.obj
 0001:00038094       __pcd_tbl?FGroupOp@DGSL@@QAAHXZ 10039094 f drdgsl.obj
 0001:00038098       __nep?FGroupOp@DGSL@@QAAHXZ 10039098 f drdgsl.obj
 0001:000380a0       __fh?FGroupOp@DGSL@@QAAHXZ 100390a0 f drdgsl.obj
 0001:000380a2       ?FGroupOp@DGSL@@QAAHXZ     100390a2 f drdgsl.obj
 0001:000380c4       __pcd_tbl?FGroupAskEnabled@DGSL@@QAAHXZ 100390c4 f drdgsl.obj
 0001:000380cc       __nep?FGroupAskEnabled@DGSL@@QAAHXZ 100390cc f drdgsl.obj
 0001:000380d4       __fh?FGroupAskEnabled@DGSL@@QAAHXZ 100390d4 f drdgsl.obj
 0001:000380d6       ?FGroupAskEnabled@DGSL@@QAAHXZ 100390d6 f drdgsl.obj
 0001:000380f8       __pcd_tbl?FGroup@DGSL@@QAAHXZ 100390f8 f drdgsl.obj
 0001:00038134       __nep?FGroup@DGSL@@QAAHXZ  10039134 f drdgsl.obj
 0001:0003813c       __fh?FGroup@DGSL@@QAAHXZ   1003913c f drdgsl.obj
 0001:0003813f       ?FGroup@DGSL@@QAAHXZ       1003913f f drdgsl.obj
 0001:00038234       __pcd_tbl?FUngroupUndo@DGSL@@QAAHXZ 10039234 f drdgsl.obj
 0001:00038240       __nep?FUngroupUndo@DGSL@@QAAHXZ 10039240 f drdgsl.obj
 0001:00038248       __fh?FUngroupUndo@DGSL@@QAAHXZ 10039248 f drdgsl.obj
 0001:0003824a       ?FUngroupUndo@DGSL@@QAAHXZ 1003924a f drdgsl.obj
 0001:00038260       __pcd_tbl?FUngroupOp@DGSL@@QAAHXZ 10039260 f drdgsl.obj
 0001:0003826c       __nep?FUngroupOp@DGSL@@QAAHXZ 1003926c f drdgsl.obj
 0001:00038274       __fh?FUngroupOp@DGSL@@QAAHXZ 10039274 f drdgsl.obj
 0001:00038276       ?FUngroupOp@DGSL@@QAAHXZ   10039276 f drdgsl.obj
 0001:0003829c       __pcd_tbl?FUngroup@DGSL@@QAAHXZ 1003929c f drdgsl.obj
 0001:000382d8       __nep?FUngroup@DGSL@@QAAHXZ 100392d8 f drdgsl.obj
 0001:000382e0       __fh?FUngroup@DGSL@@QAAHXZ 100392e0 f drdgsl.obj
 0001:000382e3       ?FUngroup@DGSL@@QAAHXZ     100392e3 f drdgsl.obj
 0001:000383b0       __pcd_tbl?FDisassemble@DGSL@@QAAHXZ 100393b0 f drdgsl.obj
 0001:000383c8       __nep?FDisassemble@DGSL@@QAAHXZ 100393c8 f drdgsl.obj
 0001:000383d0       __fh?FDisassemble@DGSL@@QAAHXZ 100393d0 f drdgsl.obj
 0001:000383d3       ?FDisassemble@DGSL@@QAAHXZ 100393d3 f drdgsl.obj
 0001:0003840c       __pcd_tbl?FCanDisassemble@DGSL@@QAAHXZ 1003940c f drdgsl.obj
 0001:00038410       __nep?FCanDisassemble@DGSL@@QAAHXZ 10039410 f drdgsl.obj
 0001:00038418       __fh?FCanDisassemble@DGSL@@QAAHXZ 10039418 f drdgsl.obj
 0001:0003841a       ?FCanDisassemble@DGSL@@QAAHXZ 1003941a f drdgsl.obj
 0001:00038454       __pcd_tbl?FRegroupUndo@DGSL@@QAAHXZ 10039454 f drdgsl.obj
 0001:00038460       __nep?FRegroupUndo@DGSL@@QAAHXZ 10039460 f drdgsl.obj
 0001:00038468       __fh?FRegroupUndo@DGSL@@QAAHXZ 10039468 f drdgsl.obj
 0001:0003846a       ?FRegroupUndo@DGSL@@QAAHXZ 1003946a f drdgsl.obj
 0001:00038480       __pcd_tbl?FRegroupOp@DGSL@@QAAHXZ 10039480 f drdgsl.obj
 0001:00038484       __nep?FRegroupOp@DGSL@@QAAHXZ 10039484 f drdgsl.obj
 0001:0003848c       __fh?FRegroupOp@DGSL@@QAAHXZ 1003948c f drdgsl.obj
 0001:0003848e       ?FRegroupOp@DGSL@@QAAHXZ   1003948e f drdgsl.obj
 0001:000384b0       __pcd_tbl?FRegroup@DGSL@@QAAHXZ 100394b0 f drdgsl.obj
 0001:000384e8       __nep?FRegroup@DGSL@@QAAHXZ 100394e8 f drdgsl.obj
 0001:000384f0       __fh?FRegroup@DGSL@@QAAHXZ 100394f0 f drdgsl.obj
 0001:000384f3       ?FRegroup@DGSL@@QAAHXZ     100394f3 f drdgsl.obj
 0001:00038658       __pcd_tbl?FDuplicateUndo@DGSL@@QAAHXZ 10039658 f drdgsl.obj
 0001:00038664       __nep?FDuplicateUndo@DGSL@@QAAHXZ 10039664 f drdgsl.obj
 0001:0003866c       __fh?FDuplicateUndo@DGSL@@QAAHXZ 1003966c f drdgsl.obj
 0001:0003866e       ?FDuplicateUndo@DGSL@@QAAHXZ 1003966e f drdgsl.obj
 0001:00038684       __pcd_tbl?FDuplicateOp@DGSL@@QAAHXZ 10039684 f drdgsl.obj
 0001:00038688       __nep?FDuplicateOp@DGSL@@QAAHXZ 10039688 f drdgsl.obj
 0001:00038690       __fh?FDuplicateOp@DGSL@@QAAHXZ 10039690 f drdgsl.obj
 0001:00038692       ?FDuplicateOp@DGSL@@QAAHXZ 10039692 f drdgsl.obj
 0001:000386b4       __pcd_tbl?FDuplicate@DGSL@@QAAHXZ 100396b4 f drdgsl.obj
 0001:000386e4       __nep?FDuplicate@DGSL@@QAAHXZ 100396e4 f drdgsl.obj
 0001:000386ec       __fh?FDuplicate@DGSL@@QAAHXZ 100396ec f drdgsl.obj
 0001:000386ef       ?FDuplicate@DGSL@@QAAHXZ   100396ef f drdgsl.obj
 0001:00038824       __pcd_tbl?FEditObjectUndo@DGSL@@QAAHPAUDGCB@@PAUMSOSP@@J@Z 10039824 f drdgsl.obj
 0001:00038830       __nep?FEditObjectUndo@DGSL@@QAAHPAUDGCB@@PAUMSOSP@@J@Z 10039830 f drdgsl.obj
 0001:00038838       __fh?FEditObjectUndo@DGSL@@QAAHPAUDGCB@@PAUMSOSP@@J@Z 10039838 f drdgsl.obj
 0001:0003883a       ?FEditObjectUndo@DGSL@@QAAHPAUDGCB@@PAUMSOSP@@J@Z 1003983a f drdgsl.obj
 0001:00038854       __pcd_tbl?FEditObjectOp@DGSL@@QAAHPAUDGCB@@PAUMSOSP@@J@Z 10039854 f drdgsl.obj
 0001:00038858       __nep?FEditObjectOp@DGSL@@QAAHPAUDGCB@@PAUMSOSP@@J@Z 10039858 f drdgsl.obj
 0001:00038860       __fh?FEditObjectOp@DGSL@@QAAHPAUDGCB@@PAUMSOSP@@J@Z 10039860 f drdgsl.obj
 0001:00038862       ?FEditObjectOp@DGSL@@QAAHPAUDGCB@@PAUMSOSP@@J@Z 10039862 f drdgsl.obj
 0001:00038868       __pcd_tbl?FEditObject@DGSL@@QAAHPAUDGCB@@PAUMSOSP@@J@Z 10039868 f drdgsl.obj
 0001:00038868       __nep?FEditObject@DGSL@@QAAHPAUDGCB@@PAUMSOSP@@J@Z 10039868 f drdgsl.obj
 0001:00038870       __fh?FEditObject@DGSL@@QAAHPAUDGCB@@PAUMSOSP@@J@Z 10039870 f drdgsl.obj
 0001:00038872       ?FEditObject@DGSL@@QAAHPAUDGCB@@PAUMSOSP@@J@Z 10039872 f drdgsl.obj
 0001:000388a4       __pcd_tbl?FEditPictureUndo@DGSL@@QAAHPAUDGCB@@PAUMSOSP@@PAUIMsoBlip@@H@Z 100398a4 f drdgsl.obj
 0001:000388b0       __nep?FEditPictureUndo@DGSL@@QAAHPAUDGCB@@PAUMSOSP@@PAUIMsoBlip@@H@Z 100398b0 f drdgsl.obj
 0001:000388b8       __fh?FEditPictureUndo@DGSL@@QAAHPAUDGCB@@PAUMSOSP@@PAUIMsoBlip@@H@Z 100398b8 f drdgsl.obj
 0001:000388ba       ?FEditPictureUndo@DGSL@@QAAHPAUDGCB@@PAUMSOSP@@PAUIMsoBlip@@H@Z 100398ba f drdgsl.obj
 0001:000388d4       __pcd_tbl?FEditPictureOp@DGSL@@QAAHPAUDGCB@@PAUMSOSP@@PAUIMsoBlip@@H@Z 100398d4 f drdgsl.obj
 0001:000388d8       __nep?FEditPictureOp@DGSL@@QAAHPAUDGCB@@PAUMSOSP@@PAUIMsoBlip@@H@Z 100398d8 f drdgsl.obj
 0001:000388e0       __fh?FEditPictureOp@DGSL@@QAAHPAUDGCB@@PAUMSOSP@@PAUIMsoBlip@@H@Z 100398e0 f drdgsl.obj
 0001:000388e2       ?FEditPictureOp@DGSL@@QAAHPAUDGCB@@PAUMSOSP@@PAUIMsoBlip@@H@Z 100398e2 f drdgsl.obj
 0001:000388ec       __nep?FEditPicture@DGSL@@QAAHPAUDGCB@@PAUMSOSP@@PAUIMsoBlip@@H@Z 100398ec f drdgsl.obj
 0001:000388ec       __pcd_tbl?FEditPicture@DGSL@@QAAHPAUDGCB@@PAUMSOSP@@PAUIMsoBlip@@H@Z 100398ec f drdgsl.obj
 0001:000388f4       __fh?FEditPicture@DGSL@@QAAHPAUDGCB@@PAUMSOSP@@PAUIMsoBlip@@H@Z 100398f4 f drdgsl.obj
 0001:000388f6       ?FEditPicture@DGSL@@QAAHPAUDGCB@@PAUMSOSP@@PAUIMsoBlip@@H@Z 100398f6 f drdgsl.obj
 0001:00038930       __pcd_tbl?FSnapXY@DGSL@@QAAHPAVDGV@@PAU_MSOSNPI@@HHPAUtagSIZE@@PAV?$MSOTPX@J@@PAJ@Z 10039930 f drdgsl.obj
 0001:00038934       __nep?FSnapXY@DGSL@@QAAHPAVDGV@@PAU_MSOSNPI@@HHPAUtagSIZE@@PAV?$MSOTPX@J@@PAJ@Z 10039934 f drdgsl.obj
 0001:0003893c       __fh?FSnapXY@DGSL@@QAAHPAVDGV@@PAU_MSOSNPI@@HHPAUtagSIZE@@PAV?$MSOTPX@J@@PAJ@Z 1003993c f drdgsl.obj
 0001:0003893e       ?FSnapXY@DGSL@@QAAHPAVDGV@@PAU_MSOSNPI@@HHPAUtagSIZE@@PAV?$MSOTPX@J@@PAJ@Z 1003993e f drdgsl.obj
 0001:000389d4       ?FNudge@DGSL@@QAAHPAUDGCB@@@Z 100399d4 f drdgsl.obj
 0001:00039328       __pcd_tbl?FRotate90@DGSL@@QAAHH@Z 1003a328 f drdgsl.obj
 0001:00039354       __nep?FRotate90@DGSL@@QAAHH@Z 1003a354 f drdgsl.obj
 0001:0003935c       __fh?FRotate90@DGSL@@QAAHH@Z 1003a35c f drdgsl.obj
 0001:0003935f       ?FRotate90@DGSL@@QAAHH@Z   1003a35f f drdgsl.obj
 0001:00039420       __pcd_tbl?FFlip@DGSL@@QAAHH@Z 1003a420 f drdgsl.obj
 0001:0003943c       __nep?FFlip@DGSL@@QAAHH@Z  1003a43c f drdgsl.obj
 0001:00039444       __fh?FFlip@DGSL@@QAAHH@Z   1003a444 f drdgsl.obj
 0001:00039446       ?FFlip@DGSL@@QAAHH@Z       1003a446 f drdgsl.obj
 0001:000394ac       __pcd_tbl?FPolygonElementReshape@DGSL@@QAAHPAUDGCB@@@Z 1003a4ac f drdgsl.obj
 0001:000394e8       __nep?FPolygonElementReshape@DGSL@@QAAHPAUDGCB@@@Z 1003a4e8 f drdgsl.obj
 0001:000394f0       __fh?FPolygonElementReshape@DGSL@@QAAHPAUDGCB@@@Z 1003a4f0 f drdgsl.obj
 0001:000394f2       ?FPolygonElementReshape@DGSL@@QAAHPAUDGCB@@@Z 1003a4f2 f drdgsl.obj
 0001:0003957c       ?FUpdatePolygon@DGSL@@QAAHPAVCURVE@@@Z 1003a57c f drdgsl.obj
 0001:00039c38       __pcd_tbl?FAddWrapPolygon@DGSL@@QAAHXZ 1003ac38 f drdgsl.obj
 0001:00039c48       __nep?FAddWrapPolygon@DGSL@@QAAHXZ 1003ac48 f drdgsl.obj
 0001:00039c50       __fh?FAddWrapPolygon@DGSL@@QAAHXZ 1003ac50 f drdgsl.obj
 0001:00039c53       ?FAddWrapPolygon@DGSL@@QAAHXZ 1003ac53 f drdgsl.obj
 0001:00039cc8       __pcd_tbl?FAddFreeform@DGSL@@QAAHPAUDGCB@@@Z 1003acc8 f drdgsl.obj
 0001:00039cec       __nep?FAddFreeform@DGSL@@QAAHPAUDGCB@@@Z 1003acec f drdgsl.obj
 0001:00039cf4       __fh?FAddFreeform@DGSL@@QAAHPAUDGCB@@@Z 1003acf4 f drdgsl.obj
 0001:00039cf6       ?FAddFreeform@DGSL@@QAAHPAUDGCB@@@Z 1003acf6 f drdgsl.obj
 0001:00039d6c       __pcd_tbl?FPolygonPtOp@DGSL@@QAAHPAUDGCB@@@Z 1003ad6c f drdgsl.obj
 0001:00039d9c       __nep?FPolygonPtOp@DGSL@@QAAHPAUDGCB@@@Z 1003ad9c f drdgsl.obj
 0001:00039da4       __fh?FPolygonPtOp@DGSL@@QAAHPAUDGCB@@@Z 1003ada4 f drdgsl.obj
 0001:00039da6       ?FPolygonPtOp@DGSL@@QAAHPAUDGCB@@@Z 1003ada6 f drdgsl.obj
 0001:00039e88       __pcd_tbl?FChangeZOrderUndo@DGSL@@QAAHW4MSODGCID@@@Z 1003ae88 f drdgsl.obj
 0001:00039e94       __nep?FChangeZOrderUndo@DGSL@@QAAHW4MSODGCID@@@Z 1003ae94 f drdgsl.obj
 0001:00039e9c       __fh?FChangeZOrderUndo@DGSL@@QAAHW4MSODGCID@@@Z 1003ae9c f drdgsl.obj
 0001:00039e9e       ?FChangeZOrderUndo@DGSL@@QAAHW4MSODGCID@@@Z 1003ae9e f drdgsl.obj
 0001:00039ed4       __pcd_tbl?FChangeZOrderOp@DGSL@@QAAHW4MSODGCID@@@Z 1003aed4 f drdgsl.obj
 0001:00039ed8       __nep?FChangeZOrderOp@DGSL@@QAAHW4MSODGCID@@@Z 1003aed8 f drdgsl.obj
 0001:00039ee0       __fh?FChangeZOrderOp@DGSL@@QAAHW4MSODGCID@@@Z 1003aee0 f drdgsl.obj
 0001:00039ee2       ?FChangeZOrderOp@DGSL@@QAAHW4MSODGCID@@@Z 1003aee2 f drdgsl.obj
 0001:00039f04       __pcd_tbl?FChangeZOrder@DGSL@@QAAHW4MSODGCID@@@Z 1003af04 f drdgsl.obj
 0001:00039f18       __nep?FChangeZOrder@DGSL@@QAAHW4MSODGCID@@@Z 1003af18 f drdgsl.obj
 0001:00039f20       __fh?FChangeZOrder@DGSL@@QAAHW4MSODGCID@@@Z 1003af20 f drdgsl.obj
 0001:00039f23       ?FChangeZOrder@DGSL@@QAAHW4MSODGCID@@@Z 1003af23 f drdgsl.obj
 0001:0003a11c       __pcd_tbl?FApplyProperties@DGSL@@UAAHPAUMSOSPP@@HK@Z 1003b11c f drdgsl.obj
 0001:0003a120       __nep?FApplyProperties@DGSL@@UAAHPAUMSOSPP@@HK@Z 1003b120 f drdgsl.obj
 0001:0003a128       __fh?FApplyProperties@DGSL@@UAAHPAUMSOSPP@@HK@Z 1003b128 f drdgsl.obj
 0001:0003a12a       ?FApplyProperties@DGSL@@UAAHPAUMSOSPP@@HK@Z 1003b12a f drdgsl.obj
 0001:0003a130       __pcd_tbl?FApplyRgsppUndo@DGSL@@QAAHPAUMSOSPP@@HK@Z 1003b130 f drdgsl.obj
 0001:0003a13c       __nep?FApplyRgsppUndo@DGSL@@QAAHPAUMSOSPP@@HK@Z 1003b13c f drdgsl.obj
 0001:0003a144       __fh?FApplyRgsppUndo@DGSL@@QAAHPAUMSOSPP@@HK@Z 1003b144 f drdgsl.obj
 0001:0003a146       ?FApplyRgsppUndo@DGSL@@QAAHPAUMSOSPP@@HK@Z 1003b146 f drdgsl.obj
 0001:0003a160       __pcd_tbl?FApplyRgsppOp@DGSL@@QAAHPAUMSOSPP@@HK@Z 1003b160 f drdgsl.obj
 0001:0003a164       __nep?FApplyRgsppOp@DGSL@@QAAHPAUMSOSPP@@HK@Z 1003b164 f drdgsl.obj
 0001:0003a16c       __fh?FApplyRgsppOp@DGSL@@QAAHPAUMSOSPP@@HK@Z 1003b16c f drdgsl.obj
 0001:0003a16e       ?FApplyRgsppOp@DGSL@@QAAHPAUMSOSPP@@HK@Z 1003b16e f drdgsl.obj
 0001:0003a194       __pcd_tbl?FApplyRgspp@DGSL@@QAAHPAUMSOSPP@@HK@Z 1003b194 f drdgsl.obj
 0001:0003a1bc       __nep?FApplyRgspp@DGSL@@QAAHPAUMSOSPP@@HK@Z 1003b1bc f drdgsl.obj
 0001:0003a1c4       __fh?FApplyRgspp@DGSL@@QAAHPAUMSOSPP@@HK@Z 1003b1c4 f drdgsl.obj
 0001:0003a1c7       ?FApplyRgspp@DGSL@@QAAHPAUMSOSPP@@HK@Z 1003b1c7 f drdgsl.obj
 0001:0003a2f4       __pcd_tbl?FFetchProperties@DGSL@@UAAHPAUMSOSPP@@HK@Z 1003b2f4 f drdgsl.obj
 0001:0003a2f8       __nep?FFetchProperties@DGSL@@UAAHPAUMSOSPP@@HK@Z 1003b2f8 f drdgsl.obj
 0001:0003a300       __fh?FFetchProperties@DGSL@@UAAHPAUMSOSPP@@HK@Z 1003b300 f drdgsl.obj
 0001:0003a302       ?FFetchProperties@DGSL@@UAAHPAUMSOSPP@@HK@Z 1003b302 f drdgsl.obj
 0001:0003a308       __pcd_tbl?FFetchRgspp@DGSL@@QAAHPAUMSOSPP@@HK@Z 1003b308 f drdgsl.obj
 0001:0003a30c       __nep?FFetchRgspp@DGSL@@QAAHPAUMSOSPP@@HK@Z 1003b30c f drdgsl.obj
 0001:0003a314       __fh?FFetchRgspp@DGSL@@QAAHPAUMSOSPP@@HK@Z 1003b314 f drdgsl.obj
 0001:0003a316       ?FFetchRgspp@DGSL@@QAAHPAUMSOSPP@@HK@Z 1003b316 f drdgsl.obj
 0001:0003a358       __pcd_tbl?FetchRgspp@DGSL@@QAAXPAUMSOSPP@@HK@Z 1003b358 f drdgsl.obj
 0001:0003a35c       __nep?FetchRgspp@DGSL@@QAAXPAUMSOSPP@@HK@Z 1003b35c f drdgsl.obj
 0001:0003a364       __fh?FetchRgspp@DGSL@@QAAXPAUMSOSPP@@HK@Z 1003b364 f drdgsl.obj
 0001:0003a366       ?FetchRgspp@DGSL@@QAAXPAUMSOSPP@@HK@Z 1003b366 f drdgsl.obj
 0001:0003a388       __pcd_tbl?FFetchSpp@DGSL@@QAAHPAUMSOSPP@@W4MSOPID@@K@Z 1003b388 f drdgsl.obj
 0001:0003a38c       __nep?FFetchSpp@DGSL@@QAAHPAUMSOSPP@@W4MSOPID@@K@Z 1003b38c f drdgsl.obj
 0001:0003a394       __fh?FFetchSpp@DGSL@@QAAHPAUMSOSPP@@W4MSOPID@@K@Z 1003b394 f drdgsl.obj
 0001:0003a396       ?FFetchSpp@DGSL@@QAAHPAUMSOSPP@@W4MSOPID@@K@Z 1003b396 f drdgsl.obj
 0001:0003a3ac       __pcd_tbl?FetchSpp@DGSL@@QAAXPAUMSOSPP@@W4MSOPID@@K@Z 1003b3ac f drdgsl.obj
 0001:0003a3b0       __nep?FetchSpp@DGSL@@QAAXPAUMSOSPP@@W4MSOPID@@K@Z 1003b3b0 f drdgsl.obj
 0001:0003a3b8       __fh?FetchSpp@DGSL@@QAAXPAUMSOSPP@@W4MSOPID@@K@Z 1003b3b8 f drdgsl.obj
 0001:0003a3ba       ?FetchSpp@DGSL@@QAAXPAUMSOSPP@@W4MSOPID@@K@Z 1003b3ba f drdgsl.obj
 0001:0003a3c8       __pcd_tbl?QueryInterface@DGVG@@UAAJABUGUID@@PAPAX@Z 1003b3c8 f drdgv.obj
 0001:0003a3cc       __nep?QueryInterface@DGVG@@UAAJABUGUID@@PAPAX@Z 1003b3cc f drdgv.obj
 0001:0003a3d4       __fh?QueryInterface@DGVG@@UAAJABUGUID@@PAPAX@Z 1003b3d4 f drdgv.obj
 0001:0003a3d6       ?QueryInterface@DGVG@@UAAJABUGUID@@PAPAX@Z 1003b3d6 f drdgv.obj
 0001:0003a3e0       __pcd_tbl?FDebugMessage@DGVG@@UAAHPAUMSOINST@@IIJ@Z 1003b3e0 f drdgv.obj
 0001:0003a3e0       __nep?FDebugMessage@DGVG@@UAAHPAUMSOINST@@IIJ@Z 1003b3e0 f drdgv.obj
 0001:0003a3e8       __fh?FDebugMessage@DGVG@@UAAHPAUMSOINST@@IIJ@Z 1003b3e8 f drdgv.obj
 0001:0003a3ea       ?FDebugMessage@DGVG@@UAAHPAUMSOINST@@IIJ@Z 1003b3ea f drdgv.obj
 0001:0003a3ec       __pcd_tbl?Free@DGVG@@UAAXXZ 1003b3ec f drdgv.obj
 0001:0003a3f0       __nep?Free@DGVG@@UAAXXZ    1003b3f0 f drdgv.obj
 0001:0003a3f8       __fh?Free@DGVG@@UAAXXZ     1003b3f8 f drdgv.obj
 0001:0003a3fa       ?Free@DGVG@@UAAXXZ         1003b3fa f drdgv.obj
 0001:0003a440       __nep_MsoInitDgvsi         1003b440 f drdgv.obj
 0001:0003a440       __pcd_tbl_MsoInitDgvsi     1003b440 f drdgv.obj
 0001:0003a448       __fh_MsoInitDgvsi          1003b448 f drdgv.obj
 0001:0003a44a       _MsoInitDgvsi              1003b44a f drdgv.obj
 0001:0003a4a0       __pcd_tbl?FCreateView@DGVG@@UAAHPAPAUIMsoDrawingView@@PAU_MSODGVSI@@H@Z 1003b4a0 f drdgv.obj
 0001:0003a4b4       __nep?FCreateView@DGVG@@UAAHPAPAUIMsoDrawingView@@PAU_MSODGVSI@@H@Z 1003b4b4 f drdgv.obj
 0001:0003a4bc       __fh?FCreateView@DGVG@@UAAHPAPAUIMsoDrawingView@@PAU_MSODGVSI@@H@Z 1003b4bc f drdgv.obj
 0001:0003a4be       ?FCreateView@DGVG@@UAAHPAPAUIMsoDrawingView@@PAU_MSODGVSI@@H@Z 1003b4be f drdgv.obj
 0001:0003a500       __nep?AssertDgvdrg@DGVG@@QAAXXZ 1003b500 f drdgv.obj
 0001:0003a500       __pcd_tbl?AssertDgvdrg@DGVG@@QAAXXZ 1003b500 f drdgv.obj
 0001:0003a508       __fh?AssertDgvdrg@DGVG@@QAAXXZ 1003b508 f drdgv.obj
 0001:0003a50a       ?AssertDgvdrg@DGVG@@QAAXXZ 1003b50a f drdgv.obj
 0001:0003a50c       __pcd_tbl?PidgGetDrawing@DGVG@@UAAPAUIMsoDrawing@@XZ 1003b50c f drdgv.obj
 0001:0003a50c       __nep?PidgGetDrawing@DGVG@@UAAPAUIMsoDrawing@@XZ 1003b50c f drdgv.obj
 0001:0003a514       __fh?PidgGetDrawing@DGVG@@UAAPAUIMsoDrawing@@XZ 1003b514 f drdgv.obj
 0001:0003a516       ?PidgGetDrawing@DGVG@@UAAPAUIMsoDrawing@@XZ 1003b516 f drdgv.obj
 0001:0003a51c       __pcd_tbl?PidgslGetSelection@DGVG@@UAAPAUIMsoDrawingSelection@@XZ 1003b51c f drdgv.obj
 0001:0003a51c       __nep?PidgslGetSelection@DGVG@@UAAPAUIMsoDrawingSelection@@XZ 1003b51c f drdgv.obj
 0001:0003a524       __fh?PidgslGetSelection@DGVG@@UAAPAUIMsoDrawingSelection@@XZ 1003b524 f drdgv.obj
 0001:0003a526       ?PidgslGetSelection@DGVG@@UAAPAUIMsoDrawingSelection@@XZ 1003b526 f drdgv.obj
 0001:0003a52c       __nep?SetSelection@DGVG@@UAAXPAUIMsoDrawingSelection@@@Z 1003b52c f drdgv.obj
 0001:0003a52c       __pcd_tbl?SetSelection@DGVG@@UAAXPAUIMsoDrawingSelection@@@Z 1003b52c f drdgv.obj
 0001:0003a534       __fh?SetSelection@DGVG@@UAAXPAUIMsoDrawingSelection@@@Z 1003b534 f drdgv.obj
 0001:0003a536       ?SetSelection@DGVG@@UAAXPAUIMsoDrawingSelection@@@Z 1003b536 f drdgv.obj
 0001:0003a5ac       __pcd_tbl?Update@DGVG@@UAAXXZ 1003b5ac f drdgv.obj
 0001:0003a5ac       __nep?Update@DGVG@@UAAXXZ  1003b5ac f drdgv.obj
 0001:0003a5b4       __fh?Update@DGVG@@UAAXXZ   1003b5b4 f drdgv.obj
 0001:0003a5b6       ?Update@DGVG@@UAAXXZ       1003b5b6 f drdgv.obj
 0001:0003a5d0       __pcd_tbl?PdgvFromPtw@DGVG@@QAAPAVDGV@@PAUtagPOINT@@@Z 1003b5d0 f drdgv.obj
 0001:0003a5d8       __nep?PdgvFromPtw@DGVG@@QAAPAVDGV@@PAUtagPOINT@@@Z 1003b5d8 f drdgv.obj
 0001:0003a5e0       __fh?PdgvFromPtw@DGVG@@QAAPAVDGV@@PAUtagPOINT@@@Z 1003b5e0 f drdgv.obj
 0001:0003a5e2       ?PdgvFromPtw@DGVG@@QAAPAVDGV@@PAUtagPOINT@@@Z 1003b5e2 f drdgv.obj
 0001:0003a62c       __pcd_tbl?DragEnter@DGVG@@UAAJPAUIMsoDrawingView@@PAUIDataObject@@KPAU_POINTL@@PAK@Z 1003b62c f drdgv.obj
 0001:0003a63c       __nep?DragEnter@DGVG@@UAAJPAUIMsoDrawingView@@PAUIDataObject@@KPAU_POINTL@@PAK@Z 1003b63c f drdgv.obj
 0001:0003a644       __fh?DragEnter@DGVG@@UAAJPAUIMsoDrawingView@@PAUIDataObject@@KPAU_POINTL@@PAK@Z 1003b644 f drdgv.obj
 0001:0003a646       ?DragEnter@DGVG@@UAAJPAUIMsoDrawingView@@PAUIDataObject@@KPAU_POINTL@@PAK@Z 1003b646 f drdgv.obj
 0001:0003a6a0       __pcd_tbl?DragOver@DGVG@@UAAJKPAU_POINTL@@PAK@Z 1003b6a0 f drdgv.obj
 0001:0003a6a8       __nep?DragOver@DGVG@@UAAJKPAU_POINTL@@PAK@Z 1003b6a8 f drdgv.obj
 0001:0003a6b0       __fh?DragOver@DGVG@@UAAJKPAU_POINTL@@PAK@Z 1003b6b0 f drdgv.obj
 0001:0003a6b2       ?DragOver@DGVG@@UAAJKPAU_POINTL@@PAK@Z 1003b6b2 f drdgv.obj
 0001:0003a6c8       __pcd_tbl?DragLeave@DGVG@@UAAJXZ 1003b6c8 f drdgv.obj
 0001:0003a6d0       __nep?DragLeave@DGVG@@UAAJXZ 1003b6d0 f drdgv.obj
 0001:0003a6d8       __fh?DragLeave@DGVG@@UAAJXZ 1003b6d8 f drdgv.obj
 0001:0003a6da       ?DragLeave@DGVG@@UAAJXZ    1003b6da f drdgv.obj
 0001:0003a700       __pcd_tbl?Drop@DGVG@@UAAJPAUIDataObject@@KPAU_POINTL@@PAK@Z 1003b700 f drdgv.obj
 0001:0003a708       __nep?Drop@DGVG@@UAAJPAUIDataObject@@KPAU_POINTL@@PAK@Z 1003b708 f drdgv.obj
 0001:0003a710       __fh?Drop@DGVG@@UAAJPAUIDataObject@@KPAU_POINTL@@PAK@Z 1003b710 f drdgv.obj
 0001:0003a712       ?Drop@DGVG@@UAAJPAUIDataObject@@KPAU_POINTL@@PAK@Z 1003b712 f drdgv.obj
 0001:0003a73c       __pcd_tbl?QueryInterface@DGVDES@@UAAJABUGUID@@PAPAX@Z 1003b73c f drdgv.obj
 0001:0003a740       __nep?QueryInterface@DGVDES@@UAAJABUGUID@@PAPAX@Z 1003b740 f drdgv.obj
 0001:0003a748       __fh?QueryInterface@DGVDES@@UAAJABUGUID@@PAPAX@Z 1003b748 f drdgv.obj
 0001:0003a74a       ?QueryInterface@DGVDES@@UAAJABUGUID@@PAPAX@Z 1003b74a f drdgv.obj
 0001:0003a754       __nep?FDebugMessage@DGVDES@@UAAHPAUMSOINST@@IIJ@Z 1003b754 f drdgv.obj
 0001:0003a754       __pcd_tbl?FDebugMessage@DGVDES@@UAAHPAUMSOINST@@IIJ@Z 1003b754 f drdgv.obj
 0001:0003a75c       __fh?FDebugMessage@DGVDES@@UAAHPAUMSOINST@@IIJ@Z 1003b75c f drdgv.obj
 0001:0003a75e       ?FDebugMessage@DGVDES@@UAAHPAUMSOINST@@IIJ@Z 1003b75e f drdgv.obj
 0001:0003a760       __pcd_tbl?SetHdes@DGVDES@@UAAXPAXH@Z 1003b760 f drdgv.obj
 0001:0003a760       __nep?SetHdes@DGVDES@@UAAXPAXH@Z 1003b760 f drdgv.obj
 0001:0003a768       __fh?SetHdes@DGVDES@@UAAXPAXH@Z 1003b768 f drdgv.obj
 0001:0003a76a       ?SetHdes@DGVDES@@UAAXPAXH@Z 1003b76a f drdgv.obj
 0001:0003a770       __pcd_tbl?FixDisplayElements@DGVDES@@UAAXPAX@Z 1003b770 f drdgv.obj
 0001:0003a770       __nep?FixDisplayElements@DGVDES@@UAAXPAX@Z 1003b770 f drdgv.obj
 0001:0003a778       __fh?FixDisplayElements@DGVDES@@UAAXPAX@Z 1003b778 f drdgv.obj
 0001:0003a77a       ?FixDisplayElements@DGVDES@@UAAXPAX@Z 1003b77a f drdgv.obj
 0001:0003a788       __pcd_tbl?FHitTestSet@DGVDES@@UAAHPAXPAU_MSODMHD@@H@Z 1003b788 f drdgv.obj
 0001:0003a790       __nep?FHitTestSet@DGVDES@@UAAHPAXPAU_MSODMHD@@H@Z 1003b790 f drdgv.obj
 0001:0003a798       __fh?FHitTestSet@DGVDES@@UAAHPAXPAU_MSODMHD@@H@Z 1003b798 f drdgv.obj
 0001:0003a79a       ?FHitTestSet@DGVDES@@UAAHPAXPAU_MSODMHD@@H@Z 1003b79a f drdgv.obj
 0001:0003a7f4       __pcd_tbl?SetDisplayElementHde@DGVDES@@UAAXPAX00@Z 1003b7f4 f drdgv.obj
 0001:0003a7f8       __nep?SetDisplayElementHde@DGVDES@@UAAXPAX00@Z 1003b7f8 f drdgv.obj
 0001:0003a800       __fh?SetDisplayElementHde@DGVDES@@UAAXPAX00@Z 1003b800 f drdgv.obj
 0001:0003a802       ?SetDisplayElementHde@DGVDES@@UAAXPAX00@Z 1003b802 f drdgv.obj
 0001:0003a858       __pcd_tbl?GetDisplayElementBounds@DGVDES@@UAAXPAX0PAUtagRECT@@@Z 1003b858 f drdgv.obj
 0001:0003a868       __nep?GetDisplayElementBounds@DGVDES@@UAAXPAX0PAUtagRECT@@@Z 1003b868 f drdgv.obj
 0001:0003a870       __fh?GetDisplayElementBounds@DGVDES@@UAAXPAX0PAUtagRECT@@@Z 1003b870 f drdgv.obj
 0001:0003a872       ?GetDisplayElementBounds@DGVDES@@UAAXPAX0PAUtagRECT@@@Z 1003b872 f drdgv.obj
 0001:0003a8d8       __pcd_tbl?CountDisplayElementPieces@DGVDES@@UAAHPAX0@Z 1003b8d8 f drdgv.obj
 0001:0003a8e0       __nep?CountDisplayElementPieces@DGVDES@@UAAHPAX0@Z 1003b8e0 f drdgv.obj
 0001:0003a8e8       __fh?CountDisplayElementPieces@DGVDES@@UAAHPAX0@Z 1003b8e8 f drdgv.obj
 0001:0003a8ea       ?CountDisplayElementPieces@DGVDES@@UAAHPAX0@Z 1003b8ea f drdgv.obj
 0001:0003a930       __pcd_tbl?GetDisplayElementPieceBounds@DGVDES@@UAAXPAX0HPAUtagRECT@@@Z 1003b930 f drdgv.obj
 0001:0003a940       __nep?GetDisplayElementPieceBounds@DGVDES@@UAAXPAX0HPAUtagRECT@@@Z 1003b940 f drdgv.obj
 0001:0003a948       __fh?GetDisplayElementPieceBounds@DGVDES@@UAAXPAX0HPAUtagRECT@@@Z 1003b948 f drdgv.obj
 0001:0003a94a       ?GetDisplayElementPieceBounds@DGVDES@@UAAXPAX0HPAUtagRECT@@@Z 1003b94a f drdgv.obj
 0001:0003a9d0       __pcd_tbl?FUnionDisplayElementCoverageRegion@DGVDES@@UAAHPAX0W4MSOCVRK@@PAPAUHRGN__@@@Z 1003b9d0 f drdgv.obj
 0001:0003a9d8       __nep?FUnionDisplayElementCoverageRegion@DGVDES@@UAAHPAX0W4MSOCVRK@@PAPAUHRGN__@@@Z 1003b9d8 f drdgv.obj
 0001:0003a9e0       __fh?FUnionDisplayElementCoverageRegion@DGVDES@@UAAHPAX0W4MSOCVRK@@PAPAUHRGN__@@@Z 1003b9e0 f drdgv.obj
 0001:0003a9e2       ?FUnionDisplayElementCoverageRegion@DGVDES@@UAAHPAX0W4MSOCVRK@@PAPAUHRGN__@@@Z 1003b9e2 f drdgv.obj
 0001:0003aa04       __pcd_tbl?FUnionSpvCoverage@DGV@@QAAHPAUSPV@@W4MSOCVRK@@PAPAUHRGN__@@@Z 1003ba04 f drdgv.obj
 0001:0003aa14       __nep?FUnionSpvCoverage@DGV@@QAAHPAUSPV@@W4MSOCVRK@@PAPAUHRGN__@@@Z 1003ba14 f drdgv.obj
 0001:0003aa1c       __fh?FUnionSpvCoverage@DGV@@QAAHPAUSPV@@W4MSOCVRK@@PAPAUHRGN__@@@Z 1003ba1c f drdgv.obj
 0001:0003aa1f       ?FUnionSpvCoverage@DGV@@QAAHPAUSPV@@W4MSOCVRK@@PAPAUHRGN__@@@Z 1003ba1f f drdgv.obj
 0001:0003aa64       __nep?FIsDisplayElementNonOpaque@DGVDES@@UAAHPAX0@Z 1003ba64 f drdgv.obj
 0001:0003aa64       __pcd_tbl?FIsDisplayElementNonOpaque@DGVDES@@UAAHPAX0@Z 1003ba64 f drdgv.obj
 0001:0003aa6c       __fh?FIsDisplayElementNonOpaque@DGVDES@@UAAHPAX0@Z 1003ba6c f drdgv.obj
 0001:0003aa6e       ?FIsDisplayElementNonOpaque@DGVDES@@UAAHPAX0@Z 1003ba6e f drdgv.obj
 0001:0003aa70       __pcd_tbl?DrawDisplayElement@DGVDES@@UAAXPAX0PAUMSODC@@PAUtagRECT@@H@Z 1003ba70 f drdgv.obj
 0001:0003aa90       __nep?DrawDisplayElement@DGVDES@@UAAXPAX0PAUMSODC@@PAUtagRECT@@H@Z 1003ba90 f drdgv.obj
 0001:0003aa98       __fh?DrawDisplayElement@DGVDES@@UAAXPAX0PAUMSODC@@PAUtagRECT@@H@Z 1003ba98 f drdgv.obj
 0001:0003aa9a       ?DrawDisplayElement@DGVDES@@UAAXPAX0PAUMSODC@@PAUtagRECT@@H@Z 1003ba9a f drdgv.obj
 0001:0003ab08       __pcd_tbl?FHitTestDisplayElement@DGVDES@@UAAHPAX0PAU_MSODMHD@@@Z 1003bb08 f drdgv.obj
 0001:0003ab38       __nep?FHitTestDisplayElement@DGVDES@@UAAHPAX0PAU_MSODMHD@@@Z 1003bb38 f drdgv.obj
 0001:0003ab40       __fh?FHitTestDisplayElement@DGVDES@@UAAHPAX0PAU_MSODMHD@@@Z 1003bb40 f drdgv.obj
 0001:0003ab43       ?FHitTestDisplayElement@DGVDES@@UAAHPAX0PAU_MSODMHD@@@Z 1003bb43 f drdgv.obj
 0001:0003acdc       __nep?PspvFromPvDe@DGVDES@@AAAPAUSPV@@PAX@Z 1003bcdc f drdgv.obj
 0001:0003acdc       __pcd_tbl?PspvFromPvDe@DGVDES@@AAAPAUSPV@@PAX@Z 1003bcdc f drdgv.obj
 0001:0003ace4       __fh?PspvFromPvDe@DGVDES@@AAAPAUSPV@@PAX@Z 1003bce4 f drdgv.obj
 0001:0003ace6       ?PspvFromPvDe@DGVDES@@AAAPAUSPV@@PAX@Z 1003bce6 f drdgv.obj
 0001:0003ad0c       ??0DGV@@QAA@XZ             1003bd0c f drdgv.obj
 0001:0003ae18       __pcd_tbl?FInit@DGV@@QAAHPAU_MSODGVSI@@PAVDGVG@@@Z 1003be18 f drdgv.obj
 0001:0003ae20       __nep?FInit@DGV@@QAAHPAU_MSODGVSI@@PAVDGVG@@@Z 1003be20 f drdgv.obj
 0001:0003ae28       __fh?FInit@DGV@@QAAHPAU_MSODGVSI@@PAVDGVG@@@Z 1003be28 f drdgv.obj
 0001:0003ae2a       ?FInit@DGV@@QAAHPAU_MSODGVSI@@PAVDGVG@@@Z 1003be2a f drdgv.obj
 0001:0003ae78       ??1DGV@@QAA@XZ             1003be78 f drdgv.obj
 0001:0003b02c       __nep?InitSpv@DGV@@QAAXPAUSPV@@@Z 1003c02c f drdgv.obj
 0001:0003b02c       __pcd_tbl?InitSpv@DGV@@QAAXPAUSPV@@@Z 1003c02c f drdgv.obj
 0001:0003b034       __fh?InitSpv@DGV@@QAAXPAUSPV@@@Z 1003c034 f drdgv.obj
 0001:0003b036       ?InitSpv@DGV@@QAAXPAUSPV@@@Z 1003c036 f drdgv.obj
 0001:0003b040       __pcd_tbl?FreeSpv@DGV@@QAAXPAUSPV@@@Z 1003c040 f drdgv.obj
 0001:0003b050       __nep?FreeSpv@DGV@@QAAXPAUSPV@@@Z 1003c050 f drdgv.obj
 0001:0003b058       __fh?FreeSpv@DGV@@QAAXPAUSPV@@@Z 1003c058 f drdgv.obj
 0001:0003b05a       ?FreeSpv@DGV@@QAAXPAUSPV@@@Z 1003c05a f drdgv.obj
 0001:0003b0bc       __pcd_tbl?FreeAllSpv@DGV@@QAAXXZ 1003c0bc f drdgv.obj
 0001:0003b0c8       __nep?FreeAllSpv@DGV@@QAAXXZ 1003c0c8 f drdgv.obj
 0001:0003b0d0       __fh?FreeAllSpv@DGV@@QAAXXZ 1003c0d0 f drdgv.obj
 0001:0003b0d2       ?FreeAllSpv@DGV@@QAAXXZ    1003c0d2 f drdgv.obj
 0001:0003b108       __pcd_tbl?QueryInterface@DGV@@UAAJABUGUID@@PAPAX@Z 1003c108 f drdgv.obj
 0001:0003b10c       __nep?QueryInterface@DGV@@UAAJABUGUID@@PAPAX@Z 1003c10c f drdgv.obj
 0001:0003b114       __fh?QueryInterface@DGV@@UAAJABUGUID@@PAPAX@Z 1003c114 f drdgv.obj
 0001:0003b116       ?QueryInterface@DGV@@UAAJABUGUID@@PAPAX@Z 1003c116 f drdgv.obj
 0001:0003b120       __pcd_tbl?FDebugMessage@DGV@@UAAHPAUMSOINST@@IIJ@Z 1003c120 f drdgv.obj
 0001:0003b120       __nep?FDebugMessage@DGV@@UAAHPAUMSOINST@@IIJ@Z 1003c120 f drdgv.obj
 0001:0003b128       __fh?FDebugMessage@DGV@@UAAHPAUMSOINST@@IIJ@Z 1003c128 f drdgv.obj
 0001:0003b12a       ?FDebugMessage@DGV@@UAAHPAUMSOINST@@IIJ@Z 1003c12a f drdgv.obj
 0001:0003b12c       __pcd_tbl?Free@DGV@@UAAXXZ 1003c12c f drdgv.obj
 0001:0003b134       __nep?Free@DGV@@UAAXXZ     1003c134 f drdgv.obj
 0001:0003b13c       __fh?Free@DGV@@UAAXXZ      1003c13c f drdgv.obj
 0001:0003b13e       ?Free@DGV@@UAAXXZ          1003c13e f drdgv.obj
 0001:0003b148       __nep?PdgvsiBeginUpdate@DGV@@UAAPAU_MSODGVSI@@H@Z 1003c148 f drdgv.obj
 0001:0003b148       __pcd_tbl?PdgvsiBeginUpdate@DGV@@UAAPAU_MSODGVSI@@H@Z 1003c148 f drdgv.obj
 0001:0003b150       __fh?PdgvsiBeginUpdate@DGV@@UAAPAU_MSODGVSI@@H@Z 1003c150 f drdgv.obj
 0001:0003b152       ?PdgvsiBeginUpdate@DGV@@UAAPAU_MSODGVSI@@H@Z 1003c152 f drdgv.obj
 0001:0003b158       __pcd_tbl?EndDgvsiUpdate@DGV@@UAAXPAU_MSODGVSI@@H@Z 1003c158 f drdgv.obj
 0001:0003b158       __nep?EndDgvsiUpdate@DGV@@UAAXPAU_MSODGVSI@@H@Z 1003c158 f drdgv.obj
 0001:0003b160       __fh?EndDgvsiUpdate@DGV@@UAAXPAU_MSODGVSI@@H@Z 1003c160 f drdgv.obj
 0001:0003b162       ?EndDgvsiUpdate@DGV@@UAAXPAU_MSODGVSI@@H@Z 1003c162 f drdgv.obj
 0001:0003b164       __pcd_tbl?PidgGetDrawing@DGV@@UAAPAUIMsoDrawing@@XZ 1003c164 f drdgv.obj
 0001:0003b164       __nep?PidgGetDrawing@DGV@@UAAPAUIMsoDrawing@@XZ 1003c164 f drdgv.obj
 0001:0003b16c       __fh?PidgGetDrawing@DGV@@UAAPAUIMsoDrawing@@XZ 1003c16c f drdgv.obj
 0001:0003b16e       ?PidgGetDrawing@DGV@@UAAPAUIMsoDrawing@@XZ 1003c16e f drdgv.obj
 0001:0003b174       __nep?PidgslGetSelection@DGV@@UAAPAUIMsoDrawingSelection@@XZ 1003c174 f drdgv.obj
 0001:0003b174       __pcd_tbl?PidgslGetSelection@DGV@@UAAPAUIMsoDrawingSelection@@XZ 1003c174 f drdgv.obj
 0001:0003b17c       __fh?PidgslGetSelection@DGV@@UAAPAUIMsoDrawingSelection@@XZ 1003c17c f drdgv.obj
 0001:0003b17e       ?PidgslGetSelection@DGV@@UAAPAUIMsoDrawingSelection@@XZ 1003c17e f drdgv.obj
 0001:0003b184       __pcd_tbl?SetSelection@DGV@@UAAXPAUIMsoDrawingSelection@@H@Z 1003c184 f drdgv.obj
 0001:0003b188       __nep?SetSelection@DGV@@UAAXPAUIMsoDrawingSelection@@H@Z 1003c188 f drdgv.obj
 0001:0003b190       __fh?SetSelection@DGV@@UAAXPAUIMsoDrawingSelection@@H@Z 1003c190 f drdgv.obj
 0001:0003b192       ?SetSelection@DGV@@UAAXPAUIMsoDrawingSelection@@H@Z 1003c192 f drdgv.obj
 0001:0003b198       __pcd_tbl?SetPdgsl@DGV@@QAAXPAVDGSL@@H@Z 1003c198 f drdgv.obj
 0001:0003b19c       __nep?SetPdgsl@DGV@@QAAXPAVDGSL@@H@Z 1003c19c f drdgv.obj
 0001:0003b1a4       __fh?SetPdgsl@DGV@@QAAXPAVDGSL@@H@Z 1003c1a4 f drdgv.obj
 0001:0003b1a6       ?SetPdgsl@DGV@@QAAXPAVDGSL@@H@Z 1003c1a6 f drdgv.obj
 0001:0003b20c       __nep?OverwritePdgsl@DGV@@QAAXPAVDGSL@@@Z 1003c20c f drdgv.obj
 0001:0003b20c       __pcd_tbl?OverwritePdgsl@DGV@@QAAXPAVDGSL@@@Z 1003c20c f drdgv.obj
 0001:0003b214       __fh?OverwritePdgsl@DGV@@QAAXPAVDGSL@@@Z 1003c214 f drdgv.obj
 0001:0003b216       ?OverwritePdgsl@DGV@@QAAXPAVDGSL@@@Z 1003c216 f drdgv.obj
 0001:0003b240       __nep?PidgvgGetViewGroup@DGV@@UAAPAUIMsoDrawingViewGroup@@XZ 1003c240 f drdgv.obj
 0001:0003b240       __pcd_tbl?PidgvgGetViewGroup@DGV@@UAAPAUIMsoDrawingViewGroup@@XZ 1003c240 f drdgv.obj
 0001:0003b248       __fh?PidgvgGetViewGroup@DGV@@UAAPAUIMsoDrawingViewGroup@@XZ 1003c248 f drdgv.obj
 0001:0003b24a       ?PidgvgGetViewGroup@DGV@@UAAPAUIMsoDrawingViewGroup@@XZ 1003c24a f drdgv.obj
 0001:0003b250       __nep?FSelectionVisible@DGV@@UAAHXZ 1003c250 f drdgv.obj
 0001:0003b250       __pcd_tbl?FSelectionVisible@DGV@@UAAHXZ 1003c250 f drdgv.obj
 0001:0003b258       __fh?FSelectionVisible@DGV@@UAAHXZ 1003c258 f drdgv.obj
 0001:0003b25a       ?FSelectionVisible@DGV@@UAAHXZ 1003c25a f drdgv.obj
 0001:0003b260       __nep?SetSelectionVisible@DGV@@UAAXH@Z 1003c260 f drdgv.obj
 0001:0003b260       __pcd_tbl?SetSelectionVisible@DGV@@UAAXH@Z 1003c260 f drdgv.obj
 0001:0003b268       __fh?SetSelectionVisible@DGV@@UAAXH@Z 1003c268 f drdgv.obj
 0001:0003b26a       ?SetSelectionVisible@DGV@@UAAXH@Z 1003c26a f drdgv.obj
 0001:0003b28c       __pcd_tbl?HspTopShape@DGV@@UAAPAUMSOSP@@XZ 1003c28c f drdgv.obj
 0001:0003b28c       __nep?HspTopShape@DGV@@UAAPAUMSOSP@@XZ 1003c28c f drdgv.obj
 0001:0003b294       __fh?HspTopShape@DGV@@UAAPAUMSOSP@@XZ 1003c294 f drdgv.obj
 0001:0003b296       ?HspTopShape@DGV@@UAAPAUMSOSP@@XZ 1003c296 f drdgv.obj
 0001:0003b29c       __pcd_tbl?SetTopShape@DGV@@UAAXPAUMSOSP@@@Z 1003c29c f drdgv.obj
 0001:0003b29c       __nep?SetTopShape@DGV@@UAAXPAUMSOSP@@@Z 1003c29c f drdgv.obj
 0001:0003b2a4       __fh?SetTopShape@DGV@@UAAXPAUMSOSP@@@Z 1003c2a4 f drdgv.obj
 0001:0003b2a6       ?SetTopShape@DGV@@UAAXPAUMSOSP@@@Z 1003c2a6 f drdgv.obj
 0001:0003b2e0       __pcd_tbl?HspNoRotateShape@DGV@@UAAPAUMSOSP@@XZ 1003c2e0 f drdgv.obj
 0001:0003b2e0       __nep?HspNoRotateShape@DGV@@UAAPAUMSOSP@@XZ 1003c2e0 f drdgv.obj
 0001:0003b2e8       __fh?HspNoRotateShape@DGV@@UAAPAUMSOSP@@XZ 1003c2e8 f drdgv.obj
 0001:0003b2ea       ?HspNoRotateShape@DGV@@UAAPAUMSOSP@@XZ 1003c2ea f drdgv.obj
 0001:0003b2f0       __nep?SetNoRotateShape@DGV@@UAAXPAUMSOSP@@@Z 1003c2f0 f drdgv.obj
 0001:0003b2f0       __pcd_tbl?SetNoRotateShape@DGV@@UAAXPAUMSOSP@@@Z 1003c2f0 f drdgv.obj
 0001:0003b2f8       __fh?SetNoRotateShape@DGV@@UAAXPAUMSOSP@@@Z 1003c2f8 f drdgv.obj
 0001:0003b2fa       ?SetNoRotateShape@DGV@@UAAXPAUMSOSP@@@Z 1003c2fa f drdgv.obj
 0001:0003b334       __nep?FTrackingComponent@DGV@@UAAHXZ 1003c334 f drdgv.obj
 0001:0003b334       __pcd_tbl?FTrackingComponent@DGV@@UAAHXZ 1003c334 f drdgv.obj
 0001:0003b33c       __fh?FTrackingComponent@DGV@@UAAHXZ 1003c33c f drdgv.obj
 0001:0003b33e       ?FTrackingComponent@DGV@@UAAHXZ 1003c33e f drdgv.obj
 0001:0003b348       __pcd_tbl?FOwnsHdes@DGV@@UAAHH@Z 1003c348 f drdgv.obj
 0001:0003b348       __nep?FOwnsHdes@DGV@@UAAHH@Z 1003c348 f drdgv.obj
 0001:0003b350       __fh?FOwnsHdes@DGV@@UAAHH@Z 1003c350 f drdgv.obj
 0001:0003b352       ?FOwnsHdes@DGV@@UAAHH@Z    1003c352 f drdgv.obj
 0001:0003b360       __pcd_tbl?FHitTest@DGV@@UAAHPAU_MSODMHD@@PAUtagPOINT@@HI@Z 1003c360 f drdgv.obj
 0001:0003b360       __nep?FHitTest@DGV@@UAAHPAU_MSODMHD@@PAUtagPOINT@@HI@Z 1003c360 f drdgv.obj
 0001:0003b368       __fh?FHitTest@DGV@@UAAHPAU_MSODMHD@@PAUtagPOINT@@HI@Z 1003c368 f drdgv.obj
 0001:0003b36a       ?FHitTest@DGV@@UAAHPAU_MSODMHD@@PAUtagPOINT@@HI@Z 1003c36a f drdgv.obj
 0001:0003b3c0       __pcd_tbl?FHitTestShape@DGV@@UAAHPAU_MSODMHD@@PAUtagPOINT@@HIH@Z 1003c3c0 f drdgv.obj
 0001:0003b3cc       __nep?FHitTestShape@DGV@@UAAHPAU_MSODMHD@@PAUtagPOINT@@HIH@Z 1003c3cc f drdgv.obj
 0001:0003b3d4       __fh?FHitTestShape@DGV@@UAAHPAU_MSODMHD@@PAUtagPOINT@@HIH@Z 1003c3d4 f drdgv.obj
 0001:0003b3d6       ?FHitTestShape@DGV@@UAAHPAU_MSODMHD@@PAUtagPOINT@@HIH@Z 1003c3d6 f drdgv.obj
 0001:0003b49c       __pcd_tbl?InitDmhd@DGV@@QAAXPAU_MSODMHD@@PAUtagPOINT@@HI@Z 1003c49c f drdgv.obj
 0001:0003b4a4       __nep?InitDmhd@DGV@@QAAXPAU_MSODMHD@@PAUtagPOINT@@HI@Z 1003c4a4 f drdgv.obj
 0001:0003b4ac       __fh?InitDmhd@DGV@@QAAXPAU_MSODMHD@@PAUtagPOINT@@HI@Z 1003c4ac f drdgv.obj
 0001:0003b4ae       ?InitDmhd@DGV@@QAAXPAU_MSODMHD@@PAUtagPOINT@@HI@Z 1003c4ae f drdgv.obj
 0001:0003b544       __pcd_tbl?FHitTestSpv@DGV@@QAAHPAUSPV@@PAUtagPOINT@@HPAK@Z 1003c544 f drdgv.obj
 0001:0003b554       __nep?FHitTestSpv@DGV@@QAAHPAUSPV@@PAUtagPOINT@@HPAK@Z 1003c554 f drdgv.obj
 0001:0003b55c       __fh?FHitTestSpv@DGV@@QAAHPAUSPV@@PAUtagPOINT@@HPAK@Z 1003c55c f drdgv.obj
 0001:0003b55f       ?FHitTestSpv@DGV@@QAAHPAUSPV@@PAUtagPOINT@@HPAK@Z 1003c55f f drdgv.obj
 0001:0003b604       __pcd_tbl?FHitTestShapeSelection@DGV@@UAAHPAU_MSODMHD@@PAUtagPOINT@@HIH@Z 1003c604 f drdgv.obj
 0001:0003b60c       __nep?FHitTestShapeSelection@DGV@@UAAHPAU_MSODMHD@@PAUtagPOINT@@HIH@Z 1003c60c f drdgv.obj
 0001:0003b614       __fh?FHitTestShapeSelection@DGV@@UAAHPAU_MSODMHD@@PAUtagPOINT@@HIH@Z 1003c614 f drdgv.obj
 0001:0003b616       ?FHitTestShapeSelection@DGV@@UAAHPAU_MSODMHD@@PAUtagPOINT@@HIH@Z 1003c616 f drdgv.obj
 0001:0003b64c       __pcd_tbl?FHitTestSpvSelection@DGV@@QAAHPAUSPV@@PAUtagPOINT@@PAK@Z 1003c64c f drdgv.obj
 0001:0003b67c       __nep?FHitTestSpvSelection@DGV@@QAAHPAUSPV@@PAUtagPOINT@@PAK@Z 1003c67c f drdgv.obj
 0001:0003b684       __fh?FHitTestSpvSelection@DGV@@QAAHPAUSPV@@PAUtagPOINT@@PAK@Z 1003c684 f drdgv.obj
 0001:0003b687       ?FHitTestSpvSelection@DGV@@QAAHPAUSPV@@PAUtagPOINT@@PAK@Z 1003c687 f drdgv.obj
 0001:0003b774       __nep?FDoShapeContextMenu@DGV@@QAAHW4MSODGCXM@@IPAUtagPOINT@@PAUMSOSP@@@Z 1003c774 f drdgv.obj
 0001:0003b774       __pcd_tbl?FDoShapeContextMenu@DGV@@QAAHW4MSODGCXM@@IPAUtagPOINT@@PAUMSOSP@@@Z 1003c774 f drdgv.obj
 0001:0003b77c       __fh?FDoShapeContextMenu@DGV@@QAAHW4MSODGCXM@@IPAUtagPOINT@@PAUMSOSP@@@Z 1003c77c f drdgv.obj
 0001:0003b77e       ?FDoShapeContextMenu@DGV@@QAAHW4MSODGCXM@@IPAUtagPOINT@@PAUMSOSP@@@Z 1003c77e f drdgv.obj
 0001:0003b790       __pcd_tbl?DgcxmOfPsp@DGV@@QAA?AW4MSODGCXM@@IKPAUMSOSP@@@Z 1003c790 f drdgv.obj
 0001:0003b7a8       __nep?DgcxmOfPsp@DGV@@QAA?AW4MSODGCXM@@IKPAUMSOSP@@@Z 1003c7a8 f drdgv.obj
 0001:0003b7b0       __fh?DgcxmOfPsp@DGV@@QAA?AW4MSODGCXM@@IKPAUMSOSP@@@Z 1003c7b0 f drdgv.obj
 0001:0003b7b2       ?DgcxmOfPsp@DGV@@QAA?AW4MSODGCXM@@IKPAUMSOSP@@@Z 1003c7b2 f drdgv.obj
 0001:0003b87c       __pcd_tbl?FDoMouseDown@DGV@@UAAHPAU_MSODMHD@@@Z 1003c87c f drdgv.obj
 0001:0003b8ec       __nep?FDoMouseDown@DGV@@UAAHPAU_MSODMHD@@@Z 1003c8ec f drdgv.obj
 0001:0003b8f4       __fh?FDoMouseDown@DGV@@UAAHPAU_MSODMHD@@@Z 1003c8f4 f drdgv.obj
 0001:0003b8f7       ?FDoMouseDown@DGV@@UAAHPAU_MSODMHD@@@Z 1003c8f7 f drdgv.obj
 0001:0003bce8       __pcd_tbl?FHitTestMagicWand@DGV@@QAAHPAU_MSODMHD@@@Z 1003cce8 f drdgv.obj
 0001:0003bcec       __nep?FHitTestMagicWand@DGV@@QAAHPAU_MSODMHD@@@Z 1003ccec f drdgv.obj
 0001:0003bcf4       __fh?FHitTestMagicWand@DGV@@QAAHPAU_MSODMHD@@@Z 1003ccf4 f drdgv.obj
 0001:0003bcf6       ?FHitTestMagicWand@DGV@@QAAHPAU_MSODMHD@@@Z 1003ccf6 f drdgv.obj
 0001:0003bd38       __pcd_tbl?FPickTransparentColor@DGV@@QAAHPAU_MSODMHD@@PAK@Z 1003cd38 f drdgv.obj
 0001:0003bd3c       __nep?FPickTransparentColor@DGV@@QAAHPAU_MSODMHD@@PAK@Z 1003cd3c f drdgv.obj
 0001:0003bd44       __fh?FPickTransparentColor@DGV@@QAAHPAU_MSODMHD@@PAK@Z 1003cd44 f drdgv.obj
 0001:0003bd47       ?FPickTransparentColor@DGV@@QAAHPAU_MSODMHD@@PAK@Z 1003cd47 f drdgv.obj
 0001:0003bd70       __pcd_tbl?FDoMouseDownOnShape@DGV@@UAAHHPAUtagPOINT@@HIKW4MSODGCID@@@Z 1003cd70 f drdgv.obj
 0001:0003bd74       __nep?FDoMouseDownOnShape@DGV@@UAAHHPAUtagPOINT@@HIKW4MSODGCID@@@Z 1003cd74 f drdgv.obj
 0001:0003bd7c       __fh?FDoMouseDownOnShape@DGV@@UAAHHPAUtagPOINT@@HIKW4MSODGCID@@@Z 1003cd7c f drdgv.obj
 0001:0003bd7f       ?FDoMouseDownOnShape@DGV@@UAAHHPAUtagPOINT@@HIKW4MSODGCID@@@Z 1003cd7f f drdgv.obj
 0001:0003be20       __pcd_tbl?DoMouseOnShape@DGV@@UAAXPAUMSOSP@@PAUtagPOINT@@IK@Z 1003ce20 f drdgv.obj
 0001:0003be24       __nep?DoMouseOnShape@DGV@@UAAXPAUMSOSP@@PAUtagPOINT@@IK@Z 1003ce24 f drdgv.obj
 0001:0003be2c       __fh?DoMouseOnShape@DGV@@UAAXPAUMSOSP@@PAUtagPOINT@@IK@Z 1003ce2c f drdgv.obj
 0001:0003be2e       ?DoMouseOnShape@DGV@@UAAXPAUMSOSP@@PAUtagPOINT@@IK@Z 1003ce2e f drdgv.obj
 0001:0003be4c       __pcd_tbl?GetHitDescription@DGV@@UAAXPAUMSODGVHD@@PAU_MSODMHD@@@Z 1003ce4c f drdgv.obj
 0001:0003be60       __nep?GetHitDescription@DGV@@UAAXPAUMSODGVHD@@PAU_MSODMHD@@@Z 1003ce60 f drdgv.obj
 0001:0003be68       __fh?GetHitDescription@DGV@@UAAXPAUMSODGVHD@@PAU_MSODMHD@@@Z 1003ce68 f drdgv.obj
 0001:0003be6a       ?GetHitDescription@DGV@@UAAXPAUMSODGVHD@@PAU_MSODMHD@@@Z 1003ce6a f drdgv.obj
 0001:0003c004       __pcd_tbl?FDoMouseFeedback@DGV@@UAAHPAU_MSODMHD@@@Z 1003d004 f drdgv.obj
 0001:0003c00c       __nep?FDoMouseFeedback@DGV@@UAAHPAU_MSODMHD@@@Z 1003d00c f drdgv.obj
 0001:0003c014       __fh?FDoMouseFeedback@DGV@@UAAHPAU_MSODMHD@@@Z 1003d014 f drdgv.obj
 0001:0003c016       ?FDoMouseFeedback@DGV@@UAAHPAU_MSODMHD@@@Z 1003d016 f drdgv.obj
 0001:0003c054       __nep?BeginEnumShapes@DGV@@UAAXPAU_MSODGVEN@@HH@Z 1003d054 f drdgv.obj
 0001:0003c054       __pcd_tbl?BeginEnumShapes@DGV@@UAAXPAU_MSODGVEN@@HH@Z 1003d054 f drdgv.obj
 0001:0003c05c       __fh?BeginEnumShapes@DGV@@UAAXPAU_MSODGVEN@@HH@Z 1003d05c f drdgv.obj
 0001:0003c05e       ?BeginEnumShapes@DGV@@UAAXPAU_MSODGVEN@@HH@Z 1003d05e f drdgv.obj
 0001:0003c078       __nep?FEnumShapes@DGV@@UAAHPAU_MSODGVEN@@@Z 1003d078 f drdgv.obj
 0001:0003c078       __pcd_tbl?FEnumShapes@DGV@@UAAHPAU_MSODGVEN@@@Z 1003d078 f drdgv.obj
 0001:0003c080       __fh?FEnumShapes@DGV@@UAAHPAU_MSODGVEN@@@Z 1003d080 f drdgv.obj
 0001:0003c082       ?FEnumShapes@DGV@@UAAHPAU_MSODGVEN@@@Z 1003d082 f drdgv.obj
 0001:0003c0d0       __nep?CShapes@DGV@@UAAHHH@Z 1003d0d0 f drdgv.obj
 0001:0003c0d0       __pcd_tbl?CShapes@DGV@@UAAHHH@Z 1003d0d0 f drdgv.obj
 0001:0003c0d8       __fh?CShapes@DGV@@UAAHHH@Z 1003d0d8 f drdgv.obj
 0001:0003c0da       ?CShapes@DGV@@UAAHHH@Z     1003d0da f drdgv.obj
 0001:0003c108       __pcd_tbl?GetRcvActualFromHspv@DGV@@UAAXPAUtagRECT@@H@Z 1003d108 f drdgv.obj
 0001:0003c108       __nep?GetRcvActualFromHspv@DGV@@UAAXPAUtagRECT@@H@Z 1003d108 f drdgv.obj
 0001:0003c110       __fh?GetRcvActualFromHspv@DGV@@UAAXPAUtagRECT@@H@Z 1003d110 f drdgv.obj
 0001:0003c112       ?GetRcvActualFromHspv@DGV@@UAAXPAUtagRECT@@H@Z 1003d112 f drdgv.obj
 0001:0003c120       __nep?HspFromHspv@DGV@@UAAPAUMSOSP@@H@Z 1003d120 f drdgv.obj
 0001:0003c120       __pcd_tbl?HspFromHspv@DGV@@UAAPAUMSOSP@@H@Z 1003d120 f drdgv.obj
 0001:0003c128       __fh?HspFromHspv@DGV@@UAAPAUMSOSP@@H@Z 1003d128 f drdgv.obj
 0001:0003c12a       ?HspFromHspv@DGV@@UAAPAUMSOSP@@H@Z 1003d12a f drdgv.obj
 0001:0003c138       __nep?HspvFromHsp@DGV@@UAAHPAUMSOSP@@@Z 1003d138 f drdgv.obj
 0001:0003c138       __pcd_tbl?HspvFromHsp@DGV@@UAAHPAUMSOSP@@@Z 1003d138 f drdgv.obj
 0001:0003c140       __fh?HspvFromHsp@DGV@@UAAHPAUMSOSP@@@Z 1003d140 f drdgv.obj
 0001:0003c142       ?HspvFromHsp@DGV@@UAAHPAUMSOSP@@@Z 1003d142 f drdgv.obj
 0001:0003c170       __pcd_tbl?HspvRelated@DGV@@UAAHHK@Z 1003d170 f drdgv.obj
 0001:0003c170       __nep?HspvRelated@DGV@@UAAHHK@Z 1003d170 f drdgv.obj
 0001:0003c178       __fh?HspvRelated@DGV@@UAAHHK@Z 1003d178 f drdgv.obj
 0001:0003c17a       ?HspvRelated@DGV@@UAAHHK@Z 1003d17a f drdgv.obj
 0001:0003c1b0       __pcd_tbl?FGetPositionFromGroupTextbox@DGV@@UAAHPAUMSODGVFDSC@@HPAUMSOSP@@@Z 1003d1b0 f drdgv.obj
 0001:0003c1b4       __nep?FGetPositionFromGroupTextbox@DGV@@UAAHPAUMSODGVFDSC@@HPAUMSOSP@@@Z 1003d1b4 f drdgv.obj
 0001:0003c1bc       __fh?FGetPositionFromGroupTextbox@DGV@@UAAHPAUMSODGVFDSC@@HPAUMSOSP@@@Z 1003d1bc f drdgv.obj
 0001:0003c1be       ?FGetPositionFromGroupTextbox@DGV@@UAAHPAUMSODGVFDSC@@HPAUMSOSP@@@Z 1003d1be f drdgv.obj
 0001:0003c1f4       __pcd_tbl?FCopyCompatibleView@DGV@@UAAHPAUIMsoDrawingView@@@Z 1003d1f4 f drdgv.obj
 0001:0003c200       __nep?FCopyCompatibleView@DGV@@UAAHPAUIMsoDrawingView@@@Z 1003d200 f drdgv.obj
 0001:0003c208       __fh?FCopyCompatibleView@DGV@@UAAHPAUIMsoDrawingView@@@Z 1003d208 f drdgv.obj
 0001:0003c20a       ?FCopyCompatibleView@DGV@@UAAHPAUIMsoDrawingView@@@Z 1003d20a f drdgv.obj
 0001:0003c29c       __pcd_tbl?FDrawShapes@DGV@@UAAHPAUMSODC@@PAUtagPOINT@@PAUtagRECT@@HHHPAUMSODGVFDSC@@@Z 1003d29c f drdgv.obj
 0001:0003c2d4       __nep?FDrawShapes@DGV@@UAAHPAUMSODC@@PAUtagPOINT@@PAUtagRECT@@HHHPAUMSODGVFDSC@@@Z 1003d2d4 f drdgv.obj
 0001:0003c2dc       __fh?FDrawShapes@DGV@@UAAHPAUMSODC@@PAUtagPOINT@@PAUtagRECT@@HHHPAUMSODGVFDSC@@@Z 1003d2dc f drdgv.obj
 0001:0003c2df       ?FDrawShapes@DGV@@UAAHPAUMSODC@@PAUtagPOINT@@PAUtagRECT@@HHHPAUMSODGVFDSC@@@Z 1003d2df f drdgv.obj
 0001:0003c490       __pcd_tbl?RgnkUnionCoverage@DGV@@UAAHPAUHRGN__@@HW4MSOCVRK@@@Z 1003d490 f drdgv.obj
 0001:0003c498       __nep?RgnkUnionCoverage@DGV@@UAAHPAUHRGN__@@HW4MSOCVRK@@@Z 1003d498 f drdgv.obj
 0001:0003c4a0       __fh?RgnkUnionCoverage@DGV@@UAAHPAUHRGN__@@HW4MSOCVRK@@@Z 1003d4a0 f drdgv.obj
 0001:0003c4a2       ?RgnkUnionCoverage@DGV@@UAAHPAUHRGN__@@HW4MSOCVRK@@@Z 1003d4a2 f drdgv.obj
 0001:0003c4b8       __pcd_tbl?FAddColors@DGV@@QAAHPAUMSODC@@PAVGELPaletteMaker@@1@Z 1003d4b8 f drdgv.obj
 0001:0003c4c0       __nep?FAddColors@DGV@@QAAHPAUMSODC@@PAVGELPaletteMaker@@1@Z 1003d4c0 f drdgv.obj
 0001:0003c4c8       __fh?FAddColors@DGV@@QAAHPAUMSODC@@PAVGELPaletteMaker@@1@Z 1003d4c8 f drdgv.obj
 0001:0003c4cb       ?FAddColors@DGV@@QAAHPAUMSODC@@PAVGELPaletteMaker@@1@Z 1003d4cb f drdgv.obj
 0001:0003c56c       _MsoNPalette               1003d56c f drdgv.obj
 0001:0003ce14       __nep??0?$MSOTPX@VGELPaletteMakerEntry@@@@QAA@XZ 1003de14 f drdgv.obj
 0001:0003ce14       __pcd_tbl??0?$MSOTPX@VGELPaletteMakerEntry@@@@QAA@XZ 1003de14 f drdgv.obj
 0001:0003ce1c       __fh??0?$MSOTPX@VGELPaletteMakerEntry@@@@QAA@XZ 1003de1c f drdgv.obj
 0001:0003ce1e       ??0?$MSOTPX@VGELPaletteMakerEntry@@@@QAA@XZ 1003de1e f drdgv.obj
 0001:0003ce30       __pcd_tbl??1?$MSOTPX@VGELPaletteMakerEntry@@@@QAA@XZ 1003de30 f drdgv.obj
 0001:0003ce34       __nep??1?$MSOTPX@VGELPaletteMakerEntry@@@@QAA@XZ 1003de34 f drdgv.obj
 0001:0003ce3c       __fh??1?$MSOTPX@VGELPaletteMakerEntry@@@@QAA@XZ 1003de3c f drdgv.obj
 0001:0003ce3e       ??1?$MSOTPX@VGELPaletteMakerEntry@@@@QAA@XZ 1003de3e f drdgv.obj
 0001:0003ce50       __pcd_tbl?NPalette@DGV@@UAAHPAUtagPALETTEENTRY@@HPAW4MSOGELDCINFO@@PBU2@HHKPAUIMsoDrawingView@@@Z 1003de50 f drdgv.obj
 0001:0003ce54       __nep?NPalette@DGV@@UAAHPAUtagPALETTEENTRY@@HPAW4MSOGELDCINFO@@PBU2@HHKPAUIMsoDrawingView@@@Z 1003de54 f drdgv.obj
 0001:0003ce5c       __fh?NPalette@DGV@@UAAHPAUtagPALETTEENTRY@@HPAW4MSOGELDCINFO@@PBU2@HHKPAUIMsoDrawingView@@@Z 1003de5c f drdgv.obj
 0001:0003ce5e       ?NPalette@DGV@@UAAHPAUtagPALETTEENTRY@@HPAW4MSOGELDCINFO@@PBU2@HHKPAUIMsoDrawingView@@@Z 1003de5e f drdgv.obj
 0001:0003ce7c       __pcd_tbl?FDrawSpv@DGV@@QAAHPAUSPV@@PAUMSODC@@PAUtagRECT@@@Z 1003de7c f drdgv.obj
 0001:0003ce8c       __nep?FDrawSpv@DGV@@QAAHPAUSPV@@PAUMSODC@@PAUtagRECT@@@Z 1003de8c f drdgv.obj
 0001:0003ce94       __fh?FDrawSpv@DGV@@QAAHPAUSPV@@PAUMSODC@@PAUtagRECT@@@Z 1003de94 f drdgv.obj
 0001:0003ce97       ?FDrawSpv@DGV@@QAAHPAUSPV@@PAUMSODC@@PAUtagRECT@@@Z 1003de97 f drdgv.obj
 0001:0003cf0c       __pcd_tbl?DrawSpvSelection@DGV@@QAAXPAUSPV@@PAUMSODC@@PAUtagRECT@@H@Z 1003df0c f drdgv.obj
 0001:0003cf34       __nep?DrawSpvSelection@DGV@@QAAXPAUSPV@@PAUMSODC@@PAUtagRECT@@H@Z 1003df34 f drdgv.obj
 0001:0003cf3c       __fh?DrawSpvSelection@DGV@@QAAXPAUSPV@@PAUMSODC@@PAUtagRECT@@H@Z 1003df3c f drdgv.obj
 0001:0003cf3f       ?DrawSpvSelection@DGV@@QAAXPAUSPV@@PAUMSODC@@PAUtagRECT@@H@Z 1003df3f f drdgv.obj
 0001:0003cff4       __pcd_tbl?DrawSpvConnectionSites@DGV@@QAAXPAUSPV@@PAUMSODC@@@Z 1003dff4 f drdgv.obj
 0001:0003d018       __nep?DrawSpvConnectionSites@DGV@@QAAXPAUSPV@@PAUMSODC@@@Z 1003e018 f drdgv.obj
 0001:0003d020       __fh?DrawSpvConnectionSites@DGV@@QAAXPAUSPV@@PAUMSODC@@@Z 1003e020 f drdgv.obj
 0001:0003d023       ?DrawSpvConnectionSites@DGV@@QAAXPAUSPV@@PAUMSODC@@@Z 1003e023 f drdgv.obj
 0001:0003d094       __pcd_tbl?LocateSpvConnectionSite@DGV@@QAAXPAUSPV@@HPAUtagRECT@@@Z 1003e094 f drdgv.obj
 0001:0003d0a0       __nep?LocateSpvConnectionSite@DGV@@QAAXPAUSPV@@HPAUtagRECT@@@Z 1003e0a0 f drdgv.obj
 0001:0003d0a8       __fh?LocateSpvConnectionSite@DGV@@QAAXPAUSPV@@HPAUtagRECT@@@Z 1003e0a8 f drdgv.obj
 0001:0003d0ab       ?LocateSpvConnectionSite@DGV@@QAAXPAUSPV@@HPAUtagRECT@@@Z 1003e0ab f drdgv.obj
 0001:0003d0e4       __pcd_tbl?ShowConnectionSites@DGV@@QAAXH@Z 1003e0e4 f drdgv.obj
 0001:0003d0e4       __nep?ShowConnectionSites@DGV@@QAAXH@Z 1003e0e4 f drdgv.obj
 0001:0003d0ec       __fh?ShowConnectionSites@DGV@@QAAXH@Z 1003e0ec f drdgv.obj
 0001:0003d0ee       ?ShowConnectionSites@DGV@@QAAXH@Z 1003e0ee f drdgv.obj
 0001:0003d148       __nep?GrfdotNeeded@DGV@@QAAKXZ 1003e148 f drdgv.obj
 0001:0003d148       __pcd_tbl?GrfdotNeeded@DGV@@QAAKXZ 1003e148 f drdgv.obj
 0001:0003d150       __fh?GrfdotNeeded@DGV@@QAAKXZ 1003e150 f drdgv.obj
 0001:0003d152       ?GrfdotNeeded@DGV@@QAAKXZ  1003e152 f drdgv.obj
 0001:0003d16c       __pcd_tbl?DrawSpvText@DGV@@QAAXPAUSPV@@PAUMSODC@@PAUtagRECT@@PAUMSODGVFDSC@@@Z 1003e16c f drdgv.obj
 0001:0003d180       __nep?DrawSpvText@DGV@@QAAXPAUSPV@@PAUMSODC@@PAUtagRECT@@PAUMSODGVFDSC@@@Z 1003e180 f drdgv.obj
 0001:0003d188       __fh?DrawSpvText@DGV@@QAAXPAUSPV@@PAUMSODC@@PAUtagRECT@@PAUMSODGVFDSC@@@Z 1003e188 f drdgv.obj
 0001:0003d18b       ?DrawSpvText@DGV@@QAAXPAUSPV@@PAUMSODC@@PAUtagRECT@@PAUMSODGVFDSC@@@Z 1003e18b f drdgv.obj
 0001:0003d1fc       __nep?FCreateDgcForDgv@DGV@@QAAHPAPAUDGC@@W4MSODGCID@@PAUMSOSP@@H@Z 1003e1fc f drdgv.obj
 0001:0003d1fc       __pcd_tbl?FCreateDgcForDgv@DGV@@QAAHPAPAUDGC@@W4MSODGCID@@PAUMSOSP@@H@Z 1003e1fc f drdgv.obj
 0001:0003d204       __fh?FCreateDgcForDgv@DGV@@QAAHPAPAUDGC@@W4MSODGCID@@PAUMSOSP@@H@Z 1003e204 f drdgv.obj
 0001:0003d206       ?FCreateDgcForDgv@DGV@@QAAHPAPAUDGC@@W4MSODGCID@@PAUMSOSP@@H@Z 1003e206 f drdgv.obj
 0001:0003d244       __pcd_tbl?DoDrag@DGV@@QAAXW4DGVDRGK@@PAU_MSODMHD@@H@Z 1003e244 f drdgv.obj
 0001:0003d288       __nep?DoDrag@DGV@@QAAXW4DGVDRGK@@PAU_MSODMHD@@H@Z 1003e288 f drdgv.obj
 0001:0003d290       __fh?DoDrag@DGV@@QAAXW4DGVDRGK@@PAU_MSODMHD@@H@Z 1003e290 f drdgv.obj
 0001:0003d293       ?DoDrag@DGV@@QAAXW4DGVDRGK@@PAU_MSODMHD@@H@Z 1003e293 f drdgv.obj
 0001:0003d380       __pcd_tbl?Dgvdrgk@DGV@@QAA?AW4DGVDRGK@@XZ 1003e380 f drdgv.obj
 0001:0003d380       __nep?Dgvdrgk@DGV@@QAA?AW4DGVDRGK@@XZ 1003e380 f drdgv.obj
 0001:0003d388       __fh?Dgvdrgk@DGV@@QAA?AW4DGVDRGK@@XZ 1003e388 f drdgv.obj
 0001:0003d38a       ?Dgvdrgk@DGV@@QAA?AW4DGVDRGK@@XZ 1003e38a f drdgv.obj
 0001:0003d394       __pcd_tbl?DragEnter@DGV@@UAAJPAUIDataObject@@KPAU_POINTL@@PAK@Z 1003e394 f drdgv.obj
 0001:0003d394       __nep?DragEnter@DGV@@UAAJPAUIDataObject@@KPAU_POINTL@@PAK@Z 1003e394 f drdgv.obj
 0001:0003d39c       __fh?DragEnter@DGV@@UAAJPAUIDataObject@@KPAU_POINTL@@PAK@Z 1003e39c f drdgv.obj
 0001:0003d39e       ?DragEnter@DGV@@UAAJPAUIDataObject@@KPAU_POINTL@@PAK@Z 1003e39e f drdgv.obj
 0001:0003d3b0       __pcd_tbl?DragOver@DGV@@UAAJKPAU_POINTL@@PAK@Z 1003e3b0 f drdgv.obj
 0001:0003d3b0       __nep?DragOver@DGV@@UAAJKPAU_POINTL@@PAK@Z 1003e3b0 f drdgv.obj
 0001:0003d3b8       __fh?DragOver@DGV@@UAAJKPAU_POINTL@@PAK@Z 1003e3b8 f drdgv.obj
 0001:0003d3ba       ?DragOver@DGV@@UAAJKPAU_POINTL@@PAK@Z 1003e3ba f drdgv.obj
 0001:0003d3c8       __pcd_tbl?DragLeave@DGV@@UAAJXZ 1003e3c8 f drdgv.obj
 0001:0003d3c8       __nep?DragLeave@DGV@@UAAJXZ 1003e3c8 f drdgv.obj
 0001:0003d3d0       __fh?DragLeave@DGV@@UAAJXZ 1003e3d0 f drdgv.obj
 0001:0003d3d2       ?DragLeave@DGV@@UAAJXZ     1003e3d2 f drdgv.obj
 0001:0003d3e0       __pcd_tbl?Drop@DGV@@UAAJPAUIDataObject@@KPAU_POINTL@@PAK@Z 1003e3e0 f drdgv.obj
 0001:0003d3e0       __nep?Drop@DGV@@UAAJPAUIDataObject@@KPAU_POINTL@@PAK@Z 1003e3e0 f drdgv.obj
 0001:0003d3e8       __fh?Drop@DGV@@UAAJPAUIDataObject@@KPAU_POINTL@@PAK@Z 1003e3e8 f drdgv.obj
 0001:0003d3ea       ?Drop@DGV@@UAAJPAUIDataObject@@KPAU_POINTL@@PAK@Z 1003e3ea f drdgv.obj
 0001:0003d3fc       __pcd_tbl?FLoadPolygonInSpv@DGV@@QAAHPAUSPV@@W4MSODGCID@@PAU_MSOSVI@@H@Z 1003e3fc f drdgv.obj
 0001:0003d410       __nep?FLoadPolygonInSpv@DGV@@QAAHPAUSPV@@W4MSODGCID@@PAU_MSOSVI@@H@Z 1003e410 f drdgv.obj
 0001:0003d418       __fh?FLoadPolygonInSpv@DGV@@QAAHPAUSPV@@W4MSODGCID@@PAU_MSOSVI@@H@Z 1003e418 f drdgv.obj
 0001:0003d41a       ?FLoadPolygonInSpv@DGV@@QAAHPAUSPV@@W4MSODGCID@@PAU_MSOSVI@@H@Z 1003e41a f drdgv.obj
 0001:0003d474       ?Validate@DGV@@UAAXXZ      1003e474 f drdgv.obj
 0001:0003f12c       __pcd_tbl?FAdvanceIspvOld@DGV@@QAAHPAHPAPAUSPV@@HH@Z 1004012c f drdgv.obj
 0001:0003f138       __nep?FAdvanceIspvOld@DGV@@QAAHPAHPAPAUSPV@@HH@Z 10040138 f drdgv.obj
 0001:0003f140       __fh?FAdvanceIspvOld@DGV@@QAAHPAHPAPAUSPV@@HH@Z 10040140 f drdgv.obj
 0001:0003f143       ?FAdvanceIspvOld@DGV@@QAAHPAHPAPAUSPV@@HH@Z 10040143 f drdgv.obj
 0001:0003f1b4       __pcd_tbl?FillSvi@DGV@@QAAXPAU_MSOSVI@@PAUSPV@@@Z 100401b4 f drdgv.obj
 0001:0003f1c0       __nep?FillSvi@DGV@@QAAXPAU_MSOSVI@@PAUSPV@@@Z 100401c0 f drdgv.obj
 0001:0003f1c8       __fh?FillSvi@DGV@@QAAXPAU_MSOSVI@@PAUSPV@@@Z 100401c8 f drdgv.obj
 0001:0003f1ca       ?FillSvi@DGV@@QAAXPAU_MSOSVI@@PAUSPV@@@Z 100401ca f drdgv.obj
 0001:0003f210       __pcd_tbl?GetSpvSelectionBounds@DGV@@QAAXPAUSPV@@PAUtagRECT@@@Z 10040210 f drdgv.obj
 0001:0003f234       __nep?GetSpvSelectionBounds@DGV@@QAAXPAUSPV@@PAUtagRECT@@@Z 10040234 f drdgv.obj
 0001:0003f23c       __fh?GetSpvSelectionBounds@DGV@@QAAXPAUSPV@@PAUtagRECT@@@Z 1004023c f drdgv.obj
 0001:0003f23f       ?GetSpvSelectionBounds@DGV@@QAAXPAUSPV@@PAUtagRECT@@@Z 1004023f f drdgv.obj
 0001:0003f2b0       __nep?FLocatePrciOfHsp@DGV@@QAAHPAUtagRECT@@PAUMSOSP@@@Z 100402b0 f drdgv.obj
 0001:0003f2b0       __pcd_tbl?FLocatePrciOfHsp@DGV@@QAAHPAUtagRECT@@PAUMSOSP@@@Z 100402b0 f drdgv.obj
 0001:0003f2b8       __fh?FLocatePrciOfHsp@DGV@@QAAHPAUtagRECT@@PAUMSOSP@@@Z 100402b8 f drdgv.obj
 0001:0003f2ba       ?FLocatePrciOfHsp@DGV@@QAAHPAUtagRECT@@PAUMSOSP@@@Z 100402ba f drdgv.obj
 0001:0003f2d0       __pcd_tbl?Invalidate@DGV@@UAAXKH@Z 100402d0 f drdgv.obj
 0001:0003f2d4       __nep?Invalidate@DGV@@UAAXKH@Z 100402d4 f drdgv.obj
 0001:0003f2dc       __fh?Invalidate@DGV@@UAAXKH@Z 100402dc f drdgv.obj
 0001:0003f2de       ?Invalidate@DGV@@UAAXKH@Z  100402de f drdgv.obj
 0001:0003f33c       __pcd_tbl?SyncInvalidState@DGV@@QAAXXZ 1004033c f drdgv.obj
 0001:0003f344       __nep?SyncInvalidState@DGV@@QAAXXZ 10040344 f drdgv.obj
 0001:0003f34c       __fh?SyncInvalidState@DGV@@QAAXXZ 1004034c f drdgv.obj
 0001:0003f34f       ?SyncInvalidState@DGV@@QAAXXZ 1004034f f drdgv.obj
 0001:0003f398       __pcd_tbl?IspvRootFromIspv@DGV@@QAAHH@Z 10040398 f drdgv.obj
 0001:0003f398       __nep?IspvRootFromIspv@DGV@@QAAHH@Z 10040398 f drdgv.obj
 0001:0003f3a0       __fh?IspvRootFromIspv@DGV@@QAAHH@Z 100403a0 f drdgv.obj
 0001:0003f3a2       ?IspvRootFromIspv@DGV@@QAAHH@Z 100403a2 f drdgv.obj
 0001:0003f3c8       __pcd_tbl?FixSpvSelection@DGV@@QAAXPAUSPV@@KH@Z 100403c8 f drdgv.obj
 0001:0003f3dc       __nep?FixSpvSelection@DGV@@QAAXPAUSPV@@KH@Z 100403dc f drdgv.obj
 0001:0003f3e4       __fh?FixSpvSelection@DGV@@QAAXPAUSPV@@KH@Z 100403e4 f drdgv.obj
 0001:0003f3e7       ?FixSpvSelection@DGV@@QAAXPAUSPV@@KH@Z 100403e7 f drdgv.obj
 0001:0003f538       __pcd_tbl?MoveShape@DGV@@QAAXPAVDRGE@@@Z 10040538 f drdgv.obj
 0001:0003f554       __nep?MoveShape@DGV@@QAAXPAVDRGE@@@Z 10040554 f drdgv.obj
 0001:0003f55c       __fh?MoveShape@DGV@@QAAXPAVDRGE@@@Z 1004055c f drdgv.obj
 0001:0003f55f       ?MoveShape@DGV@@QAAXPAVDRGE@@@Z 1004055f f drdgv.obj
 0001:0003f674       __pcd_tbl?FRecordMoveShape@DGV@@QAAHPAUDGCB@@PAVDRGE@@@Z 10040674 f drdgv.obj
 0001:0003f684       __nep?FRecordMoveShape@DGV@@QAAHPAUDGCB@@PAVDRGE@@@Z 10040684 f drdgv.obj
 0001:0003f68c       __fh?FRecordMoveShape@DGV@@QAAHPAUDGCB@@PAVDRGE@@@Z 1004068c f drdgv.obj
 0001:0003f68e       ?FRecordMoveShape@DGV@@QAAHPAUDGCB@@PAVDRGE@@@Z 1004068e f drdgv.obj
 0001:0003f6b0       __pcd_tbl?RotateShape@DGV@@QAAXPAVDRGE@@@Z 100406b0 f drdgv.obj
 0001:0003f6b4       __nep?RotateShape@DGV@@QAAXPAVDRGE@@@Z 100406b4 f drdgv.obj
 0001:0003f6bc       __fh?RotateShape@DGV@@QAAXPAVDRGE@@@Z 100406bc f drdgv.obj
 0001:0003f6be       ?RotateShape@DGV@@QAAXPAVDRGE@@@Z 100406be f drdgv.obj
 0001:0003f6e0       __pcd_tbl?FGetDragHandlesData@DGV@@QAAHPAUMSOPSGeometry@@PAJ1@Z 100406e0 f drdgv.obj
 0001:0003f6e8       __nep?FGetDragHandlesData@DGV@@QAAHPAUMSOPSGeometry@@PAJ1@Z 100406e8 f drdgv.obj
 0001:0003f6f0       __fh?FGetDragHandlesData@DGV@@QAAHPAUMSOPSGeometry@@PAJ1@Z 100406f0 f drdgv.obj
 0001:0003f6f3       ?FGetDragHandlesData@DGV@@QAAHPAUMSOPSGeometry@@PAJ1@Z 100406f3 f drdgv.obj
 0001:0003f750       __pcd_tbl?ConvertPtvToPti@DGV@@QAAXPBUtagPOINT@@PAU2@H@Z 10040750 f drdgv.obj
 0001:0003f754       __nep?ConvertPtvToPti@DGV@@QAAXPBUtagPOINT@@PAU2@H@Z 10040754 f drdgv.obj
 0001:0003f75c       __fh?ConvertPtvToPti@DGV@@QAAXPBUtagPOINT@@PAU2@H@Z 1004075c f drdgv.obj
 0001:0003f75e       ?ConvertPtvToPti@DGV@@QAAXPBUtagPOINT@@PAU2@H@Z 1004075e f drdgv.obj
 0001:0003f7a4       __pcd_tbl?ConvertPtiToPtv@DGV@@QAAXPBUtagPOINT@@PAU2@H@Z 100407a4 f drdgv.obj
 0001:0003f7a8       __nep?ConvertPtiToPtv@DGV@@QAAXPBUtagPOINT@@PAU2@H@Z 100407a8 f drdgv.obj
 0001:0003f7b0       __fh?ConvertPtiToPtv@DGV@@QAAXPBUtagPOINT@@PAU2@H@Z 100407b0 f drdgv.obj
 0001:0003f7b2       ?ConvertPtiToPtv@DGV@@QAAXPBUtagPOINT@@PAU2@H@Z 100407b2 f drdgv.obj
 0001:0003f7f8       __nep?FFireEvent@DGV@@QAAHW4MSODGE@@IJH@Z 100407f8 f drdgv.obj
 0001:0003f7f8       __pcd_tbl?FFireEvent@DGV@@QAAHW4MSODGE@@IJH@Z 100407f8 f drdgv.obj
 0001:0003f800       __fh?FFireEvent@DGV@@QAAHW4MSODGE@@IJH@Z 10040800 f drdgv.obj
 0001:0003f802       ?FFireEvent@DGV@@QAAHW4MSODGE@@IJH@Z 10040802 f drdgv.obj
 0001:0003f828       __nep?InitEvent@DGV@@QAAXPAUMSODGVEB@@W4MSODGE@@@Z 10040828 f drdgv.obj
 0001:0003f828       __pcd_tbl?InitEvent@DGV@@QAAXPAUMSODGVEB@@W4MSODGE@@@Z 10040828 f drdgv.obj
 0001:0003f830       __fh?InitEvent@DGV@@QAAXPAUMSODGVEB@@W4MSODGE@@@Z 10040830 f drdgv.obj
 0001:0003f832       ?InitEvent@DGV@@QAAXPAUMSODGVEB@@W4MSODGE@@@Z 10040832 f drdgv.obj
 0001:0003f83c       __nep?FFireEvent2@DGV@@QAAHPAUMSODGVEB@@H@Z 1004083c f drdgv.obj
 0001:0003f83c       __pcd_tbl?FFireEvent2@DGV@@QAAHPAUMSODGVEB@@H@Z 1004083c f drdgv.obj
 0001:0003f844       __fh?FFireEvent2@DGV@@QAAHPAUMSODGVEB@@H@Z 10040844 f drdgv.obj
 0001:0003f846       ?FFireEvent2@DGV@@QAAHPAUMSODGVEB@@H@Z 10040846 f drdgv.obj
 0001:0003f860       __pcd_tbl?NotifyOfDgInval@DGV@@QAAXXZ 10040860 f drdgv.obj
 0001:0003f864       __nep?NotifyOfDgInval@DGV@@QAAXXZ 10040864 f drdgv.obj
 0001:0003f86c       __fh?NotifyOfDgInval@DGV@@QAAXXZ 1004086c f drdgv.obj
 0001:0003f86e       ?NotifyOfDgInval@DGV@@QAAXXZ 1004086e f drdgv.obj
 0001:0003f878       __pcd_tbl?CopeWithDgInval@DGV@@QAAXXZ 10040878 f drdgv.obj
 0001:0003f888       __nep?CopeWithDgInval@DGV@@QAAXXZ 10040888 f drdgv.obj
 0001:0003f890       __fh?CopeWithDgInval@DGV@@QAAXXZ 10040890 f drdgv.obj
 0001:0003f893       ?CopeWithDgInval@DGV@@QAAXXZ 10040893 f drdgv.obj
 0001:0003f9e4       __pcd_tbl?RequestSpvRedraw@DGV@@QAAXPAUSPV@@@Z 100409e4 f drdgv.obj
 0001:0003f9e8       __nep?RequestSpvRedraw@DGV@@QAAXPAUSPV@@@Z 100409e8 f drdgv.obj
 0001:0003f9f0       __fh?RequestSpvRedraw@DGV@@QAAXPAUSPV@@@Z 100409f0 f drdgv.obj
 0001:0003f9f2       ?RequestSpvRedraw@DGV@@QAAXPAUSPV@@@Z 100409f2 f drdgv.obj
 0001:0003fa30       __pcd_tbl?SetNewSpvRect@DGV@@UAAXHPAUtagRECT@@@Z 10040a30 f drdgv.obj
 0001:0003fa38       __nep?SetNewSpvRect@DGV@@UAAXHPAUtagRECT@@@Z 10040a38 f drdgv.obj
 0001:0003fa40       __fh?SetNewSpvRect@DGV@@UAAXHPAUtagRECT@@@Z 10040a40 f drdgv.obj
 0001:0003fa42       ?SetNewSpvRect@DGV@@UAAXHPAUtagRECT@@@Z 10040a42 f drdgv.obj
 0001:0003fa6c       __pcd_tbl?_FSnapXY@DGV@@QAAHPAV?$MSOTPX@J@@PAJJPAH@Z 10040a6c f drdgv.obj
 0001:0003fa70       __nep?_FSnapXY@DGV@@QAAHPAV?$MSOTPX@J@@PAJJPAH@Z 10040a70 f drdgv.obj
 0001:0003fa78       __fh?_FSnapXY@DGV@@QAAHPAV?$MSOTPX@J@@PAJJPAH@Z 10040a78 f drdgv.obj
 0001:0003fa7a       ?_FSnapXY@DGV@@QAAHPAV?$MSOTPX@J@@PAJJPAH@Z 10040a7a f drdgv.obj
 0001:0003fad8       __pcd_tbl?CrsOfRotatedDot@@YA?AW4MSOCRS@@HJHH@Z 10040ad8 f drdgv.obj
 0001:0003fadc       __nep?CrsOfRotatedDot@@YA?AW4MSOCRS@@HJHH@Z 10040adc f drdgv.obj
 0001:0003fae4       __fh?CrsOfRotatedDot@@YA?AW4MSOCRS@@HJHH@Z 10040ae4 f drdgv.obj
 0001:0003fae6       ?CrsOfRotatedDot@@YA?AW4MSOCRS@@HJHH@Z 10040ae6 f drdgv.obj
 0001:0003fb80       __pcd_tbl?GetPtOfAdjustHandleDot@@YAXHPAUMSOSP@@PAUtagPOINT@@@Z 10040b80 f drdgv.obj
 0001:0003fb84       __nep?GetPtOfAdjustHandleDot@@YAXHPAUMSOSP@@PAUtagPOINT@@@Z 10040b84 f drdgv.obj
 0001:0003fb8c       __fh?GetPtOfAdjustHandleDot@@YAXHPAUMSOSP@@PAUtagPOINT@@@Z 10040b8c f drdgv.obj
 0001:0003fb8f       ?GetPtOfAdjustHandleDot@@YAXHPAUMSOSP@@PAUtagPOINT@@@Z 10040b8f f drdgv.obj
 0001:0003fbb8       __pcd_tbl?GetPthOfDot@@YAXHPAUMSOSP@@PAUtagPOINT@@@Z 10040bb8 f drdgv.obj
 0001:0003fbc0       __nep?GetPthOfDot@@YAXHPAUMSOSP@@PAUtagPOINT@@@Z 10040bc0 f drdgv.obj
 0001:0003fbc8       __fh?GetPthOfDot@@YAXHPAUMSOSP@@PAUtagPOINT@@@Z 10040bc8 f drdgv.obj
 0001:0003fbcb       ?GetPthOfDot@@YAXHPAUMSOSP@@PAUtagPOINT@@@Z 10040bcb f drdgv.obj
 0001:0003fc2c       __pcd_tbl?GetPthOppositeOfDot@@YAXHPAUMSOSP@@PAUtagPOINT@@@Z 10040c2c f drdgv.obj
 0001:0003fc30       __nep?GetPthOppositeOfDot@@YAXHPAUMSOSP@@PAUtagPOINT@@@Z 10040c30 f drdgv.obj
 0001:0003fc38       __fh?GetPthOppositeOfDot@@YAXHPAUMSOSP@@PAUtagPOINT@@@Z 10040c38 f drdgv.obj
 0001:0003fc3a       ?GetPthOppositeOfDot@@YAXHPAUMSOSP@@PAUtagPOINT@@@Z 10040c3a f drdgv.obj
 0001:0003fc7c       __pcd_tbl?CachePerimeterDotLocations@@YAXPAUDOTLOC@@PAU_MSOSVI@@HHKPAUMSOSP@@@Z 10040c7c f drdgv.obj
 0001:0003fc88       __nep?CachePerimeterDotLocations@@YAXPAUDOTLOC@@PAU_MSOSVI@@HHKPAUMSOSP@@@Z 10040c88 f drdgv.obj
 0001:0003fc90       __fh?CachePerimeterDotLocations@@YAXPAUDOTLOC@@PAU_MSOSVI@@HHKPAUMSOSP@@@Z 10040c90 f drdgv.obj
 0001:0003fc93       ?CachePerimeterDotLocations@@YAXPAUDOTLOC@@PAU_MSOSVI@@HHKPAUMSOSP@@@Z 10040c93 f drdgv.obj
 0001:0003fdf0       __pcd_tbl?CacheAdjustHandleDotLocations@@YAXPAUDOTLOC@@PAU_MSOSVI@@HHKPAUMSOSP@@@Z 10040df0 f drdgv.obj
 0001:0003fdf4       __nep?CacheAdjustHandleDotLocations@@YAXPAUDOTLOC@@PAU_MSOSVI@@HHKPAUMSOSP@@@Z 10040df4 f drdgv.obj
 0001:0003fdfc       __fh?CacheAdjustHandleDotLocations@@YAXPAUDOTLOC@@PAU_MSOSVI@@HHKPAUMSOSP@@@Z 10040dfc f drdgv.obj
 0001:0003fdff       ?CacheAdjustHandleDotLocations@@YAXPAUDOTLOC@@PAU_MSOSVI@@HHKPAUMSOSP@@@Z 10040dff f drdgv.obj
 0001:0003fed8       __pcd_tbl?CacheDotLocations@@YAXPAUDOTLOC@@PAU_MSOSVI@@HHKPAUMSOSP@@@Z 10040ed8 f drdgv.obj
 0001:0003fee0       __nep?CacheDotLocations@@YAXPAUDOTLOC@@PAU_MSOSVI@@HHKPAUMSOSP@@@Z 10040ee0 f drdgv.obj
 0001:0003fee8       __fh?CacheDotLocations@@YAXPAUDOTLOC@@PAU_MSOSVI@@HHKPAUMSOSP@@@Z 10040ee8 f drdgv.obj
 0001:0003feea       ?CacheDotLocations@@YAXPAUDOTLOC@@PAU_MSOSVI@@HHKPAUMSOSP@@@Z 10040eea f drdgv.obj
 0001:0003ff04       __pcd_tbl?DrghHitTest@@YAKPAUtagPOINT@@PAU_MSOSVI@@KKPAUMSOSP@@@Z 10040f04 f drdgv.obj
 0001:0003ff0c       __nep?DrghHitTest@@YAKPAUtagPOINT@@PAU_MSOSVI@@KKPAUMSOSP@@@Z 10040f0c f drdgv.obj
 0001:0003ff14       __fh?DrghHitTest@@YAKPAUtagPOINT@@PAU_MSOSVI@@KKPAUMSOSP@@@Z 10040f14 f drdgv.obj
 0001:0003ff17       ?DrghHitTest@@YAKPAUtagPOINT@@PAU_MSOSVI@@KKPAUMSOSP@@@Z 10040f17 f drdgv.obj
 0001:0003ff5c       __pcd_tbl?DrghRotateHitTest@@YAKPAUtagPOINT@@PAU_MSOSVI@@KPAUMSOSP@@@Z 10040f5c f drdgv.obj
 0001:0003ff64       __nep?DrghRotateHitTest@@YAKPAUtagPOINT@@PAU_MSOSVI@@KPAUMSOSP@@@Z 10040f64 f drdgv.obj
 0001:0003ff6c       __fh?DrghRotateHitTest@@YAKPAUtagPOINT@@PAU_MSOSVI@@KPAUMSOSP@@@Z 10040f6c f drdgv.obj
 0001:0003ff6f       ?DrghRotateHitTest@@YAKPAUtagPOINT@@PAU_MSOSVI@@KPAUMSOSP@@@Z 10040f6f f drdgv.obj
 0001:0003ffa4       __pcd_tbl?DrghReshapeHitTest@@YAKPAUtagPOINT@@PAU_MSOSVI@@PAUSPV@@PAVDGV@@KH@Z 10040fa4 f drdgv.obj
 0001:0003ffac       __nep?DrghReshapeHitTest@@YAKPAUtagPOINT@@PAU_MSOSVI@@PAUSPV@@PAVDGV@@KH@Z 10040fac f drdgv.obj
 0001:0003ffb4       __fh?DrghReshapeHitTest@@YAKPAUtagPOINT@@PAU_MSOSVI@@PAUSPV@@PAVDGV@@KH@Z 10040fb4 f drdgv.obj
 0001:0003ffb6       ?DrghReshapeHitTest@@YAKPAUtagPOINT@@PAU_MSOSVI@@PAUSPV@@PAVDGV@@KH@Z 10040fb6 f drdgv.obj
 0001:0003ffe4       __pcd_tbl?DrghHatchHitTest@@YAKPAUtagPOINT@@PAU_MSOSVI@@PAUMSOSP@@@Z 10040fe4 f drdgv.obj
 0001:0003ffec       __nep?DrghHatchHitTest@@YAKPAUtagPOINT@@PAU_MSOSVI@@PAUMSOSP@@@Z 10040fec f drdgv.obj
 0001:0003fff4       __fh?DrghHatchHitTest@@YAKPAUtagPOINT@@PAU_MSOSVI@@PAUMSOSP@@@Z 10040ff4 f drdgv.obj
 0001:0003fff6       ?DrghHatchHitTest@@YAKPAUtagPOINT@@PAU_MSOSVI@@PAUMSOSP@@@Z 10040ff6 f drdgv.obj
 0001:00040014       __pcd_tbl?DrghFuzzHitTest@@YAKPAUtagPOINT@@PAU_MSOSVI@@PAUMSOSP@@@Z 10041014 f drdgv.obj
 0001:0004002c       __nep?DrghFuzzHitTest@@YAKPAUtagPOINT@@PAU_MSOSVI@@PAUMSOSP@@@Z 1004102c f drdgv.obj
 0001:00040034       __fh?DrghFuzzHitTest@@YAKPAUtagPOINT@@PAU_MSOSVI@@PAUMSOSP@@@Z 10041034 f drdgv.obj
 0001:00040037       ?DrghFuzzHitTest@@YAKPAUtagPOINT@@PAU_MSOSVI@@PAUMSOSP@@@Z 10041037 f drdgv.obj
 0001:0004009c       __pcd_tbl?FDrawControls@@YAHPAUHDC__@@PAUtagRECT@@PAU_MSOSVI@@PAUSPV@@PAVDGV@@KH@Z 1004109c f drdgv.obj
 0001:000400ac       __nep?FDrawControls@@YAHPAUHDC__@@PAUtagRECT@@PAU_MSOSVI@@PAUSPV@@PAVDGV@@KH@Z 100410ac f drdgv.obj
 0001:000400b4       __fh?FDrawControls@@YAHPAUHDC__@@PAUtagRECT@@PAU_MSOSVI@@PAUSPV@@PAVDGV@@KH@Z 100410b4 f drdgv.obj
 0001:000400b6       ?FDrawControls@@YAHPAUHDC__@@PAUtagRECT@@PAU_MSOSVI@@PAUSPV@@PAVDGV@@KH@Z 100410b6 f drdgv.obj
 0001:000400dc       __pcd_tbl?DrawDots@@YAXPAUHDC__@@PAU_MSOSVI@@KKPAUMSOSP@@@Z 100410dc f drdgv.obj
 0001:00040120       __nep?DrawDots@@YAXPAUHDC__@@PAU_MSOSVI@@KKPAUMSOSP@@@Z 10041120 f drdgv.obj
 0001:00040128       __fh?DrawDots@@YAXPAUHDC__@@PAU_MSOSVI@@KKPAUMSOSP@@@Z 10041128 f drdgv.obj
 0001:0004012b       ?DrawDots@@YAXPAUHDC__@@PAU_MSOSVI@@KKPAUMSOSP@@@Z 1004112b f drdgv.obj
 0001:00040260       __pcd_tbl?DrawRotateDots@@YAXPAUHDC__@@PAU_MSOSVI@@KPAUMSOSP@@@Z 10041260 f drdgv.obj
 0001:0004027c       __nep?DrawRotateDots@@YAXPAUHDC__@@PAU_MSOSVI@@KPAUMSOSP@@@Z 1004127c f drdgv.obj
 0001:00040284       __fh?DrawRotateDots@@YAXPAUHDC__@@PAU_MSOSVI@@KPAUMSOSP@@@Z 10041284 f drdgv.obj
 0001:00040287       ?DrawRotateDots@@YAXPAUHDC__@@PAU_MSOSVI@@KPAUMSOSP@@@Z 10041287 f drdgv.obj
 0001:000402dc       ?SetPolygonFromRotatedRc@@YAXPAUtagRECT@@JPAUtagPOINT@@1@Z 100412dc f drdgv.obj
 0001:00040428       __pcd_tbl?FFillRc@@YAHPAUtagRECT@@PAUtagPOINT@@JPAUHDC__@@PAUHBRUSH__@@@Z 10041428 f drdgv.obj
 0001:00040434       __nep?FFillRc@@YAHPAUtagRECT@@PAUtagPOINT@@JPAUHDC__@@PAUHBRUSH__@@@Z 10041434 f drdgv.obj
 0001:0004043c       __fh?FFillRc@@YAHPAUtagRECT@@PAUtagPOINT@@JPAUHDC__@@PAUHBRUSH__@@@Z 1004143c f drdgv.obj
 0001:0004043e       ?FFillRc@@YAHPAUtagRECT@@PAUtagPOINT@@JPAUHDC__@@PAUHBRUSH__@@@Z 1004143e f drdgv.obj
 0001:00040454       __pcd_tbl?DrawSpvBorder@@YAXPAUSPV@@PAU_MSOSVI@@PAUMSODC@@HKK@Z 10041454 f drdgv.obj
 0001:0004046c       __nep?DrawSpvBorder@@YAXPAUSPV@@PAU_MSOSVI@@PAUMSODC@@HKK@Z 1004146c f drdgv.obj
 0001:00040474       __fh?DrawSpvBorder@@YAXPAUSPV@@PAU_MSOSVI@@PAUMSODC@@HKK@Z 10041474 f drdgv.obj
 0001:00040477       ?DrawSpvBorder@@YAXPAUSPV@@PAU_MSOSVI@@PAUMSODC@@HKK@Z 10041477 f drdgv.obj
 0001:000404d8       __pcd_tbl?DrawHatchBorder@@YAXPAUHDC__@@PAU_MSOSVI@@@Z 100414d8 f drdgv.obj
 0001:000404ec       __nep?DrawHatchBorder@@YAXPAUHDC__@@PAU_MSOSVI@@@Z 100414ec f drdgv.obj
 0001:000404f4       __fh?DrawHatchBorder@@YAXPAUHDC__@@PAU_MSOSVI@@@Z 100414f4 f drdgv.obj
 0001:000404f6       ?DrawHatchBorder@@YAXPAUHDC__@@PAU_MSOSVI@@@Z 100414f6 f drdgv.obj
 0001:00040558       __pcd_tbl?DrawFuzzBorder@@YAXPAUHDC__@@PAU_MSOSVI@@PAUSPV@@@Z 10041558 f drdgv.obj
 0001:00040574       __nep?DrawFuzzBorder@@YAXPAUHDC__@@PAU_MSOSVI@@PAUSPV@@@Z 10041574 f drdgv.obj
 0001:0004057c       __fh?DrawFuzzBorder@@YAXPAUHDC__@@PAU_MSOSVI@@PAUSPV@@@Z 1004157c f drdgv.obj
 0001:0004057e       ?DrawFuzzBorder@@YAXPAUHDC__@@PAU_MSOSVI@@PAUSPV@@@Z 1004157e f drdgv.obj
 0001:00040624       __pcd_tbl?LocateWrapPolygonBounds@@YAXPAU_MSOSVI@@PAUtagRECT@@PAUMSOSP@@1@Z 10041624 f drdgv.obj
 0001:0004063c       __nep?LocateWrapPolygonBounds@@YAXPAU_MSOSVI@@PAUtagRECT@@PAUMSOSP@@1@Z 1004163c f drdgv.obj
 0001:00040644       __fh?LocateWrapPolygonBounds@@YAXPAU_MSOSVI@@PAUtagRECT@@PAUMSOSP@@1@Z 10041644 f drdgv.obj
 0001:00040646       ?LocateWrapPolygonBounds@@YAXPAU_MSOSVI@@PAUtagRECT@@PAUMSOSP@@1@Z 10041646 f drdgv.obj
 0001:000406b0       __pcd_tbl?LocateDots@@YAXPAU_MSOSVI@@KKPAUtagRECT@@PAUMSOSP@@@Z 100416b0 f drdgv.obj
 0001:000406bc       __nep?LocateDots@@YAXPAU_MSOSVI@@KKPAUtagRECT@@PAUMSOSP@@@Z 100416bc f drdgv.obj
 0001:000406c4       __fh?LocateDots@@YAXPAU_MSOSVI@@KKPAUtagRECT@@PAUMSOSP@@@Z 100416c4 f drdgv.obj
 0001:000406c7       ?LocateDots@@YAXPAU_MSOSVI@@KKPAUtagRECT@@PAUMSOSP@@@Z 100416c7 f drdgv.obj
 0001:000406f4       __nep_MsoMmBuild           100416f4 f drdgv.obj
 0001:000406f4       __pcd_tbl_MsoMmBuild       100416f4 f drdgv.obj
 0001:000406fc       __fh_MsoMmBuild            100416fc f drdgv.obj
 0001:000406fe       _MsoMmBuild                100416fe f drdgv.obj
 0001:00040754       __nep_MsoFMmImpliesContextMenu 10041754 f drdgv.obj
 0001:00040754       __pcd_tbl_MsoFMmImpliesContextMenu 10041754 f drdgv.obj
 0001:0004075c       __fh_MsoFMmImpliesContextMenu 1004175c f drdgv.obj
 0001:0004075e       _MsoFMmImpliesContextMenu  1004175e f drdgv.obj
 0001:00040768       __nep?FMmImpliesDragMenu@@YAHI@Z 10041768 f drdgv.obj
 0001:00040768       __pcd_tbl?FMmImpliesDragMenu@@YAHI@Z 10041768 f drdgv.obj
 0001:00040770       __fh?FMmImpliesDragMenu@@YAHI@Z 10041770 f drdgv.obj
 0001:00040772       ?FMmImpliesDragMenu@@YAHI@Z 10041772 f drdgv.obj
 0001:0004077c       __pcd_tbl?DrawNoFill@@YAXPAUtagRECT@@PAUHDC__@@@Z 1004177c f drdlgfil.obj
 0001:00040780       __nep?DrawNoFill@@YAXPAUtagRECT@@PAUHDC__@@@Z 10041780 f drdlgfil.obj
 0001:00040788       __fh?DrawNoFill@@YAXPAUtagRECT@@PAUHDC__@@@Z 10041788 f drdlgfil.obj
 0001:0004078a       ?DrawNoFill@@YAXPAUtagRECT@@PAUHDC__@@@Z 1004178a f drdlgfil.obj
 0001:00040794       ??0DRSHADED@@QAA@IHHPAUIMsoFillsDlg@@@Z 10041794 f drdlgfil.obj
 0001:00040844       __pcd_tbl?CCount@DRSHADED@@UAAHXZ 10041844 f drdlgfil.obj
 0001:00040844       __nep?CCount@DRSHADED@@UAAHXZ 10041844 f drdlgfil.obj
 0001:0004084c       __fh?CCount@DRSHADED@@UAAHXZ 1004184c f drdlgfil.obj
 0001:0004084e       ?CCount@DRSHADED@@UAAHXZ   1004184e f drdlgfil.obj
 0001:00040854       __pcd_tbl??_GDRSHADED@@UAAPAXI@Z 10041854 f drdlgfil.obj
 0001:0004085c       __nep??_GDRSHADED@@UAAPAXI@Z 1004185c f drdlgfil.obj
 0001:00040864       __fh??_GDRSHADED@@UAAPAXI@Z 10041864 f drdlgfil.obj
 0001:00040866       ??_GDRSHADED@@UAAPAXI@Z    10041866 f drdlgfil.obj
 0001:00040866       ??_EDRSHADED@@UAAPAXI@Z    10041866 f drdlgfil.obj
 0001:00040870       __pcd_tbl?FHandleChar@DRSHADED@@UAAHPAUHWND__@@IIJUtagPOINT@@@Z 10041870 f drdlgfil.obj
 0001:00040878       __nep?FHandleChar@DRSHADED@@UAAHPAUHWND__@@IIJUtagPOINT@@@Z 10041878 f drdlgfil.obj
 0001:00040880       __fh?FHandleChar@DRSHADED@@UAAHPAUHWND__@@IIJUtagPOINT@@@Z 10041880 f drdlgfil.obj
 0001:00040882       ?FHandleChar@DRSHADED@@UAAHPAUHWND__@@IIJUtagPOINT@@@Z 10041882 f drdlgfil.obj
 0001:00040960       __pcd_tbl?IHitTest@DRSHADED@@UAAHPAUtagPOINT@@PAUHWND__@@@Z 10041960 f drdlgfil.obj
 0001:00040964       __nep?IHitTest@DRSHADED@@UAAHPAUtagPOINT@@PAUHWND__@@@Z 10041964 f drdlgfil.obj
 0001:0004096c       __fh?IHitTest@DRSHADED@@UAAHPAUtagPOINT@@PAUHWND__@@@Z 1004196c f drdlgfil.obj
 0001:0004096e       ?IHitTest@DRSHADED@@UAAHPAUtagPOINT@@PAUHWND__@@@Z 1004196e f drdlgfil.obj
 0001:00040980       __pcd_tbl?FSetupDrawing@DRSHADED@@UAAHPAUtagRECT@@@Z 10041980 f drdlgfil.obj
 0001:0004098c       __nep?FSetupDrawing@DRSHADED@@UAAHPAUtagRECT@@@Z 1004198c f drdlgfil.obj
 0001:00040994       __fh?FSetupDrawing@DRSHADED@@UAAHPAUtagRECT@@@Z 10041994 f drdlgfil.obj
 0001:00040996       ?FSetupDrawing@DRSHADED@@UAAHPAUtagRECT@@@Z 10041996 f drdlgfil.obj
 0001:00040a08       __pcd_tbl?FInit@DRSHADED@@UAAHXZ 10041a08 f drdlgfil.obj
 0001:00040a10       __nep?FInit@DRSHADED@@UAAHXZ 10041a10 f drdlgfil.obj
 0001:00040a18       __fh?FInit@DRSHADED@@UAAHXZ 10041a18 f drdlgfil.obj
 0001:00040a1a       ?FInit@DRSHADED@@UAAHXZ    10041a1a f drdlgfil.obj
 0001:00040a54       __pcd_tbl?DrawFocus@DRSHADED@@UAAXPAUHDC__@@PAUtagRECT@@HH@Z 10041a54 f drdlgfil.obj
 0001:00040a54       __nep?DrawFocus@DRSHADED@@UAAXPAUHDC__@@PAUtagRECT@@HH@Z 10041a54 f drdlgfil.obj
 0001:00040a5c       __fh?DrawFocus@DRSHADED@@UAAXPAUHDC__@@PAUtagRECT@@HH@Z 10041a5c f drdlgfil.obj
 0001:00040a5e       ?DrawFocus@DRSHADED@@UAAXPAUHDC__@@PAUtagRECT@@HH@Z 10041a5e f drdlgfil.obj
 0001:00040a60       __pcd_tbl?FSetStyle@DRSHADED@@QAAHH@Z 10041a60 f drdlgfil.obj
 0001:00040a64       __nep?FSetStyle@DRSHADED@@QAAHH@Z 10041a64 f drdlgfil.obj
 0001:00040a6c       __fh?FSetStyle@DRSHADED@@QAAHH@Z 10041a6c f drdlgfil.obj
 0001:00040a6e       ?FSetStyle@DRSHADED@@QAAHH@Z 10041a6e f drdlgfil.obj
 0001:00040a88       __nep?UlGetColor@DRSHADED@@QAAKH@Z 10041a88 f drdlgfil.obj
 0001:00040a88       __pcd_tbl?UlGetColor@DRSHADED@@QAAKH@Z 10041a88 f drdlgfil.obj
 0001:00040a90       __fh?UlGetColor@DRSHADED@@QAAKH@Z 10041a90 f drdlgfil.obj
 0001:00040a92       ?UlGetColor@DRSHADED@@QAAKH@Z 10041a92 f drdlgfil.obj
 0001:00040a9c       __pcd_tbl?FSetColor@DRSHADED@@QAAHHK@Z 10041a9c f drdlgfil.obj
 0001:00040a9c       __nep?FSetColor@DRSHADED@@QAAHHK@Z 10041a9c f drdlgfil.obj
 0001:00040aa4       __fh?FSetColor@DRSHADED@@QAAHHK@Z 10041aa4 f drdlgfil.obj
 0001:00040aa6       ?FSetColor@DRSHADED@@QAAHHK@Z 10041aa6 f drdlgfil.obj
 0001:00040ac4       __pcd_tbl?FreeEffects@DRSHADED@@IAAXXZ 10041ac4 f drdlgfil.obj
 0001:00040ac4       __nep?FreeEffects@DRSHADED@@IAAXXZ 10041ac4 f drdlgfil.obj
 0001:00040acc       __fh?FreeEffects@DRSHADED@@IAAXXZ 10041acc f drdlgfil.obj
 0001:00040ace       ?FreeEffects@DRSHADED@@IAAXXZ 10041ace f drdlgfil.obj
 0001:00040aec       __pcd_tbl?SetFillToPt@DRSHADED@@IAAXPAJ0HH@Z 10041aec f drdlgfil.obj
 0001:00040aec       __nep?SetFillToPt@DRSHADED@@IAAXPAJ0HH@Z 10041aec f drdlgfil.obj
 0001:00040af4       __fh?SetFillToPt@DRSHADED@@IAAXPAJ0HH@Z 10041af4 f drdlgfil.obj
 0001:00040af6       ?SetFillToPt@DRSHADED@@IAAXPAJ0HH@Z 10041af6 f drdlgfil.obj
 0001:00040b34       __pcd_tbl?SetCorner@@YAXHPAUtagRECT@@@Z 10041b34 f drdlgfil.obj
 0001:00040b34       __nep?SetCorner@@YAXHPAUtagRECT@@@Z 10041b34 f drdlgfil.obj
 0001:00040b3c       __fh?SetCorner@@YAXHPAUtagRECT@@@Z 10041b3c f drdlgfil.obj
 0001:00040b3e       ?SetCorner@@YAXHPAUtagRECT@@@Z 10041b3e f drdlgfil.obj
 0001:00040b74       __nep?SetCenter@@YAXPAUtagRECT@@@Z 10041b74 f drdlgfil.obj
 0001:00040b74       __pcd_tbl?SetCenter@@YAXPAUtagRECT@@@Z 10041b74 f drdlgfil.obj
 0001:00040b7c       __fh?SetCenter@@YAXPAUtagRECT@@@Z 10041b7c f drdlgfil.obj
 0001:00040b7e       ?SetCenter@@YAXPAUtagRECT@@@Z 10041b7e f drdlgfil.obj
 0001:00040b9c       __pcd_tbl_MsoGetShadeInfoFromVariant 10041b9c f drdlgfil.obj
 0001:00040ba8       __nep_MsoGetShadeInfoFromVariant 10041ba8 f drdlgfil.obj
 0001:00040bb0       __fh_MsoGetShadeInfoFromVariant 10041bb0 f drdlgfil.obj
 0001:00040bb2       _MsoGetShadeInfoFromVariant 10041bb2 f drdlgfil.obj
 0001:00040c50       __pcd_tbl?FindCenterVariant@@YA?AW4MSOVARIANT@@J@Z 10041c50 f drdlgfil.obj
 0001:00040c50       __nep?FindCenterVariant@@YA?AW4MSOVARIANT@@J@Z 10041c50 f drdlgfil.obj
 0001:00040c58       __fh?FindCenterVariant@@YA?AW4MSOVARIANT@@J@Z 10041c58 f drdlgfil.obj
 0001:00040c5a       ?FindCenterVariant@@YA?AW4MSOVARIANT@@J@Z 10041c5a f drdlgfil.obj
 0001:00040c64       __nep?FindCornerVariant@@YA?AW4MSOVARIANT@@JJJJ@Z 10041c64 f drdlgfil.obj
 0001:00040c64       __pcd_tbl?FindCornerVariant@@YA?AW4MSOVARIANT@@JJJJ@Z 10041c64 f drdlgfil.obj
 0001:00040c6c       __fh?FindCornerVariant@@YA?AW4MSOVARIANT@@JJJJ@Z 10041c6c f drdlgfil.obj
 0001:00040c6e       ?FindCornerVariant@@YA?AW4MSOVARIANT@@JJJJ@Z 10041c6e f drdlgfil.obj
 0001:00040cac       __pcd_tbl?VarGetVariant@@YA?AW4MSOVARIANT@@W4MSOFILLTYPE@@JJJJJJW4MSOCOLORDLGSTYLE@@@Z 10041cac f drdlgfil.obj
 0001:00040cb8       __nep?VarGetVariant@@YA?AW4MSOVARIANT@@W4MSOFILLTYPE@@JJJJJJW4MSOCOLORDLGSTYLE@@@Z 10041cb8 f drdlgfil.obj
 0001:00040cc0       __fh?VarGetVariant@@YA?AW4MSOVARIANT@@W4MSOFILLTYPE@@JJJJJJW4MSOCOLORDLGSTYLE@@@Z 10041cc0 f drdlgfil.obj
 0001:00040cc2       ?VarGetVariant@@YA?AW4MSOVARIANT@@W4MSOFILLTYPE@@JJJJJJW4MSOCOLORDLGSTYLE@@@Z 10041cc2 f drdlgfil.obj
 0001:00040d24       __pcd_tbl?FReverseColors@@YAHHH@Z 10041d24 f drdlgfil.obj
 0001:00040d24       __nep?FReverseColors@@YAHHH@Z 10041d24 f drdlgfil.obj
 0001:00040d2c       __fh?FReverseColors@@YAHHH@Z 10041d2c f drdlgfil.obj
 0001:00040d2e       ?FReverseColors@@YAHHH@Z   10041d2e f drdlgfil.obj
 0001:00040d30       __pcd_tbl?SetFillColor@@YAXHHKKPAK0H@Z 10041d30 f drdlgfil.obj
 0001:00040d38       __nep?SetFillColor@@YAXHHKKPAK0H@Z 10041d38 f drdlgfil.obj
 0001:00040d40       __fh?SetFillColor@@YAXHHKKPAK0H@Z 10041d40 f drdlgfil.obj
 0001:00040d42       ?SetFillColor@@YAXHHKKPAK0H@Z 10041d42 f drdlgfil.obj
 0001:00040d78       __pcd_tbl_MsoLGetShadeAngle 10041d78 f drdlgfil.obj
 0001:00040d78       __nep_MsoLGetShadeAngle    10041d78 f drdlgfil.obj
 0001:00040d80       __fh_MsoLGetShadeAngle     10041d80 f drdlgfil.obj
 0001:00040d82       _MsoLGetShadeAngle         10041d82 f drdlgfil.obj
 0001:00040d90       __nep?FSetPreset@DRSHADED@@QAAHH@Z 10041d90 f drdlgfil.obj
 0001:00040d90       __pcd_tbl?FSetPreset@DRSHADED@@QAAHH@Z 10041d90 f drdlgfil.obj
 0001:00040d98       __fh?FSetPreset@DRSHADED@@QAAHH@Z 10041d98 f drdlgfil.obj
 0001:00040d9a       ?FSetPreset@DRSHADED@@QAAHH@Z 10041d9a f drdlgfil.obj
 0001:00040db0       __nep?ReverseIt@@YAXPAUIMsoArray@@@Z 10041db0 f drdlgfil.obj
 0001:00040db0       __pcd_tbl?ReverseIt@@YAXPAUIMsoArray@@@Z 10041db0 f drdlgfil.obj
 0001:00040db8       __fh?ReverseIt@@YAXPAUIMsoArray@@@Z 10041db8 f drdlgfil.obj
 0001:00040dba       ?ReverseIt@@YAXPAUIMsoArray@@@Z 10041dba f drdlgfil.obj
 0001:00040df4       __pcd_tbl_MsoRgCrGradientPreset 10041df4 f drdlgfil.obj
 0001:00040e00       __nep_MsoRgCrGradientPreset 10041e00 f drdlgfil.obj
 0001:00040e08       __fh_MsoRgCrGradientPreset 10041e08 f drdlgfil.obj
 0001:00040e0a       _MsoRgCrGradientPreset     10041e0a f drdlgfil.obj
 0001:00040e28       __pcd_tbl?FUpdateEffects@DRSHADED@@QAAHXZ 10041e28 f drdlgfil.obj
 0001:00040e60       __nep?FUpdateEffects@DRSHADED@@QAAHXZ 10041e60 f drdlgfil.obj
 0001:00040e68       __fh?FUpdateEffects@DRSHADED@@QAAHXZ 10041e68 f drdlgfil.obj
 0001:00040e6b       ?FUpdateEffects@DRSHADED@@QAAHXZ 10041e6b f drdlgfil.obj
 0001:00041014       __pcd_tbl?FSetBrightness@DRSHADED@@QAAHJ@Z 10042014 f drdlgfil.obj
 0001:00041014       __nep?FSetBrightness@DRSHADED@@QAAHJ@Z 10042014 f drdlgfil.obj
 0001:0004101c       __fh?FSetBrightness@DRSHADED@@QAAHJ@Z 1004201c f drdlgfil.obj
 0001:0004101e       ?FSetBrightness@DRSHADED@@QAAHJ@Z 1004201e f drdlgfil.obj
 0001:0004102c       __nep?FSetCCtl@DRSHADED@@QAAHH@Z 1004202c f drdlgfil.obj
 0001:0004102c       __pcd_tbl?FSetCCtl@DRSHADED@@QAAHH@Z 1004202c f drdlgfil.obj
 0001:00041034       __fh?FSetCCtl@DRSHADED@@QAAHH@Z 10042034 f drdlgfil.obj
 0001:00041036       ?FSetCCtl@DRSHADED@@QAAHH@Z 10042036 f drdlgfil.obj
 0001:00041044       __nep?FSetRectCount@DRSHADED@@QAAHH@Z 10042044 f drdlgfil.obj
 0001:00041044       __pcd_tbl?FSetRectCount@DRSHADED@@QAAHH@Z 10042044 f drdlgfil.obj
 0001:0004104c       __fh?FSetRectCount@DRSHADED@@QAAHH@Z 1004204c f drdlgfil.obj
 0001:0004104e       ?FSetRectCount@DRSHADED@@QAAHH@Z 1004204e f drdlgfil.obj
 0001:00041068       ??1DRSHADED@@UAA@XZ        10042068 f drdlgfil.obj
 0001:00041144       __pcd_tbl?DrawPic@DRSHADED@@UAAXPAUHDC__@@PAUtagRECT@@HH@Z 10042144 f drdlgfil.obj
 0001:0004115c       __nep?DrawPic@DRSHADED@@UAAXPAUHDC__@@PAUtagRECT@@HH@Z 1004215c f drdlgfil.obj
 0001:00041164       __fh?DrawPic@DRSHADED@@UAAXPAUHDC__@@PAUtagRECT@@HH@Z 10042164 f drdlgfil.obj
 0001:00041167       ?DrawPic@DRSHADED@@UAAXPAUHDC__@@PAUtagRECT@@HH@Z 10042167 f drdlgfil.obj
 0001:000411c8       __pcd_tbl??0BITMAPRESOURCE@@QAA@PAD@Z 100421c8 f drdlgfil.obj
 0001:000411cc       __nep??0BITMAPRESOURCE@@QAA@PAD@Z 100421cc f drdlgfil.obj
 0001:000411d4       __fh??0BITMAPRESOURCE@@QAA@PAD@Z 100421d4 f drdlgfil.obj
 0001:000411d6       ??0BITMAPRESOURCE@@QAA@PAD@Z 100421d6 f drdlgfil.obj
 0001:000411ec       __pcd_tbl??0BITMAPRESOURCE@@QAA@K@Z 100421ec f drdlgfil.obj
 0001:000411f0       __nep??0BITMAPRESOURCE@@QAA@K@Z 100421f0 f drdlgfil.obj
 0001:000411f8       __fh??0BITMAPRESOURCE@@QAA@K@Z 100421f8 f drdlgfil.obj
 0001:000411fa       ??0BITMAPRESOURCE@@QAA@K@Z 100421fa f drdlgfil.obj
 0001:00041210       __nep??1BITMAPRESOURCE@@QAA@XZ 10042210 f drdlgfil.obj
 0001:00041210       __pcd_tbl??1BITMAPRESOURCE@@QAA@XZ 10042210 f drdlgfil.obj
 0001:00041218       __fh??1BITMAPRESOURCE@@QAA@XZ 10042218 f drdlgfil.obj
 0001:0004121a       ??1BITMAPRESOURCE@@QAA@XZ  1004221a f drdlgfil.obj
 0001:00041220       __pcd_tbl?FInit@BITMAPRESOURCE@@AAAHPAD@Z 10042220 f drdlgfil.obj
 0001:0004123c       __nep?FInit@BITMAPRESOURCE@@AAAHPAD@Z 1004223c f drdlgfil.obj
 0001:00041244       __fh?FInit@BITMAPRESOURCE@@AAAHPAD@Z 10042244 f drdlgfil.obj
 0001:00041246       ?FInit@BITMAPRESOURCE@@AAAHPAD@Z 10042246 f drdlgfil.obj
 0001:0004128c       __pcd_tbl?FFillRect@BITMAPRESOURCE@@QBAHPAUHDC__@@PBUtagRECT@@@Z 1004228c f drdlgfil.obj
 0001:00041298       __nep?FFillRect@BITMAPRESOURCE@@QBAHPAUHDC__@@PBUtagRECT@@@Z 10042298 f drdlgfil.obj
 0001:000412a0       __fh?FFillRect@BITMAPRESOURCE@@QBAHPAUHDC__@@PBUtagRECT@@@Z 100422a0 f drdlgfil.obj
 0001:000412a2       ?FFillRect@BITMAPRESOURCE@@QBAHPAUHDC__@@PBUtagRECT@@@Z 100422a2 f drdlgfil.obj
 0001:00041358       ??0DRTEXTURE@@QAA@IPAUIMsoFillsDlg@@@Z 10042358 f drdlgfil.obj
 0001:000413e4       __pcd_tbl??_GDRTEXTURE@@UAAPAXI@Z 100423e4 f drdlgfil.obj
 0001:000413ec       __nep??_GDRTEXTURE@@UAAPAXI@Z 100423ec f drdlgfil.obj
 0001:000413f4       __fh??_GDRTEXTURE@@UAAPAXI@Z 100423f4 f drdlgfil.obj
 0001:000413f6       ??_GDRTEXTURE@@UAAPAXI@Z   100423f6 f drdlgfil.obj
 0001:000413f6       ??_EDRTEXTURE@@UAAPAXI@Z   100423f6 f drdlgfil.obj
 0001:00041400       __pcd_tbl?FInit@DRTEXTURE@@UAAHXZ 10042400 f drdlgfil.obj
 0001:00041404       __nep?FInit@DRTEXTURE@@UAAHXZ 10042404 f drdlgfil.obj
 0001:0004140c       __fh?FInit@DRTEXTURE@@UAAHXZ 1004240c f drdlgfil.obj
 0001:0004140e       ?FInit@DRTEXTURE@@UAAHXZ   1004240e f drdlgfil.obj
 0001:0004143c       __pcd_tbl?FHandleChar@DRTEXTURE@@UAAHPAUHWND__@@IIJUtagPOINT@@@Z 1004243c f drdlgfil.obj
 0001:00041450       __nep?FHandleChar@DRTEXTURE@@UAAHPAUHWND__@@IIJUtagPOINT@@@Z 10042450 f drdlgfil.obj
 0001:00041458       __fh?FHandleChar@DRTEXTURE@@UAAHPAUHWND__@@IIJUtagPOINT@@@Z 10042458 f drdlgfil.obj
 0001:0004145a       ?FHandleChar@DRTEXTURE@@UAAHPAUHWND__@@IIJUtagPOINT@@@Z 1004245a f drdlgfil.obj
 0001:000415ac       __pcd_tbl?FInitBmp@@YAHPBVBITMAPRESOURCE@@PAUHDC__@@PAUHPALETTE__@@HHPAPAU2@PAPAUHBITMAP__@@@Z 100425ac f drdlgfil.obj
 0001:000415d0       __nep?FInitBmp@@YAHPBVBITMAPRESOURCE@@PAUHDC__@@PAUHPALETTE__@@HHPAPAU2@PAPAUHBITMAP__@@@Z 100425d0 f drdlgfil.obj
 0001:000415d8       __fh?FInitBmp@@YAHPBVBITMAPRESOURCE@@PAUHDC__@@PAUHPALETTE__@@HHPAPAU2@PAPAUHBITMAP__@@@Z 100425d8 f drdlgfil.obj
 0001:000415da       ?FInitBmp@@YAHPBVBITMAPRESOURCE@@PAUHDC__@@PAUHPALETTE__@@HHPAPAU2@PAPAUHBITMAP__@@@Z 100425da f drdlgfil.obj
 0001:00041668       ?FInitTextures@@YAHHHPAUtagRECT@@PAPAUHDC__@@PAPAUHBITMAP__@@@Z 10042668 f drdlgfil.obj
 0001:000417d4       __pcd_tbl?FSetupDrawing@DRTEXTURE@@UAAHPAUtagRECT@@@Z 100427d4 f drdlgfil.obj
 0001:000417dc       __nep?FSetupDrawing@DRTEXTURE@@UAAHPAUtagRECT@@@Z 100427dc f drdlgfil.obj
 0001:000417e4       __fh?FSetupDrawing@DRTEXTURE@@UAAHPAUtagRECT@@@Z 100427e4 f drdlgfil.obj
 0001:000417e6       ?FSetupDrawing@DRTEXTURE@@UAAHPAUtagRECT@@@Z 100427e6 f drdlgfil.obj
 0001:000417f8       __nep?GetRect@DRTEXTURE@@QAAPAUtagRECT@@H@Z 100427f8 f drdlgfil.obj
 0001:000417f8       __pcd_tbl?GetRect@DRTEXTURE@@QAAPAUtagRECT@@H@Z 100427f8 f drdlgfil.obj
 0001:00041800       __fh?GetRect@DRTEXTURE@@QAAPAUtagRECT@@H@Z 10042800 f drdlgfil.obj
 0001:00041802       ?GetRect@DRTEXTURE@@QAAPAUtagRECT@@H@Z 10042802 f drdlgfil.obj
 0001:00041810       ??1DRTEXTURE@@UAA@XZ       10042810 f drdlgfil.obj
 0001:000418d4       __pcd_tbl?CCountTexture@@YAHXZ 100428d4 f drdlgfil.obj
 0001:000418d8       __nep?CCountTexture@@YAHXZ 100428d8 f drdlgfil.obj
 0001:000418e0       __fh?CCountTexture@@YAHXZ  100428e0 f drdlgfil.obj
 0001:000418e2       ?CCountTexture@@YAHXZ      100428e2 f drdlgfil.obj
 0001:000418f8       __pcd_tbl?DeleteOther@@YAXXZ 100428f8 f drdlgfil.obj
 0001:000418f8       __nep?DeleteOther@@YAXXZ   100428f8 f drdlgfil.obj
 0001:00041900       __fh?DeleteOther@@YAXXZ    10042900 f drdlgfil.obj
 0001:00041902       ?DeleteOther@@YAXXZ        10042902 f drdlgfil.obj
 0001:00041910       __pcd_tbl?TruncateFileName@@YAXPBGHPAD@Z 10042910 f drdlgfil.obj
 0001:00041918       __nep?TruncateFileName@@YAXPBGHPAD@Z 10042918 f drdlgfil.obj
 0001:00041920       __fh?TruncateFileName@@YAXPBGHPAD@Z 10042920 f drdlgfil.obj
 0001:00041923       ?TruncateFileName@@YAXPBGHPAD@Z 10042923 f drdlgfil.obj
 0001:00041958       __pcd_tbl?SetOther@DRTEXTURE@@QAAXPAUIMsoBlip@@PBG@Z 10042958 f drdlgfil.obj
 0001:00041960       __nep?SetOther@DRTEXTURE@@QAAXPAUIMsoBlip@@PBG@Z 10042960 f drdlgfil.obj
 0001:00041968       __fh?SetOther@DRTEXTURE@@QAAXPAUIMsoBlip@@PBG@Z 10042968 f drdlgfil.obj
 0001:0004196a       ?SetOther@DRTEXTURE@@QAAXPAUIMsoBlip@@PBG@Z 1004296a f drdlgfil.obj
 0001:00041978       __nep?CPibFromDoc@@YAHXZ   10042978 f drdlgfil.obj
 0001:00041978       __pcd_tbl?CPibFromDoc@@YAHXZ 10042978 f drdlgfil.obj
 0001:00041980       __fh?CPibFromDoc@@YAHXZ    10042980 f drdlgfil.obj
 0001:00041982       ?CPibFromDoc@@YAHXZ        10042982 f drdlgfil.obj
 0001:00041994       __pcd_tbl?IndexFromBids@@YAHJ@Z 10042994 f drdlgfil.obj
 0001:00041998       __nep?IndexFromBids@@YAHJ@Z 10042998 f drdlgfil.obj
 0001:000419a0       __fh?IndexFromBids@@YAHJ@Z 100429a0 f drdlgfil.obj
 0001:000419a2       ?IndexFromBids@@YAHJ@Z     100429a2 f drdlgfil.obj
 0001:000419d0       __pcd_tbl?FreePibFromDoc@@YAXXZ 100429d0 f drdlgfil.obj
 0001:000419e0       __nep?FreePibFromDoc@@YAXXZ 100429e0 f drdlgfil.obj
 0001:000419e8       __fh?FreePibFromDoc@@YAXXZ 100429e8 f drdlgfil.obj
 0001:000419ea       ?FreePibFromDoc@@YAXXZ     100429ea f drdlgfil.obj
 0001:00041a2c       __pcd_tbl?PibFromDocIndex@@YAPAUIMsoBlip@@H@Z 10042a2c f drdlgfil.obj
 0001:00041a30       __nep?PibFromDocIndex@@YAPAUIMsoBlip@@H@Z 10042a30 f drdlgfil.obj
 0001:00041a38       __fh?PibFromDocIndex@@YAPAUIMsoBlip@@H@Z 10042a38 f drdlgfil.obj
 0001:00041a3a       ?PibFromDocIndex@@YAPAUIMsoBlip@@H@Z 10042a3a f drdlgfil.obj
 0001:00041a50       __pcd_tbl?FGetNameFromDocIndex@@YAHHHPAG@Z 10042a50 f drdlgfil.obj
 0001:00041a5c       __nep?FGetNameFromDocIndex@@YAHHHPAG@Z 10042a5c f drdlgfil.obj
 0001:00041a64       __fh?FGetNameFromDocIndex@@YAHHHPAG@Z 10042a64 f drdlgfil.obj
 0001:00041a66       ?FGetNameFromDocIndex@@YAHHHPAG@Z 10042a66 f drdlgfil.obj
 0001:00041a8c       __pcd_tbl?FCompareBidc@@YAHPAU_PIBTEXTUREREC@@0@Z 10042a8c f drdlgfil.obj
 0001:00041a94       __nep?FCompareBidc@@YAHPAU_PIBTEXTUREREC@@0@Z 10042a94 f drdlgfil.obj
 0001:00041a9c       __fh?FCompareBidc@@YAHPAU_PIBTEXTUREREC@@0@Z 10042a9c f drdlgfil.obj
 0001:00041a9e       ?FCompareBidc@@YAHPAU_PIBTEXTUREREC@@0@Z 10042a9e f drdlgfil.obj
 0001:00041ac8       __pcd_tbl?InitCustomTextures@@YAXPAUIMsoDrawingUserInterface@@@Z 10042ac8 f drdlgfil.obj
 0001:00041afc       __nep?InitCustomTextures@@YAXPAUIMsoDrawingUserInterface@@@Z 10042afc f drdlgfil.obj
 0001:00041b04       __fh?InitCustomTextures@@YAXPAUIMsoDrawingUserInterface@@@Z 10042b04 f drdlgfil.obj
 0001:00041b07       ?InitCustomTextures@@YAXPAUIMsoDrawingUserInterface@@@Z 10042b07 f drdlgfil.obj
 0001:00041bf4       __pcd_tbl?UpdatePatternName@@YAXHPAD@Z 10042bf4 f drdlgfil.obj
 0001:00041bf8       __nep?UpdatePatternName@@YAXHPAD@Z 10042bf8 f drdlgfil.obj
 0001:00041c00       __fh?UpdatePatternName@@YAXHPAD@Z 10042c00 f drdlgfil.obj
 0001:00041c02       ?UpdatePatternName@@YAXHPAD@Z 10042c02 f drdlgfil.obj
 0001:00041c1c       __pcd_tbl?FValidIRect@DRTEXTURE@@UAAHH@Z 10042c1c f drdlgfil.obj
 0001:00041c24       __nep?FValidIRect@DRTEXTURE@@UAAHH@Z 10042c24 f drdlgfil.obj
 0001:00041c2c       __fh?FValidIRect@DRTEXTURE@@UAAHH@Z 10042c2c f drdlgfil.obj
 0001:00041c2e       ?FValidIRect@DRTEXTURE@@UAAHH@Z 10042c2e f drdlgfil.obj
 0001:00041c50       __pcd_tbl?IHitTest@DRTEXTURE@@UAAHPAUtagPOINT@@PAUHWND__@@@Z 10042c50 f drdlgfil.obj
 0001:00041c54       __nep?IHitTest@DRTEXTURE@@UAAHPAUtagPOINT@@PAUHWND__@@@Z 10042c54 f drdlgfil.obj
 0001:00041c5c       __fh?IHitTest@DRTEXTURE@@UAAHPAUtagPOINT@@PAUHWND__@@@Z 10042c5c f drdlgfil.obj
 0001:00041c5e       ?IHitTest@DRTEXTURE@@UAAHPAUtagPOINT@@PAUHWND__@@@Z 10042c5e f drdlgfil.obj
 0001:00041c74       __pcd_tbl?SetSel@DRTEXTURE@@UAAXH@Z 10042c74 f drdlgfil.obj
 0001:00041c78       __nep?SetSel@DRTEXTURE@@UAAXH@Z 10042c78 f drdlgfil.obj
 0001:00041c80       __fh?SetSel@DRTEXTURE@@UAAXH@Z 10042c80 f drdlgfil.obj
 0001:00041c82       ?SetSel@DRTEXTURE@@UAAXH@Z 10042c82 f drdlgfil.obj
 0001:00041c94       __pcd_tbl_MsoFCopyBlipName 10042c94 f drdlgfil.obj
 0001:00041ca4       __nep_MsoFCopyBlipName     10042ca4 f drdlgfil.obj
 0001:00041cac       __fh_MsoFCopyBlipName      10042cac f drdlgfil.obj
 0001:00041caf       _MsoFCopyBlipName          10042caf f drdlgfil.obj
 0001:00041ce8       __pcd_tbl?UpdateTextureLabel@DRTEXTURE@@QAAXPAG@Z 10042ce8 f drdlgfil.obj
 0001:00041d04       __nep?UpdateTextureLabel@DRTEXTURE@@QAAXPAG@Z 10042d04 f drdlgfil.obj
 0001:00041d0c       __fh?UpdateTextureLabel@DRTEXTURE@@QAAXPAG@Z 10042d0c f drdlgfil.obj
 0001:00041d0f       ?UpdateTextureLabel@DRTEXTURE@@QAAXPAG@Z 10042d0f f drdlgfil.obj
 0001:00041d68       __pcd_tbl?DrawPib@@YAXPAUIMsoBlip@@PAUHDC__@@PAUtagRECT@@HPAPAU2@UtagSIZE@@@Z 10042d68 f drdlgfil.obj
 0001:00041d74       __nep?DrawPib@@YAXPAUIMsoBlip@@PAUHDC__@@PAUtagRECT@@HPAPAU2@UtagSIZE@@@Z 10042d74 f drdlgfil.obj
 0001:00041d7c       __fh?DrawPib@@YAXPAUIMsoBlip@@PAUHDC__@@PAUtagRECT@@HPAPAU2@UtagSIZE@@@Z 10042d7c f drdlgfil.obj
 0001:00041d7f       ?DrawPib@@YAXPAUIMsoBlip@@PAUHDC__@@PAUtagRECT@@HPAPAU2@UtagSIZE@@@Z 10042d7f f drdlgfil.obj
 0001:00041e24       __pcd_tbl?DrawTexture@@YAXIPAUHDC__@@PAUtagRECT@@@Z 10042e24 f drdlgfil.obj
 0001:00041e34       __nep?DrawTexture@@YAXIPAUHDC__@@PAUtagRECT@@@Z 10042e34 f drdlgfil.obj
 0001:00041e3c       __fh?DrawTexture@@YAXIPAUHDC__@@PAUtagRECT@@@Z 10042e3c f drdlgfil.obj
 0001:00041e3e       ?DrawTexture@@YAXIPAUHDC__@@PAUtagRECT@@@Z 10042e3e f drdlgfil.obj
 0001:00041e90       __pcd_tbl?DrawFocus@DRTEXTURE@@UAAXPAUHDC__@@PAUtagRECT@@HH@Z 10042e90 f drdlgfil.obj
 0001:00041e90       __nep?DrawFocus@DRTEXTURE@@UAAXPAUHDC__@@PAUtagRECT@@HH@Z 10042e90 f drdlgfil.obj
 0001:00041e98       __fh?DrawFocus@DRTEXTURE@@UAAXPAUHDC__@@PAUtagRECT@@HH@Z 10042e98 f drdlgfil.obj
 0001:00041e9a       ?DrawFocus@DRTEXTURE@@UAAXPAUHDC__@@PAUtagRECT@@HH@Z 10042e9a f drdlgfil.obj
 0001:00041e9c       __pcd_tbl?DrawPic@DRTEXTURE@@UAAXPAUHDC__@@PAUtagRECT@@HH@Z 10042e9c f drdlgfil.obj
 0001:00041eb8       __nep?DrawPic@DRTEXTURE@@UAAXPAUHDC__@@PAUtagRECT@@HH@Z 10042eb8 f drdlgfil.obj
 0001:00041ec0       __fh?DrawPic@DRTEXTURE@@UAAXPAUHDC__@@PAUtagRECT@@HH@Z 10042ec0 f drdlgfil.obj
 0001:00041ec2       ?DrawPic@DRTEXTURE@@UAAXPAUHDC__@@PAUtagRECT@@HH@Z 10042ec2 f drdlgfil.obj
 0001:00041f1c       __pcd_tbl?FIsEdge@DRTEXTURE@@UAAHH@Z 10042f1c f drdlgfil.obj
 0001:00041f1c       __nep?FIsEdge@DRTEXTURE@@UAAHH@Z 10042f1c f drdlgfil.obj
 0001:00041f24       __fh?FIsEdge@DRTEXTURE@@UAAHH@Z 10042f24 f drdlgfil.obj
 0001:00041f26       ?FIsEdge@DRTEXTURE@@UAAHH@Z 10042f26 f drdlgfil.obj
 0001:00041f30       ??0DRPATTERN@@QAA@IPAUIMsoFillsDlg@@@Z 10042f30 f drdlgfil.obj
 0001:00041fb8       __pcd_tbl??_GDRPATTERN@@UAAPAXI@Z 10042fb8 f drdlgfil.obj
 0001:00041fc0       __nep??_GDRPATTERN@@UAAPAXI@Z 10042fc0 f drdlgfil.obj
 0001:00041fc8       __fh??_GDRPATTERN@@UAAPAXI@Z 10042fc8 f drdlgfil.obj
 0001:00041fca       ??_GDRPATTERN@@UAAPAXI@Z   10042fca f drdlgfil.obj
 0001:00041fca       ??_EDRPATTERN@@UAAPAXI@Z   10042fca f drdlgfil.obj
 0001:00041fd4       __pcd_tbl?FInit@DRPATTERN@@UAAHXZ 10042fd4 f drdlgfil.obj
 0001:00041fd8       __nep?FInit@DRPATTERN@@UAAHXZ 10042fd8 f drdlgfil.obj
 0001:00041fe0       __fh?FInit@DRPATTERN@@UAAHXZ 10042fe0 f drdlgfil.obj
 0001:00041fe2       ?FInit@DRPATTERN@@UAAHXZ   10042fe2 f drdlgfil.obj
 0001:00041ffc       __pcd_tbl?FHandleChar@DRPATTERN@@UAAHPAUHWND__@@IIJUtagPOINT@@@Z 10042ffc f drdlgfil.obj
 0001:00042004       __nep?FHandleChar@DRPATTERN@@UAAHPAUHWND__@@IIJUtagPOINT@@@Z 10043004 f drdlgfil.obj
 0001:0004200c       __fh?FHandleChar@DRPATTERN@@UAAHPAUHWND__@@IIJUtagPOINT@@@Z 1004300c f drdlgfil.obj
 0001:0004200e       ?FHandleChar@DRPATTERN@@UAAHPAUHWND__@@IIJUtagPOINT@@@Z 1004300e f drdlgfil.obj
 0001:000420f0       __pcd_tbl?DeleteBrushes@@YAXXZ 100430f0 f drdlgfil.obj
 0001:000420f4       __nep?DeleteBrushes@@YAXXZ 100430f4 f drdlgfil.obj
 0001:000420fc       __fh?DeleteBrushes@@YAXXZ  100430fc f drdlgfil.obj
 0001:000420fe       ?DeleteBrushes@@YAXXZ      100430fe f drdlgfil.obj
 0001:00042118       ??1DRPATTERN@@UAA@XZ       10043118 f drdlgfil.obj
 0001:00042190       __pcd_tbl_MsoPibStandard   10043190 f drdlgfil.obj
 0001:0004219c       __nep_MsoPibStandard       1004319c f drdlgfil.obj
 0001:000421a4       __fh_MsoPibStandard        100431a4 f drdlgfil.obj
 0001:000421a6       _MsoPibStandard            100431a6 f drdlgfil.obj
 0001:00042400       __pcd_tbl?FInitAllDIBS@@YAHPAUHDC__@@KK@Z 10043400 f drdlgfil.obj
 0001:00042408       __nep?FInitAllDIBS@@YAHPAUHDC__@@KK@Z 10043408 f drdlgfil.obj
 0001:00042410       __fh?FInitAllDIBS@@YAHPAUHDC__@@KK@Z 10043410 f drdlgfil.obj
 0001:00042412       ?FInitAllDIBS@@YAHPAUHDC__@@KK@Z 10043412 f drdlgfil.obj
 0001:00042430       __pcd_tbl?DrawPic@DRPATTERN@@UAAXPAUHDC__@@PAUtagRECT@@HH@Z 10043430 f drdlgfil.obj
 0001:00042448       __nep?DrawPic@DRPATTERN@@UAAXPAUHDC__@@PAUtagRECT@@HH@Z 10043448 f drdlgfil.obj
 0001:00042450       __fh?DrawPic@DRPATTERN@@UAAXPAUHDC__@@PAUtagRECT@@HH@Z 10043450 f drdlgfil.obj
 0001:00042452       ?DrawPic@DRPATTERN@@UAAXPAUHDC__@@PAUtagRECT@@HH@Z 10043452 f drdlgfil.obj
 0001:000424b4       __nep?SetForeColor@DRPATTERN@@QAAHK@Z 100434b4 f drdlgfil.obj
 0001:000424b4       __pcd_tbl?SetForeColor@DRPATTERN@@QAAHK@Z 100434b4 f drdlgfil.obj
 0001:000424bc       __fh?SetForeColor@DRPATTERN@@QAAHK@Z 100434bc f drdlgfil.obj
 0001:000424be       ?SetForeColor@DRPATTERN@@QAAHK@Z 100434be f drdlgfil.obj
 0001:000424d0       __pcd_tbl?SetBackColor@DRPATTERN@@QAAHK@Z 100434d0 f drdlgfil.obj
 0001:000424d0       __nep?SetBackColor@DRPATTERN@@QAAHK@Z 100434d0 f drdlgfil.obj
 0001:000424d8       __fh?SetBackColor@DRPATTERN@@QAAHK@Z 100434d8 f drdlgfil.obj
 0001:000424da       ?SetBackColor@DRPATTERN@@QAAHK@Z 100434da f drdlgfil.obj
 0001:000424ec       __pcd_tbl?FSetupDrawing@DRPATTERN@@UAAHPAUtagRECT@@@Z 100434ec f drdlgfil.obj
 0001:000424f0       __nep?FSetupDrawing@DRPATTERN@@UAAHPAUtagRECT@@@Z 100434f0 f drdlgfil.obj
 0001:000424f8       __fh?FSetupDrawing@DRPATTERN@@UAAHPAUtagRECT@@@Z 100434f8 f drdlgfil.obj
 0001:000424fa       ?FSetupDrawing@DRPATTERN@@UAAHPAUtagRECT@@@Z 100434fa f drdlgfil.obj
 0001:00042504       __nep?FIsEdge@DRPATTERN@@UAAHH@Z 10043504 f drdlgfil.obj
 0001:00042504       __pcd_tbl?FIsEdge@DRPATTERN@@UAAHH@Z 10043504 f drdlgfil.obj
 0001:0004250c       __fh?FIsEdge@DRPATTERN@@UAAHH@Z 1004350c f drdlgfil.obj
 0001:0004250e       ?FIsEdge@DRPATTERN@@UAAHH@Z 1004350e f drdlgfil.obj
 0001:00042538       __pcd_tbl?RGBtoHLS@@YAXKAAK00@Z 10043538 f drdlgfil.obj
 0001:0004253c       __nep?RGBtoHLS@@YAXKAAK00@Z 1004353c f drdlgfil.obj
 0001:00042544       __fh?RGBtoHLS@@YAXKAAK00@Z 10043544 f drdlgfil.obj
 0001:00042546       ?RGBtoHLS@@YAXKAAK00@Z     10043546 f drdlgfil.obj
 0001:000425dc       __pcd_tbl?UlHLStoRGB@@YAKHHH@Z 100435dc f drdlgfil.obj
 0001:000425e4       __nep?UlHLStoRGB@@YAKHHH@Z 100435e4 f drdlgfil.obj
 0001:000425ec       __fh?UlHLStoRGB@@YAKHHH@Z  100435ec f drdlgfil.obj
 0001:000425ee       ?UlHLStoRGB@@YAKHHH@Z      100435ee f drdlgfil.obj
 0001:00042648       __pcd_tbl?HueToRGB@@YAHHHH@Z 10043648 f drdlgfil.obj
 0001:0004264c       __nep?HueToRGB@@YAHHHH@Z   1004364c f drdlgfil.obj
 0001:00042654       __fh?HueToRGB@@YAHHHH@Z    10043654 f drdlgfil.obj
 0001:00042656       ?HueToRGB@@YAHHHH@Z        10043656 f drdlgfil.obj
 0001:00042694       __pcd_tbl?UlRgbNearestSolid@@YAKPAUHDC__@@K@Z 10043694 f drdlgfil.obj
 0001:00042698       __nep?UlRgbNearestSolid@@YAKPAUHDC__@@K@Z 10043698 f drdlgfil.obj
 0001:000426a0       __fh?UlRgbNearestSolid@@YAKPAUHDC__@@K@Z 100436a0 f drdlgfil.obj
 0001:000426a2       ?UlRgbNearestSolid@@YAKPAUHDC__@@K@Z 100436a2 f drdlgfil.obj
 0001:000426a8       __pcd_tbl?FInit@DRPREVIEW@@UAAHXZ 100436a8 f drdlgfil.obj
 0001:000426b8       __nep?FInit@DRPREVIEW@@UAAHXZ 100436b8 f drdlgfil.obj
 0001:000426c0       __fh?FInit@DRPREVIEW@@UAAHXZ 100436c0 f drdlgfil.obj
 0001:000426c2       ?FInit@DRPREVIEW@@UAAHXZ   100436c2 f drdlgfil.obj
 0001:00042724       ??0DRPREVIEW@@QAA@IH@Z     10043724 f drdlgfil.obj
 0001:000427b8       __pcd_tbl??_GDRPREVIEW@@UAAPAXI@Z 100437b8 f drdlgfil.obj
 0001:000427c0       __nep??_GDRPREVIEW@@UAAPAXI@Z 100437c0 f drdlgfil.obj
 0001:000427c8       __fh??_GDRPREVIEW@@UAAPAXI@Z 100437c8 f drdlgfil.obj
 0001:000427ca       ??_GDRPREVIEW@@UAAPAXI@Z   100437ca f drdlgfil.obj
 0001:000427ca       ??_EDRPREVIEW@@UAAPAXI@Z   100437ca f drdlgfil.obj
 0001:000427d4       ??1DRPREVIEW@@UAA@XZ       100437d4 f drdlgfil.obj
 0001:000428bc       __nep?FGetRectOfPC@DRPREVIEW@@QAAHPAUtagRECT@@@Z 100438bc f drdlgfil.obj
 0001:000428bc       __pcd_tbl?FGetRectOfPC@DRPREVIEW@@QAAHPAUtagRECT@@@Z 100438bc f drdlgfil.obj
 0001:000428c4       __fh?FGetRectOfPC@DRPREVIEW@@QAAHPAUtagRECT@@@Z 100438c4 f drdlgfil.obj
 0001:000428c6       ?FGetRectOfPC@DRPREVIEW@@QAAHPAUtagRECT@@@Z 100438c6 f drdlgfil.obj
 0001:000428d0       __pcd_tbl?FSetupDrawing@DRPREVIEW@@UAAHPAUtagRECT@@@Z 100438d0 f drdlgfil.obj
 0001:000428d8       __nep?FSetupDrawing@DRPREVIEW@@UAAHPAUtagRECT@@@Z 100438d8 f drdlgfil.obj
 0001:000428e0       __fh?FSetupDrawing@DRPREVIEW@@UAAHPAUtagRECT@@@Z 100438e0 f drdlgfil.obj
 0001:000428e2       ?FSetupDrawing@DRPREVIEW@@UAAHPAUtagRECT@@@Z 100438e2 f drdlgfil.obj
 0001:0004293c       __pcd_tbl?GetColor@DRPREVIEW@@IAAXXZ 1004393c f drdlgfil.obj
 0001:00042940       __nep?GetColor@DRPREVIEW@@IAAXXZ 10043940 f drdlgfil.obj
 0001:00042948       __fh?GetColor@DRPREVIEW@@IAAXXZ 10043948 f drdlgfil.obj
 0001:0004294a       ?GetColor@DRPREVIEW@@IAAXXZ 1004394a f drdlgfil.obj
 0001:00042954       __pcd_tbl?DrawPattern@@YAXIPAUHDC__@@PAUtagRECT@@@Z 10043954 f drdlgfil.obj
 0001:00042974       __nep?DrawPattern@@YAXIPAUHDC__@@PAUtagRECT@@@Z 10043974 f drdlgfil.obj
 0001:0004297c       __fh?DrawPattern@@YAXIPAUHDC__@@PAUtagRECT@@@Z 1004397c f drdlgfil.obj
 0001:0004297e       ?DrawPattern@@YAXIPAUHDC__@@PAUtagRECT@@@Z 1004397e f drdlgfil.obj
 0001:000429b8       __pcd_tbl?DrawNew@DRPREVIEW@@QAAXPAUHDC__@@@Z 100439b8 f drdlgfil.obj
 0001:000429d8       __nep?DrawNew@DRPREVIEW@@QAAXPAUHDC__@@@Z 100439d8 f drdlgfil.obj
 0001:000429e0       __fh?DrawNew@DRPREVIEW@@QAAXPAUHDC__@@@Z 100439e0 f drdlgfil.obj
 0001:000429e2       ?DrawNew@DRPREVIEW@@QAAXPAUHDC__@@@Z 100439e2 f drdlgfil.obj
 0001:00042a9c       __pcd_tbl?DrawCurrent@DRPREVIEW@@QAAXPAUHDC__@@@Z 10043a9c f drdlgfil.obj
 0001:00042ab0       __nep?DrawCurrent@DRPREVIEW@@QAAXPAUHDC__@@@Z 10043ab0 f drdlgfil.obj
 0001:00042ab8       __fh?DrawCurrent@DRPREVIEW@@QAAXPAUHDC__@@@Z 10043ab8 f drdlgfil.obj
 0001:00042aba       ?DrawCurrent@DRPREVIEW@@QAAXPAUHDC__@@@Z 10043aba f drdlgfil.obj
 0001:00042b3c       __pcd_tbl?DrawPic@DRPREVIEW@@UAAXPAUHDC__@@PAUtagRECT@@HH@Z 10043b3c f drdlgfil.obj
 0001:00042b50       __nep?DrawPic@DRPREVIEW@@UAAXPAUHDC__@@PAUtagRECT@@HH@Z 10043b50 f drdlgfil.obj
 0001:00042b58       __fh?DrawPic@DRPREVIEW@@UAAXPAUHDC__@@PAUtagRECT@@HH@Z 10043b58 f drdlgfil.obj
 0001:00042b5a       ?DrawPic@DRPREVIEW@@UAAXPAUHDC__@@PAUtagRECT@@HH@Z 10043b5a f drdlgfil.obj
 0001:00042b80       ??0DRCLRBEE@@QAA@PAUtagRECT@@IPAUIMsoColorsDlg@@@Z 10043b80 f drdlgfil.obj
 0001:00042c60       __pcd_tbl??_GDRCLRBEE@@UAAPAXI@Z 10043c60 f drdlgfil.obj
 0001:00042c68       __nep??_GDRCLRBEE@@UAAPAXI@Z 10043c68 f drdlgfil.obj
 0001:00042c70       __fh??_GDRCLRBEE@@UAAPAXI@Z 10043c70 f drdlgfil.obj
 0001:00042c72       ??_GDRCLRBEE@@UAAPAXI@Z    10043c72 f drdlgfil.obj
 0001:00042c72       ??_EDRCLRBEE@@UAAPAXI@Z    10043c72 f drdlgfil.obj
 0001:00042c7c       ??1DRCLRBEE@@UAA@XZ        10043c7c f drdlgfil.obj
 0001:00042d20       __pcd_tbl?DrawPic@DRCLRBEE@@UAAXPAUHDC__@@PAUtagRECT@@HH@Z 10043d20 f drdlgfil.obj
 0001:00042d24       __nep?DrawPic@DRCLRBEE@@UAAXPAUHDC__@@PAUtagRECT@@HH@Z 10043d24 f drdlgfil.obj
 0001:00042d2c       __fh?DrawPic@DRCLRBEE@@UAAXPAUHDC__@@PAUtagRECT@@HH@Z 10043d2c f drdlgfil.obj
 0001:00042d2e       ?DrawPic@DRCLRBEE@@UAAXPAUHDC__@@PAUtagRECT@@HH@Z 10043d2e f drdlgfil.obj
 0001:00042d34       __nep?DrawFocus@DRCLRBEE@@UAAXPAUHDC__@@PAUtagRECT@@HH@Z 10043d34 f drdlgfil.obj
 0001:00042d34       __pcd_tbl?DrawFocus@DRCLRBEE@@UAAXPAUHDC__@@PAUtagRECT@@HH@Z 10043d34 f drdlgfil.obj
 0001:00042d3c       __fh?DrawFocus@DRCLRBEE@@UAAXPAUHDC__@@PAUtagRECT@@HH@Z 10043d3c f drdlgfil.obj
 0001:00042d3e       ?DrawFocus@DRCLRBEE@@UAAXPAUHDC__@@PAUtagRECT@@HH@Z 10043d3e f drdlgfil.obj
 0001:00042d40       __pcd_tbl?UlGetSelectedColor@DRCLRBEE@@QAAKXZ 10043d40 f drdlgfil.obj
 0001:00042d44       __nep?UlGetSelectedColor@DRCLRBEE@@QAAKXZ 10043d44 f drdlgfil.obj
 0001:00042d4c       __fh?UlGetSelectedColor@DRCLRBEE@@QAAKXZ 10043d4c f drdlgfil.obj
 0001:00042d4e       ?UlGetSelectedColor@DRCLRBEE@@QAAKXZ 10043d4e f drdlgfil.obj
 0001:00042d60       __pcd_tbl?SetSelectedColorIndex@DRCLRBEE@@QAAXH@Z 10043d60 f drdlgfil.obj
 0001:00042d60       __nep?SetSelectedColorIndex@DRCLRBEE@@QAAXH@Z 10043d60 f drdlgfil.obj
 0001:00042d68       __fh?SetSelectedColorIndex@DRCLRBEE@@QAAXH@Z 10043d68 f drdlgfil.obj
 0001:00042d6a       ?SetSelectedColorIndex@DRCLRBEE@@QAAXH@Z 10043d6a f drdlgfil.obj
 0001:00042d74       __pcd_tbl?FHandleChar@DRCLRBEE@@UAAHPAUHWND__@@IIJUtagPOINT@@@Z 10043d74 f drdlgfil.obj
 0001:00042d90       __nep?FHandleChar@DRCLRBEE@@UAAHPAUHWND__@@IIJUtagPOINT@@@Z 10043d90 f drdlgfil.obj
 0001:00042d98       __fh?FHandleChar@DRCLRBEE@@UAAHPAUHWND__@@IIJUtagPOINT@@@Z 10043d98 f drdlgfil.obj
 0001:00042d9a       ?FHandleChar@DRCLRBEE@@UAAHPAUHWND__@@IIJUtagPOINT@@@Z 10043d9a f drdlgfil.obj
 0001:00042e1c       __pcd_tbl?FHandleLButton@DRCLRBEE@@UAAHPAUHWND__@@IIJUtagPOINT@@@Z 10043e1c f drdlgfil.obj
 0001:00042e44       __nep?FHandleLButton@DRCLRBEE@@UAAHPAUHWND__@@IIJUtagPOINT@@@Z 10043e44 f drdlgfil.obj
 0001:00042e4c       __fh?FHandleLButton@DRCLRBEE@@UAAHPAUHWND__@@IIJUtagPOINT@@@Z 10043e4c f drdlgfil.obj
 0001:00042e4e       ?FHandleLButton@DRCLRBEE@@UAAHPAUHWND__@@IIJUtagPOINT@@@Z 10043e4e f drdlgfil.obj
 0001:00042ed0       __pcd_tbl?FSetupDrawing@DRCLRBEE@@UAAHPAUtagRECT@@@Z 10043ed0 f drdlgfil.obj
 0001:00042ed4       __nep?FSetupDrawing@DRCLRBEE@@UAAHPAUtagRECT@@@Z 10043ed4 f drdlgfil.obj
 0001:00042edc       __fh?FSetupDrawing@DRCLRBEE@@UAAHPAUtagRECT@@@Z 10043edc f drdlgfil.obj
 0001:00042ede       ?FSetupDrawing@DRCLRBEE@@UAAHPAUtagRECT@@@Z 10043ede f drdlgfil.obj
 0001:00042ee4       __nep?FInit@DRCLRBEE@@UAAHXZ 10043ee4 f drdlgfil.obj
 0001:00042ee4       __pcd_tbl?FInit@DRCLRBEE@@UAAHXZ 10043ee4 f drdlgfil.obj
 0001:00042eec       __fh?FInit@DRCLRBEE@@UAAHXZ 10043eec f drdlgfil.obj
 0001:00042eee       ?FInit@DRCLRBEE@@UAAHXZ    10043eee f drdlgfil.obj
 0001:00042ef8       ??0DRCLRRAINBOW@@QAA@IPAUIMsoColorsDlg@@@Z 10043ef8 f drdlgfil.obj
 0001:00042fd4       __pcd_tbl?FInit@DRCLRRAINBOW@@UAAHXZ 10043fd4 f drdlgfil.obj
 0001:00042fd4       __nep?FInit@DRCLRRAINBOW@@UAAHXZ 10043fd4 f drdlgfil.obj
 0001:00042fdc       __fh?FInit@DRCLRRAINBOW@@UAAHXZ 10043fdc f drdlgfil.obj
 0001:00042fde       ?FInit@DRCLRRAINBOW@@UAAHXZ 10043fde f drdlgfil.obj
 0001:00042fe0       __pcd_tbl??_GDRCLRRAINBOW@@UAAPAXI@Z 10043fe0 f drdlgfil.obj
 0001:00042fe8       __nep??_GDRCLRRAINBOW@@UAAPAXI@Z 10043fe8 f drdlgfil.obj
 0001:00042ff0       __fh??_GDRCLRRAINBOW@@UAAPAXI@Z 10043ff0 f drdlgfil.obj
 0001:00042ff2       ??_EDRCLRRAINBOW@@UAAPAXI@Z 10043ff2 f drdlgfil.obj
 0001:00042ff2       ??_GDRCLRRAINBOW@@UAAPAXI@Z 10043ff2 f drdlgfil.obj
 0001:00042ffc       ??1DRCLRRAINBOW@@UAA@XZ    10043ffc f drdlgfil.obj
 0001:000430a8       __pcd_tbl?DeleteCachedBitmap@DRCLRRAINBOW@@IAAXXZ 100440a8 f drdlgfil.obj
 0001:000430b0       __nep?DeleteCachedBitmap@DRCLRRAINBOW@@IAAXXZ 100440b0 f drdlgfil.obj
 0001:000430b8       __fh?DeleteCachedBitmap@DRCLRRAINBOW@@IAAXXZ 100440b8 f drdlgfil.obj
 0001:000430ba       ?DeleteCachedBitmap@DRCLRRAINBOW@@IAAXXZ 100440ba f drdlgfil.obj
 0001:000430d0       __pcd_tbl?DrawPic@DRCLRRAINBOW@@UAAXPAUHDC__@@PAUtagRECT@@HH@Z 100440d0 f drdlgfil.obj
 0001:000430e4       __nep?DrawPic@DRCLRRAINBOW@@UAAXPAUHDC__@@PAUtagRECT@@HH@Z 100440e4 f drdlgfil.obj
 0001:000430ec       __fh?DrawPic@DRCLRRAINBOW@@UAAXPAUHDC__@@PAUtagRECT@@HH@Z 100440ec f drdlgfil.obj
 0001:000430ee       ?DrawPic@DRCLRRAINBOW@@UAAXPAUHDC__@@PAUtagRECT@@HH@Z 100440ee f drdlgfil.obj
 0001:0004310c       __pcd_tbl?DrawFocus@DRCLRRAINBOW@@UAAXPAUHDC__@@PAUtagRECT@@HH@Z 1004410c f drdlgfil.obj
 0001:00043110       __nep?DrawFocus@DRCLRRAINBOW@@UAAXPAUHDC__@@PAUtagRECT@@HH@Z 10044110 f drdlgfil.obj
 0001:00043118       __fh?DrawFocus@DRCLRRAINBOW@@UAAXPAUHDC__@@PAUtagRECT@@HH@Z 10044118 f drdlgfil.obj
 0001:0004311a       ?DrawFocus@DRCLRRAINBOW@@UAAXPAUHDC__@@PAUtagRECT@@HH@Z 1004411a f drdlgfil.obj
 0001:00043128       __pcd_tbl?ChangeColorSettings@DRCLRRAINBOW@@IAAXK@Z 10044128 f drdlgfil.obj
 0001:00043130       __nep?ChangeColorSettings@DRCLRRAINBOW@@IAAXK@Z 10044130 f drdlgfil.obj
 0001:00043138       __fh?ChangeColorSettings@DRCLRRAINBOW@@IAAXK@Z 10044138 f drdlgfil.obj
 0001:0004313a       ?ChangeColorSettings@DRCLRRAINBOW@@IAAXK@Z 1004413a f drdlgfil.obj
 0001:00043168       __pcd_tbl?HLSPostoHLS@DRCLRRAINBOW@@IAAXH@Z 10044168 f drdlgfil.obj
 0001:00043170       __nep?HLSPostoHLS@DRCLRRAINBOW@@IAAXH@Z 10044170 f drdlgfil.obj
 0001:00043178       __fh?HLSPostoHLS@DRCLRRAINBOW@@IAAXH@Z 10044178 f drdlgfil.obj
 0001:0004317a       ?HLSPostoHLS@DRCLRRAINBOW@@IAAXH@Z 1004417a f drdlgfil.obj
 0001:000431bc       __nep?CheckPosValues@DRCLRRAINBOW@@IAAXXZ 100441bc f drdlgfil.obj
 0001:000431bc       __pcd_tbl?CheckPosValues@DRCLRRAINBOW@@IAAXXZ 100441bc f drdlgfil.obj
 0001:000431c4       __fh?CheckPosValues@DRCLRRAINBOW@@IAAXXZ 100441c4 f drdlgfil.obj
 0001:000431c6       ?CheckPosValues@DRCLRRAINBOW@@IAAXXZ 100441c6 f drdlgfil.obj
 0001:000431fc       __pcd_tbl?FHandleChar@DRCLRRAINBOW@@UAAHPAUHWND__@@IIJUtagPOINT@@@Z 100441fc f drdlgfil.obj
 0001:00043204       __nep?FHandleChar@DRCLRRAINBOW@@UAAHPAUHWND__@@IIJUtagPOINT@@@Z 10044204 f drdlgfil.obj
 0001:0004320c       __fh?FHandleChar@DRCLRRAINBOW@@UAAHPAUHWND__@@IIJUtagPOINT@@@Z 1004420c f drdlgfil.obj
 0001:0004320e       ?FHandleChar@DRCLRRAINBOW@@UAAHPAUHWND__@@IIJUtagPOINT@@@Z 1004420e f drdlgfil.obj
 0001:00043250       __pcd_tbl?UpdatePtrAndInfo@DRCLRRAINBOW@@IAAXPAUHWND__@@@Z 10044250 f drdlgfil.obj
 0001:00043270       __nep?UpdatePtrAndInfo@DRCLRRAINBOW@@IAAXPAUHWND__@@@Z 10044270 f drdlgfil.obj
 0001:00043278       __fh?UpdatePtrAndInfo@DRCLRRAINBOW@@IAAXPAUHWND__@@@Z 10044278 f drdlgfil.obj
 0001:0004327a       ?UpdatePtrAndInfo@DRCLRRAINBOW@@IAAXPAUHWND__@@@Z 1004427a f drdlgfil.obj
 0001:000432bc       __pcd_tbl?FHandleLButton@DRCLRRAINBOW@@UAAHPAUHWND__@@IIJUtagPOINT@@@Z 100442bc f drdlgfil.obj
 0001:000432c8       __nep?FHandleLButton@DRCLRRAINBOW@@UAAHPAUHWND__@@IIJUtagPOINT@@@Z 100442c8 f drdlgfil.obj
 0001:000432d0       __fh?FHandleLButton@DRCLRRAINBOW@@UAAHPAUHWND__@@IIJUtagPOINT@@@Z 100442d0 f drdlgfil.obj
 0001:000432d2       ?FHandleLButton@DRCLRRAINBOW@@UAAHPAUHWND__@@IIJUtagPOINT@@@Z 100442d2 f drdlgfil.obj
 0001:00043344       __pcd_tbl?FSetupDrawing@DRCLRRAINBOW@@UAAHPAUtagRECT@@@Z 10044344 f drdlgfil.obj
 0001:00043348       __nep?FSetupDrawing@DRCLRRAINBOW@@UAAHPAUtagRECT@@@Z 10044348 f drdlgfil.obj
 0001:00043350       __fh?FSetupDrawing@DRCLRRAINBOW@@UAAHPAUtagRECT@@@Z 10044350 f drdlgfil.obj
 0001:00043352       ?FSetupDrawing@DRCLRRAINBOW@@UAAHPAUtagRECT@@@Z 10044352 f drdlgfil.obj
 0001:0004335c       __pcd_tbl?HLStoHLSPos@DRCLRRAINBOW@@IAAXH@Z 1004435c f drdlgfil.obj
 0001:00043364       __nep?HLStoHLSPos@DRCLRRAINBOW@@IAAXH@Z 10044364 f drdlgfil.obj
 0001:0004336c       __fh?HLStoHLSPos@DRCLRRAINBOW@@IAAXH@Z 1004436c f drdlgfil.obj
 0001:0004336e       ?HLStoHLSPos@DRCLRRAINBOW@@IAAXH@Z 1004436e f drdlgfil.obj
 0001:000433a4       __pcd_tbl?FDevCapChanged@DRCLRRAINBOW@@IAAHPAUHDC__@@@Z 100443a4 f drdlgfil.obj
 0001:000433a8       __nep?FDevCapChanged@DRCLRRAINBOW@@IAAHPAUHDC__@@@Z 100443a8 f drdlgfil.obj
 0001:000433b0       __fh?FDevCapChanged@DRCLRRAINBOW@@IAAHPAUHDC__@@@Z 100443b0 f drdlgfil.obj
 0001:000433b2       ?FDevCapChanged@DRCLRRAINBOW@@IAAHPAUHDC__@@@Z 100443b2 f drdlgfil.obj
 0001:00043440       __pcd_tbl?FInitRainbow@DRCLRRAINBOW@@QAAHPAUHDC__@@@Z 10044440 f drdlgfil.obj
 0001:00043470       __nep?FInitRainbow@DRCLRRAINBOW@@QAAHPAUHDC__@@@Z 10044470 f drdlgfil.obj
 0001:00043478       __fh?FInitRainbow@DRCLRRAINBOW@@QAAHPAUHDC__@@@Z 10044478 f drdlgfil.obj
 0001:0004347a       ?FInitRainbow@DRCLRRAINBOW@@QAAHPAUHDC__@@@Z 1004447a f drdlgfil.obj
 0001:00043550       __pcd_tbl?SetHue@DRCLRRAINBOW@@QAAXK@Z 10044550 f drdlgfil.obj
 0001:00043554       __nep?SetHue@DRCLRRAINBOW@@QAAXK@Z 10044554 f drdlgfil.obj
 0001:0004355c       __fh?SetHue@DRCLRRAINBOW@@QAAXK@Z 1004455c f drdlgfil.obj
 0001:0004355e       ?SetHue@DRCLRRAINBOW@@QAAXK@Z 1004455e f drdlgfil.obj
 0001:00043568       __pcd_tbl?SetSat@DRCLRRAINBOW@@QAAXK@Z 10044568 f drdlgfil.obj
 0001:0004356c       __nep?SetSat@DRCLRRAINBOW@@QAAXK@Z 1004456c f drdlgfil.obj
 0001:00043574       __fh?SetSat@DRCLRRAINBOW@@QAAXK@Z 10044574 f drdlgfil.obj
 0001:00043576       ?SetSat@DRCLRRAINBOW@@QAAXK@Z 10044576 f drdlgfil.obj
 0001:00043580       __nep?SetupRainbowCapture@DRCLRRAINBOW@@IAAXXZ 10044580 f drdlgfil.obj
 0001:00043580       __pcd_tbl?SetupRainbowCapture@DRCLRRAINBOW@@IAAXXZ 10044580 f drdlgfil.obj
 0001:00043588       __fh?SetupRainbowCapture@DRCLRRAINBOW@@IAAXXZ 10044588 f drdlgfil.obj
 0001:0004358a       ?SetupRainbowCapture@DRCLRRAINBOW@@IAAXXZ 1004458a f drdlgfil.obj
 0001:000435ac       __pcd_tbl?FillRectRGB@@YAXPAUHDC__@@PAUtagRECT@@K@Z 100445ac f drdlgfil.obj
 0001:000435c0       __nep?FillRectRGB@@YAXPAUHDC__@@PAUtagRECT@@K@Z 100445c0 f drdlgfil.obj
 0001:000435c8       __fh?FillRectRGB@@YAXPAUHDC__@@PAUtagRECT@@K@Z 100445c8 f drdlgfil.obj
 0001:000435ca       ?FillRectRGB@@YAXPAUHDC__@@PAUtagRECT@@K@Z 100445ca f drdlgfil.obj
 0001:000435ec       __pcd_tbl?EraseCrossHair@DRCLRRAINBOW@@IAAXPAUHDC__@@@Z 100445ec f drdlgfil.obj
 0001:000435f0       __nep?EraseCrossHair@DRCLRRAINBOW@@IAAXPAUHDC__@@@Z 100445f0 f drdlgfil.obj
 0001:000435f8       __fh?EraseCrossHair@DRCLRRAINBOW@@IAAXPAUHDC__@@@Z 100445f8 f drdlgfil.obj
 0001:000435fa       ?EraseCrossHair@DRCLRRAINBOW@@IAAXPAUHDC__@@@Z 100445fa f drdlgfil.obj
 0001:00043640       __nep?SetFocusPen@DRCLRRAINBOW@@IAAPAUHPEN__@@PAUHDC__@@@Z 10044640 f drdlgfil.obj
 0001:00043640       __pcd_tbl?SetFocusPen@DRCLRRAINBOW@@IAAPAUHPEN__@@PAUHDC__@@@Z 10044640 f drdlgfil.obj
 0001:00043648       __fh?SetFocusPen@DRCLRRAINBOW@@IAAPAUHPEN__@@PAUHDC__@@@Z 10044648 f drdlgfil.obj
 0001:0004364a       ?SetFocusPen@DRCLRRAINBOW@@IAAPAUHPEN__@@PAUHDC__@@@Z 1004464a f drdlgfil.obj
 0001:0004364c       __nep?EndFocusPen@DRCLRRAINBOW@@IAAXPAUHDC__@@PAUHPEN__@@@Z 1004464c f drdlgfil.obj
 0001:0004364c       __pcd_tbl?EndFocusPen@DRCLRRAINBOW@@IAAXPAUHDC__@@PAUHPEN__@@@Z 1004464c f drdlgfil.obj
 0001:00043654       __fh?EndFocusPen@DRCLRRAINBOW@@IAAXPAUHDC__@@PAUHPEN__@@@Z 10044654 f drdlgfil.obj
 0001:00043656       ?EndFocusPen@DRCLRRAINBOW@@IAAXPAUHDC__@@PAUHPEN__@@@Z 10044656 f drdlgfil.obj
 0001:00043658       __pcd_tbl?PaintCrossHair@DRCLRRAINBOW@@IAAXPAUHDC__@@HH@Z 10044658 f drdlgfil.obj
 0001:00043668       __nep?PaintCrossHair@DRCLRRAINBOW@@IAAXPAUHDC__@@HH@Z 10044668 f drdlgfil.obj
 0001:00043670       __fh?PaintCrossHair@DRCLRRAINBOW@@IAAXPAUHDC__@@HH@Z 10044670 f drdlgfil.obj
 0001:00043672       ?PaintCrossHair@DRCLRRAINBOW@@IAAXPAUHDC__@@HH@Z 10044672 f drdlgfil.obj
 0001:000437ac       __pcd_tbl?PaintRainbow@DRCLRRAINBOW@@IAAXPAUHDC__@@PAUtagRECT@@@Z 100447ac f drdlgfil.obj
 0001:000437b0       __nep?PaintRainbow@DRCLRRAINBOW@@IAAXPAUHDC__@@PAUtagRECT@@@Z 100447b0 f drdlgfil.obj
 0001:000437b8       __fh?PaintRainbow@DRCLRRAINBOW@@IAAXPAUHDC__@@PAUtagRECT@@@Z 100447b8 f drdlgfil.obj
 0001:000437ba       ?PaintRainbow@DRCLRRAINBOW@@IAAXPAUHDC__@@PAUtagRECT@@@Z 100447ba f drdlgfil.obj
 0001:000437dc       __pcd_tbl?UpdatePointer@DRCLRRAINBOW@@QAAXPAUHDC__@@@Z 100447dc f drdlgfil.obj
 0001:000437e4       __nep?UpdatePointer@DRCLRRAINBOW@@QAAXPAUHDC__@@@Z 100447e4 f drdlgfil.obj
 0001:000437ec       __fh?UpdatePointer@DRCLRRAINBOW@@QAAXPAUHDC__@@@Z 100447ec f drdlgfil.obj
 0001:000437ee       ?UpdatePointer@DRCLRRAINBOW@@QAAXPAUHDC__@@@Z 100447ee f drdlgfil.obj
 0001:000437fc       ??0DRCLRBAR@@QAA@IPAUIMsoColorsDlg@@@Z 100447fc f drdlgfil.obj
 0001:000438c4       __nep?FInit@DRCLRBAR@@UAAHXZ 100448c4 f drdlgfil.obj
 0001:000438c4       __pcd_tbl?FInit@DRCLRBAR@@UAAHXZ 100448c4 f drdlgfil.obj
 0001:000438cc       __fh?FInit@DRCLRBAR@@UAAHXZ 100448cc f drdlgfil.obj
 0001:000438ce       ?FInit@DRCLRBAR@@UAAHXZ    100448ce f drdlgfil.obj
 0001:000438d0       __pcd_tbl??_GDRCLRBAR@@UAAPAXI@Z 100448d0 f drdlgfil.obj
 0001:000438d8       __nep??_GDRCLRBAR@@UAAPAXI@Z 100448d8 f drdlgfil.obj
 0001:000438e0       __fh??_GDRCLRBAR@@UAAPAXI@Z 100448e0 f drdlgfil.obj
 0001:000438e2       ??_EDRCLRBAR@@UAAPAXI@Z    100448e2 f drdlgfil.obj
 0001:000438e2       ??_GDRCLRBAR@@UAAPAXI@Z    100448e2 f drdlgfil.obj
 0001:000438ec       ??1DRCLRBAR@@UAA@XZ        100448ec f drdlgfil.obj
 0001:00043950       __pcd_tbl?DrawPic@DRCLRBAR@@UAAXPAUHDC__@@PAUtagRECT@@HH@Z 10044950 f drdlgfil.obj
 0001:00043958       __nep?DrawPic@DRCLRBAR@@UAAXPAUHDC__@@PAUtagRECT@@HH@Z 10044958 f drdlgfil.obj
 0001:00043960       __fh?DrawPic@DRCLRBAR@@UAAXPAUHDC__@@PAUtagRECT@@HH@Z 10044960 f drdlgfil.obj
 0001:00043962       ?DrawPic@DRCLRBAR@@UAAXPAUHDC__@@PAUtagRECT@@HH@Z 10044962 f drdlgfil.obj
 0001:0004396c       __nep?DrawFocus@DRCLRBAR@@UAAXPAUHDC__@@PAUtagRECT@@HH@Z 1004496c f drdlgfil.obj
 0001:0004396c       __pcd_tbl?DrawFocus@DRCLRBAR@@UAAXPAUHDC__@@PAUtagRECT@@HH@Z 1004496c f drdlgfil.obj
 0001:00043974       __fh?DrawFocus@DRCLRBAR@@UAAXPAUHDC__@@PAUtagRECT@@HH@Z 10044974 f drdlgfil.obj
 0001:00043976       ?DrawFocus@DRCLRBAR@@UAAXPAUHDC__@@PAUtagRECT@@HH@Z 10044976 f drdlgfil.obj
 0001:00043978       __pcd_tbl?UpdateColorRect@DRCLRBAR@@QAAXPAUHDC__@@@Z 10044978 f drdlgfil.obj
 0001:00043984       __nep?UpdateColorRect@DRCLRBAR@@QAAXPAUHDC__@@@Z 10044984 f drdlgfil.obj
 0001:0004398c       __fh?UpdateColorRect@DRCLRBAR@@QAAXPAUHDC__@@@Z 1004498c f drdlgfil.obj
 0001:0004398e       ?UpdateColorRect@DRCLRBAR@@QAAXPAUHDC__@@@Z 1004498e f drdlgfil.obj
 0001:00043a0c       __pcd_tbl?PaintArrow@DRCLRBAR@@QAAXPAUHDC__@@@Z 10044a0c f drdlgfil.obj
 0001:00043a1c       __nep?PaintArrow@DRCLRBAR@@QAAXPAUHDC__@@@Z 10044a1c f drdlgfil.obj
 0001:00043a24       __fh?PaintArrow@DRCLRBAR@@QAAXPAUHDC__@@@Z 10044a24 f drdlgfil.obj
 0001:00043a26       ?PaintArrow@DRCLRBAR@@QAAXPAUHDC__@@@Z 10044a26 f drdlgfil.obj
 0001:00043a6c       __pcd_tbl?EraseArrow@DRCLRBAR@@QAAXPAUHDC__@@@Z 10044a6c f drdlgfil.obj
 0001:00043a70       __nep?EraseArrow@DRCLRBAR@@QAAXPAUHDC__@@@Z 10044a70 f drdlgfil.obj
 0001:00043a78       __fh?EraseArrow@DRCLRBAR@@QAAXPAUHDC__@@@Z 10044a78 f drdlgfil.obj
 0001:00043a7a       ?EraseArrow@DRCLRBAR@@QAAXPAUHDC__@@@Z 10044a7a f drdlgfil.obj
 0001:00043aa0       __pcd_tbl?FHandleChar@DRCLRBAR@@UAAHPAUHWND__@@IIJUtagPOINT@@@Z 10044aa0 f drdlgfil.obj
 0001:00043acc       __nep?FHandleChar@DRCLRBAR@@UAAHPAUHWND__@@IIJUtagPOINT@@@Z 10044acc f drdlgfil.obj
 0001:00043ad4       __fh?FHandleChar@DRCLRBAR@@UAAHPAUHWND__@@IIJUtagPOINT@@@Z 10044ad4 f drdlgfil.obj
 0001:00043ad6       ?FHandleChar@DRCLRBAR@@UAAHPAUHWND__@@IIJUtagPOINT@@@Z 10044ad6 f drdlgfil.obj
 0001:00043b40       __pcd_tbl?FHandleLButton@DRCLRBAR@@UAAHPAUHWND__@@IIJUtagPOINT@@@Z 10044b40 f drdlgfil.obj
 0001:00043b78       __nep?FHandleLButton@DRCLRBAR@@UAAHPAUHWND__@@IIJUtagPOINT@@@Z 10044b78 f drdlgfil.obj
 0001:00043b80       __fh?FHandleLButton@DRCLRBAR@@UAAHPAUHWND__@@IIJUtagPOINT@@@Z 10044b80 f drdlgfil.obj
 0001:00043b82       ?FHandleLButton@DRCLRBAR@@UAAHPAUHWND__@@IIJUtagPOINT@@@Z 10044b82 f drdlgfil.obj
 0001:00043c00       __pcd_tbl?FSetupDrawing@DRCLRBAR@@UAAHPAUtagRECT@@@Z 10044c00 f drdlgfil.obj
 0001:00043c0c       __nep?FSetupDrawing@DRCLRBAR@@UAAHPAUtagRECT@@@Z 10044c0c f drdlgfil.obj
 0001:00043c14       __fh?FSetupDrawing@DRCLRBAR@@UAAHPAUtagRECT@@@Z 10044c14 f drdlgfil.obj
 0001:00043c16       ?FSetupDrawing@DRCLRBAR@@UAAHPAUtagRECT@@@Z 10044c16 f drdlgfil.obj
 0001:00043c64       __pcd_tbl?SetValue@DRCLRBAR@@QAAXK@Z 10044c64 f drdlgfil.obj
 0001:00043c68       __nep?SetValue@DRCLRBAR@@QAAXK@Z 10044c68 f drdlgfil.obj
 0001:00043c70       __fh?SetValue@DRCLRBAR@@QAAXK@Z 10044c70 f drdlgfil.obj
 0001:00043c72       ?SetValue@DRCLRBAR@@QAAXK@Z 10044c72 f drdlgfil.obj
 0001:00043c7c       __pcd_tbl?SetPos@DRCLRBAR@@IAAXH@Z 10044c7c f drdlgfil.obj
 0001:00043c7c       __nep?SetPos@DRCLRBAR@@IAAXH@Z 10044c7c f drdlgfil.obj
 0001:00043c84       __fh?SetPos@DRCLRBAR@@IAAXH@Z 10044c84 f drdlgfil.obj
 0001:00043c86       ?SetPos@DRCLRBAR@@IAAXH@Z  10044c86 f drdlgfil.obj
 0001:00043c94       __pcd_tbl?HLSPostoHLS@DRCLRBAR@@IAAXH@Z 10044c94 f drdlgfil.obj
 0001:00043c98       __nep?HLSPostoHLS@DRCLRBAR@@IAAXH@Z 10044c98 f drdlgfil.obj
 0001:00043ca0       __fh?HLSPostoHLS@DRCLRBAR@@IAAXH@Z 10044ca0 f drdlgfil.obj
 0001:00043ca2       ?HLSPostoHLS@DRCLRBAR@@IAAXH@Z 10044ca2 f drdlgfil.obj
 0001:00043cc4       __pcd_tbl?HLStoHLSPos@DRCLRBAR@@IAAXH@Z 10044cc4 f drdlgfil.obj
 0001:00043cc8       __nep?HLStoHLSPos@DRCLRBAR@@IAAXH@Z 10044cc8 f drdlgfil.obj
 0001:00043cd0       __fh?HLStoHLSPos@DRCLRBAR@@IAAXH@Z 10044cd0 f drdlgfil.obj
 0001:00043cd2       ?HLStoHLSPos@DRCLRBAR@@IAAXH@Z 10044cd2 f drdlgfil.obj
 0001:00043cf4       __pcd_tbl?QueryInterface@DlgFills@@UAAJABUGUID@@PAPAX@Z 10044cf4 f drdlgfil.obj
 0001:00043cf4       __nep?QueryInterface@DlgFills@@UAAJABUGUID@@PAPAX@Z 10044cf4 f drdlgfil.obj
 0001:00043cfc       __fh?QueryInterface@DlgFills@@UAAJABUGUID@@PAPAX@Z 10044cfc f drdlgfil.obj
 0001:00043cfe       ?QueryInterface@DlgFills@@UAAJABUGUID@@PAPAX@Z 10044cfe f drdlgfil.obj
 0001:00043d2c       __pcd_tbl?FDebugMessage@DlgFills@@UAAHPAUMSOINST@@IIJ@Z 10044d2c f drdlgfil.obj
 0001:00043d2c       __nep?FDebugMessage@DlgFills@@UAAHPAUMSOINST@@IIJ@Z 10044d2c f drdlgfil.obj
 0001:00043d34       __fh?FDebugMessage@DlgFills@@UAAHPAUMSOINST@@IIJ@Z 10044d34 f drdlgfil.obj
 0001:00043d36       ?FDebugMessage@DlgFills@@UAAHPAUMSOINST@@IIJ@Z 10044d36 f drdlgfil.obj
 0001:00043d38       __pcd_tbl?FRun@DlgFills@@UAAHXZ 10044d38 f drdlgfil.obj
 0001:00043d3c       __nep?FRun@DlgFills@@UAAHXZ 10044d3c f drdlgfil.obj
 0001:00043d44       __fh?FRun@DlgFills@@UAAHXZ 10044d44 f drdlgfil.obj
 0001:00043d46       ?FRun@DlgFills@@UAAHXZ     10044d46 f drdlgfil.obj
 0001:00043d5c       __pcd_tbl?Set@DlgFills@@UAAXPAUMSOPSFillStyle@@@Z 10044d5c f drdlgfil.obj
 0001:00043d68       __nep?Set@DlgFills@@UAAXPAUMSOPSFillStyle@@@Z 10044d68 f drdlgfil.obj
 0001:00043d70       __fh?Set@DlgFills@@UAAXPAUMSOPSFillStyle@@@Z 10044d70 f drdlgfil.obj
 0001:00043d72       ?Set@DlgFills@@UAAXPAUMSOPSFillStyle@@@Z 10044d72 f drdlgfil.obj
 0001:00043e6c       __pcd_tbl?Get@DlgFills@@UAAXPAUMSOPSFillStyle@@PAU_EXFILLCONTROL@@@Z 10044e6c f drdlgfil.obj
 0001:00043e90       __nep?Get@DlgFills@@UAAXPAUMSOPSFillStyle@@PAU_EXFILLCONTROL@@@Z 10044e90 f drdlgfil.obj
 0001:00043e98       __fh?Get@DlgFills@@UAAXPAUMSOPSFillStyle@@PAU_EXFILLCONTROL@@@Z 10044e98 f drdlgfil.obj
 0001:00043e9a       ?Get@DlgFills@@UAAXPAUMSOPSFillStyle@@PAU_EXFILLCONTROL@@@Z 10044e9a f drdlgfil.obj
 0001:000440dc       __pcd_tbl??0DlgFills@@QAA@XZ 100450dc f drdlgfil.obj
 0001:000440e4       __nep??0DlgFills@@QAA@XZ   100450e4 f drdlgfil.obj
 0001:000440ec       __fh??0DlgFills@@QAA@XZ    100450ec f drdlgfil.obj
 0001:000440ee       ??0DlgFills@@QAA@XZ        100450ee f drdlgfil.obj
 0001:00044130       __pcd_tbl??1DlgFills@@QAA@XZ 10045130 f drdlgfil.obj
 0001:0004413c       __nep??1DlgFills@@QAA@XZ   1004513c f drdlgfil.obj
 0001:00044144       __fh??1DlgFills@@QAA@XZ    10045144 f drdlgfil.obj
 0001:00044146       ??1DlgFills@@QAA@XZ        10045146 f drdlgfil.obj
 0001:000441ac       __nep?QueryInterface@ColorDlg@@UAAJABUGUID@@PAPAX@Z 100451ac f drdlgfil.obj
 0001:000441ac       __pcd_tbl?QueryInterface@ColorDlg@@UAAJABUGUID@@PAPAX@Z 100451ac f drdlgfil.obj
 0001:000441b4       __fh?QueryInterface@ColorDlg@@UAAJABUGUID@@PAPAX@Z 100451b4 f drdlgfil.obj
 0001:000441b6       ?QueryInterface@ColorDlg@@UAAJABUGUID@@PAPAX@Z 100451b6 f drdlgfil.obj
 0001:000441e4       __nep?FDebugMessage@ColorDlg@@UAAHPAUMSOINST@@IIJ@Z 100451e4 f drdlgfil.obj
 0001:000441e4       __pcd_tbl?FDebugMessage@ColorDlg@@UAAHPAUMSOINST@@IIJ@Z 100451e4 f drdlgfil.obj
 0001:000441ec       __fh?FDebugMessage@ColorDlg@@UAAHPAUMSOINST@@IIJ@Z 100451ec f drdlgfil.obj
 0001:000441ee       ?FDebugMessage@ColorDlg@@UAAHPAUMSOINST@@IIJ@Z 100451ee f drdlgfil.obj
 0001:000441f0       __pcd_tbl?FRun@ColorDlg@@UAAHXZ 100451f0 f drdlgfil.obj
 0001:000441f4       __nep?FRun@ColorDlg@@UAAHXZ 100451f4 f drdlgfil.obj
 0001:000441fc       __fh?FRun@ColorDlg@@UAAHXZ 100451fc f drdlgfil.obj
 0001:000441fe       ?FRun@ColorDlg@@UAAHXZ     100451fe f drdlgfil.obj
 0001:00044214       __nep?Set@ColorDlg@@UAAXPAKPAJ@Z 10045214 f drdlgfil.obj
 0001:00044214       __pcd_tbl?Set@ColorDlg@@UAAXPAKPAJ@Z 10045214 f drdlgfil.obj
 0001:0004421c       __fh?Set@ColorDlg@@UAAXPAKPAJ@Z 1004521c f drdlgfil.obj
 0001:0004421e       ?Set@ColorDlg@@UAAXPAKPAJ@Z 1004521e f drdlgfil.obj
 0001:00044280       __pcd_tbl?Get@ColorDlg@@UAAXPAKPAJ@Z 10045280 f drdlgfil.obj
 0001:00044280       __nep?Get@ColorDlg@@UAAXPAKPAJ@Z 10045280 f drdlgfil.obj
 0001:00044288       __fh?Get@ColorDlg@@UAAXPAKPAJ@Z 10045288 f drdlgfil.obj
 0001:0004428a       ?Get@ColorDlg@@UAAXPAKPAJ@Z 1004528a f drdlgfil.obj
 0001:00044294       __pcd_tbl??0ColorDlg@@QAA@XZ 10045294 f drdlgfil.obj
 0001:00044298       __nep??0ColorDlg@@QAA@XZ   10045298 f drdlgfil.obj
 0001:000442a0       __fh??0ColorDlg@@QAA@XZ    100452a0 f drdlgfil.obj
 0001:000442a2       ??0ColorDlg@@QAA@XZ        100452a2 f drdlgfil.obj
 0001:000442d4       __pcd_tbl??1ColorDlg@@QAA@XZ 100452d4 f drdlgfil.obj
 0001:000442d4       __nep??1ColorDlg@@QAA@XZ   100452d4 f drdlgfil.obj
 0001:000442dc       __fh??1ColorDlg@@QAA@XZ    100452dc f drdlgfil.obj
 0001:000442de       ??1ColorDlg@@QAA@XZ        100452de f drdlgfil.obj
 0001:000442e4       __pcd_tbl_MsoFCreateFillsDlg 100452e4 f drdlgfil.obj
 0001:000442f8       __nep_MsoFCreateFillsDlg   100452f8 f drdlgfil.obj
 0001:00044300       __fh_MsoFCreateFillsDlg    10045300 f drdlgfil.obj
 0001:00044302       _MsoFCreateFillsDlg        10045302 f drdlgfil.obj
 0001:00044360       __pcd_tbl_MsoFCreateColorsDlg 10045360 f drdlgfil.obj
 0001:0004437c       __nep_MsoFCreateColorsDlg  1004537c f drdlgfil.obj
 0001:00044384       __fh_MsoFCreateColorsDlg   10045384 f drdlgfil.obj
 0001:00044386       _MsoFCreateColorsDlg       10045386 f drdlgfil.obj
 0001:000443d4       __nep?NMultDiv@@YAHFFF@Z   100453d4 f drdlgutl.obj
 0001:000443d4       __pcd_tbl?NMultDiv@@YAHFFF@Z 100453d4 f drdlgutl.obj
 0001:000443dc       __fh?NMultDiv@@YAHFFF@Z    100453dc f drdlgutl.obj
 0001:000443de       ?NMultDiv@@YAHFFF@Z        100453de f drdlgutl.obj
 0001:00044428       __pcd_tbl?WCompSzSrt@@YAHPAD0@Z 10045428 f drdlgutl.obj
 0001:0004442c       __nep?WCompSzSrt@@YAHPAD0@Z 1004542c f drdlgutl.obj
 0001:00044434       __fh?WCompSzSrt@@YAHPAD0@Z 10045434 f drdlgutl.obj
 0001:00044436       ?WCompSzSrt@@YAHPAD0@Z     10045436 f drdlgutl.obj
 0001:00044444       __pcd_tbl?FAllZeroPpchPch@@YAHPAPADPAD@Z 10045444 f drdlgutl.obj
 0001:00044444       __nep?FAllZeroPpchPch@@YAHPAPADPAD@Z 10045444 f drdlgutl.obj
 0001:0004444c       __fh?FAllZeroPpchPch@@YAHPAPADPAD@Z 1004544c f drdlgutl.obj
 0001:0004444e       ?FAllZeroPpchPch@@YAHPAPADPAD@Z 1004544e f drdlgutl.obj
 0001:0004446c       __pcd_tbl?FVerifyUnits@@YAHPADHPAPADPAH@Z 1004546c f drdlgutl.obj
 0001:00044474       __nep?FVerifyUnits@@YAHPADHPAPADPAH@Z 10045474 f drdlgutl.obj
 0001:0004447c       __fh?FVerifyUnits@@YAHPADHPAPADPAH@Z 1004547c f drdlgutl.obj
 0001:0004447e       ?FVerifyUnits@@YAHPADHPAPADPAH@Z 1004547e f drdlgutl.obj
 0001:000444c8       __pcd_tbl?FGarbageTrailingStuff@@YAHPAD0@Z 100454c8 f drdlgutl.obj
 0001:000444c8       __nep?FGarbageTrailingStuff@@YAHPAD0@Z 100454c8 f drdlgutl.obj
 0001:000444d0       __fh?FGarbageTrailingStuff@@YAHPAD0@Z 100454d0 f drdlgutl.obj
 0001:000444d2       ?FGarbageTrailingStuff@@YAHPAD0@Z 100454d2 f drdlgutl.obj
 0001:00044514       __nep?FConvertableUnits@@YAHHH@Z 10045514 f drdlgutl.obj
 0001:00044514       __pcd_tbl?FConvertableUnits@@YAHHH@Z 10045514 f drdlgutl.obj
 0001:0004451c       __fh?FConvertableUnits@@YAHHH@Z 1004551c f drdlgutl.obj
 0001:0004451e       ?FConvertableUnits@@YAHHH@Z 1004551e f drdlgutl.obj
 0001:00044548       __pcd_tbl?FNumFromSs@@YAHPAHPADH0PAG0J@Z 10045548 f drdlgutl.obj
 0001:00044558       __nep?FNumFromSs@@YAHPAHPADH0PAG0J@Z 10045558 f drdlgutl.obj
 0001:00044560       __fh?FNumFromSs@@YAHPAHPADH0PAG0J@Z 10045560 f drdlgutl.obj
 0001:00044562       ?FNumFromSs@@YAHPAHPADH0PAG0J@Z 10045562 f drdlgutl.obj
 0001:00044624       __pcd_tbl?FIntFromSz@@YAHPAH0HGHPAD@Z 10045624 f drdlgutl.obj
 0001:00044624       __nep?FIntFromSz@@YAHPAH0HGHPAD@Z 10045624 f drdlgutl.obj
 0001:0004462c       __fh?FIntFromSz@@YAHPAH0HGHPAD@Z 1004562c f drdlgutl.obj
 0001:0004462e       ?FIntFromSz@@YAHPAH0HGHPAD@Z 1004562e f drdlgutl.obj
 0001:000446e4       __nep?FZaFromString@@YAHPAJHKPAD1PAH2@Z 100456e4 f drdlgutl.obj
 0001:000446e4       __pcd_tbl?FZaFromString@@YAHPAJHKPAD1PAH2@Z 100456e4 f drdlgutl.obj
 0001:000446ec       __fh?FZaFromString@@YAHPAJHKPAD1PAH2@Z 100456ec f drdlgutl.obj
 0001:000446ee       ?FZaFromString@@YAHPAJHKPAD1PAH2@Z 100456ee f drdlgutl.obj
 0001:00044738       __pcd_tbl?FDigit@@YAHE@Z   10045738 f drdlgutl.obj
 0001:00044738       __nep?FDigit@@YAHE@Z       10045738 f drdlgutl.obj
 0001:00044740       __fh?FDigit@@YAHE@Z        10045740 f drdlgutl.obj
 0001:00044742       ?FDigit@@YAHE@Z            10045742 f drdlgutl.obj
 0001:00044754       __pcd_tbl?FFraction@@YAHE@Z 10045754 f drdlgutl.obj
 0001:00044754       __nep?FFraction@@YAHE@Z    10045754 f drdlgutl.obj
 0001:0004475c       __fh?FFraction@@YAHE@Z     1004575c f drdlgutl.obj
 0001:0004475e       ?FFraction@@YAHE@Z         1004575e f drdlgutl.obj
 0001:00044760       __pcd_tbl?FPlParsePpchPch@@YAHPAJPAPADPADPAHH@Z 10045760 f drdlgutl.obj
 0001:00044764       __nep?FPlParsePpchPch@@YAHPAJPAPADPADPAHH@Z 10045764 f drdlgutl.obj
 0001:0004476c       __fh?FPlParsePpchPch@@YAHPAJPAPADPADPAHH@Z 1004576c f drdlgutl.obj
 0001:0004476e       ?FPlParsePpchPch@@YAHPAJPAPADPADPAHH@Z 1004576e f drdlgutl.obj
 0001:00044800       __pcd_tbl?FPnwParsePpchPch@@YAHPAHPAPADPAD0@Z 10045800 f drdlgutl.obj
 0001:00044804       __nep?FPnwParsePpchPch@@YAHPAHPAPADPAD0@Z 10045804 f drdlgutl.obj
 0001:0004480c       __fh?FPnwParsePpchPch@@YAHPAHPAPADPAD0@Z 1004580c f drdlgutl.obj
 0001:0004480e       ?FPnwParsePpchPch@@YAHPAHPAPADPAD0@Z 1004580e f drdlgutl.obj
 0001:0004482c       __nep?udiv@@YAIIIPAI@Z     1004582c f drdlgutl.obj
 0001:0004482c       __pcd_tbl?udiv@@YAIIIPAI@Z 1004582c f drdlgutl.obj
 0001:00044834       __fh?udiv@@YAIIIPAI@Z      10045834 f drdlgutl.obj
 0001:00044836       ?udiv@@YAIIIPAI@Z          10045836 f drdlgutl.obj
 0001:00044844       __nep?LpchInLprgch@@YAPADPADEH@Z 10045844 f drdlgutl.obj
 0001:00044844       __pcd_tbl?LpchInLprgch@@YAPADPADEH@Z 10045844 f drdlgutl.obj
 0001:0004484c       __fh?LpchInLprgch@@YAPADPADEH@Z 1004584c f drdlgutl.obj
 0001:0004484e       ?LpchInLprgch@@YAPADPADEH@Z 1004584e f drdlgutl.obj
 0001:0004486c       __pcd_tbl?CchAppendUnitSz@@YAHPADH@Z 1004586c f drdlgutl.obj
 0001:00044870       __nep?CchAppendUnitSz@@YAHPADH@Z 10045870 f drdlgutl.obj
 0001:00044878       __fh?CchAppendUnitSz@@YAHPADH@Z 10045878 f drdlgutl.obj
 0001:0004487a       ?CchAppendUnitSz@@YAHPADH@Z 1004587a f drdlgutl.obj
 0001:000448b0       __pcd_tbl?CchAppendUnitWz@@YAHPAGH@Z 100458b0 f drdlgutl.obj
 0001:000448bc       __nep?CchAppendUnitWz@@YAHPAGH@Z 100458bc f drdlgutl.obj
 0001:000448c4       __fh?CchAppendUnitWz@@YAHPAGH@Z 100458c4 f drdlgutl.obj
 0001:000448c6       ?CchAppendUnitWz@@YAHPAGH@Z 100458c6 f drdlgutl.obj
 0001:000448f4       __pcd_tbl?CchFormatNumber@@YAHPAPADHHHPAVDRSC@@I@Z 100458f4 f drdlgutl.obj
 0001:00044900       __nep?CchFormatNumber@@YAHPAPADHHHPAVDRSC@@I@Z 10045900 f drdlgutl.obj
 0001:00044908       __fh?CchFormatNumber@@YAHPAPADHHHPAVDRSC@@I@Z 10045908 f drdlgutl.obj
 0001:0004490a       ?CchFormatNumber@@YAHPAPADHHHPAVDRSC@@I@Z 1004590a f drdlgutl.obj
 0001:0004494c       __pcd_tbl?LwMultDivR@@YAJJJJ@Z 1004594c f drdlgutl.obj
 0001:0004494c       __nep?LwMultDivR@@YAJJJJ@Z 1004594c f drdlgutl.obj
 0001:00044954       __fh?LwMultDivR@@YAJJJJ@Z  10045954 f drdlgutl.obj
 0001:00044956       ?LwMultDivR@@YAJJJJ@Z      10045956 f drdlgutl.obj
 0001:000449cc       __nep?LpbCopyLprgb@@YAPAEPAE0H@Z 100459cc f drdlgutl.obj
 0001:000449cc       __pcd_tbl?LpbCopyLprgb@@YAPAEPAE0H@Z 100459cc f drdlgutl.obj
 0001:000449d4       __fh?LpbCopyLprgb@@YAPAEPAE0H@Z 100459d4 f drdlgutl.obj
 0001:000449d6       ?LpbCopyLprgb@@YAPAEPAE0H@Z 100459d6 f drdlgutl.obj
 0001:00044a2c       __pcd_tbl?CchLongToPlpch@@YAHJPAPAEHH@Z 10045a2c f drdlgutl.obj
 0001:00044a30       __nep?CchLongToPlpch@@YAHJPAPAEHH@Z 10045a30 f drdlgutl.obj
 0001:00044a38       __fh?CchLongToPlpch@@YAHJPAPAEHH@Z 10045a38 f drdlgutl.obj
 0001:00044a3b       ?CchLongToPlpch@@YAHJPAPAEHH@Z 10045a3b f drdlgutl.obj
 0001:00044a94       __pcd_tbl?CchLongToPpch@@YAHJPAPAD@Z 10045a94 f drdlgutl.obj
 0001:00044a98       __nep?CchLongToPpch@@YAHJPAPAD@Z 10045a98 f drdlgutl.obj
 0001:00044aa0       __fh?CchLongToPpch@@YAHJPAPAD@Z 10045aa0 f drdlgutl.obj
 0001:00044aa2       ?CchLongToPpch@@YAHJPAPAD@Z 10045aa2 f drdlgutl.obj
 0001:00044ab4       __pcd_tbl?CchConvertNumToStr@@YAHPAPADHHHHHHHPAVDRSC@@I@Z 10045ab4 f drdlgutl.obj
 0001:00044ac0       __nep?CchConvertNumToStr@@YAHPAPADHHHHHHHPAVDRSC@@I@Z 10045ac0 f drdlgutl.obj
 0001:00044ac8       __fh?CchConvertNumToStr@@YAHPAPADHHHHHHHPAVDRSC@@I@Z 10045ac8 f drdlgutl.obj
 0001:00044aca       ?CchConvertNumToStr@@YAHPAPADHHHHHHHPAVDRSC@@I@Z 10045aca f drdlgutl.obj
 0001:00044b9c       __pcd_tbl?HandleParseError@@YAXIHHHHPAD@Z 10045b9c f drdlgutl.obj
 0001:00044bac       __nep?HandleParseError@@YAXIHHHHPAD@Z 10045bac f drdlgutl.obj
 0001:00044bb4       __fh?HandleParseError@@YAXIHHHHPAD@Z 10045bb4 f drdlgutl.obj
 0001:00044bb6       ?HandleParseError@@YAXIHHHHPAD@Z 10045bb6 f drdlgutl.obj
 0001:00044be8       __nep?FOkayValue@@YAHHHHHH@Z 10045be8 f drdlgutl.obj
 0001:00044be8       __pcd_tbl?FOkayValue@@YAHHHHHH@Z 10045be8 f drdlgutl.obj
 0001:00044bf0       __fh?FOkayValue@@YAHHHHHH@Z 10045bf0 f drdlgutl.obj
 0001:00044bf2       ?FOkayValue@@YAHHHHHH@Z    10045bf2 f drdlgutl.obj
 0001:00044bfc       __pcd_tbl?CheckForSpacesOrBlanks@@YAHPADH@Z 10045bfc f drdlgutl.obj
 0001:00044bfc       __nep?CheckForSpacesOrBlanks@@YAHPADH@Z 10045bfc f drdlgutl.obj
 0001:00044c04       __fh?CheckForSpacesOrBlanks@@YAHPADH@Z 10045c04 f drdlgutl.obj
 0001:00044c06       ?CheckForSpacesOrBlanks@@YAHPADH@Z 10045c06 f drdlgutl.obj
 0001:00044c34       __pcd_tbl?DpvParseEditCtl@@YAHPAHIPADHHHHPAVDRSC@@@Z 10045c34 f drdlgutl.obj
 0001:00044c44       __nep?DpvParseEditCtl@@YAHPAHIPADHHHHPAVDRSC@@@Z 10045c44 f drdlgutl.obj
 0001:00044c4c       __fh?DpvParseEditCtl@@YAHPAHIPADHHHHPAVDRSC@@@Z 10045c4c f drdlgutl.obj
 0001:00044c4e       ?DpvParseEditCtl@@YAHPAHIPADHHHHPAVDRSC@@@Z 10045c4e f drdlgutl.obj
 0001:00044ce0       __pcd_tbl_wParse           10045ce0 f drdlgutl.obj
 0001:00044cf4       __nep_wParse               10045cf4 f drdlgutl.obj
 0001:00044cfc       __fh_wParse                10045cfc f drdlgutl.obj
 0001:00044cff       _wParse                    10045cff f drdlgutl.obj
 0001:00044dec       __pcd_tbl_MsoWParseSCProc  10045dec f drdlgutl.obj
 0001:00044df0       __nep_MsoWParseSCProc      10045df0 f drdlgutl.obj
 0001:00044df8       __fh_MsoWParseSCProc       10045df8 f drdlgutl.obj
 0001:00044dfa       _MsoWParseSCProc           10045dfa f drdlgutl.obj
 0001:00044e0c       __nep?UnitGetFromTable@@YAHI@Z 10045e0c f drdlgutl.obj
 0001:00044e0c       __pcd_tbl?UnitGetFromTable@@YAHI@Z 10045e0c f drdlgutl.obj
 0001:00044e14       __fh?UnitGetFromTable@@YAHI@Z 10045e14 f drdlgutl.obj
 0001:00044e16       ?UnitGetFromTable@@YAHI@Z  10045e16 f drdlgutl.obj
 0001:00044e40       __pcd_tbl?GetConversion@@YAJI@Z 10045e40 f drdlgutl.obj
 0001:00044e40       __nep?GetConversion@@YAJI@Z 10045e40 f drdlgutl.obj
 0001:00044e48       __fh?GetConversion@@YAJI@Z 10045e48 f drdlgutl.obj
 0001:00044e4a       ?GetConversion@@YAJI@Z     10045e4a f drdlgutl.obj
 0001:00044e70       __pcd_tbl_MsoFCreateFormatObjectDlg 10045e70 f drformat.obj
 0001:00044e84       __nep_MsoFCreateFormatObjectDlg 10045e84 f drformat.obj
 0001:00044e8c       __fh_MsoFCreateFormatObjectDlg 10045e8c f drformat.obj
 0001:00044e8e       _MsoFCreateFormatObjectDlg 10045e8e f drformat.obj
 0001:00044f28       __pcd_tbl?TtflToCab@@YAXPAPAU_cabfmtobj@@PAU_MSOTTFL@@@Z 10045f28 f drformat.obj
 0001:00044f28       __nep?TtflToCab@@YAXPAPAU_cabfmtobj@@PAU_MSOTTFL@@@Z 10045f28 f drformat.obj
 0001:00044f30       __fh?TtflToCab@@YAXPAPAU_cabfmtobj@@PAU_MSOTTFL@@@Z 10045f30 f drformat.obj
 0001:00044f32       ?TtflToCab@@YAXPAPAU_cabfmtobj@@PAU_MSOTTFL@@@Z 10045f32 f drformat.obj
 0001:00044fb8       __pcd_tbl?TtflFromCab@@YAXPAPAU_cabfmtobj@@PAU_MSOTTFL@@1@Z 10045fb8 f drformat.obj
 0001:00044fb8       __nep?TtflFromCab@@YAXPAPAU_cabfmtobj@@PAU_MSOTTFL@@1@Z 10045fb8 f drformat.obj
 0001:00044fc0       __fh?TtflFromCab@@YAXPAPAU_cabfmtobj@@PAU_MSOTTFL@@1@Z 10045fc0 f drformat.obj
 0001:00044fc2       ?TtflFromCab@@YAXPAPAU_cabfmtobj@@PAU_MSOTTFL@@1@Z 10045fc2 f drformat.obj
 0001:000450bc       __nep?TtszToCab@@YAXPAPAU_cabfmtobj@@PAU_MSOTTSZ@@@Z 100460bc f drformat.obj
 0001:000450bc       __pcd_tbl?TtszToCab@@YAXPAPAU_cabfmtobj@@PAU_MSOTTSZ@@@Z 100460bc f drformat.obj
 0001:000450c4       __fh?TtszToCab@@YAXPAPAU_cabfmtobj@@PAU_MSOTTSZ@@@Z 100460c4 f drformat.obj
 0001:000450c6       ?TtszToCab@@YAXPAPAU_cabfmtobj@@PAU_MSOTTSZ@@@Z 100460c6 f drformat.obj
 0001:000450f8       __nep?TtszFromCab@@YAXPAPAU_cabfmtobj@@PAU_MSOTTSZ@@1@Z 100460f8 f drformat.obj
 0001:000450f8       __pcd_tbl?TtszFromCab@@YAXPAPAU_cabfmtobj@@PAU_MSOTTSZ@@1@Z 100460f8 f drformat.obj
 0001:00045100       __fh?TtszFromCab@@YAXPAPAU_cabfmtobj@@PAU_MSOTTSZ@@1@Z 10046100 f drformat.obj
 0001:00045102       ?TtszFromCab@@YAXPAPAU_cabfmtobj@@PAU_MSOTTSZ@@1@Z 10046102 f drformat.obj
 0001:00045178       __pcd_tbl?TtpcToCab@@YAXPAPAU_cabfmtobj@@PAU_MSOTTPC@@@Z 10046178 f drformat.obj
 0001:00045178       __nep?TtpcToCab@@YAXPAPAU_cabfmtobj@@PAU_MSOTTPC@@@Z 10046178 f drformat.obj
 0001:00045180       __fh?TtpcToCab@@YAXPAPAU_cabfmtobj@@PAU_MSOTTPC@@@Z 10046180 f drformat.obj
 0001:00045182       ?TtpcToCab@@YAXPAPAU_cabfmtobj@@PAU_MSOTTPC@@@Z 10046182 f drformat.obj
 0001:000451b4       __pcd_tbl?TtpcFromCab@@YAXPAPAU_cabfmtobj@@PAU_MSOTTPC@@1@Z 100461b4 f drformat.obj
 0001:000451b4       __nep?TtpcFromCab@@YAXPAPAU_cabfmtobj@@PAU_MSOTTPC@@1@Z 100461b4 f drformat.obj
 0001:000451bc       __fh?TtpcFromCab@@YAXPAPAU_cabfmtobj@@PAU_MSOTTPC@@1@Z 100461bc f drformat.obj
 0001:000451be       ?TtpcFromCab@@YAXPAPAU_cabfmtobj@@PAU_MSOTTPC@@1@Z 100461be f drformat.obj
 0001:00045248       __nep?TtpsToCab@@YAXPAPAU_cabfmtobj@@PAU_MSOTTPS@@@Z 10046248 f drformat.obj
 0001:00045248       __pcd_tbl?TtpsToCab@@YAXPAPAU_cabfmtobj@@PAU_MSOTTPS@@@Z 10046248 f drformat.obj
 0001:00045250       __fh?TtpsToCab@@YAXPAPAU_cabfmtobj@@PAU_MSOTTPS@@@Z 10046250 f drformat.obj
 0001:00045252       ?TtpsToCab@@YAXPAPAU_cabfmtobj@@PAU_MSOTTPS@@@Z 10046252 f drformat.obj
 0001:00045268       __pcd_tbl?TtpsFromCab@@YAXPAPAU_cabfmtobj@@PAU_MSOTTPS@@1@Z 10046268 f drformat.obj
 0001:00045268       __nep?TtpsFromCab@@YAXPAPAU_cabfmtobj@@PAU_MSOTTPS@@1@Z 10046268 f drformat.obj
 0001:00045270       __fh?TtpsFromCab@@YAXPAPAU_cabfmtobj@@PAU_MSOTTPS@@1@Z 10046270 f drformat.obj
 0001:00045272       ?TtpsFromCab@@YAXPAPAU_cabfmtobj@@PAU_MSOTTPS@@1@Z 10046272 f drformat.obj
 0001:000452b8       __nep?TttbToCab@@YAXPAPAU_cabfmtobj@@PAU_MSOTTTB@@@Z 100462b8 f drformat.obj
 0001:000452b8       __pcd_tbl?TttbToCab@@YAXPAPAU_cabfmtobj@@PAU_MSOTTTB@@@Z 100462b8 f drformat.obj
 0001:000452c0       __fh?TttbToCab@@YAXPAPAU_cabfmtobj@@PAU_MSOTTTB@@@Z 100462c0 f drformat.obj
 0001:000452c2       ?TttbToCab@@YAXPAPAU_cabfmtobj@@PAU_MSOTTTB@@@Z 100462c2 f drformat.obj
 0001:000452f0       __nep?TttbFromCab@@YAXPAPAU_cabfmtobj@@PAU_MSOTTTB@@1@Z 100462f0 f drformat.obj
 0001:000452f0       __pcd_tbl?TttbFromCab@@YAXPAPAU_cabfmtobj@@PAU_MSOTTTB@@1@Z 100462f0 f drformat.obj
 0001:000452f8       __fh?TttbFromCab@@YAXPAPAU_cabfmtobj@@PAU_MSOTTTB@@1@Z 100462f8 f drformat.obj
 0001:000452fa       ?TttbFromCab@@YAXPAPAU_cabfmtobj@@PAU_MSOTTTB@@1@Z 100462fa f drformat.obj
 0001:00045374       __pcd_tbl_FIsPicture       10046374 f drformat.obj
 0001:00045378       __nep_FIsPicture           10046378 f drformat.obj
 0001:00045380       __fh_FIsPicture            10046380 f drformat.obj
 0001:00045382       _FIsPicture                10046382 f drformat.obj
 0001:000453a0       __pcd_tbl?FBestScale@@YAHPAUIMsoDrawingSelection@@@Z 100463a0 f drformat.obj
 0001:000453a4       __nep?FBestScale@@YAHPAUIMsoDrawingSelection@@@Z 100463a4 f drformat.obj
 0001:000453ac       __fh?FBestScale@@YAHPAUIMsoDrawingSelection@@@Z 100463ac f drformat.obj
 0001:000453ae       ?FBestScale@@YAHPAUIMsoDrawingSelection@@@Z 100463ae f drformat.obj
 0001:000453b8       __pcd_tbl?IResolution@@YAHPAUIMsoDrawingSelection@@@Z 100463b8 f drformat.obj
 0001:000453bc       __nep?IResolution@@YAHPAUIMsoDrawingSelection@@@Z 100463bc f drformat.obj
 0001:000453c4       __fh?IResolution@@YAHPAUIMsoDrawingSelection@@@Z 100463c4 f drformat.obj
 0001:000453c6       ?IResolution@@YAHPAUIMsoDrawingSelection@@@Z 100463c6 f drformat.obj
 0001:000453e0       __nep?QueryInterface@FmtObjDlg@@UAAJABUGUID@@PAPAX@Z 100463e0 f drformat.obj
 0001:000453e0       __pcd_tbl?QueryInterface@FmtObjDlg@@UAAJABUGUID@@PAPAX@Z 100463e0 f drformat.obj
 0001:000453e8       __fh?QueryInterface@FmtObjDlg@@UAAJABUGUID@@PAPAX@Z 100463e8 f drformat.obj
 0001:000453ea       ?QueryInterface@FmtObjDlg@@UAAJABUGUID@@PAPAX@Z 100463ea f drformat.obj
 0001:00045418       __nep??0FmtObjDlg@@QAA@XZ  10046418 f drformat.obj
 0001:00045418       __pcd_tbl??0FmtObjDlg@@QAA@XZ 10046418 f drformat.obj
 0001:00045420       __fh??0FmtObjDlg@@QAA@XZ   10046420 f drformat.obj
 0001:00045422       ??0FmtObjDlg@@QAA@XZ       10046422 f drformat.obj
 0001:000454c0       __pcd_tbl?Free@FmtObjDlg@@UAAXXZ 100464c0 f drformat.obj
 0001:000454cc       __nep?Free@FmtObjDlg@@UAAXXZ 100464cc f drformat.obj
 0001:000454d4       __fh?Free@FmtObjDlg@@UAAXXZ 100464d4 f drformat.obj
 0001:000454d6       ?Free@FmtObjDlg@@UAAXXZ    100464d6 f drformat.obj
 0001:00045508       __pcd_tbl?ResetMask@FmtObjDlg@@QAAXXZ 10046508 f drformat.obj
 0001:00045508       __nep?ResetMask@FmtObjDlg@@QAAXXZ 10046508 f drformat.obj
 0001:00045510       __fh?ResetMask@FmtObjDlg@@QAAXXZ 10046510 f drformat.obj
 0001:00045512       ?ResetMask@FmtObjDlg@@QAAXXZ 10046512 f drformat.obj
 0001:000455fc       __pcd_tbl?FSetup@FmtObjDlg@@UAAHPAUIMsoDrawingSelection@@PAUIMsoDrawingUserInterface@@@Z 100465fc f drformat.obj
 0001:00045618       __nep?FSetup@FmtObjDlg@@UAAHPAUIMsoDrawingSelection@@PAUIMsoDrawingUserInterface@@@Z 10046618 f drformat.obj
 0001:00045620       __fh?FSetup@FmtObjDlg@@UAAHPAUIMsoDrawingSelection@@PAUIMsoDrawingUserInterface@@@Z 10046620 f drformat.obj
 0001:00045622       ?FSetup@FmtObjDlg@@UAAHPAUIMsoDrawingSelection@@PAUIMsoDrawingUserInterface@@@Z 10046622 f drformat.obj
 0001:00045784       __pcd_tbl?SetLinePatternFill@@YAXPAUMSOPSFillStyle@@@Z 10046784 f drformat.obj
 0001:000457a4       __nep?SetLinePatternFill@@YAXPAUMSOPSFillStyle@@@Z 100467a4 f drformat.obj
 0001:000457ac       __fh?SetLinePatternFill@@YAXPAUMSOPSFillStyle@@@Z 100467ac f drformat.obj
 0001:000457ae       ?SetLinePatternFill@@YAXPAUMSOPSFillStyle@@@Z 100467ae f drformat.obj
 0001:00045838       __pcd_tbl?DoDlgMoreColor@@YAXKJIIIW4MSODGCID@@PAVDGUI@@@Z 10046838 f drformat.obj
 0001:00045854       __nep?DoDlgMoreColor@@YAXKJIIIW4MSODGCID@@PAVDGUI@@@Z 10046854 f drformat.obj
 0001:0004585c       __fh?DoDlgMoreColor@@YAXKJIIIW4MSODGCID@@PAVDGUI@@@Z 1004685c f drformat.obj
 0001:0004585e       ?DoDlgMoreColor@@YAXKJIIIW4MSODGCID@@PAVDGUI@@@Z 1004685e f drformat.obj
 0001:00045910       __pcd_tbl?DoDlgFillEffect@@YAXPAUMSOPSFillStyle@@PAVDGUI@@@Z 10046910 f drformat.obj
 0001:00045948       __nep?DoDlgFillEffect@@YAXPAUMSOPSFillStyle@@PAVDGUI@@@Z 10046948 f drformat.obj
 0001:00045950       __fh?DoDlgFillEffect@@YAXPAUMSOPSFillStyle@@PAVDGUI@@@Z 10046950 f drformat.obj
 0001:00045952       ?DoDlgFillEffect@@YAXPAUMSOPSFillStyle@@PAVDGUI@@@Z 10046952 f drformat.obj
 0001:00045a30       __pcd_tbl?GetColorTarget@@YAXW4MSODGCID@@PAI11@Z 10046a30 f drformat.obj
 0001:00045a30       __nep?GetColorTarget@@YAXW4MSODGCID@@PAI11@Z 10046a30 f drformat.obj
 0001:00045a38       __fh?GetColorTarget@@YAXW4MSODGCID@@PAI11@Z 10046a38 f drformat.obj
 0001:00045a3a       ?GetColorTarget@@YAXW4MSODGCID@@PAI11@Z 10046a3a f drformat.obj
 0001:00045a84       __pcd_tbl?SetFillColor@FmtObjDlg@@UAAXPAUMSODLGColorStyle@@W4MSODGCID@@@Z 10046a84 f drformat.obj
 0001:00045a8c       __nep?SetFillColor@FmtObjDlg@@UAAXPAUMSODLGColorStyle@@W4MSODGCID@@@Z 10046a8c f drformat.obj
 0001:00045a94       __fh?SetFillColor@FmtObjDlg@@UAAXPAUMSODLGColorStyle@@W4MSODGCID@@@Z 10046a94 f drformat.obj
 0001:00045a96       ?SetFillColor@FmtObjDlg@@UAAXPAUMSODLGColorStyle@@W4MSODGCID@@@Z 10046a96 f drformat.obj
 0001:00045aa8       __pcd_tbl?SetFillEffect@FmtObjDlg@@UAAXPAUMSOPSFillStyle@@@Z 10046aa8 f drformat.obj
 0001:00045aac       __nep?SetFillEffect@FmtObjDlg@@UAAXPAUMSOPSFillStyle@@@Z 10046aac f drformat.obj
 0001:00045ab4       __fh?SetFillEffect@FmtObjDlg@@UAAXPAUMSOPSFillStyle@@@Z 10046ab4 f drformat.obj
 0001:00045ab6       ?SetFillEffect@FmtObjDlg@@UAAXPAUMSOPSFillStyle@@@Z 10046ab6 f drformat.obj
 0001:00045abc       __pcd_tbl?GetTabIndex@FmtObjDlg@@UAAHXZ 10046abc f drformat.obj
 0001:00045abc       __nep?GetTabIndex@FmtObjDlg@@UAAHXZ 10046abc f drformat.obj
 0001:00045ac4       __fh?GetTabIndex@FmtObjDlg@@UAAHXZ 10046ac4 f drformat.obj
 0001:00045ac6       ?GetTabIndex@FmtObjDlg@@UAAHXZ 10046ac6 f drformat.obj
 0001:00045acc       __pcd_tbl?SetLineFillPattern@FmtObjDlg@@UAAXPAUMSOPSLineStyle@@@Z 10046acc f drformat.obj
 0001:00045ad4       __nep?SetLineFillPattern@FmtObjDlg@@UAAXPAUMSOPSLineStyle@@@Z 10046ad4 f drformat.obj
 0001:00045adc       __fh?SetLineFillPattern@FmtObjDlg@@UAAXPAUMSOPSLineStyle@@@Z 10046adc f drformat.obj
 0001:00045adf       ?SetLineFillPattern@FmtObjDlg@@UAAXPAUMSOPSLineStyle@@@Z 10046adf f drformat.obj
 0001:00045af4       __pcd_tbl?SetRecolor@FmtObjDlg@@UAAXPAU_MSORECOLORINFO@@@Z 10046af4 f drformat.obj
 0001:00045af4       __nep?SetRecolor@FmtObjDlg@@UAAXPAU_MSORECOLORINFO@@@Z 10046af4 f drformat.obj
 0001:00045afc       __fh?SetRecolor@FmtObjDlg@@UAAXPAU_MSORECOLORINFO@@@Z 10046afc f drformat.obj
 0001:00045afe       ?SetRecolor@FmtObjDlg@@UAAXPAU_MSORECOLORINFO@@@Z 10046afe f drformat.obj
 0001:00045b64       __pcd_tbl?AvoidDialog@FmtObjDlg@@UAAXPAUIMsoDrawingUserInterface@@@Z 10046b64 f drformat.obj
 0001:00045b68       __nep?AvoidDialog@FmtObjDlg@@UAAXPAUIMsoDrawingUserInterface@@@Z 10046b68 f drformat.obj
 0001:00045b70       __fh?AvoidDialog@FmtObjDlg@@UAAXPAUIMsoDrawingUserInterface@@@Z 10046b70 f drformat.obj
 0001:00045b72       ?AvoidDialog@FmtObjDlg@@UAAXPAUIMsoDrawingUserInterface@@@Z 10046b72 f drformat.obj
 0001:00045b78       __pcd_tbl?GetWindow@FmtObjDlg@@UAAPAUHWND__@@XZ 10046b78 f drformat.obj
 0001:00045b7c       __nep?GetWindow@FmtObjDlg@@UAAPAUHWND__@@XZ 10046b7c f drformat.obj
 0001:00045b84       __fh?GetWindow@FmtObjDlg@@UAAPAUHWND__@@XZ 10046b84 f drformat.obj
 0001:00045b86       ?GetWindow@FmtObjDlg@@UAAPAUHWND__@@XZ 10046b86 f drformat.obj
 0001:00045b88       __pcd_tbl?FDebugMessage@FmtObjDlg@@UAAHPAUMSOINST@@IIJ@Z 10046b88 f drformat.obj
 0001:00045b88       __nep?FDebugMessage@FmtObjDlg@@UAAHPAUMSOINST@@IIJ@Z 10046b88 f drformat.obj
 0001:00045b90       __fh?FDebugMessage@FmtObjDlg@@UAAHPAUMSOINST@@IIJ@Z 10046b90 f drformat.obj
 0001:00045b92       ?FDebugMessage@FmtObjDlg@@UAAHPAUMSOINST@@IIJ@Z 10046b92 f drformat.obj
 0001:00045b98       __pcd_tbl?FIsMsgForPPTFormatObj@@YAHPAUtagMSG@@@Z 10046b98 f drformat.obj
 0001:00045ba4       __nep?FIsMsgForPPTFormatObj@@YAHPAUtagMSG@@@Z 10046ba4 f drformat.obj
 0001:00045bac       __fh?FIsMsgForPPTFormatObj@@YAHPAUtagMSG@@@Z 10046bac f drformat.obj
 0001:00045bae       ?FIsMsgForPPTFormatObj@@YAHPAUtagMSG@@@Z 10046bae f drformat.obj
 0001:00045be0       __nep?FNinchCleanCabVals@@YAHPAPAX0QBU_EINV@@H@Z 10046be0 f drformat.obj
 0001:00045be0       __pcd_tbl?FNinchCleanCabVals@@YAHPAPAX0QBU_EINV@@H@Z 10046be0 f drformat.obj
 0001:00045be8       __fh?FNinchCleanCabVals@@YAHPAPAX0QBU_EINV@@H@Z 10046be8 f drformat.obj
 0001:00045bea       ?FNinchCleanCabVals@@YAHPAPAX0QBU_EINV@@H@Z 10046bea f drformat.obj
 0001:00045c18       __nep?CopyCabVals@@YAXPAPAX0QBU_EINV@@H@Z 10046c18 f drformat.obj
 0001:00045c18       __pcd_tbl?CopyCabVals@@YAXPAPAX0QBU_EINV@@H@Z 10046c18 f drformat.obj
 0001:00045c20       __fh?CopyCabVals@@YAXPAPAX0QBU_EINV@@H@Z 10046c20 f drformat.obj
 0001:00045c22       ?CopyCabVals@@YAXPAPAX0QBU_EINV@@H@Z 10046c22 f drformat.obj
 0001:00045c44       __pcd_tbl?FNinchFillColor@@YAHPAPAU_cabfmtobj@@0@Z 10046c44 f drformat.obj
 0001:00045c44       __nep?FNinchFillColor@@YAHPAPAU_cabfmtobj@@0@Z 10046c44 f drformat.obj
 0001:00045c4c       __fh?FNinchFillColor@@YAHPAPAU_cabfmtobj@@0@Z 10046c4c f drformat.obj
 0001:00045c4e       ?FNinchFillColor@@YAHPAPAU_cabfmtobj@@0@Z 10046c4e f drformat.obj
 0001:00045cac       __nep?FNinchFillLineColor@@YAHPAPAU_cabfmtobj@@0@Z 10046cac f drformat.obj
 0001:00045cac       __pcd_tbl?FNinchFillLineColor@@YAHPAPAU_cabfmtobj@@0@Z 10046cac f drformat.obj
 0001:00045cb4       __fh?FNinchFillLineColor@@YAHPAPAU_cabfmtobj@@0@Z 10046cb4 f drformat.obj
 0001:00045cb6       ?FNinchFillLineColor@@YAHPAPAU_cabfmtobj@@0@Z 10046cb6 f drformat.obj
 0001:00045ce0       __pcd_tbl?FRun@FmtObjDlg@@UAAHXZ 10046ce0 f drformat.obj
 0001:00045cf8       __nep?FRun@FmtObjDlg@@UAAHXZ 10046cf8 f drformat.obj
 0001:00045d00       __fh?FRun@FmtObjDlg@@UAAHXZ 10046d00 f drformat.obj
 0001:00045d02       ?FRun@FmtObjDlg@@UAAHXZ    10046d02 f drformat.obj
 0001:00045d98       __pcd_tbl?FEndFmtObjDlg@FmtObjDlg@@QAAHPAPAU_cabfmtobj@@H@Z 10046d98 f drformat.obj
 0001:00045dc4       __nep?FEndFmtObjDlg@FmtObjDlg@@QAAHPAPAU_cabfmtobj@@H@Z 10046dc4 f drformat.obj
 0001:00045dcc       __fh?FEndFmtObjDlg@FmtObjDlg@@QAAHPAPAU_cabfmtobj@@H@Z 10046dcc f drformat.obj
 0001:00045dce       ?FEndFmtObjDlg@FmtObjDlg@@QAAHPAPAU_cabfmtobj@@H@Z 10046dce f drformat.obj
 0001:00045e54       __pcd_tbl?FSetCurrent@FmtObjDlg@@UAAHXZ 10046e54 f drformat.obj
 0001:00045e58       __nep?FSetCurrent@FmtObjDlg@@UAAHXZ 10046e58 f drformat.obj
 0001:00045e60       __fh?FSetCurrent@FmtObjDlg@@UAAHXZ 10046e60 f drformat.obj
 0001:00045e62       ?FSetCurrent@FmtObjDlg@@UAAHXZ 10046e62 f drformat.obj
 0001:00045e70       __pcd_tbl?FEndDlg@FmtObjDlg@@UAAHPAH@Z 10046e70 f drformat.obj
 0001:00045e84       __nep?FEndDlg@FmtObjDlg@@UAAHPAH@Z 10046e84 f drformat.obj
 0001:00045e8c       __fh?FEndDlg@FmtObjDlg@@UAAHPAH@Z 10046e8c f drformat.obj
 0001:00045e8e       ?FEndDlg@FmtObjDlg@@UAAHPAH@Z 10046e8e f drformat.obj
 0001:00045eb8       __pcd_tbl?Set@FmtObjDlg@@UAAXPAUMSOTTOBJPARAM@@@Z 10046eb8 f drformat.obj
 0001:00045eb8       __nep?Set@FmtObjDlg@@UAAXPAUMSOTTOBJPARAM@@@Z 10046eb8 f drformat.obj
 0001:00045ec0       __fh?Set@FmtObjDlg@@UAAXPAUMSOTTOBJPARAM@@@Z 10046ec0 f drformat.obj
 0001:00045ec2       ?Set@FmtObjDlg@@UAAXPAUMSOTTOBJPARAM@@@Z 10046ec2 f drformat.obj
 0001:00045f10       __pcd_tbl?FGetCenter@FmtObjDlg@@AAAHPAUtagPOINT@@@Z 10046f10 f drformat.obj
 0001:00045f10       __nep?FGetCenter@FmtObjDlg@@AAAHPAUtagPOINT@@@Z 10046f10 f drformat.obj
 0001:00045f18       __fh?FGetCenter@FmtObjDlg@@AAAHPAUtagPOINT@@@Z 10046f18 f drformat.obj
 0001:00045f1a       ?FGetCenter@FmtObjDlg@@AAAHPAUtagPOINT@@@Z 10046f1a f drformat.obj
 0001:00045f74       __pcd_tbl?Get@FmtObjDlg@@UAAXPAUMSOTTOBJPARAM@@@Z 10046f74 f drformat.obj
 0001:00045f7c       __nep?Get@FmtObjDlg@@UAAXPAUMSOTTOBJPARAM@@@Z 10046f7c f drformat.obj
 0001:00045f84       __fh?Get@FmtObjDlg@@UAAXPAUMSOTTOBJPARAM@@@Z 10046f84 f drformat.obj
 0001:00045f86       ?Get@FmtObjDlg@@UAAXPAUMSOTTOBJPARAM@@@Z 10046f86 f drformat.obj
 0001:0004607c       __pcd_tbl?EnableResolutionDropdown@@YAXXZ 1004707c f drformat.obj
 0001:00046084       __nep?EnableResolutionDropdown@@YAXXZ 10047084 f drformat.obj
 0001:0004608c       __fh?EnableResolutionDropdown@@YAXXZ 1004708c f drformat.obj
 0001:0004608e       ?EnableResolutionDropdown@@YAXXZ 1004708e f drformat.obj
 0001:000460a0       __pcd_tbl?InitDlg@@YAXXZ   100470a0 f drformat.obj
 0001:000460a8       __nep?InitDlg@@YAXXZ       100470a8 f drformat.obj
 0001:000460b0       __fh?InitDlg@@YAXXZ        100470b0 f drformat.obj
 0001:000460b2       ?InitDlg@@YAXXZ            100470b2 f drformat.obj
 0001:000460d0       __pcd_tbl?GetSize@@YAXW4MsoMonitorSize@@PAUtagRECT@@@Z 100470d0 f drformat.obj
 0001:000460d0       __nep?GetSize@@YAXW4MsoMonitorSize@@PAUtagRECT@@@Z 100470d0 f drformat.obj
 0001:000460d8       __fh?GetSize@@YAXW4MsoMonitorSize@@PAUtagRECT@@@Z 100470d8 f drformat.obj
 0001:000460da       ?GetSize@@YAXW4MsoMonitorSize@@PAUtagRECT@@@Z 100470da f drformat.obj
 0001:00046154       __pcd_tbl?CenterWithin@@YAXPAUtagRECT@@0@Z 10047154 f drformat.obj
 0001:00046158       __nep?CenterWithin@@YAXPAUtagRECT@@0@Z 10047158 f drformat.obj
 0001:00046160       __fh?CenterWithin@@YAXPAUtagRECT@@0@Z 10047160 f drformat.obj
 0001:00046162       ?CenterWithin@@YAXPAUtagRECT@@0@Z 10047162 f drformat.obj
 0001:0004618c       __pcd_tbl?ScaleWithin@@YAXPAUtagRECT@@0@Z 1004718c f drformat.obj
 0001:00046194       __nep?ScaleWithin@@YAXPAUtagRECT@@0@Z 10047194 f drformat.obj
 0001:0004619c       __fh?ScaleWithin@@YAXPAUtagRECT@@0@Z 1004719c f drformat.obj
 0001:0004619e       ?ScaleWithin@@YAXPAUtagRECT@@0@Z 1004719e f drformat.obj
 0001:000461e4       __pcd_tbl?GetBestScale@@YAXPAUtagRECT@@0PAH@Z 100471e4 f drformat.obj
 0001:000461ec       __nep?GetBestScale@@YAXPAUtagRECT@@0PAH@Z 100471ec f drformat.obj
 0001:000461f4       __fh?GetBestScale@@YAXPAUtagRECT@@0PAH@Z 100471f4 f drformat.obj
 0001:000461f6       ?GetBestScale@@YAXPAUtagRECT@@0PAH@Z 100471f6 f drformat.obj
 0001:00046238       __pcd_tbl?UpdateScalePercents@@YAXW4MsoMonitorSize@@H@Z 10047238 f drformat.obj
 0001:00046240       __nep?UpdateScalePercents@@YAXW4MsoMonitorSize@@H@Z 10047240 f drformat.obj
 0001:00046248       __fh?UpdateScalePercents@@YAXW4MsoMonitorSize@@H@Z 10047248 f drformat.obj
 0001:0004624a       ?UpdateScalePercents@@YAXW4MsoMonitorSize@@H@Z 1004724a f drformat.obj
 0001:0004625c       __pcd_tbl?HandleScale@@YAXI@Z 1004725c f drformat.obj
 0001:0004626c       __nep?HandleScale@@YAXI@Z  1004726c f drformat.obj
 0001:00046274       __fh?HandleScale@@YAXI@Z   10047274 f drformat.obj
 0001:00046276       ?HandleScale@@YAXI@Z       10047276 f drformat.obj
 0001:000462ac       __pcd_tbl_FDlgFmtObjProc   100472ac f drformat.obj
 0001:000462f0       __nep_FDlgFmtObjProc       100472f0 f drformat.obj
 0001:000462f8       __fh_FDlgFmtObjProc        100472f8 f drformat.obj
 0001:000462fa       _FDlgFmtObjProc            100472fa f drformat.obj
 0001:000463dc       __pcd_tbl_FFmtObjItemProc  100473dc f drformat.obj
 0001:000463e4       __nep_FFmtObjItemProc      100473e4 f drformat.obj
 0001:000463ec       __fh_FFmtObjItemProc       100473ec f drformat.obj
 0001:000463ee       _FFmtObjItemProc           100473ee f drformat.obj
 0001:00046400       __pcd_tbl_wParseProcPPT    10047400 f drformat.obj
 0001:00046404       __nep_wParseProcPPT        10047404 f drformat.obj
 0001:0004640c       __fh_wParseProcPPT         1004740c f drformat.obj
 0001:0004640e       _wParseProcPPT             1004740e f drformat.obj
 0001:00046418       __pcd_tbl_WRenderLinePPT   10047418 f drformat.obj
 0001:0004641c       __nep_WRenderLinePPT       1004741c f drformat.obj
 0001:00046424       __fh_WRenderLinePPT        10047424 f drformat.obj
 0001:00046426       _WRenderLinePPT            10047426 f drformat.obj
 0001:00046430       __pcd_tbl_WListStt         10047430 f drformat.obj
 0001:00046438       __nep_WListStt             10047438 f drformat.obj
 0001:00046440       __fh_WListStt              10047440 f drformat.obj
 0001:00046442       _WListStt                  10047442 f drformat.obj
 0001:00046450       __pcd_tbl_WPicContainer    10047450 f drformat.obj
 0001:00046458       __nep_WPicContainer        10047458 f drformat.obj
 0001:00046460       __fh_WPicContainer         10047460 f drformat.obj
 0001:00046462       _WPicContainer             10047462 f drformat.obj
 0001:00046474       ?FSubtractRgnFromRgnRc@@YAHPAPAUHRGN__@@PAUtagRECT@@PAU1@@Z 10047474 f drdm.obj
 0001:000465d8       _MsoInitDmsi               100475d8 f drdm.obj
 0001:00046658       _MsoFCreateDisplayManager  10047658 f drdm.obj
 0001:000468b8       ?QueryInterface@DM@@UAAJABUGUID@@PAPAX@Z 100478b8 f drdm.obj
 0001:00046920       ?FDebugMessage@DM@@UAAHPAUMSOINST@@IIJ@Z 10047920 f drdm.obj
 0001:00046974       ?Free@DM@@UAAXXZ           10047974 f drdm.obj
 0001:00046af8       ?PdmsiBeginUpdate@DM@@UAAPAU_MSODMSI@@H@Z 10047af8 f drdm.obj
 0001:00046b50       ?EndDmsiUpdate@DM@@UAAXPAU_MSODMSI@@H@Z 10047b50 f drdm.obj
 0001:00046ba0       ?ConvertPtwToPtv@DM@@UAAXPBUtagPOINT@@PAU2@H@Z 10047ba0 f drdm.obj
 0001:00046c5c       ?ConvertPtvToPtw@DM@@UAAXPBUtagPOINT@@PAU2@H@Z 10047c5c f drdm.obj
 0001:00046d08       ?GetPtwOrigin@DM@@UAAXPAUtagPOINT@@@Z 10047d08 f drdm.obj
 0001:00046d68       ?GetRcvBounds@DM@@UAAXPAUtagRECT@@@Z 10047d68 f drdm.obj
 0001:00046dd8       ?GetRcwVisible@DM@@UAAXPAUtagRECT@@@Z 10047dd8 f drdm.obj
 0001:00046e48       ?GetRcvVisible@DM@@UAAXPAUtagRECT@@@Z 10047e48 f drdm.obj
 0001:00046ee4       ?FNeedsUpdate@DM@@UAAHXZ   10047ee4 f drdm.obj
 0001:00046f48       ?FInitUpdate@DM@@UAAHPAUMSODMUB@@@Z 10047f48 f drdm.obj
 0001:00046ffc       ?FInitDmu@DM@@QAAHXZ       10047ffc f drdm.obj
 0001:000470cc       ?FPlanUpdate@DM@@UAAHPAUMSODMUB@@@Z 100480cc f drdm.obj
 0001:00047c58       ?FDoUpdate@DM@@UAAHPAUMSODMUB@@@Z 10048c58 f drdm.obj
 0001:000486bc       ?ValidateDisplayElementSets@DM@@QAAXXZ 100496bc f drdm.obj
 0001:00048810       ?MakeNewCacheDuringUpdate@DM@@QAAXPAUMSODC@@@Z 10049810 f drdm.obj
 0001:00048e9c       ?FClipDuringUpdate@DM@@QAAHPAUMSODC@@PAUtagRECT@@PAUHRGN__@@PAH@Z 10049e9c f drdm.obj
 0001:00048ff4       ?DrawDeiDuringUpdate@DM@@QAAXPAUMSODC@@PAUtagRECT@@PAUHRGN__@@PAUDEI@@3K@Z 10049ff4 f drdm.obj
 0001:000492a8       ?FBltToFromCacheDuringUpdate@DM@@QAAHPAUMSODC@@PAUtagRECT@@PAUHRGN__@@H@Z 1004a2a8 f drdm.obj
 0001:000493fc       ?FBltToFromDmcDuringUpdate@DM@@QAAHHPAUDMC@@PAUMSODC@@PAUtagRECT@@PAUHRGN__@@PAUHDC__@@PAH55@Z 1004a3fc f drdm.obj
 0001:000497f8       ?FreeUpdate@DM@@UAAXPAUMSODMUB@@@Z 1004a7f8 f drdm.obj
 0001:00049848       ?FreeDmu@DM@@QAAXXZ        1004a848 f drdm.obj
 0001:00049950       ?FGetRcvVisible@DM@@QAAHPAUtagRECT@@@Z 1004a950 f drdm.obj
 0001:000499ec       ?Update@DM@@UAAXH@Z        1004a9ec f drdm.obj
 0001:00049a50       ?Draw@DM@@UAAXPAUMSODC@@PAUtagRECT@@HH@Z 1004aa50 f drdm.obj
 0001:00049b04       ?FPaint@DM@@UAAHPAUMSODC@@PAUtagRECT@@PAUHRGN__@@K@Z 1004ab04 f drdm.obj
 0001:0004a110       ?FNeedsPaint@DM@@UAAHXZ    1004b110 f drdm.obj
 0001:0004a1e0       ?FGetOpaqueRegion@DM@@UAAHPAPAUHRGN__@@@Z 1004b1e0 f drdm.obj
 0001:0004a3b8       ?ResetOpaqueRegion@DM@@UAAXXZ 1004b3b8 f drdm.obj
 0001:0004a44c       ?SetErrorOpaqueRegion@DM@@UAAXXZ 1004b44c f drdm.obj
 0001:0004a4e4       ?FErrorOpaqueRegion@DM@@UAAHXZ 1004b4e4 f drdm.obj
 0001:0004a544       ?MarkDisplayElement@DM@@UAAXPAXH@Z 1004b544 f drdm.obj
 0001:0004a5b4       ?FIsDisplayElementMarked@DM@@UAAHPAX@Z 1004b5b4 f drdm.obj
 0001:0004a61c       ?MarkAllDisplayElements@DM@@UAAXH@Z 1004b61c f drdm.obj
 0001:0004a708       ?FMarkNonOpaqueDisplayElements@DM@@UAAHPAUtagRECT@@H@Z 1004b708 f drdm.obj
 0001:0004a8ec       ?MarkedSomeDei@DM@@QAAXH@Z 1004b8ec f drdm.obj
 0001:0004a978       ?OffsetDisplayElement@DM@@UAAXPAXHH@Z 1004b978 f drdm.obj
 0001:0004aab8       ?GrfdmqdeQueryDisplayElement@DM@@UAAKPAXK@Z 1004bab8 f drdm.obj
 0001:0004ab64       ?DrawMeta@DM@@UAAXPAUMSODC@@@Z 1004bb64 f drdm.obj
 0001:0004abcc       ?UpdateCore@DM@@QAAXW4DMUCC@@PAUMSODC@@PAUtagRECT@@HHH@Z 1004bbcc f drdm.obj
 0001:0004b394       ?Invalidate@DM@@UAAXKPAUtagRECT@@PAUHRGN__@@@Z 1004c394 f drdm.obj
 0001:0004b508       ?InvalidateRcv@DM@@QAAXKPAUtagRECT@@@Z 1004c508 f drdm.obj
 0001:0004b63c       ?InvalidateWindow@DM@@UAAXXZ 1004c63c f drdm.obj
 0001:0004b7e4       ?InvalidateWindowRgnvRcv@DM@@QAAXPAUHRGN__@@PAUtagRECT@@@Z 1004c7e4 f drdm.obj
 0001:0004b9bc       ?ValidateAll@DM@@QAAXXZ    1004c9bc f drdm.obj
 0001:0004bb10       ?ValidateArea@DM@@QAAXPAUHRGN__@@@Z 1004cb10 f drdm.obj
 0001:0004bc6c       ?FHitTest@DM@@UAAHPAU_MSODMHD@@PAUtagPOINT@@HIPAHHK@Z 1004cc6c f drdm.obj
 0001:0004c128       ?FRegisterDisplayElementSet@DM@@UAAHPAUIMsoDisplayElementSet@@PAX@Z 1004d128 f drdm.obj
 0001:0004c28c       ?UnregisterDisplayElementSet@DM@@UAAXH@Z 1004d28c f drdm.obj
 0001:0004c3dc       ?GetDisplayElementSetPvDes@DM@@UAAXHPAPAX@Z 1004d3dc f drdm.obj
 0001:0004c44c       ?SetDisplayElementSetPvDes@DM@@UAAXHPAX@Z 1004d44c f drdm.obj
 0001:0004c4b8       ?InvalidateDisplayElementSet@DM@@UAAXH@Z 1004d4b8 f drdm.obj
 0001:0004c540       ?UnregisterAllDisplayElementsInSet@DM@@UAAXH@Z 1004d540 f drdm.obj
 0001:0004c658       ?PurgeUnregisteredDei@DM@@QAAXXZ 1004d658 f drdm.obj
 0001:0004c77c       ?FRegisterDisplayElement@DM@@UAAHHPAXKH0@Z 1004d77c f drdm.obj
 0001:0004c8dc       ?UnregisterDisplayElement@DM@@UAAXPAX@Z 1004d8dc f drdm.obj
 0001:0004caa8       ?GetDisplayElementPvDe@DM@@UAAXPAXPAPAX@Z 1004daa8 f drdm.obj
 0001:0004cb24       ?SetDisplayElementPvDe@DM@@UAAXPAX0@Z 1004db24 f drdm.obj
 0001:0004cb98       ?FIsDisplayElementVisible@DM@@UAAHPAX@Z 1004db98 f drdm.obj
 0001:0004cc00       ?SetDisplayElementVisible@DM@@UAAXPAXH@Z 1004dc00 f drdm.obj
 0001:0004cc88       ?FInvalidateDisplayElement@DM@@UAAHPAXKPAUtagRECT@@@Z 1004dc88 f drdm.obj
 0001:0004cce8       ?FGetDeiOpaqueRgn@DM@@QAAHPAUDEI@@PAPAUHRGN__@@@Z 1004dce8 f drdm.obj
 0001:0004ce48       ?FUnionDeiCoverageRgn@DM@@QAAHPAUDEI@@W4MSOCVRK@@PAPAUHRGN__@@@Z 1004de48 f drdm.obj
 0001:0004cf0c       ?FBeginDisplayElementUpdate@DM@@UAAHPAXPAUMSODC@@@Z 1004df0c f drdm.obj
 0001:0004d178       ?EndDisplayElementUpdate@DM@@UAAXPAXPAUMSODC@@@Z 1004e178 f drdm.obj
 0001:0004d230       ?MoveDisplayElementZOrder@DM@@UAAXPAXKH0@Z 1004e230 f drdm.obj
 0001:0004d2dc       ?FCreateDei@DM@@QAAHPAPAUDEI@@@Z 1004e2dc f drdm.obj
 0001:0004d36c       ?FreeDei@DM@@QAAXPAUDEI@@@Z 1004e36c f drdm.obj
 0001:0004d3e8       ?FExtendDei@DM@@QAAHPAUDEI@@@Z 1004e3e8 f drdm.obj
 0001:0004d4a4       ?UnextendDei@DM@@QAAXPAUDEI@@@Z 1004e4a4 f drdm.obj
 0001:0004d554       ?FreeDeix@DM@@QAAXPAUDEIX@@@Z 1004e554 f drdm.obj
 0001:0004d648       ?FGetRcvInvalidDrawOfDei@DM@@QAAHPAUDEI@@PAUtagRECT@@@Z 1004e648 f drdm.obj
 0001:0004d6f4       ?FSetRcvInvalidDrawOfDei@DM@@QAAHPAUDEI@@PAUtagRECT@@@Z 1004e6f4 f drdm.obj
 0001:0004d7f4       ?FGetRcvInvalidEraseOfDei@DM@@QAAHPAUDEI@@PAUtagRECT@@@Z 1004e7f4 f drdm.obj
 0001:0004d8a0       ?FSetRcvInvalidEraseOfDei@DM@@QAAHPAUDEI@@PAUtagRECT@@@Z 1004e8a0 f drdm.obj
 0001:0004d9a0       ?FGetPdmcOfDei@DM@@QAAHPAUDEI@@PAPAUDMC@@@Z 1004e9a0 f drdm.obj
 0001:0004da24       ?FSetPdmcOfDei@DM@@QAAHPAUDEI@@PAUDMC@@@Z 1004ea24 f drdm.obj
 0001:0004daa8       ?ClearPdmcOfDei@DM@@QAAXPAUDEI@@@Z 1004eaa8 f drdm.obj
 0001:0004db14       ?PutDeiInList@DM@@QAAXPAUDEI@@KHPAX@Z 1004eb14 f drdm.obj
 0001:0004dd24       ?RemoveDeiFromList@DM@@QAAXPAUDEI@@@Z 1004ed24 f drdm.obj
 0001:0004ddfc       ?PdeiFirstCore@DM@@QAAPAUDEI@@HH@Z 1004edfc f drdm.obj
 0001:0004de84       ?PdeiLastCore@DM@@QAAPAUDEI@@HH@Z 1004ee84 f drdm.obj
 0001:0004df00       ?PdeiFirstXORVisible@DM@@QAAPAUDEI@@XZ 1004ef00 f drdm.obj
 0001:0004dfe0       ?FInvalidateDei@DM@@QAAHPAUDEI@@KPAUtagRECT@@@Z 1004efe0 f drdm.obj
 0001:0004e1e0       ?FGetDeiInvalidRgn@DM@@QAAHPAUDEI@@PAPAUHRGN__@@W4DMIK@@@Z 1004f1e0 f drdm.obj
 0001:0004e2bc       ?FGetDeiInvalidation@DM@@QAAHPAUDEI@@W4DMIK@@HPAPAUHRGN__@@PAUtagRECT@@PAH@Z 1004f2bc f drdm.obj
 0001:0004e7ac       ?ValidateDei@DM@@QAAXPAUDEI@@HH@Z 1004f7ac f drdm.obj
 0001:0004e87c       ?InitEvent@DM@@QAAXPAUMSODMEB@@W4MSODGE@@@Z 1004f87c f drdm.obj
 0001:0004e8d0       ?FFireEvent@DM@@QAAHPAUMSODMEB@@H@Z 1004f8d0 f drdm.obj
 0001:0004e96c       ?FGetDc@DM@@QAAHPAUMSODC@@PAUMSOSDCB@@K@Z 1004f96c f drdm.obj
 0001:0004eab4       ?ReleaseDc@DM@@QAAXPAUMSODC@@PAUMSOSDCB@@@Z 1004fab4 f drdm.obj
 0001:0004eb50       ?SyncInvalidState@DM@@QAAXXZ 1004fb50 f drdm.obj
 0001:0004ec30       __nep?Init@CST@@QAAXXZ     1004fc30 f drdrag.obj
 0001:0004ec30       __pcd_tbl?Init@CST@@QAAXXZ 1004fc30 f drdrag.obj
 0001:0004ec38       __fh?Init@CST@@QAAXXZ      1004fc38 f drdrag.obj
 0001:0004ec3a       ?Init@CST@@QAAXXZ          1004fc3a f drdrag.obj
 0001:0004ec60       __pcd_tbl?AddMinMax@CST@@QAAXJJJJ@Z 1004fc60 f drdrag.obj
 0001:0004ec64       __nep?AddMinMax@CST@@QAAXJJJJ@Z 1004fc64 f drdrag.obj
 0001:0004ec6c       __fh?AddMinMax@CST@@QAAXJJJJ@Z 1004fc6c f drdrag.obj
 0001:0004ec6e       ?AddMinMax@CST@@QAAXJJJJ@Z 1004fc6e f drdrag.obj
 0001:0004ecd4       __pcd_tbl?AddNotInRange@CST@@QAAXJJH@Z 1004fcd4 f drdrag.obj
 0001:0004ecd8       __nep?AddNotInRange@CST@@QAAXJJH@Z 1004fcd8 f drdrag.obj
 0001:0004ece0       __fh?AddNotInRange@CST@@QAAXJJH@Z 1004fce0 f drdrag.obj
 0001:0004ece2       ?AddNotInRange@CST@@QAAXJJH@Z 1004fce2 f drdrag.obj
 0001:0004ed94       __nep?AddLineCore@CST@@QAAXPAUtagPOINT@@0H@Z 1004fd94 f drdrag.obj
 0001:0004ed94       __pcd_tbl?AddLineCore@CST@@QAAXPAUtagPOINT@@0H@Z 1004fd94 f drdrag.obj
 0001:0004ed9c       __fh?AddLineCore@CST@@QAAXPAUtagPOINT@@0H@Z 1004fd9c f drdrag.obj
 0001:0004ed9e       ?AddLineCore@CST@@QAAXPAUtagPOINT@@0H@Z 1004fd9e f drdrag.obj
 0001:0004edc0       __pcd_tbl?Normalize@CST@@QAAXXZ 1004fdc0 f drdrag.obj
 0001:0004edc8       __nep?Normalize@CST@@QAAXXZ 1004fdc8 f drdrag.obj
 0001:0004edd0       __fh?Normalize@CST@@QAAXXZ 1004fdd0 f drdrag.obj
 0001:0004edd2       ?Normalize@CST@@QAAXXZ     1004fdd2 f drdrag.obj
 0001:0004ee34       __pcd_tbl?FConsistent@CST@@QAAHXZ 1004fe34 f drdrag.obj
 0001:0004ee38       __nep?FConsistent@CST@@QAAHXZ 1004fe38 f drdrag.obj
 0001:0004ee40       __fh?FConsistent@CST@@QAAHXZ 1004fe40 f drdrag.obj
 0001:0004ee42       ?FConsistent@CST@@QAAHXZ   1004fe42 f drdrag.obj
 0001:0004ee50       __pcd_tbl?Apply@CST@@QAAXPAUtagPOINT@@@Z 1004fe50 f drdrag.obj
 0001:0004ee60       __nep?Apply@CST@@QAAXPAUtagPOINT@@@Z 1004fe60 f drdrag.obj
 0001:0004ee68       __fh?Apply@CST@@QAAXPAUtagPOINT@@@Z 1004fe68 f drdrag.obj
 0001:0004ee6a       ?Apply@CST@@QAAXPAUtagPOINT@@@Z 1004fe6a f drdrag.obj
 0001:0004eeb0       __nep?ForcePthInRch@CST@@QAAXPAUtagPOINT@@PAUtagRECT@@@Z 1004feb0 f drdrag.obj
 0001:0004eeb0       __pcd_tbl?ForcePthInRch@CST@@QAAXPAUtagPOINT@@PAUtagRECT@@@Z 1004feb0 f drdrag.obj
 0001:0004eeb8       __fh?ForcePthInRch@CST@@QAAXPAUtagPOINT@@PAUtagRECT@@@Z 1004feb8 f drdrag.obj
 0001:0004eeba       ?ForcePthInRch@CST@@QAAXPAUtagPOINT@@PAUtagRECT@@@Z 1004feba f drdrag.obj
 0001:0004eeec       __pcd_tbl?ForcePthOnLine@CST@@QAAXPAUtagPOINT@@PAUtagRECT@@@Z 1004feec f drdrag.obj
 0001:0004eefc       __nep?ForcePthOnLine@CST@@QAAXPAUtagPOINT@@PAUtagRECT@@@Z 1004fefc f drdrag.obj
 0001:0004ef04       __fh?ForcePthOnLine@CST@@QAAXPAUtagPOINT@@PAUtagRECT@@@Z 1004ff04 f drdrag.obj
 0001:0004ef07       ?ForcePthOnLine@CST@@QAAXPAUtagPOINT@@PAUtagRECT@@@Z 1004ff07 f drdrag.obj
 0001:0004f0f0       __nep?DxyhEstimatePthToRch@CST@@QAAJPAUtagPOINT@@PAUtagRECT@@@Z 100500f0 f drdrag.obj
 0001:0004f0f0       __pcd_tbl?DxyhEstimatePthToRch@CST@@QAAJPAUtagPOINT@@PAUtagRECT@@@Z 100500f0 f drdrag.obj
 0001:0004f0f8       __fh?DxyhEstimatePthToRch@CST@@QAAJPAUtagPOINT@@PAUtagRECT@@@Z 100500f8 f drdrag.obj
 0001:0004f0fa       ?DxyhEstimatePthToRch@CST@@QAAJPAUtagPOINT@@PAUtagRECT@@@Z 100500fa f drdrag.obj
 0001:0004f138       __pcd_tbl?FIntersectLineRchCore@CST@@QAAHPAUtagPOINT@@0PAUtagRECT@@00@Z 10050138 f drdrag.obj
 0001:0004f148       __nep?FIntersectLineRchCore@CST@@QAAHPAUtagPOINT@@0PAUtagRECT@@00@Z 10050148 f drdrag.obj
 0001:0004f150       __fh?FIntersectLineRchCore@CST@@QAAHPAUtagPOINT@@0PAUtagRECT@@00@Z 10050150 f drdrag.obj
 0001:0004f152       ?FIntersectLineRchCore@CST@@QAAHPAUtagPOINT@@0PAUtagRECT@@00@Z 10050152 f drdrag.obj
 0001:0004f1f0       __pcd_tbl?FillBytePattern@@YAXPAEPBEII@Z 100501f0 f drdrag.obj
 0001:0004f1f0       __nep?FillBytePattern@@YAXPAEPBEII@Z 100501f0 f drdrag.obj
 0001:0004f1f8       __fh?FillBytePattern@@YAXPAEPBEII@Z 100501f8 f drdrag.obj
 0001:0004f1fa       ?FillBytePattern@@YAXPAEPBEII@Z 100501fa f drdrag.obj
 0001:0004f224       __nep??0EDS@@QAA@PAUHWND__@@H@Z 10050224 f drdrag.obj
 0001:0004f224       __pcd_tbl??0EDS@@QAA@PAUHWND__@@H@Z 10050224 f drdrag.obj
 0001:0004f22c       __fh??0EDS@@QAA@PAUHWND__@@H@Z 1005022c f drdrag.obj
 0001:0004f22e       ??0EDS@@QAA@PAUHWND__@@H@Z 1005022e f drdrag.obj
 0001:0004f24c       __nep?a@IUnknown@@UAAXXZ   1005024c f drdrag.obj
 0001:0004f24c       __pcd_tbl?a@IUnknown@@UAAXXZ 1005024c f drdrag.obj
 0001:0004f254       __fh?a@IUnknown@@UAAXXZ    10050254 f drdrag.obj
 0001:0004f256       ?a@IUnknown@@UAAXXZ        10050256 f drdrag.obj
 0001:0004f258       __pcd_tbl?a@IDropSource@@UAAXXZ 10050258 f drdrag.obj
 0001:0004f258       __nep?a@IDropSource@@UAAXXZ 10050258 f drdrag.obj
 0001:0004f260       __fh?a@IDropSource@@UAAXXZ 10050260 f drdrag.obj
 0001:0004f262       ?a@IDropSource@@UAAXXZ     10050262 f drdrag.obj
 0001:0004f284       __nep?QueryInterface@EDS@@UAAJABUGUID@@PAPAX@Z 10050284 f drdrag.obj
 0001:0004f284       __pcd_tbl?QueryInterface@EDS@@UAAJABUGUID@@PAPAX@Z 10050284 f drdrag.obj
 0001:0004f28c       __fh?QueryInterface@EDS@@UAAJABUGUID@@PAPAX@Z 1005028c f drdrag.obj
 0001:0004f28e       ?QueryInterface@EDS@@UAAJABUGUID@@PAPAX@Z 1005028e f drdrag.obj
 0001:0004f2e8       __pcd_tbl?AddRef@EDS@@UAAKXZ 100502e8 f drdrag.obj
 0001:0004f2e8       __nep?AddRef@EDS@@UAAKXZ   100502e8 f drdrag.obj
 0001:0004f2f0       __fh?AddRef@EDS@@UAAKXZ    100502f0 f drdrag.obj
 0001:0004f2f2       ?AddRef@EDS@@UAAKXZ        100502f2 f drdrag.obj
 0001:0004f2fc       __pcd_tbl?Release@EDS@@UAAKXZ 100502fc f drdrag.obj
 0001:0004f300       __nep?Release@EDS@@UAAKXZ  10050300 f drdrag.obj
 0001:0004f308       __fh?Release@EDS@@UAAKXZ   10050308 f drdrag.obj
 0001:0004f30a       ?Release@EDS@@UAAKXZ       1005030a f drdrag.obj
 0001:0004f318       __pcd_tbl?QueryContinueDrag@EDS@@UAAJHK@Z 10050318 f drdrag.obj
 0001:0004f320       __nep?QueryContinueDrag@EDS@@UAAJHK@Z 10050320 f drdrag.obj
 0001:0004f328       __fh?QueryContinueDrag@EDS@@UAAJHK@Z 10050328 f drdrag.obj
 0001:0004f32a       ?QueryContinueDrag@EDS@@UAAJHK@Z 1005032a f drdrag.obj
 0001:0004f350       __pcd_tbl?GiveFeedback@EDS@@UAAJK@Z 10050350 f drdrag.obj
 0001:0004f350       __nep?GiveFeedback@EDS@@UAAJK@Z 10050350 f drdrag.obj
 0001:0004f358       __fh?GiveFeedback@EDS@@UAAJK@Z 10050358 f drdrag.obj
 0001:0004f35a       ?GiveFeedback@EDS@@UAAJK@Z 1005035a f drdrag.obj
 0001:0004f360       __nep??0EDO@@QAA@XZ        10050360 f drdrag.obj
 0001:0004f360       __pcd_tbl??0EDO@@QAA@XZ    10050360 f drdrag.obj
 0001:0004f368       __fh??0EDO@@QAA@XZ         10050368 f drdrag.obj
 0001:0004f36a       ??0EDO@@QAA@XZ             1005036a f drdrag.obj
 0001:0004f384       __pcd_tbl?a@IDataObject@@UAAXXZ 10050384 f drdrag.obj
 0001:0004f384       __nep?a@IDataObject@@UAAXXZ 10050384 f drdrag.obj
 0001:0004f38c       __fh?a@IDataObject@@UAAXXZ 1005038c f drdrag.obj
 0001:0004f38e       ?a@IDataObject@@UAAXXZ     1005038e f drdrag.obj
 0001:0004f390       __pcd_tbl??1EDO@@QAA@XZ    10050390 f drdrag.obj
 0001:0004f390       __nep??1EDO@@QAA@XZ        10050390 f drdrag.obj
 0001:0004f398       __fh??1EDO@@QAA@XZ         10050398 f drdrag.obj
 0001:0004f39a       ??1EDO@@QAA@XZ             1005039a f drdrag.obj
 0001:0004f3d8       __pcd_tbl?QueryInterface@EDO@@UAAJABUGUID@@PAPAX@Z 100503d8 f drdrag.obj
 0001:0004f3d8       __nep?QueryInterface@EDO@@UAAJABUGUID@@PAPAX@Z 100503d8 f drdrag.obj
 0001:0004f3e0       __fh?QueryInterface@EDO@@UAAJABUGUID@@PAPAX@Z 100503e0 f drdrag.obj
 0001:0004f3e2       ?QueryInterface@EDO@@UAAJABUGUID@@PAPAX@Z 100503e2 f drdrag.obj
 0001:0004f43c       __pcd_tbl?AddRef@EDO@@UAAKXZ 1005043c f drdrag.obj
 0001:0004f43c       __nep?AddRef@EDO@@UAAKXZ   1005043c f drdrag.obj
 0001:0004f444       __fh?AddRef@EDO@@UAAKXZ    10050444 f drdrag.obj
 0001:0004f446       ?AddRef@EDO@@UAAKXZ        10050446 f drdrag.obj
 0001:0004f450       __pcd_tbl?Release@EDO@@UAAKXZ 10050450 f drdrag.obj
 0001:0004f458       __nep?Release@EDO@@UAAKXZ  10050458 f drdrag.obj
 0001:0004f460       __fh?Release@EDO@@UAAKXZ   10050460 f drdrag.obj
 0001:0004f462       ?Release@EDO@@UAAKXZ       10050462 f drdrag.obj
 0001:0004f474       __pcd_tbl?GetData@EDO@@UAAJPAUtagFORMATETC@@PAUtagSTGMEDIUM@@@Z 10050474 f drdrag.obj
 0001:0004f484       __nep?GetData@EDO@@UAAJPAUtagFORMATETC@@PAUtagSTGMEDIUM@@@Z 10050484 f drdrag.obj
 0001:0004f48c       __fh?GetData@EDO@@UAAJPAUtagFORMATETC@@PAUtagSTGMEDIUM@@@Z 1005048c f drdrag.obj
 0001:0004f48e       ?GetData@EDO@@UAAJPAUtagFORMATETC@@PAUtagSTGMEDIUM@@@Z 1005048e f drdrag.obj
 0001:0004f5c4       __pcd_tbl?GetDataHere@EDO@@UAAJPAUtagFORMATETC@@PAUtagSTGMEDIUM@@@Z 100505c4 f drdrag.obj
 0001:0004f5c4       __nep?GetDataHere@EDO@@UAAJPAUtagFORMATETC@@PAUtagSTGMEDIUM@@@Z 100505c4 f drdrag.obj
 0001:0004f5cc       __fh?GetDataHere@EDO@@UAAJPAUtagFORMATETC@@PAUtagSTGMEDIUM@@@Z 100505cc f drdrag.obj
 0001:0004f5ce       ?GetDataHere@EDO@@UAAJPAUtagFORMATETC@@PAUtagSTGMEDIUM@@@Z 100505ce f drdrag.obj
 0001:0004f5d4       __nep?QueryGetData@EDO@@UAAJPAUtagFORMATETC@@@Z 100505d4 f drdrag.obj
 0001:0004f5d4       __pcd_tbl?QueryGetData@EDO@@UAAJPAUtagFORMATETC@@@Z 100505d4 f drdrag.obj
 0001:0004f5dc       __fh?QueryGetData@EDO@@UAAJPAUtagFORMATETC@@@Z 100505dc f drdrag.obj
 0001:0004f5de       ?QueryGetData@EDO@@UAAJPAUtagFORMATETC@@@Z 100505de f drdrag.obj
 0001:0004f638       __pcd_tbl?GetCanonicalFormatEtc@EDO@@UAAJPAUtagFORMATETC@@0@Z 10050638 f drdrag.obj
 0001:0004f638       __nep?GetCanonicalFormatEtc@EDO@@UAAJPAUtagFORMATETC@@0@Z 10050638 f drdrag.obj
 0001:0004f640       __fh?GetCanonicalFormatEtc@EDO@@UAAJPAUtagFORMATETC@@0@Z 10050640 f drdrag.obj
 0001:0004f642       ?GetCanonicalFormatEtc@EDO@@UAAJPAUtagFORMATETC@@0@Z 10050642 f drdrag.obj
 0001:0004f668       __nep?SetData@EDO@@UAAJPAUtagFORMATETC@@PAUtagSTGMEDIUM@@H@Z 10050668 f drdrag.obj
 0001:0004f668       __pcd_tbl?SetData@EDO@@UAAJPAUtagFORMATETC@@PAUtagSTGMEDIUM@@H@Z 10050668 f drdrag.obj
 0001:0004f670       __fh?SetData@EDO@@UAAJPAUtagFORMATETC@@PAUtagSTGMEDIUM@@H@Z 10050670 f drdrag.obj
 0001:0004f672       ?SetData@EDO@@UAAJPAUtagFORMATETC@@PAUtagSTGMEDIUM@@H@Z 10050672 f drdrag.obj
 0001:0004f678       __pcd_tbl?EnumFormatEtc@EDO@@UAAJKPAPAUIEnumFORMATETC@@@Z 10050678 f drdrag.obj
 0001:0004f680       __nep?EnumFormatEtc@EDO@@UAAJKPAPAUIEnumFORMATETC@@@Z 10050680 f drdrag.obj
 0001:0004f688       __fh?EnumFormatEtc@EDO@@UAAJKPAPAUIEnumFORMATETC@@@Z 10050688 f drdrag.obj
 0001:0004f68a       ?EnumFormatEtc@EDO@@UAAJKPAPAUIEnumFORMATETC@@@Z 1005068a f drdrag.obj
 0001:0004f6b4       __nep?DAdvise@EDO@@UAAJPAUtagFORMATETC@@KPAUIAdviseSink@@PAK@Z 100506b4 f drdrag.obj
 0001:0004f6b4       __pcd_tbl?DAdvise@EDO@@UAAJPAUtagFORMATETC@@KPAUIAdviseSink@@PAK@Z 100506b4 f drdrag.obj
 0001:0004f6bc       __fh?DAdvise@EDO@@UAAJPAUtagFORMATETC@@KPAUIAdviseSink@@PAK@Z 100506bc f drdrag.obj
 0001:0004f6be       ?DAdvise@EDO@@UAAJPAUtagFORMATETC@@KPAUIAdviseSink@@PAK@Z 100506be f drdrag.obj
 0001:0004f6c4       __nep?DUnadvise@EDO@@UAAJK@Z 100506c4 f drdrag.obj
 0001:0004f6c4       __pcd_tbl?DUnadvise@EDO@@UAAJK@Z 100506c4 f drdrag.obj
 0001:0004f6cc       __fh?DUnadvise@EDO@@UAAJK@Z 100506cc f drdrag.obj
 0001:0004f6ce       ?DUnadvise@EDO@@UAAJK@Z    100506ce f drdrag.obj
 0001:0004f6d4       __nep?EnumDAdvise@EDO@@UAAJPAPAUIEnumSTATDATA@@@Z 100506d4 f drdrag.obj
 0001:0004f6d4       __pcd_tbl?EnumDAdvise@EDO@@UAAJPAPAUIEnumSTATDATA@@@Z 100506d4 f drdrag.obj
 0001:0004f6dc       __fh?EnumDAdvise@EDO@@UAAJPAPAUIEnumSTATDATA@@@Z 100506dc f drdrag.obj
 0001:0004f6de       ?EnumDAdvise@EDO@@UAAJPAPAUIEnumSTATDATA@@@Z 100506de f drdrag.obj
 0001:0004f6e4       __pcd_tbl??0EEFE@@QAA@XZ   100506e4 f drdrag.obj
 0001:0004f6e4       __nep??0EEFE@@QAA@XZ       100506e4 f drdrag.obj
 0001:0004f6ec       __fh??0EEFE@@QAA@XZ        100506ec f drdrag.obj
 0001:0004f6ee       ??0EEFE@@QAA@XZ            100506ee f drdrag.obj
 0001:0004f708       __nep?a@IEnumFORMATETC@@UAAXXZ 10050708 f drdrag.obj
 0001:0004f708       __pcd_tbl?a@IEnumFORMATETC@@UAAXXZ 10050708 f drdrag.obj
 0001:0004f710       __fh?a@IEnumFORMATETC@@UAAXXZ 10050710 f drdrag.obj
 0001:0004f712       ?a@IEnumFORMATETC@@UAAXXZ  10050712 f drdrag.obj
 0001:0004f734       __pcd_tbl?QueryInterface@EEFE@@UAAJABUGUID@@PAPAX@Z 10050734 f drdrag.obj
 0001:0004f734       __nep?QueryInterface@EEFE@@UAAJABUGUID@@PAPAX@Z 10050734 f drdrag.obj
 0001:0004f73c       __fh?QueryInterface@EEFE@@UAAJABUGUID@@PAPAX@Z 1005073c f drdrag.obj
 0001:0004f73e       ?QueryInterface@EEFE@@UAAJABUGUID@@PAPAX@Z 1005073e f drdrag.obj
 0001:0004f798       __nep?AddRef@EEFE@@UAAKXZ  10050798 f drdrag.obj
 0001:0004f798       __pcd_tbl?AddRef@EEFE@@UAAKXZ 10050798 f drdrag.obj
 0001:0004f7a0       __fh?AddRef@EEFE@@UAAKXZ   100507a0 f drdrag.obj
 0001:0004f7a2       ?AddRef@EEFE@@UAAKXZ       100507a2 f drdrag.obj
 0001:0004f7ac       __pcd_tbl?Release@EEFE@@UAAKXZ 100507ac f drdrag.obj
 0001:0004f7b0       __nep?Release@EEFE@@UAAKXZ 100507b0 f drdrag.obj
 0001:0004f7b8       __fh?Release@EEFE@@UAAKXZ  100507b8 f drdrag.obj
 0001:0004f7ba       ?Release@EEFE@@UAAKXZ      100507ba f drdrag.obj
 0001:0004f7c8       __pcd_tbl?Next@EEFE@@UAAJKPAUtagFORMATETC@@PAK@Z 100507c8 f drdrag.obj
 0001:0004f7c8       __nep?Next@EEFE@@UAAJKPAUtagFORMATETC@@PAK@Z 100507c8 f drdrag.obj
 0001:0004f7d0       __fh?Next@EEFE@@UAAJKPAUtagFORMATETC@@PAK@Z 100507d0 f drdrag.obj
 0001:0004f7d2       ?Next@EEFE@@UAAJKPAUtagFORMATETC@@PAK@Z 100507d2 f drdrag.obj
 0001:0004f840       __pcd_tbl?Skip@EEFE@@UAAJK@Z 10050840 f drdrag.obj
 0001:0004f840       __nep?Skip@EEFE@@UAAJK@Z   10050840 f drdrag.obj
 0001:0004f848       __fh?Skip@EEFE@@UAAJK@Z    10050848 f drdrag.obj
 0001:0004f84a       ?Skip@EEFE@@UAAJK@Z        1005084a f drdrag.obj
 0001:0004f85c       __pcd_tbl?Reset@EEFE@@UAAJXZ 1005085c f drdrag.obj
 0001:0004f85c       __nep?Reset@EEFE@@UAAJXZ   1005085c f drdrag.obj
 0001:0004f864       __fh?Reset@EEFE@@UAAJXZ    10050864 f drdrag.obj
 0001:0004f866       ?Reset@EEFE@@UAAJXZ        10050866 f drdrag.obj
 0001:0004f86c       __pcd_tbl?Clone@EEFE@@UAAJPAPAUIEnumFORMATETC@@@Z 1005086c f drdrag.obj
 0001:0004f874       __nep?Clone@EEFE@@UAAJPAPAUIEnumFORMATETC@@@Z 10050874 f drdrag.obj
 0001:0004f87c       __fh?Clone@EEFE@@UAAJPAPAUIEnumFORMATETC@@@Z 1005087c f drdrag.obj
 0001:0004f87e       ?Clone@EEFE@@UAAJPAPAUIEnumFORMATETC@@@Z 1005087e f drdrag.obj
 0001:0004f8a8       __nep??0CDO@@QAA@PAVDG@@PAVDGUI@@@Z 100508a8 f drdrag.obj
 0001:0004f8a8       __pcd_tbl??0CDO@@QAA@PAVDG@@PAVDGUI@@@Z 100508a8 f drdrag.obj
 0001:0004f8b0       __fh??0CDO@@QAA@PAVDG@@PAVDGUI@@@Z 100508b0 f drdrag.obj
 0001:0004f8b2       ??0CDO@@QAA@PAVDG@@PAVDGUI@@@Z 100508b2 f drdrag.obj
 0001:0004f8e0       __pcd_tbl??1CDO@@QAA@XZ    100508e0 f drdrag.obj
 0001:0004f8e4       __nep??1CDO@@QAA@XZ        100508e4 f drdrag.obj
 0001:0004f8ec       __fh??1CDO@@QAA@XZ         100508ec f drdrag.obj
 0001:0004f8ee       ??1CDO@@QAA@XZ             100508ee f drdrag.obj
 0001:0004f978       __pcd_tbl?FMarkAllShapes@CDO@@QAAHXZ 10050978 f drdrag.obj
 0001:0004f97c       __nep?FMarkAllShapes@CDO@@QAAHXZ 1005097c f drdrag.obj
 0001:0004f984       __fh?FMarkAllShapes@CDO@@QAAHXZ 10050984 f drdrag.obj
 0001:0004f986       ?FMarkAllShapes@CDO@@QAAHXZ 10050986 f drdrag.obj
 0001:0004f9c4       __pcd_tbl?FDebugMessage@CDO@@QAAHPAUMSOINST@@IIJ@Z 100509c4 f drdrag.obj
 0001:0004f9c4       __nep?FDebugMessage@CDO@@QAAHPAUMSOINST@@IIJ@Z 100509c4 f drdrag.obj
 0001:0004f9cc       __fh?FDebugMessage@CDO@@QAAHPAUMSOINST@@IIJ@Z 100509cc f drdrag.obj
 0001:0004f9ce       ?FDebugMessage@CDO@@QAAHPAUMSOINST@@IIJ@Z 100509ce f drdrag.obj
 0001:0004f9f0       __nep?QueryInterface@CDO@@UAAJABUGUID@@PAPAX@Z 100509f0 f drdrag.obj
 0001:0004f9f0       __pcd_tbl?QueryInterface@CDO@@UAAJABUGUID@@PAPAX@Z 100509f0 f drdrag.obj
 0001:0004f9f8       __fh?QueryInterface@CDO@@UAAJABUGUID@@PAPAX@Z 100509f8 f drdrag.obj
 0001:0004f9fa       ?QueryInterface@CDO@@UAAJABUGUID@@PAPAX@Z 100509fa f drdrag.obj
 0001:0004fa54       __pcd_tbl?AddRef@CDO@@UAAKXZ 10050a54 f drdrag.obj
 0001:0004fa54       __nep?AddRef@CDO@@UAAKXZ   10050a54 f drdrag.obj
 0001:0004fa5c       __fh?AddRef@CDO@@UAAKXZ    10050a5c f drdrag.obj
 0001:0004fa5e       ?AddRef@CDO@@UAAKXZ        10050a5e f drdrag.obj
 0001:0004fa68       __pcd_tbl?Release@CDO@@UAAKXZ 10050a68 f drdrag.obj
 0001:0004fa70       __nep?Release@CDO@@UAAKXZ  10050a70 f drdrag.obj
 0001:0004fa78       __fh?Release@CDO@@UAAKXZ   10050a78 f drdrag.obj
 0001:0004fa7a       ?Release@CDO@@UAAKXZ       10050a7a f drdrag.obj
 0001:0004fa8c       __pcd_tbl?GetData@CDO@@UAAJPAUtagFORMATETC@@PAUtagSTGMEDIUM@@@Z 10050a8c f drdrag.obj
 0001:0004fa98       __nep?GetData@CDO@@UAAJPAUtagFORMATETC@@PAUtagSTGMEDIUM@@@Z 10050a98 f drdrag.obj
 0001:0004faa0       __fh?GetData@CDO@@UAAJPAUtagFORMATETC@@PAUtagSTGMEDIUM@@@Z 10050aa0 f drdrag.obj
 0001:0004faa2       ?GetData@CDO@@UAAJPAUtagFORMATETC@@PAUtagSTGMEDIUM@@@Z 10050aa2 f drdrag.obj
 0001:0004fbc0       __nep?GetDataHere@CDO@@UAAJPAUtagFORMATETC@@PAUtagSTGMEDIUM@@@Z 10050bc0 f drdrag.obj
 0001:0004fbc0       __pcd_tbl?GetDataHere@CDO@@UAAJPAUtagFORMATETC@@PAUtagSTGMEDIUM@@@Z 10050bc0 f drdrag.obj
 0001:0004fbc8       __fh?GetDataHere@CDO@@UAAJPAUtagFORMATETC@@PAUtagSTGMEDIUM@@@Z 10050bc8 f drdrag.obj
 0001:0004fbca       ?GetDataHere@CDO@@UAAJPAUtagFORMATETC@@PAUtagSTGMEDIUM@@@Z 10050bca f drdrag.obj
 0001:0004fbd0       __nep?QueryGetData@CDO@@UAAJPAUtagFORMATETC@@@Z 10050bd0 f drdrag.obj
 0001:0004fbd0       __pcd_tbl?QueryGetData@CDO@@UAAJPAUtagFORMATETC@@@Z 10050bd0 f drdrag.obj
 0001:0004fbd8       __fh?QueryGetData@CDO@@UAAJPAUtagFORMATETC@@@Z 10050bd8 f drdrag.obj
 0001:0004fbda       ?QueryGetData@CDO@@UAAJPAUtagFORMATETC@@@Z 10050bda f drdrag.obj
 0001:0004fc2c       __pcd_tbl?GetCanonicalFormatEtc@CDO@@UAAJPAUtagFORMATETC@@0@Z 10050c2c f drdrag.obj
 0001:0004fc2c       __nep?GetCanonicalFormatEtc@CDO@@UAAJPAUtagFORMATETC@@0@Z 10050c2c f drdrag.obj
 0001:0004fc34       __fh?GetCanonicalFormatEtc@CDO@@UAAJPAUtagFORMATETC@@0@Z 10050c34 f drdrag.obj
 0001:0004fc36       ?GetCanonicalFormatEtc@CDO@@UAAJPAUtagFORMATETC@@0@Z 10050c36 f drdrag.obj
 0001:0004fc5c       __nep?SetData@CDO@@UAAJPAUtagFORMATETC@@PAUtagSTGMEDIUM@@H@Z 10050c5c f drdrag.obj
 0001:0004fc5c       __pcd_tbl?SetData@CDO@@UAAJPAUtagFORMATETC@@PAUtagSTGMEDIUM@@H@Z 10050c5c f drdrag.obj
 0001:0004fc64       __fh?SetData@CDO@@UAAJPAUtagFORMATETC@@PAUtagSTGMEDIUM@@H@Z 10050c64 f drdrag.obj
 0001:0004fc66       ?SetData@CDO@@UAAJPAUtagFORMATETC@@PAUtagSTGMEDIUM@@H@Z 10050c66 f drdrag.obj
 0001:0004fc6c       __pcd_tbl?EnumFormatEtc@CDO@@UAAJKPAPAUIEnumFORMATETC@@@Z 10050c6c f drdrag.obj
 0001:0004fc74       __nep?EnumFormatEtc@CDO@@UAAJKPAPAUIEnumFORMATETC@@@Z 10050c74 f drdrag.obj
 0001:0004fc7c       __fh?EnumFormatEtc@CDO@@UAAJKPAPAUIEnumFORMATETC@@@Z 10050c7c f drdrag.obj
 0001:0004fc7e       ?EnumFormatEtc@CDO@@UAAJKPAPAUIEnumFORMATETC@@@Z 10050c7e f drdrag.obj
 0001:0004fca8       __nep?DAdvise@CDO@@UAAJPAUtagFORMATETC@@KPAUIAdviseSink@@PAK@Z 10050ca8 f drdrag.obj
 0001:0004fca8       __pcd_tbl?DAdvise@CDO@@UAAJPAUtagFORMATETC@@KPAUIAdviseSink@@PAK@Z 10050ca8 f drdrag.obj
 0001:0004fcb0       __fh?DAdvise@CDO@@UAAJPAUtagFORMATETC@@KPAUIAdviseSink@@PAK@Z 10050cb0 f drdrag.obj
 0001:0004fcb2       ?DAdvise@CDO@@UAAJPAUtagFORMATETC@@KPAUIAdviseSink@@PAK@Z 10050cb2 f drdrag.obj
 0001:0004fcb8       __pcd_tbl?DUnadvise@CDO@@UAAJK@Z 10050cb8 f drdrag.obj
 0001:0004fcb8       __nep?DUnadvise@CDO@@UAAJK@Z 10050cb8 f drdrag.obj
 0001:0004fcc0       __fh?DUnadvise@CDO@@UAAJK@Z 10050cc0 f drdrag.obj
 0001:0004fcc2       ?DUnadvise@CDO@@UAAJK@Z    10050cc2 f drdrag.obj
 0001:0004fcc8       __pcd_tbl?EnumDAdvise@CDO@@UAAJPAPAUIEnumSTATDATA@@@Z 10050cc8 f drdrag.obj
 0001:0004fcc8       __nep?EnumDAdvise@CDO@@UAAJPAPAUIEnumSTATDATA@@@Z 10050cc8 f drdrag.obj
 0001:0004fcd0       __fh?EnumDAdvise@CDO@@UAAJPAPAUIEnumSTATDATA@@@Z 10050cd0 f drdrag.obj
 0001:0004fcd2       ?EnumDAdvise@CDO@@UAAJPAPAUIEnumSTATDATA@@@Z 10050cd2 f drdrag.obj
 0001:0004fcd8       __nep??0CEFE@@QAA@PAVCDO@@@Z 10050cd8 f drdrag.obj
 0001:0004fcd8       __pcd_tbl??0CEFE@@QAA@PAVCDO@@@Z 10050cd8 f drdrag.obj
 0001:0004fce0       __fh??0CEFE@@QAA@PAVCDO@@@Z 10050ce0 f drdrag.obj
 0001:0004fce2       ??0CEFE@@QAA@PAVCDO@@@Z    10050ce2 f drdrag.obj
 0001:0004fd20       __nep?QueryInterface@CEFE@@UAAJABUGUID@@PAPAX@Z 10050d20 f drdrag.obj
 0001:0004fd20       __pcd_tbl?QueryInterface@CEFE@@UAAJABUGUID@@PAPAX@Z 10050d20 f drdrag.obj
 0001:0004fd28       __fh?QueryInterface@CEFE@@UAAJABUGUID@@PAPAX@Z 10050d28 f drdrag.obj
 0001:0004fd2a       ?QueryInterface@CEFE@@UAAJABUGUID@@PAPAX@Z 10050d2a f drdrag.obj
 0001:0004fd84       __nep?AddRef@CEFE@@UAAKXZ  10050d84 f drdrag.obj
 0001:0004fd84       __pcd_tbl?AddRef@CEFE@@UAAKXZ 10050d84 f drdrag.obj
 0001:0004fd8c       __fh?AddRef@CEFE@@UAAKXZ   10050d8c f drdrag.obj
 0001:0004fd8e       ?AddRef@CEFE@@UAAKXZ       10050d8e f drdrag.obj
 0001:0004fd98       __pcd_tbl?Release@CEFE@@UAAKXZ 10050d98 f drdrag.obj
 0001:0004fd9c       __nep?Release@CEFE@@UAAKXZ 10050d9c f drdrag.obj
 0001:0004fda4       __fh?Release@CEFE@@UAAKXZ  10050da4 f drdrag.obj
 0001:0004fda6       ?Release@CEFE@@UAAKXZ      10050da6 f drdrag.obj
 0001:0004fdb4       __pcd_tbl?Next@CEFE@@UAAJKPAUtagFORMATETC@@PAK@Z 10050db4 f drdrag.obj
 0001:0004fdb4       __nep?Next@CEFE@@UAAJKPAUtagFORMATETC@@PAK@Z 10050db4 f drdrag.obj
 0001:0004fdbc       __fh?Next@CEFE@@UAAJKPAUtagFORMATETC@@PAK@Z 10050dbc f drdrag.obj
 0001:0004fdbe       ?Next@CEFE@@UAAJKPAUtagFORMATETC@@PAK@Z 10050dbe f drdrag.obj
 0001:0004fe5c       __pcd_tbl?Skip@CEFE@@UAAJK@Z 10050e5c f drdrag.obj
 0001:0004fe5c       __nep?Skip@CEFE@@UAAJK@Z   10050e5c f drdrag.obj
 0001:0004fe64       __fh?Skip@CEFE@@UAAJK@Z    10050e64 f drdrag.obj
 0001:0004fe66       ?Skip@CEFE@@UAAJK@Z        10050e66 f drdrag.obj
 0001:0004fe78       __pcd_tbl?Reset@CEFE@@UAAJXZ 10050e78 f drdrag.obj
 0001:0004fe78       __nep?Reset@CEFE@@UAAJXZ   10050e78 f drdrag.obj
 0001:0004fe80       __fh?Reset@CEFE@@UAAJXZ    10050e80 f drdrag.obj
 0001:0004fe82       ?Reset@CEFE@@UAAJXZ        10050e82 f drdrag.obj
 0001:0004fe88       __pcd_tbl?Clone@CEFE@@UAAJPAPAUIEnumFORMATETC@@@Z 10050e88 f drdrag.obj
 0001:0004fe90       __nep?Clone@CEFE@@UAAJPAPAUIEnumFORMATETC@@@Z 10050e90 f drdrag.obj
 0001:0004fe98       __fh?Clone@CEFE@@UAAJPAPAUIEnumFORMATETC@@@Z 10050e98 f drdrag.obj
 0001:0004fe9a       ?Clone@CEFE@@UAAJPAPAUIEnumFORMATETC@@@Z 10050e9a f drdrag.obj
 0001:0004fed0       __pcd_tbl?FGetNative@CDO@@QAAHPAPAUIStream@@@Z 10050ed0 f drdrag.obj
 0001:0004fed8       __nep?FGetNative@CDO@@QAAHPAPAUIStream@@@Z 10050ed8 f drdrag.obj
 0001:0004fee0       __fh?FGetNative@CDO@@QAAHPAPAUIStream@@@Z 10050ee0 f drdrag.obj
 0001:0004fee2       ?FGetNative@CDO@@QAAHPAPAUIStream@@@Z 10050ee2 f drdrag.obj
 0001:0004ff2c       __pcd_tbl?FGetOleObject@CDO@@QAAHPAPAUIStorage@@@Z 10050f2c f drdrag.obj
 0001:0004ff30       __nep?FGetOleObject@CDO@@QAAHPAPAUIStorage@@@Z 10050f30 f drdrag.obj
 0001:0004ff38       __fh?FGetOleObject@CDO@@QAAHPAPAUIStorage@@@Z 10050f38 f drdrag.obj
 0001:0004ff3a       ?FGetOleObject@CDO@@QAAHPAPAUIStorage@@@Z 10050f3a f drdrag.obj
 0001:0004ffa0       __pcd_tbl?HRenderObjDesc@CDO@@QAAPAXXZ 10050fa0 f drdrag.obj
 0001:0004ffbc       __nep?HRenderObjDesc@CDO@@QAAPAXXZ 10050fbc f drdrag.obj
 0001:0004ffc4       __fh?HRenderObjDesc@CDO@@QAAPAXXZ 10050fc4 f drdrag.obj
 0001:0004ffc7       ?HRenderObjDesc@CDO@@QAAPAXXZ 10050fc7 f drdrag.obj
 0001:00050040       ??0DGVDRG@@QAA@XZ          10051040 f drdrg.obj
 0001:000501c4       __pcd_tbl?a@IMsoComponent@@UAAXXZ 100511c4 f drdrg.obj
 0001:000501c4       __nep?a@IMsoComponent@@UAAXXZ 100511c4 f drdrg.obj
 0001:000501cc       __fh?a@IMsoComponent@@UAAXXZ 100511cc f drdrg.obj
 0001:000501ce       ?a@IMsoComponent@@UAAXXZ   100511ce f drdrg.obj
 0001:000501d0       __pcd_tbl?FCreateDgvdrg@DGVDRG@@SAHPAPAV1@PAVDGV@@W4DGVDRGK@@IPAH@Z 100511d0 f drdrg.obj
 0001:000501e4       __nep?FCreateDgvdrg@DGVDRG@@SAHPAPAV1@PAVDGV@@W4DGVDRGK@@IPAH@Z 100511e4 f drdrg.obj
 0001:000501ec       __fh?FCreateDgvdrg@DGVDRG@@SAHPAPAV1@PAVDGV@@W4DGVDRGK@@IPAH@Z 100511ec f drdrg.obj
 0001:000501ee       ?FCreateDgvdrg@DGVDRG@@SAHPAPAV1@PAVDGV@@W4DGVDRGK@@IPAH@Z 100511ee f drdrg.obj
 0001:0005026c       __pcd_tbl?FCreateDgvdrgNoComponent@DGVDRG@@SAHPAPAV1@PAVDGV@@W4DGVDRGK@@@Z 1005126c f drdrg.obj
 0001:00050284       __nep?FCreateDgvdrgNoComponent@DGVDRG@@SAHPAPAV1@PAVDGV@@W4DGVDRGK@@@Z 10051284 f drdrg.obj
 0001:0005028c       __fh?FCreateDgvdrgNoComponent@DGVDRG@@SAHPAPAV1@PAVDGV@@W4DGVDRGK@@@Z 1005128c f drdrg.obj
 0001:0005028e       ?FCreateDgvdrgNoComponent@DGVDRG@@SAHPAPAV1@PAVDGV@@W4DGVDRGK@@@Z 1005128e f drdrg.obj
 0001:000502fc       __pcd_tbl?Free@DGVDRG@@QAAXXZ 100512fc f drdrg.obj
 0001:00050328       __nep?Free@DGVDRG@@QAAXXZ  10051328 f drdrg.obj
 0001:00050330       __fh?Free@DGVDRG@@QAAXXZ   10051330 f drdrg.obj
 0001:00050332       ?Free@DGVDRG@@QAAXXZ       10051332 f drdrg.obj
 0001:00050394       __nep?DetachFromView@DGVDRG@@QAAXXZ 10051394 f drdrg.obj
 0001:00050394       __pcd_tbl?DetachFromView@DGVDRG@@QAAXXZ 10051394 f drdrg.obj
 0001:0005039c       __fh?DetachFromView@DGVDRG@@QAAXXZ 1005139c f drdrg.obj
 0001:0005039e       ?DetachFromView@DGVDRG@@QAAXXZ 1005139e f drdrg.obj
 0001:000503c0       __pcd_tbl?FreeSnap@DGVDRG@@QAAXXZ 100513c0 f drdrg.obj
 0001:000503c8       __nep?FreeSnap@DGVDRG@@QAAXXZ 100513c8 f drdrg.obj
 0001:000503d0       __fh?FreeSnap@DGVDRG@@QAAXXZ 100513d0 f drdrg.obj
 0001:000503d2       ?FreeSnap@DGVDRG@@QAAXXZ   100513d2 f drdrg.obj
 0001:0005041c       __pcd_tbl?ReleaseShapeList@DGVDRG@@QAAXXZ 1005141c f drdrg.obj
 0001:0005041c       __nep?ReleaseShapeList@DGVDRG@@QAAXXZ 1005141c f drdrg.obj
 0001:00050424       __fh?ReleaseShapeList@DGVDRG@@QAAXXZ 10051424 f drdrg.obj
 0001:00050426       ?ReleaseShapeList@DGVDRG@@QAAXXZ 10051426 f drdrg.obj
 0001:00050450       ??1DGVDRG@@QAA@XZ          10051450 f drdrg.obj
 0001:00050530       __pcd_tbl?QueryInterface@DGVDRG@@UAAJABUGUID@@PAPAX@Z 10051530 f drdrg.obj
 0001:00050530       __nep?QueryInterface@DGVDRG@@UAAJABUGUID@@PAPAX@Z 10051530 f drdrg.obj
 0001:00050538       __fh?QueryInterface@DGVDRG@@UAAJABUGUID@@PAPAX@Z 10051538 f drdrg.obj
 0001:0005053a       ?QueryInterface@DGVDRG@@UAAJABUGUID@@PAPAX@Z 1005153a f drdrg.obj
 0001:00050594       __pcd_tbl?AddRef@DGVDRG@@UAAKXZ 10051594 f drdrg.obj
 0001:00050594       __nep?AddRef@DGVDRG@@UAAKXZ 10051594 f drdrg.obj
 0001:0005059c       __fh?AddRef@DGVDRG@@UAAKXZ 1005159c f drdrg.obj
 0001:0005059e       ?AddRef@DGVDRG@@UAAKXZ     1005159e f drdrg.obj
 0001:000505a8       __pcd_tbl?Release@DGVDRG@@UAAKXZ 100515a8 f drdrg.obj
 0001:000505b0       __nep?Release@DGVDRG@@UAAKXZ 100515b0 f drdrg.obj
 0001:000505b8       __fh?Release@DGVDRG@@UAAKXZ 100515b8 f drdrg.obj
 0001:000505ba       ?Release@DGVDRG@@UAAKXZ    100515ba f drdrg.obj
 0001:000505d0       __pcd_tbl?FDebugMessage@DGVDRG@@UAAHPAUMSOINST@@IIJ@Z 100515d0 f drdrg.obj
 0001:000505d0       __nep?FDebugMessage@DGVDRG@@UAAHPAUMSOINST@@IIJ@Z 100515d0 f drdrg.obj
 0001:000505d8       __fh?FDebugMessage@DGVDRG@@UAAHPAUMSOINST@@IIJ@Z 100515d8 f drdrg.obj
 0001:000505da       ?FDebugMessage@DGVDRG@@UAAHPAUMSOINST@@IIJ@Z 100515da f drdrg.obj
 0001:000505dc       __pcd_tbl?FPreTranslateMessage@DGVDRG@@UAAHPAUtagMSG@@@Z 100515dc f drdrg.obj
 0001:000505e0       __nep?FPreTranslateMessage@DGVDRG@@UAAHPAUtagMSG@@@Z 100515e0 f drdrg.obj
 0001:000505e8       __fh?FPreTranslateMessage@DGVDRG@@UAAHPAUtagMSG@@@Z 100515e8 f drdrg.obj
 0001:000505ea       ?FPreTranslateMessage@DGVDRG@@UAAHPAUtagMSG@@@Z 100515ea f drdrg.obj
 0001:000505f0       __nep?FPreProcessMacEvent@DGVDRG@@UAAHPAUEventRecord@@@Z 100515f0 f drdrg.obj
 0001:000505f0       __pcd_tbl?FPreProcessMacEvent@DGVDRG@@UAAHPAUEventRecord@@@Z 100515f0 f drdrg.obj
 0001:000505f8       __fh?FPreProcessMacEvent@DGVDRG@@UAAHPAUEventRecord@@@Z 100515f8 f drdrg.obj
 0001:000505fa       ?FPreProcessMacEvent@DGVDRG@@UAAHPAUEventRecord@@@Z 100515fa f drdrg.obj
 0001:000505fc       __pcd_tbl?OnEnterState@DGVDRG@@UAAXKH@Z 100515fc f drdrg.obj
 0001:000505fc       __nep?OnEnterState@DGVDRG@@UAAXKH@Z 100515fc f drdrg.obj
 0001:00050604       __fh?OnEnterState@DGVDRG@@UAAXKH@Z 10051604 f drdrg.obj
 0001:00050606       ?OnEnterState@DGVDRG@@UAAXKH@Z 10051606 f drdrg.obj
 0001:00050608       __pcd_tbl?OnAppActivate@DGVDRG@@UAAXHK@Z 10051608 f drdrg.obj
 0001:0005060c       __nep?OnAppActivate@DGVDRG@@UAAXHK@Z 1005160c f drdrg.obj
 0001:00050614       __fh?OnAppActivate@DGVDRG@@UAAXHK@Z 10051614 f drdrg.obj
 0001:00050616       ?OnAppActivate@DGVDRG@@UAAXHK@Z 10051616 f drdrg.obj
 0001:0005061c       __nep?OnLoseActivation@DGVDRG@@UAAXXZ 1005161c f drdrg.obj
 0001:0005061c       __pcd_tbl?OnLoseActivation@DGVDRG@@UAAXXZ 1005161c f drdrg.obj
 0001:00050624       __fh?OnLoseActivation@DGVDRG@@UAAXXZ 10051624 f drdrg.obj
 0001:00050626       ?OnLoseActivation@DGVDRG@@UAAXXZ 10051626 f drdrg.obj
 0001:00050628       __nep?OnActivationChange@DGVDRG@@UAAXPAUIMsoComponent@@HPBU_MSOCRINFO@@HPBU_MSOCHOSTINFO@@K@Z 10051628 f drdrg.obj
 0001:00050628       __pcd_tbl?OnActivationChange@DGVDRG@@UAAXPAUIMsoComponent@@HPBU_MSOCRINFO@@HPBU_MSOCHOSTINFO@@K@Z 10051628 f drdrg.obj
 0001:00050630       __fh?OnActivationChange@DGVDRG@@UAAXPAUIMsoComponent@@HPBU_MSOCRINFO@@HPBU_MSOCHOSTINFO@@K@Z 10051630 f drdrg.obj
 0001:00050632       ?OnActivationChange@DGVDRG@@UAAXPAUIMsoComponent@@HPBU_MSOCRINFO@@HPBU_MSOCHOSTINFO@@K@Z 10051632 f drdrg.obj
 0001:00050634       __pcd_tbl?FDoIdle@DGVDRG@@UAAHK@Z 10051634 f drdrg.obj
 0001:00050634       __nep?FDoIdle@DGVDRG@@UAAHK@Z 10051634 f drdrg.obj
 0001:0005063c       __fh?FDoIdle@DGVDRG@@UAAHK@Z 1005163c f drdrg.obj
 0001:0005063e       ?FDoIdle@DGVDRG@@UAAHK@Z   1005163e f drdrg.obj
 0001:00050640       __nep?FContinueMessageLoop@DGVDRG@@UAAHKPAXPAUtagMSG@@@Z 10051640 f drdrg.obj
 0001:00050640       __pcd_tbl?FContinueMessageLoop@DGVDRG@@UAAHKPAXPAUtagMSG@@@Z 10051640 f drdrg.obj
 0001:00050648       __fh?FContinueMessageLoop@DGVDRG@@UAAHKPAXPAUtagMSG@@@Z 10051648 f drdrg.obj
 0001:0005064a       ?FContinueMessageLoop@DGVDRG@@UAAHKPAXPAUtagMSG@@@Z 1005164a f drdrg.obj
 0001:0005064c       __nep?FQueryTerminate@DGVDRG@@UAAHH@Z 1005164c f drdrg.obj
 0001:0005064c       __pcd_tbl?FQueryTerminate@DGVDRG@@UAAHH@Z 1005164c f drdrg.obj
 0001:00050654       __fh?FQueryTerminate@DGVDRG@@UAAHH@Z 10051654 f drdrg.obj
 0001:00050656       ?FQueryTerminate@DGVDRG@@UAAHH@Z 10051656 f drdrg.obj
 0001:00050658       __pcd_tbl?Terminate@DGVDRG@@UAAXXZ 10051658 f drdrg.obj
 0001:0005065c       __nep?Terminate@DGVDRG@@UAAXXZ 1005165c f drdrg.obj
 0001:00050664       __fh?Terminate@DGVDRG@@UAAXXZ 10051664 f drdrg.obj
 0001:00050666       ?Terminate@DGVDRG@@UAAXXZ  10051666 f drdrg.obj
 0001:0005066c       __pcd_tbl?QueryInterface@DGVDRGDES@@UAAJABUGUID@@PAPAX@Z 1005166c f drdrg.obj
 0001:00050670       __nep?QueryInterface@DGVDRGDES@@UAAJABUGUID@@PAPAX@Z 10051670 f drdrg.obj
 0001:00050678       __fh?QueryInterface@DGVDRGDES@@UAAJABUGUID@@PAPAX@Z 10051678 f drdrg.obj
 0001:0005067a       ?QueryInterface@DGVDRGDES@@UAAJABUGUID@@PAPAX@Z 1005167a f drdrg.obj
 0001:00050684       __nep?FDebugMessage@DGVDRGDES@@UAAHPAUMSOINST@@IIJ@Z 10051684 f drdrg.obj
 0001:00050684       __pcd_tbl?FDebugMessage@DGVDRGDES@@UAAHPAUMSOINST@@IIJ@Z 10051684 f drdrg.obj
 0001:0005068c       __fh?FDebugMessage@DGVDRGDES@@UAAHPAUMSOINST@@IIJ@Z 1005168c f drdrg.obj
 0001:0005068e       ?FDebugMessage@DGVDRGDES@@UAAHPAUMSOINST@@IIJ@Z 1005168e f drdrg.obj
 0001:00050690       __nep?SetHdes@DGVDRGDES@@UAAXPAXH@Z 10051690 f drdrg.obj
 0001:00050690       __pcd_tbl?SetHdes@DGVDRGDES@@UAAXPAXH@Z 10051690 f drdrg.obj
 0001:00050698       __fh?SetHdes@DGVDRGDES@@UAAXPAXH@Z 10051698 f drdrg.obj
 0001:0005069a       ?SetHdes@DGVDRGDES@@UAAXPAXH@Z 1005169a f drdrg.obj
 0001:000506a0       __pcd_tbl?FixDisplayElements@DGVDRGDES@@UAAXPAX@Z 100516a0 f drdrg.obj
 0001:000506a0       __nep?FixDisplayElements@DGVDRGDES@@UAAXPAX@Z 100516a0 f drdrg.obj
 0001:000506a8       __fh?FixDisplayElements@DGVDRGDES@@UAAXPAX@Z 100516a8 f drdrg.obj
 0001:000506aa       ?FixDisplayElements@DGVDRGDES@@UAAXPAX@Z 100516aa f drdrg.obj
 0001:000506ac       __pcd_tbl?FHitTestSet@DGVDRGDES@@UAAHPAXPAU_MSODMHD@@H@Z 100516ac f drdrg.obj
 0001:000506ac       __nep?FHitTestSet@DGVDRGDES@@UAAHPAXPAU_MSODMHD@@H@Z 100516ac f drdrg.obj
 0001:000506b4       __fh?FHitTestSet@DGVDRGDES@@UAAHPAXPAU_MSODMHD@@H@Z 100516b4 f drdrg.obj
 0001:000506b6       ?FHitTestSet@DGVDRGDES@@UAAHPAXPAU_MSODMHD@@H@Z 100516b6 f drdrg.obj
 0001:000506b8       __nep?SetDisplayElementHde@DGVDRGDES@@UAAXPAX00@Z 100516b8 f drdrg.obj
 0001:000506b8       __pcd_tbl?SetDisplayElementHde@DGVDRGDES@@UAAXPAX00@Z 100516b8 f drdrg.obj
 0001:000506c0       __fh?SetDisplayElementHde@DGVDRGDES@@UAAXPAX00@Z 100516c0 f drdrg.obj
 0001:000506c2       ?SetDisplayElementHde@DGVDRGDES@@UAAXPAX00@Z 100516c2 f drdrg.obj
 0001:000506c8       __pcd_tbl?GetDisplayElementBounds@DGVDRGDES@@UAAXPAX0PAUtagRECT@@@Z 100516c8 f drdrg.obj
 0001:000506c8       __nep?GetDisplayElementBounds@DGVDRGDES@@UAAXPAX0PAUtagRECT@@@Z 100516c8 f drdrg.obj
 0001:000506d0       __fh?GetDisplayElementBounds@DGVDRGDES@@UAAXPAX0PAUtagRECT@@@Z 100516d0 f drdrg.obj
 0001:000506d2       ?GetDisplayElementBounds@DGVDRGDES@@UAAXPAX0PAUtagRECT@@@Z 100516d2 f drdrg.obj
 0001:000506e4       __pcd_tbl?CountDisplayElementPieces@DGVDRGDES@@UAAHPAX0@Z 100516e4 f drdrg.obj
 0001:000506e4       __nep?CountDisplayElementPieces@DGVDRGDES@@UAAHPAX0@Z 100516e4 f drdrg.obj
 0001:000506ec       __fh?CountDisplayElementPieces@DGVDRGDES@@UAAHPAX0@Z 100516ec f drdrg.obj
 0001:000506ee       ?CountDisplayElementPieces@DGVDRGDES@@UAAHPAX0@Z 100516ee f drdrg.obj
 0001:000506f0       __pcd_tbl?GetDisplayElementPieceBounds@DGVDRGDES@@UAAXPAX0HPAUtagRECT@@@Z 100516f0 f drdrg.obj
 0001:000506f0       __nep?GetDisplayElementPieceBounds@DGVDRGDES@@UAAXPAX0HPAUtagRECT@@@Z 100516f0 f drdrg.obj
 0001:000506f8       __fh?GetDisplayElementPieceBounds@DGVDRGDES@@UAAXPAX0HPAUtagRECT@@@Z 100516f8 f drdrg.obj
 0001:000506fa       ?GetDisplayElementPieceBounds@DGVDRGDES@@UAAXPAX0HPAUtagRECT@@@Z 100516fa f drdrg.obj
 0001:000506fc       __nep?FUnionDisplayElementCoverageRegion@DGVDRGDES@@UAAHPAX0W4MSOCVRK@@PAPAUHRGN__@@@Z 100516fc f drdrg.obj
 0001:000506fc       __pcd_tbl?FUnionDisplayElementCoverageRegion@DGVDRGDES@@UAAHPAX0W4MSOCVRK@@PAPAUHRGN__@@@Z 100516fc f drdrg.obj
 0001:00050704       __fh?FUnionDisplayElementCoverageRegion@DGVDRGDES@@UAAHPAX0W4MSOCVRK@@PAPAUHRGN__@@@Z 10051704 f drdrg.obj
 0001:00050706       ?FUnionDisplayElementCoverageRegion@DGVDRGDES@@UAAHPAX0W4MSOCVRK@@PAPAUHRGN__@@@Z 10051706 f drdrg.obj
 0001:00050708       __nep?FIsDisplayElementNonOpaque@DGVDRGDES@@UAAHPAX0@Z 10051708 f drdrg.obj
 0001:00050708       __pcd_tbl?FIsDisplayElementNonOpaque@DGVDRGDES@@UAAHPAX0@Z 10051708 f drdrg.obj
 0001:00050710       __fh?FIsDisplayElementNonOpaque@DGVDRGDES@@UAAHPAX0@Z 10051710 f drdrg.obj
 0001:00050712       ?FIsDisplayElementNonOpaque@DGVDRGDES@@UAAHPAX0@Z 10051712 f drdrg.obj
 0001:00050714       __pcd_tbl?DrawDisplayElement@DGVDRGDES@@UAAXPAX0PAUMSODC@@PAUtagRECT@@H@Z 10051714 f drdrg.obj
 0001:0005072c       __nep?DrawDisplayElement@DGVDRGDES@@UAAXPAX0PAUMSODC@@PAUtagRECT@@H@Z 1005172c f drdrg.obj
 0001:00050734       __fh?DrawDisplayElement@DGVDRGDES@@UAAXPAX0PAUMSODC@@PAUtagRECT@@H@Z 10051734 f drdrg.obj
 0001:00050737       ?DrawDisplayElement@DGVDRGDES@@UAAXPAX0PAUMSODC@@PAUtagRECT@@H@Z 10051737 f drdrg.obj
 0001:0005078c       __nep?FHitTestDisplayElement@DGVDRGDES@@UAAHPAX0PAU_MSODMHD@@@Z 1005178c f drdrg.obj
 0001:0005078c       __pcd_tbl?FHitTestDisplayElement@DGVDRGDES@@UAAHPAX0PAU_MSODMHD@@@Z 1005178c f drdrg.obj
 0001:00050794       __fh?FHitTestDisplayElement@DGVDRGDES@@UAAHPAX0PAU_MSODMHD@@@Z 10051794 f drdrg.obj
 0001:00050796       ?FHitTestDisplayElement@DGVDRGDES@@UAAHPAX0PAU_MSODMHD@@@Z 10051796 f drdrg.obj
 0001:00050798       __nep?FAttachToDisplayManager@DGVDRG@@SAHPAV1@@Z 10051798 f drdrg.obj
 0001:00050798       __pcd_tbl?FAttachToDisplayManager@DGVDRG@@SAHPAV1@@Z 10051798 f drdrg.obj
 0001:000507a0       __fh?FAttachToDisplayManager@DGVDRG@@SAHPAV1@@Z 100517a0 f drdrg.obj
 0001:000507a2       ?FAttachToDisplayManager@DGVDRG@@SAHPAV1@@Z 100517a2 f drdrg.obj
 0001:000507d0       __pcd_tbl?DetachFromDisplayManager@DGVDRG@@QAAXXZ 100517d0 f drdrg.obj
 0001:000507d8       __nep?DetachFromDisplayManager@DGVDRG@@QAAXXZ 100517d8 f drdrg.obj
 0001:000507e0       __fh?DetachFromDisplayManager@DGVDRG@@QAAXXZ 100517e0 f drdrg.obj
 0001:000507e2       ?DetachFromDisplayManager@DGVDRG@@QAAXXZ 100517e2 f drdrg.obj
 0001:0005081c       __pcd_tbl?FRegisterComponent@DGVDRG@@QAAHXZ 1005181c f drdrg.obj
 0001:00050820       __nep?FRegisterComponent@DGVDRG@@QAAHXZ 10051820 f drdrg.obj
 0001:00050828       __fh?FRegisterComponent@DGVDRG@@QAAHXZ 10051828 f drdrg.obj
 0001:0005082a       ?FRegisterComponent@DGVDRG@@QAAHXZ 1005182a f drdrg.obj
 0001:00050888       __pcd_tbl?UnregisterComponent@DGVDRG@@QAAXXZ 10051888 f drdrg.obj
 0001:0005088c       __nep?UnregisterComponent@DGVDRG@@QAAXXZ 1005188c f drdrg.obj
 0001:00050894       __fh?UnregisterComponent@DGVDRG@@QAAXXZ 10051894 f drdrg.obj
 0001:00050896       ?UnregisterComponent@DGVDRG@@QAAXXZ 10051896 f drdrg.obj
 0001:000508c0       __pcd_tbl?FAttachDgvdrgToNewDgv@DGVDRG@@QAAHPAVDGV@@@Z 100518c0 f drdrg.obj
 0001:000508c8       __nep?FAttachDgvdrgToNewDgv@DGVDRG@@QAAHPAVDGV@@@Z 100518c8 f drdrg.obj
 0001:000508d0       __fh?FAttachDgvdrgToNewDgv@DGVDRG@@QAAHPAVDGV@@@Z 100518d0 f drdrg.obj
 0001:000508d2       ?FAttachDgvdrgToNewDgv@DGVDRG@@QAAHPAVDGV@@@Z 100518d2 f drdrg.obj
 0001:00050904       __pcd_tbl?StartTimer@DGVDRG@@QAAXXZ 10051904 f drdrg.obj
 0001:0005090c       __nep?StartTimer@DGVDRG@@QAAXXZ 1005190c f drdrg.obj
 0001:00050914       __fh?StartTimer@DGVDRG@@QAAXXZ 10051914 f drdrg.obj
 0001:00050916       ?StartTimer@DGVDRG@@QAAXXZ 10051916 f drdrg.obj
 0001:00050934       __pcd_tbl?StopTimer@DGVDRG@@QAAXH@Z 10051934 f drdrg.obj
 0001:0005093c       __nep?StopTimer@DGVDRG@@QAAXH@Z 1005193c f drdrg.obj
 0001:00050944       __fh?StopTimer@DGVDRG@@QAAXH@Z 10051944 f drdrg.obj
 0001:00050946       ?StopTimer@DGVDRG@@QAAXH@Z 10051946 f drdrg.obj
 0001:00050988       __pcd_tbl?FHandleMessage@DGVDRG@@QAAHPAUtagMSG@@H@Z 10051988 f drdrg.obj
 0001:00050998       __nep?FHandleMessage@DGVDRG@@QAAHPAUtagMSG@@H@Z 10051998 f drdrg.obj
 0001:000509a0       __fh?FHandleMessage@DGVDRG@@QAAHPAUtagMSG@@H@Z 100519a0 f drdrg.obj
 0001:000509a2       ?FHandleMessage@DGVDRG@@QAAHPAUtagMSG@@H@Z 100519a2 f drdrg.obj
 0001:00050a38       __pcd_tbl?ConvertLParamToPtv@DGVDRG@@QAAXJPAUtagPOINT@@@Z 10051a38 f drdrg.obj
 0001:00050a3c       __nep?ConvertLParamToPtv@DGVDRG@@QAAXJPAUtagPOINT@@@Z 10051a3c f drdrg.obj
 0001:00050a44       __fh?ConvertLParamToPtv@DGVDRG@@QAAXJPAUtagPOINT@@@Z 10051a44 f drdrg.obj
 0001:00050a46       ?ConvertLParamToPtv@DGVDRG@@QAAXJPAUtagPOINT@@@Z 10051a46 f drdrg.obj
 0001:00050a54       __pcd_tbl?GetGhostDc@DGVDRG@@QAAXXZ 10051a54 f drdrg.obj
 0001:00050a5c       __nep?GetGhostDc@DGVDRG@@QAAXXZ 10051a5c f drdrg.obj
 0001:00050a64       __fh?GetGhostDc@DGVDRG@@QAAXXZ 10051a64 f drdrg.obj
 0001:00050a66       ?GetGhostDc@DGVDRG@@QAAXXZ 10051a66 f drdrg.obj
 0001:00050ab4       __pcd_tbl?ReleaseGhostDc@DGVDRG@@QAAXXZ 10051ab4 f drdrg.obj
 0001:00050ab8       __nep?ReleaseGhostDc@DGVDRG@@QAAXXZ 10051ab8 f drdrg.obj
 0001:00050ac0       __fh?ReleaseGhostDc@DGVDRG@@QAAXXZ 10051ac0 f drdrg.obj
 0001:00050ac2       ?ReleaseGhostDc@DGVDRG@@QAAXXZ 10051ac2 f drdrg.obj
 0001:00050af0       __pcd_tbl?SetGhostDcDefaults@DGVDRG@@QAAXXZ 10051af0 f drdrg.obj
 0001:00050b08       __nep?SetGhostDcDefaults@DGVDRG@@QAAXXZ 10051b08 f drdrg.obj
 0001:00050b10       __fh?SetGhostDcDefaults@DGVDRG@@QAAXXZ 10051b10 f drdrg.obj
 0001:00050b12       ?SetGhostDcDefaults@DGVDRG@@QAAXXZ 10051b12 f drdrg.obj
 0001:00050b48       __pcd_tbl?SetGhostVisible@DGVDRG@@QAAXH@Z 10051b48 f drdrg.obj
 0001:00050b48       __nep?SetGhostVisible@DGVDRG@@QAAXH@Z 10051b48 f drdrg.obj
 0001:00050b50       __fh?SetGhostVisible@DGVDRG@@QAAXH@Z 10051b50 f drdrg.obj
 0001:00050b52       ?SetGhostVisible@DGVDRG@@QAAXH@Z 10051b52 f drdrg.obj
 0001:00050b78       __pcd_tbl?GhostRcv@DGVDRG@@QAAXPAUtagRECT@@@Z 10051b78 f drdrg.obj
 0001:00050b7c       __nep?GhostRcv@DGVDRG@@QAAXPAUtagRECT@@@Z 10051b7c f drdrg.obj
 0001:00050b84       __fh?GhostRcv@DGVDRG@@QAAXPAUtagRECT@@@Z 10051b84 f drdrg.obj
 0001:00050b86       ?GhostRcv@DGVDRG@@QAAXPAUtagRECT@@@Z 10051b86 f drdrg.obj
 0001:00050b98       __pcd_tbl?FRequestDoDgvdrgCommand@DGVDRG@@QAAHXZ 10051b98 f drdrg.obj
 0001:00050bac       __nep?FRequestDoDgvdrgCommand@DGVDRG@@QAAHXZ 10051bac f drdrg.obj
 0001:00050bb4       __fh?FRequestDoDgvdrgCommand@DGVDRG@@QAAHXZ 10051bb4 f drdrg.obj
 0001:00050bb6       ?FRequestDoDgvdrgCommand@DGVDRG@@QAAHXZ 10051bb6 f drdrg.obj
 0001:00050be0       __pcd_tbl?FRequestDoPolygonCommand@DGVDRG@@QAAHW4MSODGCID@@@Z 10051be0 f drdrg.obj
 0001:00050bf8       __nep?FRequestDoPolygonCommand@DGVDRG@@QAAHW4MSODGCID@@@Z 10051bf8 f drdrg.obj
 0001:00050c00       __fh?FRequestDoPolygonCommand@DGVDRG@@QAAHW4MSODGCID@@@Z 10051c00 f drdrg.obj
 0001:00050c02       ?FRequestDoPolygonCommand@DGVDRG@@QAAHW4MSODGCID@@@Z 10051c02 f drdrg.obj
 0001:00050cc4       __pcd_tbl?FHandleMessageNoTimer@DGVDRG@@QAAHPAUtagMSG@@HH@Z 10051cc4 f drdrg.obj
 0001:00050cec       __nep?FHandleMessageNoTimer@DGVDRG@@QAAHPAUtagMSG@@HH@Z 10051cec f drdrg.obj
 0001:00050cf4       __fh?FHandleMessageNoTimer@DGVDRG@@QAAHPAUtagMSG@@HH@Z 10051cf4 f drdrg.obj
 0001:00050cf6       ?FHandleMessageNoTimer@DGVDRG@@QAAHPAUtagMSG@@HH@Z 10051cf6 f drdrg.obj
 0001:00050d68       __nep?AfxSetCursor@DGVDRG@@QAAXXZ 10051d68 f drdrg.obj
 0001:00050d68       __pcd_tbl?AfxSetCursor@DGVDRG@@QAAXXZ 10051d68 f drdrg.obj
 0001:00050d70       __fh?AfxSetCursor@DGVDRG@@QAAXXZ 10051d70 f drdrg.obj
 0001:00050d72       ?AfxSetCursor@DGVDRG@@QAAXXZ 10051d72 f drdrg.obj
 0001:00050d8c       __pcd_tbl?DrawGhost@DGVDRG@@QAAXH@Z 10051d8c f drdrg.obj
 0001:00050dac       __nep?DrawGhost@DGVDRG@@QAAXH@Z 10051dac f drdrg.obj
 0001:00050db4       __fh?DrawGhost@DGVDRG@@QAAXH@Z 10051db4 f drdrg.obj
 0001:00050db6       ?DrawGhost@DGVDRG@@QAAXH@Z 10051db6 f drdrg.obj
 0001:00050df4       __pcd_tbl?FIsCropDrag@DGVDRG@@QAAHXZ 10051df4 f drdrg.obj
 0001:00050dfc       __nep?FIsCropDrag@DGVDRG@@QAAHXZ 10051dfc f drdrg.obj
 0001:00050e04       __fh?FIsCropDrag@DGVDRG@@QAAHXZ 10051e04 f drdrg.obj
 0001:00050e06       ?FIsCropDrag@DGVDRG@@QAAHXZ 10051e06 f drdrg.obj
 0001:00050e2c       __pcd_tbl?FInitShape@DGVDRG@@QAAHPAU_MSODMHD@@@Z 10051e2c f drdrg.obj
 0001:00050f08       __nep?FInitShape@DGVDRG@@QAAHPAU_MSODMHD@@@Z 10051f08 f drdrg.obj
 0001:00050f10       __fh?FInitShape@DGVDRG@@QAAHPAU_MSODMHD@@@Z 10051f10 f drdrg.obj
 0001:00050f13       ?FInitShape@DGVDRG@@QAAHPAU_MSODMHD@@@Z 10051f13 f drdrg.obj
 0001:00051860       __pcd_tbl?_FSortAndMergeSnapPoints@@YAHPAV?$MSOTPX@J@@PAJHH@Z 10052860 f drdrg.obj
 0001:00051870       __nep?_FSortAndMergeSnapPoints@@YAHPAV?$MSOTPX@J@@PAJHH@Z 10052870 f drdrg.obj
 0001:00051878       __fh?_FSortAndMergeSnapPoints@@YAHPAV?$MSOTPX@J@@PAJHH@Z 10052878 f drdrg.obj
 0001:0005187a       ?_FSortAndMergeSnapPoints@@YAHPAV?$MSOTPX@J@@PAJHH@Z 1005287a f drdrg.obj
 0001:000518dc       __pcd_tbl?FInitSnap@DGVDRG@@QAAHXZ 100528dc f drdrg.obj
 0001:000518f0       __nep?FInitSnap@DGVDRG@@QAAHXZ 100528f0 f drdrg.obj
 0001:000518f8       __fh?FInitSnap@DGVDRG@@QAAHXZ 100528f8 f drdrg.obj
 0001:000518fb       ?FInitSnap@DGVDRG@@QAAHXZ  100528fb f drdrg.obj
 0001:00051a1c       __nep?ShapeTypeFromDgcid@@YA?AW4MSOSPT@@W4MSODGCID@@@Z 10052a1c f drdrg.obj
 0001:00051a1c       __pcd_tbl?ShapeTypeFromDgcid@@YA?AW4MSOSPT@@W4MSODGCID@@@Z 10052a1c f drdrg.obj
 0001:00051a24       __fh?ShapeTypeFromDgcid@@YA?AW4MSOSPT@@W4MSODGCID@@@Z 10052a24 f drdrg.obj
 0001:00051a26       ?ShapeTypeFromDgcid@@YA?AW4MSOSPT@@W4MSODGCID@@@Z 10052a26 f drdrg.obj
 0001:00051a40       __pcd_tbl?FBuildSnapPoints@DGVDRG@@QAAHXZ 10052a40 f drdrg.obj
 0001:00051a44       __nep?FBuildSnapPoints@DGVDRG@@QAAHXZ 10052a44 f drdrg.obj
 0001:00051a4c       __fh?FBuildSnapPoints@DGVDRG@@QAAHXZ 10052a4c f drdrg.obj
 0001:00051a4e       ?FBuildSnapPoints@DGVDRG@@QAAHXZ 10052a4e f drdrg.obj
 0001:00051ab0       __pcd_tbl?FHandleDefaultMessage@DGVDRG@@QAAHPAUtagMSG@@@Z 10052ab0 f drdrg.obj
 0001:00051ab0       __nep?FHandleDefaultMessage@DGVDRG@@QAAHPAUtagMSG@@@Z 10052ab0 f drdrg.obj
 0001:00051ab8       __fh?FHandleDefaultMessage@DGVDRG@@QAAHPAUtagMSG@@@Z 10052ab8 f drdrg.obj
 0001:00051aba       ?FHandleDefaultMessage@DGVDRG@@QAAHPAUtagMSG@@@Z 10052aba f drdrg.obj
 0001:00051ad0       ?FHandleShapeMessage@DGVDRG@@QAAHPAUtagMSG@@@Z 10052ad0 f drdrg.obj
 0001:000527b8       __pcd_tbl?FShouldScroll@DGVDRG@@QAAHPAUtagPOINT@@PAH@Z 100537b8 f drdrg.obj
 0001:000527d0       __nep?FShouldScroll@DGVDRG@@QAAHPAUtagPOINT@@PAH@Z 100537d0 f drdrg.obj
 0001:000527d8       __fh?FShouldScroll@DGVDRG@@QAAHPAUtagPOINT@@PAH@Z 100537d8 f drdrg.obj
 0001:000527db       ?FShouldScroll@DGVDRG@@QAAHPAUtagPOINT@@PAH@Z 100537db f drdrg.obj
 0001:000528b8       __pcd_tbl?DoScroll@DGVDRG@@QAAXPAUtagPOINT@@@Z 100538b8 f drdrg.obj
 0001:000528b8       __nep?DoScroll@DGVDRG@@QAAXPAUtagPOINT@@@Z 100538b8 f drdrg.obj
 0001:000528c0       __fh?DoScroll@DGVDRG@@QAAXPAUtagPOINT@@@Z 100538c0 f drdrg.obj
 0001:000528c2       ?DoScroll@DGVDRG@@QAAXPAUtagPOINT@@@Z 100538c2 f drdrg.obj
 0001:00052910       __pcd_tbl?ExecuteShape@DGVDRG@@QAAXH@Z 10053910 f drdrg.obj
 0001:00052960       __nep?ExecuteShape@DGVDRG@@QAAXH@Z 10053960 f drdrg.obj
 0001:00052968       __fh?ExecuteShape@DGVDRG@@QAAXH@Z 10053968 f drdrg.obj
 0001:0005296b       ?ExecuteShape@DGVDRG@@QAAXH@Z 1005396b f drdrg.obj
 0001:00052b78       __pcd_tbl?ExecuteLineShape@DGVDRG@@QAAXH@Z 10053b78 f drdrg.obj
 0001:00052bc0       __nep?ExecuteLineShape@DGVDRG@@QAAXH@Z 10053bc0 f drdrg.obj
 0001:00052bc8       __fh?ExecuteLineShape@DGVDRG@@QAAXH@Z 10053bc8 f drdrg.obj
 0001:00052bcb       ?ExecuteLineShape@DGVDRG@@QAAXH@Z 10053bcb f drdrg.obj
 0001:00052cf0       ?CalcCropParams@DGVDRG@@QAAXPAVDRGE@@PAJ@Z 10053cf0 f drdrg.obj
 0001:00053044       __pcd_tbl?FDoCropDrag@DGVDRG@@QAAHPAUDGCB@@@Z 10054044 f drdrg.obj
 0001:00053060       __nep?FDoCropDrag@DGVDRG@@QAAHPAUDGCB@@@Z 10054060 f drdrg.obj
 0001:00053068       __fh?FDoCropDrag@DGVDRG@@QAAHPAUDGCB@@@Z 10054068 f drdrg.obj
 0001:0005306a       ?FDoCropDrag@DGVDRG@@QAAHPAUDGCB@@@Z 1005406a f drdrg.obj
 0001:00053158       __pcd_tbl?DoEdit@DGVDRG@@QAAXPAUDGCB@@@Z 10054158 f drdrg.obj
 0001:000531d0       __nep?DoEdit@DGVDRG@@QAAXPAUDGCB@@@Z 100541d0 f drdrg.obj
 0001:000531d8       __fh?DoEdit@DGVDRG@@QAAXPAUDGCB@@@Z 100541d8 f drdrg.obj
 0001:000531db       ?DoEdit@DGVDRG@@QAAXPAUDGCB@@@Z 100541db f drdrg.obj
 0001:00053614       __pcd_tbl?InsertShapeFromUi@DG@@QAAXPAVDGV@@PAUMSOSP@@PAUtagRECT@@W4MSODGCID@@PAJ@Z 10054614 f drdrg.obj
 0001:00053658       __nep?InsertShapeFromUi@DG@@QAAXPAVDGV@@PAUMSOSP@@PAUtagRECT@@W4MSODGCID@@PAJ@Z 10054658 f drdrg.obj
 0001:00053660       __fh?InsertShapeFromUi@DG@@QAAXPAVDGV@@PAUMSOSP@@PAUtagRECT@@W4MSODGCID@@PAJ@Z 10054660 f drdrg.obj
 0001:00053663       ?InsertShapeFromUi@DG@@QAAXPAVDGV@@PAUMSOSP@@PAUtagRECT@@W4MSODGCID@@PAJ@Z 10054663 f drdrg.obj
 0001:00053804       __pcd_tbl?FAdjustCallout@@YAHPAUMSOSP@@PAUtagPOINT@@1@Z 10054804 f drdrg.obj
 0001:0005380c       __nep?FAdjustCallout@@YAHPAUMSOSP@@PAUtagPOINT@@1@Z 1005480c f drdrg.obj
 0001:00053814       __fh?FAdjustCallout@@YAHPAUMSOSP@@PAUtagPOINT@@1@Z 10054814 f drdrg.obj
 0001:00053816       ?FAdjustCallout@@YAHPAUMSOSP@@PAUtagPOINT@@1@Z 10054816 f drdrg.obj
 0001:0005383c       __pcd_tbl?FDoEditRecordVBA@DGVDRG@@QAAHPAUDGCB@@@Z 1005483c f drdrg.obj
 0001:0005386c       __nep?FDoEditRecordVBA@DGVDRG@@QAAHPAUDGCB@@@Z 1005486c f drdrg.obj
 0001:00053874       __fh?FDoEditRecordVBA@DGVDRG@@QAAHPAUDGCB@@@Z 10054874 f drdrg.obj
 0001:00053877       ?FDoEditRecordVBA@DGVDRG@@QAAHPAUDGCB@@@Z 10054877 f drdrg.obj
 0001:00053934       __pcd_tbl?FInsertDrag@DGVDRG@@QAAHXZ 10054934 f drdrg.obj
 0001:00053934       __nep?FInsertDrag@DGVDRG@@QAAHXZ 10054934 f drdrg.obj
 0001:0005393c       __fh?FInsertDrag@DGVDRG@@QAAHXZ 1005493c f drdrg.obj
 0001:0005393e       ?FInsertDrag@DGVDRG@@QAAHXZ 1005493e f drdrg.obj
 0001:00053958       __pcd_tbl?SetKeyboardModifiers@DGVDRG@@QAAXPAUtagMSG@@@Z 10054958 f drdrg.obj
 0001:00053958       __nep?SetKeyboardModifiers@DGVDRG@@QAAXPAUtagMSG@@@Z 10054958 f drdrg.obj
 0001:00053960       __fh?SetKeyboardModifiers@DGVDRG@@QAAXPAUtagMSG@@@Z 10054960 f drdrg.obj
 0001:00053962       ?SetKeyboardModifiers@DGVDRG@@QAAXPAUtagMSG@@@Z 10054962 f drdrg.obj
 0001:00053a38       __pcd_tbl?MoveShapesInView@DGVDRG@@QAAXH@Z 10054a38 f drdrg.obj
 0001:00053a48       __nep?MoveShapesInView@DGVDRG@@QAAXH@Z 10054a48 f drdrg.obj
 0001:00053a50       __fh?MoveShapesInView@DGVDRG@@QAAXH@Z 10054a50 f drdrg.obj
 0001:00053a52       ?MoveShapesInView@DGVDRG@@QAAXH@Z 10054a52 f drdrg.obj
 0001:00053aac       __pcd_tbl?SetDragHandles@DGVDRG@@QAAXXZ 10054aac f drdrg.obj
 0001:00053ab8       __nep?SetDragHandles@DGVDRG@@QAAXXZ 10054ab8 f drdrg.obj
 0001:00053ac0       __fh?SetDragHandles@DGVDRG@@QAAXXZ 10054ac0 f drdrg.obj
 0001:00053ac3       ?SetDragHandles@DGVDRG@@QAAXXZ 10054ac3 f drdrg.obj
 0001:00053b44       __pcd_tbl?FRecordCloneShapesInView@DGVDRG@@QAAHPAUDGCB@@@Z 10054b44 f drdrg.obj
 0001:00053b48       __nep?FRecordCloneShapesInView@DGVDRG@@QAAHPAUDGCB@@@Z 10054b48 f drdrg.obj
 0001:00053b50       __fh?FRecordCloneShapesInView@DGVDRG@@QAAHPAUDGCB@@@Z 10054b50 f drdrg.obj
 0001:00053b52       ?FRecordCloneShapesInView@DGVDRG@@QAAHPAUDGCB@@@Z 10054b52 f drdrg.obj
 0001:00053b68       __pcd_tbl?FRecordMoveShapesInView@DGVDRG@@QAAHPAUDGCB@@@Z 10054b68 f drdrg.obj
 0001:00053b6c       __nep?FRecordMoveShapesInView@DGVDRG@@QAAHPAUDGCB@@@Z 10054b6c f drdrg.obj
 0001:00053b74       __fh?FRecordMoveShapesInView@DGVDRG@@QAAHPAUDGCB@@@Z 10054b74 f drdrg.obj
 0001:00053b76       ?FRecordMoveShapesInView@DGVDRG@@QAAHPAUDGCB@@@Z 10054b76 f drdrg.obj
 0001:00053b84       __nep?DrawButton@DGVDRG@@QAAXH@Z 10054b84 f drdrg.obj
 0001:00053b84       __pcd_tbl?DrawButton@DGVDRG@@QAAXH@Z 10054b84 f drdrg.obj
 0001:00053b8c       __fh?DrawButton@DGVDRG@@QAAXH@Z 10054b8c f drdrg.obj
 0001:00053b8e       ?DrawButton@DGVDRG@@QAAXH@Z 10054b8e f drdrg.obj
 0001:00053bb8       __pcd_tbl?_DrawShapes@DGVDRG@@QAAXH@Z 10054bb8 f drdrg.obj
 0001:00053bc8       __nep?_DrawShapes@DGVDRG@@QAAXH@Z 10054bc8 f drdrg.obj
 0001:00053bd0       __fh?_DrawShapes@DGVDRG@@QAAXH@Z 10054bd0 f drdrg.obj
 0001:00053bd3       ?_DrawShapes@DGVDRG@@QAAXH@Z 10054bd3 f drdrg.obj
 0001:00053c0c       __pcd_tbl?FillSvi@DGVDRG@@QAAXPAU_MSOSVI@@PAVDRGE@@@Z 10054c0c f drdrg.obj
 0001:00053c18       __nep?FillSvi@DGVDRG@@QAAXPAU_MSOSVI@@PAVDRGE@@@Z 10054c18 f drdrg.obj
 0001:00053c20       __fh?FillSvi@DGVDRG@@QAAXPAU_MSOSVI@@PAVDRGE@@@Z 10054c20 f drdrg.obj
 0001:00053c22       ?FillSvi@DGVDRG@@QAAXPAU_MSOSVI@@PAVDRGE@@@Z 10054c22 f drdrg.obj
 0001:00053c98       ?UpdateSingleShape@DGVDRG@@QAAXPAVDRGE@@PAUtagPOINT@@@Z 10054c98 f drdrg.obj
 0001:00055338       __pcd_tbl?_DrawSingleShape@DGVDRG@@QAAXPAVDRGE@@H@Z 10056338 f drdrg.obj
 0001:00055354       __nep?_DrawSingleShape@DGVDRG@@QAAXPAVDRGE@@H@Z 10056354 f drdrg.obj
 0001:0005535c       __fh?_DrawSingleShape@DGVDRG@@QAAXPAVDRGE@@H@Z 1005635c f drdrg.obj
 0001:0005535f       ?_DrawSingleShape@DGVDRG@@QAAXPAVDRGE@@H@Z 1005635f f drdrg.obj
 0001:00055450       __pcd_tbl?UpdateSingleGhost@DGVDRG@@QAAXH@Z 10056450 f drdrg.obj
 0001:0005545c       __nep?UpdateSingleGhost@DGVDRG@@QAAXH@Z 1005645c f drdrg.obj
 0001:00055464       __fh?UpdateSingleGhost@DGVDRG@@QAAXH@Z 10056464 f drdrg.obj
 0001:00055466       ?UpdateSingleGhost@DGVDRG@@QAAXH@Z 10056466 f drdrg.obj
 0001:000554c0       __pcd_tbl?SnapPoint@DGVDRG@@QAAXPAUtagPOINT@@PAVCST@@@Z 100564c0 f drdrg.obj
 0001:000554dc       __nep?SnapPoint@DGVDRG@@QAAXPAUtagPOINT@@PAVCST@@@Z 100564dc f drdrg.obj
 0001:000554e4       __fh?SnapPoint@DGVDRG@@QAAXPAUtagPOINT@@PAVCST@@@Z 100564e4 f drdrg.obj
 0001:000554e7       ?SnapPoint@DGVDRG@@QAAXPAUtagPOINT@@PAVCST@@@Z 100564e7 f drdrg.obj
 0001:000556c0       __pcd_tbl?_FSnapXY@DGVDRG@@QAAHPAV?$MSOTPX@J@@PAJJ@Z 100566c0 f drdrg.obj
 0001:000556c4       __nep?_FSnapXY@DGVDRG@@QAAHPAV?$MSOTPX@J@@PAJJ@Z 100566c4 f drdrg.obj
 0001:000556cc       __fh?_FSnapXY@DGVDRG@@QAAHPAV?$MSOTPX@J@@PAJJ@Z 100566cc f drdrg.obj
 0001:000556ce       ?_FSnapXY@DGVDRG@@QAAHPAV?$MSOTPX@J@@PAJJ@Z 100566ce f drdrg.obj
 0001:000556e0       __pcd_tbl?UpdateCoordsForDisplay@DGVDRG@@QAAXPAVDRGE@@@Z 100566e0 f drdrg.obj
 0001:000556e8       __nep?UpdateCoordsForDisplay@DGVDRG@@QAAXPAVDRGE@@@Z 100566e8 f drdrg.obj
 0001:000556f0       __fh?UpdateCoordsForDisplay@DGVDRG@@QAAXPAVDRGE@@@Z 100566f0 f drdrg.obj
 0001:000556f2       ?UpdateCoordsForDisplay@DGVDRG@@QAAXPAVDRGE@@@Z 100566f2 f drdrg.obj
 0001:00055718       __pcd_tbl?ConvVToI@DGVDRG@@QAAXPAUtagPOINT@@0H@Z 10056718 f drdrg.obj
 0001:0005571c       __nep?ConvVToI@DGVDRG@@QAAXPAUtagPOINT@@0H@Z 1005671c f drdrg.obj
 0001:00055724       __fh?ConvVToI@DGVDRG@@QAAXPAUtagPOINT@@0H@Z 10056724 f drdrg.obj
 0001:00055726       ?ConvVToI@DGVDRG@@QAAXPAUtagPOINT@@0H@Z 10056726 f drdrg.obj
 0001:00055758       __pcd_tbl?ConvIToV@DGVDRG@@QAAXPAUtagPOINT@@0H@Z 10056758 f drdrg.obj
 0001:0005575c       __nep?ConvIToV@DGVDRG@@QAAXPAUtagPOINT@@0H@Z 1005675c f drdrg.obj
 0001:00055764       __fh?ConvIToV@DGVDRG@@QAAXPAUtagPOINT@@0H@Z 10056764 f drdrg.obj
 0001:00055766       ?ConvIToV@DGVDRG@@QAAXPAUtagPOINT@@0H@Z 10056766 f drdrg.obj
 0001:00055798       __pcd_tbl?ConvVToH@DGVDRG@@QAAXPAUtagPOINT@@0H@Z 10056798 f drdrg.obj
 0001:000557a0       __nep?ConvVToH@DGVDRG@@QAAXPAUtagPOINT@@0H@Z 100567a0 f drdrg.obj
 0001:000557a8       __fh?ConvVToH@DGVDRG@@QAAXPAUtagPOINT@@0H@Z 100567a8 f drdrg.obj
 0001:000557aa       ?ConvVToH@DGVDRG@@QAAXPAUtagPOINT@@0H@Z 100567aa f drdrg.obj
 0001:000557b8       __pcd_tbl?ConvHToV@DGVDRG@@QAAXPAUtagPOINT@@0H@Z 100567b8 f drdrg.obj
 0001:000557c0       __nep?ConvHToV@DGVDRG@@QAAXPAUtagPOINT@@0H@Z 100567c0 f drdrg.obj
 0001:000557c8       __fh?ConvHToV@DGVDRG@@QAAXPAUtagPOINT@@0H@Z 100567c8 f drdrg.obj
 0001:000557ca       ?ConvHToV@DGVDRG@@QAAXPAUtagPOINT@@0H@Z 100567ca f drdrg.obj
 0001:000557d8       __pcd_tbl?ConvHToI@DGVDRG@@QAAXPAUtagPOINT@@0H@Z 100567d8 f drdrg.obj
 0001:000557d8       __nep?ConvHToI@DGVDRG@@QAAXPAUtagPOINT@@0H@Z 100567d8 f drdrg.obj
 0001:000557e0       __fh?ConvHToI@DGVDRG@@QAAXPAUtagPOINT@@0H@Z 100567e0 f drdrg.obj
 0001:000557e2       ?ConvHToI@DGVDRG@@QAAXPAUtagPOINT@@0H@Z 100567e2 f drdrg.obj
 0001:00055804       __nep?ConvIToH@DGVDRG@@QAAXPAUtagPOINT@@0H@Z 10056804 f drdrg.obj
 0001:00055804       __pcd_tbl?ConvIToH@DGVDRG@@QAAXPAUtagPOINT@@0H@Z 10056804 f drdrg.obj
 0001:0005580c       __fh?ConvIToH@DGVDRG@@QAAXPAUtagPOINT@@0H@Z 1005680c f drdrg.obj
 0001:0005580e       ?ConvIToH@DGVDRG@@QAAXPAUtagPOINT@@0H@Z 1005680e f drdrg.obj
 0001:00055830       __pcd_tbl?ConvWToV@DGVDRG@@QAAXPAUtagPOINT@@0H@Z 10056830 f drdrg.obj
 0001:00055834       __nep?ConvWToV@DGVDRG@@QAAXPAUtagPOINT@@0H@Z 10056834 f drdrg.obj
 0001:0005583c       __fh?ConvWToV@DGVDRG@@QAAXPAUtagPOINT@@0H@Z 1005683c f drdrg.obj
 0001:0005583e       ?ConvWToV@DGVDRG@@QAAXPAUtagPOINT@@0H@Z 1005683e f drdrg.obj
 0001:00055878       __pcd_tbl?ConvVToW@DGVDRG@@QAAXPAUtagPOINT@@0H@Z 10056878 f drdrg.obj
 0001:0005587c       __nep?ConvVToW@DGVDRG@@QAAXPAUtagPOINT@@0H@Z 1005687c f drdrg.obj
 0001:00055884       __fh?ConvVToW@DGVDRG@@QAAXPAUtagPOINT@@0H@Z 10056884 f drdrg.obj
 0001:00055886       ?ConvVToW@DGVDRG@@QAAXPAUtagPOINT@@0H@Z 10056886 f drdrg.obj
 0001:000558bc       __nep?FEnumShapes@DGVDRG@@QAAHPAVDRGEN@@@Z 100568bc f drdrg.obj
 0001:000558bc       __pcd_tbl?FEnumShapes@DGVDRG@@QAAHPAVDRGEN@@@Z 100568bc f drdrg.obj
 0001:000558c4       __fh?FEnumShapes@DGVDRG@@QAAHPAVDRGEN@@@Z 100568c4 f drdrg.obj
 0001:000558c6       ?FEnumShapes@DGVDRG@@QAAHPAVDRGEN@@@Z 100568c6 f drdrg.obj
 0001:000558e0       __pcd_tbl?FEmfDragEnter@DGVDRG@@QAAHPAUIDataObject@@PAUtagPOINT@@@Z 100568e0 f drdrg.obj
 0001:0005590c       __nep?FEmfDragEnter@DGVDRG@@QAAHPAUIDataObject@@PAUtagPOINT@@@Z 1005690c f drdrg.obj
 0001:00055914       __fh?FEmfDragEnter@DGVDRG@@QAAHPAUIDataObject@@PAUtagPOINT@@@Z 10056914 f drdrg.obj
 0001:00055917       ?FEmfDragEnter@DGVDRG@@QAAHPAUIDataObject@@PAUtagPOINT@@@Z 10056917 f drdrg.obj
 0001:00055afc       __pcd_tbl?DragEnter@DGVDRG@@QAAJPAUIDataObject@@KPBU_POINTL@@PAK@Z 10056afc f drdrg.obj
 0001:00055b2c       __nep?DragEnter@DGVDRG@@QAAJPAUIDataObject@@KPBU_POINTL@@PAK@Z 10056b2c f drdrg.obj
 0001:00055b34       __fh?DragEnter@DGVDRG@@QAAJPAUIDataObject@@KPBU_POINTL@@PAK@Z 10056b34 f drdrg.obj
 0001:00055b37       ?DragEnter@DGVDRG@@QAAJPAUIDataObject@@KPBU_POINTL@@PAK@Z 10056b37 f drdrg.obj
 0001:00055ca8       __pcd_tbl?DragOver@DGVDRG@@QAAJKPBU_POINTL@@PAK@Z 10056ca8 f drdrg.obj
 0001:00055cb0       __nep?DragOver@DGVDRG@@QAAJKPBU_POINTL@@PAK@Z 10056cb0 f drdrg.obj
 0001:00055cb8       __fh?DragOver@DGVDRG@@QAAJKPBU_POINTL@@PAK@Z 10056cb8 f drdrg.obj
 0001:00055cba       ?DragOver@DGVDRG@@QAAJKPBU_POINTL@@PAK@Z 10056cba f drdrg.obj
 0001:00055d34       __pcd_tbl?DragLeave@DGVDRG@@QAAJXZ 10056d34 f drdrg.obj
 0001:00055d44       __nep?DragLeave@DGVDRG@@QAAJXZ 10056d44 f drdrg.obj
 0001:00055d4c       __fh?DragLeave@DGVDRG@@QAAJXZ 10056d4c f drdrg.obj
 0001:00055d4e       ?DragLeave@DGVDRG@@QAAJXZ  10056d4e f drdrg.obj
 0001:00055d68       __pcd_tbl?FCanCopy@DGVDRG@@QAAHXZ 10056d68 f drdrg.obj
 0001:00055d74       __nep?FCanCopy@DGVDRG@@QAAHXZ 10056d74 f drdrg.obj
 0001:00055d7c       __fh?FCanCopy@DGVDRG@@QAAHXZ 10056d7c f drdrg.obj
 0001:00055d7f       ?FCanCopy@DGVDRG@@QAAHXZ   10056d7f f drdrg.obj
 0001:00055db0       __pcd_tbl?NPopupMenu@DGVDRG@@QAAHXZ 10056db0 f drdrg.obj
 0001:00055dbc       __nep?NPopupMenu@DGVDRG@@QAAHXZ 10056dbc f drdrg.obj
 0001:00055dc4       __fh?NPopupMenu@DGVDRG@@QAAHXZ 10056dc4 f drdrg.obj
 0001:00055dc7       ?NPopupMenu@DGVDRG@@QAAHXZ 10056dc7 f drdrg.obj
 0001:00055e14       __pcd_tbl?Drop@DGVDRG@@QAAJPAUIDataObject@@KPAU_POINTL@@PAK@Z 10056e14 f drdrg.obj
 0001:00055e2c       __nep?Drop@DGVDRG@@QAAJPAUIDataObject@@KPAU_POINTL@@PAK@Z 10056e2c f drdrg.obj
 0001:00055e34       __fh?Drop@DGVDRG@@QAAJPAUIDataObject@@KPAU_POINTL@@PAK@Z 10056e34 f drdrg.obj
 0001:00055e36       ?Drop@DGVDRG@@QAAJPAUIDataObject@@KPAU_POINTL@@PAK@Z 10056e36 f drdrg.obj
 0001:00055e9c       __pcd_tbl?FReadFromStream@DGVDRG@@QAAHPAUtagSTGMEDIUM@@@Z 10056e9c f drdrg.obj
 0001:00055eb4       __nep?FReadFromStream@DGVDRG@@QAAHPAUtagSTGMEDIUM@@@Z 10056eb4 f drdrg.obj
 0001:00055ebc       __fh?FReadFromStream@DGVDRG@@QAAHPAUtagSTGMEDIUM@@@Z 10056ebc f drdrg.obj
 0001:00055ebf       ?FReadFromStream@DGVDRG@@QAAHPAUtagSTGMEDIUM@@@Z 10056ebf f drdrg.obj
 0001:00055f78       __pcd_tbl?FCreateStream@DGVDRG@@QAAHPAPAUIStream@@@Z 10056f78 f drdrg.obj
 0001:00055f84       __nep?FCreateStream@DGVDRG@@QAAHPAPAUIStream@@@Z 10056f84 f drdrg.obj
 0001:00055f8c       __fh?FCreateStream@DGVDRG@@QAAHPAPAUIStream@@@Z 10056f8c f drdrg.obj
 0001:00055f8e       ?FCreateStream@DGVDRG@@QAAHPAPAUIStream@@@Z 10056f8e f drdrg.obj
 0001:00055ff0       __pcd_tbl?FGetData@DGVDRG@@QAAHPAPAUIStream@@@Z 10056ff0 f drdrg.obj
 0001:00056004       __nep?FGetData@DGVDRG@@QAAHPAPAUIStream@@@Z 10057004 f drdrg.obj
 0001:0005600c       __fh?FGetData@DGVDRG@@QAAHPAPAUIStream@@@Z 1005700c f drdrg.obj
 0001:0005600f       ?FGetData@DGVDRG@@QAAHPAPAUIStream@@@Z 1005700f f drdrg.obj
 0001:000560e0       __pcd_tbl?HGetDataAsMetafile@DGVDRG@@QAAPAXH@Z 100570e0 f drdrg.obj
 0001:000560e0       __nep?HGetDataAsMetafile@DGVDRG@@QAAPAXH@Z 100570e0 f drdrg.obj
 0001:000560e8       __fh?HGetDataAsMetafile@DGVDRG@@QAAPAXH@Z 100570e8 f drdrg.obj
 0001:000560ea       ?HGetDataAsMetafile@DGVDRG@@QAAPAXH@Z 100570ea f drdrg.obj
 0001:00056150       __pcd_tbl?FHandleMarqueeMessage@DGVDRG@@QAAHPAUtagMSG@@@Z 10057150 f drdrg.obj
 0001:00056184       __nep?FHandleMarqueeMessage@DGVDRG@@QAAHPAUtagMSG@@@Z 10057184 f drdrg.obj
 0001:0005618c       __fh?FHandleMarqueeMessage@DGVDRG@@QAAHPAUtagMSG@@@Z 1005718c f drdrg.obj
 0001:0005618e       ?FHandleMarqueeMessage@DGVDRG@@QAAHPAUtagMSG@@@Z 1005718e f drdrg.obj
 0001:00056288       __pcd_tbl?ExecuteMarquee@DGVDRG@@QAAXXZ 10057288 f drdrg.obj
 0001:00056294       __nep?ExecuteMarquee@DGVDRG@@QAAXXZ 10057294 f drdrg.obj
 0001:0005629c       __fh?ExecuteMarquee@DGVDRG@@QAAXXZ 1005729c f drdrg.obj
 0001:0005629e       ?ExecuteMarquee@DGVDRG@@QAAXXZ 1005729e f drdrg.obj
 0001:000562d4       __pcd_tbl?FCommandMarquee@@YAHPAUDGCB@@@Z 100572d4 f drdrg.obj
 0001:000562ec       __nep?FCommandMarquee@@YAHPAUDGCB@@@Z 100572ec f drdrg.obj
 0001:000562f4       __fh?FCommandMarquee@@YAHPAUDGCB@@@Z 100572f4 f drdrg.obj
 0001:000562f6       ?FCommandMarquee@@YAHPAUDGCB@@@Z 100572f6 f drdrg.obj
 0001:0005638c       __pcd_tbl?FInitPolygonCreate@DGVDRG@@QAAHPAU_MSODMHD@@@Z 1005738c f drdrg.obj
 0001:000563b4       __nep?FInitPolygonCreate@DGVDRG@@QAAHPAU_MSODMHD@@@Z 100573b4 f drdrg.obj
 0001:000563bc       __fh?FInitPolygonCreate@DGVDRG@@QAAHPAU_MSODMHD@@@Z 100573bc f drdrg.obj
 0001:000563bf       ?FInitPolygonCreate@DGVDRG@@QAAHPAU_MSODMHD@@@Z 100573bf f drdrg.obj
 0001:000564a4       __pcd_tbl?FInitPolygonReshape@DGVDRG@@QAAHPAU_MSODMHD@@@Z 100574a4 f drdrg.obj
 0001:00056510       __nep?FInitPolygonReshape@DGVDRG@@QAAHPAU_MSODMHD@@@Z 10057510 f drdrg.obj
 0001:00056518       __fh?FInitPolygonReshape@DGVDRG@@QAAHPAU_MSODMHD@@@Z 10057518 f drdrg.obj
 0001:0005651b       ?FInitPolygonReshape@DGVDRG@@QAAHPAU_MSODMHD@@@Z 1005751b f drdrg.obj
 0001:00056804       __pcd_tbl?ExecutePolygonShape@DGVDRG@@QAAXH@Z 10057804 f drdrg.obj
 0001:00056818       __nep?ExecutePolygonShape@DGVDRG@@QAAXH@Z 10057818 f drdrg.obj
 0001:00056820       __fh?ExecutePolygonShape@DGVDRG@@QAAXH@Z 10057820 f drdrg.obj
 0001:00056823       ?ExecutePolygonShape@DGVDRG@@QAAXH@Z 10057823 f drdrg.obj
 0001:00056890       __pcd_tbl?ExecutePolygonReshape@DGVDRG@@QAAXH@Z 10057890 f drdrg.obj
 0001:000568b8       __nep?ExecutePolygonReshape@DGVDRG@@QAAXH@Z 100578b8 f drdrg.obj
 0001:000568c0       __fh?ExecutePolygonReshape@DGVDRG@@QAAXH@Z 100578c0 f drdrg.obj
 0001:000568c3       ?ExecutePolygonReshape@DGVDRG@@QAAXH@Z 100578c3 f drdrg.obj
 0001:00056954       __pcd_tbl?FHandlePolygonMessage@DGVDRG@@QAAHPAUtagMSG@@@Z 10057954 f drdrg.obj
 0001:000569b4       __nep?FHandlePolygonMessage@DGVDRG@@QAAHPAUtagMSG@@@Z 100579b4 f drdrg.obj
 0001:000569bc       __fh?FHandlePolygonMessage@DGVDRG@@QAAHPAUtagMSG@@@Z 100579bc f drdrg.obj
 0001:000569bf       ?FHandlePolygonMessage@DGVDRG@@QAAHPAUtagMSG@@@Z 100579bf f drdrg.obj
 0001:00056b84       __pcd_tbl?FHandleReshapeMessage@DGVDRG@@QAAHPAUtagMSG@@@Z 10057b84 f drdrg.obj
 0001:00056bd4       __nep?FHandleReshapeMessage@DGVDRG@@QAAHPAUtagMSG@@@Z 10057bd4 f drdrg.obj
 0001:00056bdc       __fh?FHandleReshapeMessage@DGVDRG@@QAAHPAUtagMSG@@@Z 10057bdc f drdrg.obj
 0001:00056bdf       ?FHandleReshapeMessage@DGVDRG@@QAAHPAUtagMSG@@@Z 10057bdf f drdrg.obj
 0001:00056da0       __pcd_tbl?PspvButton@DGVDRG@@QAAPAUSPV@@XZ 10057da0 f drdrg.obj
 0001:00056da0       __nep?PspvButton@DGVDRG@@QAAPAUSPV@@XZ 10057da0 f drdrg.obj
 0001:00056da8       __fh?PspvButton@DGVDRG@@QAAPAUSPV@@XZ 10057da8 f drdrg.obj
 0001:00056daa       ?PspvButton@DGVDRG@@QAAPAUSPV@@XZ 10057daa f drdrg.obj
 0001:00056db8       __pcd_tbl?ExecuteButton@DGVDRG@@QAAXH@Z 10057db8 f drdrg.obj
 0001:00056de4       __nep?ExecuteButton@DGVDRG@@QAAXH@Z 10057de4 f drdrg.obj
 0001:00056dec       __fh?ExecuteButton@DGVDRG@@QAAXH@Z 10057dec f drdrg.obj
 0001:00056def       ?ExecuteButton@DGVDRG@@QAAXH@Z 10057def f drdrg.obj
 0001:00056e74       __pcd_tbl?FInitButtonShape@DGVDRG@@QAAHPAU_MSODMHD@@@Z 10057e74 f drdrg.obj
 0001:00056ed0       __nep?FInitButtonShape@DGVDRG@@QAAHPAU_MSODMHD@@@Z 10057ed0 f drdrg.obj
 0001:00056ed8       __fh?FInitButtonShape@DGVDRG@@QAAHPAU_MSODMHD@@@Z 10057ed8 f drdrg.obj
 0001:00056edb       ?FInitButtonShape@DGVDRG@@QAAHPAU_MSODMHD@@@Z 10057edb f drdrg.obj
 0001:00057108       __pcd_tbl?FHandleButtonMessage@DGVDRG@@QAAHPAUtagMSG@@@Z 10058108 f drdrg.obj
 0001:00057158       __nep?FHandleButtonMessage@DGVDRG@@QAAHPAUtagMSG@@@Z 10058158 f drdrg.obj
 0001:00057160       __fh?FHandleButtonMessage@DGVDRG@@QAAHPAUtagMSG@@@Z 10058160 f drdrg.obj
 0001:00057163       ?FHandleButtonMessage@DGVDRG@@QAAHPAUtagMSG@@@Z 10058163 f drdrg.obj
 0001:000572b8       __pcd_tbl?FInitConnector@DGVDRG@@QAAHPAU_MSODMHD@@@Z 100582b8 f drdrg.obj
 0001:00057300       __nep?FInitConnector@DGVDRG@@QAAHPAU_MSODMHD@@@Z 10058300 f drdrg.obj
 0001:00057308       __fh?FInitConnector@DGVDRG@@QAAHPAU_MSODMHD@@@Z 10058308 f drdrg.obj
 0001:0005730b       ?FInitConnector@DGVDRG@@QAAHPAU_MSODMHD@@@Z 1005830b f drdrg.obj
 0001:00057520       __pcd_tbl?FRecordConnector@DGVDRG@@QAAHPAUDGCB@@W4MSODGCID@@@Z 10058520 f drdrg.obj
 0001:0005752c       __nep?FRecordConnector@DGVDRG@@QAAHPAUDGCB@@W4MSODGCID@@@Z 1005852c f drdrg.obj
 0001:00057534       __fh?FRecordConnector@DGVDRG@@QAAHPAUDGCB@@W4MSODGCID@@@Z 10058534 f drdrg.obj
 0001:00057536       ?FRecordConnector@DGVDRG@@QAAHPAUDGCB@@W4MSODGCID@@@Z 10058536 f drdrg.obj
 0001:00057584       __pcd_tbl?ExecuteConnector@DGVDRG@@QAAXXZ 10058584 f drdrg.obj
 0001:000575b4       __nep?ExecuteConnector@DGVDRG@@QAAXXZ 100585b4 f drdrg.obj
 0001:000575bc       __fh?ExecuteConnector@DGVDRG@@QAAXXZ 100585bc f drdrg.obj
 0001:000575bf       ?ExecuteConnector@DGVDRG@@QAAXXZ 100585bf f drdrg.obj
 0001:000576f8       __pcd_tbl?FHandleConnectorMessage@DGVDRG@@QAAHPAUtagMSG@@@Z 100586f8 f drdrg.obj
 0001:0005773c       __nep?FHandleConnectorMessage@DGVDRG@@QAAHPAUtagMSG@@@Z 1005873c f drdrg.obj
 0001:00057744       __fh?FHandleConnectorMessage@DGVDRG@@QAAHPAUtagMSG@@@Z 10058744 f drdrg.obj
 0001:00057747       ?FHandleConnectorMessage@DGVDRG@@QAAHPAUtagMSG@@@Z 10058747 f drdrg.obj
 0001:0005786c       __pcd_tbl?UpdateConnector@DGVDRG@@QAAXPAUtagPOINT@@W4MSOCXSP@@PAUMSOSP@@J@Z 1005886c f drdrg.obj
 0001:00057894       __nep?UpdateConnector@DGVDRG@@QAAXPAUtagPOINT@@W4MSOCXSP@@PAUMSOSP@@J@Z 10058894 f drdrg.obj
 0001:0005789c       __fh?UpdateConnector@DGVDRG@@QAAXPAUtagPOINT@@W4MSOCXSP@@PAUMSOSP@@J@Z 1005889c f drdrg.obj
 0001:0005789e       ?UpdateConnector@DGVDRG@@QAAXPAUtagPOINT@@W4MSOCXSP@@PAUMSOSP@@J@Z 1005889e f drdrg.obj
 0001:00057928       __pcd_tbl?FInitReconnect@DGVDRG@@QAAHPAU_MSODMHD@@@Z 10058928 f drdrg.obj
 0001:00057954       __nep?FInitReconnect@DGVDRG@@QAAHPAU_MSODMHD@@@Z 10058954 f drdrg.obj
 0001:0005795c       __fh?FInitReconnect@DGVDRG@@QAAHPAU_MSODMHD@@@Z 1005895c f drdrg.obj
 0001:0005795f       ?FInitReconnect@DGVDRG@@QAAHPAU_MSODMHD@@@Z 1005895f f drdrg.obj
 0001:00057abc       __pcd_tbl?FRecordReconnect@DGVDRG@@QAAHPAUDGCB@@@Z 10058abc f drdrg.obj
 0001:00057acc       __nep?FRecordReconnect@DGVDRG@@QAAHPAUDGCB@@@Z 10058acc f drdrg.obj
 0001:00057ad4       __fh?FRecordReconnect@DGVDRG@@QAAHPAUDGCB@@@Z 10058ad4 f drdrg.obj
 0001:00057ad6       ?FRecordReconnect@DGVDRG@@QAAHPAUDGCB@@@Z 10058ad6 f drdrg.obj
 0001:00057b5c       __pcd_tbl?ExecuteReconnect@DGVDRG@@QAAXXZ 10058b5c f drdrg.obj
 0001:00057b70       __nep?ExecuteReconnect@DGVDRG@@QAAXXZ 10058b70 f drdrg.obj
 0001:00057b78       __fh?ExecuteReconnect@DGVDRG@@QAAXXZ 10058b78 f drdrg.obj
 0001:00057b7b       ?ExecuteReconnect@DGVDRG@@QAAXXZ 10058b7b f drdrg.obj
 0001:00057c5c       __pcd_tbl?FHandleReconnectMessage@DGVDRG@@QAAHPAUtagMSG@@@Z 10058c5c f drdrg.obj
 0001:00057cb0       __nep?FHandleReconnectMessage@DGVDRG@@QAAHPAUtagMSG@@@Z 10058cb0 f drdrg.obj
 0001:00057cb8       __fh?FHandleReconnectMessage@DGVDRG@@QAAHPAUtagMSG@@@Z 10058cb8 f drdrg.obj
 0001:00057cbb       ?FHandleReconnectMessage@DGVDRG@@QAAHPAUtagMSG@@@Z 10058cbb f drdrg.obj
 0001:00057e20       __pcd_tbl?SendHostMessage@DGVDRG@@QAAXHW4MSODGE@@PAU_MSODRGPRC@@PAUMSODGVEB@@@Z 10058e20 f drdrg.obj
 0001:00057e38       __nep?SendHostMessage@DGVDRG@@QAAXHW4MSODGE@@PAU_MSODRGPRC@@PAUMSODGVEB@@@Z 10058e38 f drdrg.obj
 0001:00057e40       __fh?SendHostMessage@DGVDRG@@QAAXHW4MSODGE@@PAU_MSODRGPRC@@PAUMSODGVEB@@@Z 10058e40 f drdrg.obj
 0001:00057e42       ?SendHostMessage@DGVDRG@@QAAXHW4MSODGE@@PAU_MSODRGPRC@@PAUMSODGVEB@@@Z 10058e42 f drdrg.obj
 0001:00057f14       __nep?FbvOfFbt@@YAEW4MSOFBT@@@Z 10058f14 f drfile.obj
 0001:00057f14       __pcd_tbl?FbvOfFbt@@YAEW4MSOFBT@@@Z 10058f14 f drfile.obj
 0001:00057f1c       __fh?FbvOfFbt@@YAEW4MSOFBT@@@Z 10058f1c f drfile.obj
 0001:00057f1e       ?FbvOfFbt@@YAEW4MSOFBT@@@Z 10058f1e f drfile.obj
 0001:00057f44       __pcd_tbl?FAbortYieldSave@DGG@@QAAHPAVSVB@@@Z 10058f44 f drfile.obj
 0001:00057f48       __nep?FAbortYieldSave@DGG@@QAAHPAVSVB@@@Z 10058f48 f drfile.obj
 0001:00057f50       __fh?FAbortYieldSave@DGG@@QAAHPAVSVB@@@Z 10058f50 f drfile.obj
 0001:00057f52       ?FAbortYieldSave@DGG@@QAAHPAVSVB@@@Z 10058f52 f drfile.obj
 0001:00057fa0       __pcd_tbl?FSave@DGG@@UAAHPAUMSOSVB@@PAUIMsoDrawing@@@Z 10058fa0 f drfile.obj
 0001:00057fd0       __nep?FSave@DGG@@UAAHPAUMSOSVB@@PAUIMsoDrawing@@@Z 10058fd0 f drfile.obj
 0001:00057fd8       __fh?FSave@DGG@@UAAHPAUMSOSVB@@PAUIMsoDrawing@@@Z 10058fd8 f drfile.obj
 0001:00057fdb       ?FSave@DGG@@UAAHPAUMSOSVB@@PAUIMsoDrawing@@@Z 10058fdb f drfile.obj
 0001:00058210       __pcd_tbl?FLoad@DGG@@UAAHPAUMSOLDB@@PAUIMsoDrawing@@@Z 10059210 f drfile.obj
 0001:00058254       __nep?FLoad@DGG@@UAAHPAUMSOLDB@@PAUIMsoDrawing@@@Z 10059254 f drfile.obj
 0001:0005825c       __fh?FLoad@DGG@@UAAHPAUMSOLDB@@PAUIMsoDrawing@@@Z 1005925c f drfile.obj
 0001:0005825f       ?FLoad@DGG@@UAAHPAUMSOLDB@@PAUIMsoDrawing@@@Z 1005925f f drfile.obj
 0001:00058548       __pcd_tbl?FImportLink@DGG@@UAAHPAU_hlinkprop@@@Z 10059548 f drfile.obj
 0001:0005854c       __nep?FImportLink@DGG@@UAAHPAU_hlinkprop@@@Z 1005954c f drfile.obj
 0001:00058554       __fh?FImportLink@DGG@@UAAHPAU_hlinkprop@@@Z 10059554 f drfile.obj
 0001:00058556       ?FImportLink@DGG@@UAAHPAU_hlinkprop@@@Z 10059556 f drfile.obj
 0001:0005856c       __pcd_tbl?DgidsToPdgs@DGG@@QAAXKPAVDG@@@Z 1005956c f drfile.obj
 0001:00058574       __nep?DgidsToPdgs@DGG@@QAAXKPAVDG@@@Z 10059574 f drfile.obj
 0001:0005857c       __fh?DgidsToPdgs@DGG@@QAAXKPAVDG@@@Z 1005957c f drfile.obj
 0001:0005857e       ?DgidsToPdgs@DGG@@QAAXKPAVDG@@@Z 1005957e f drfile.obj
 0001:000585e4       __pcd_tbl?FreeHashTable@DGG@@QAAXXZ 100595e4 f drfile.obj
 0001:000585ec       __nep?FreeHashTable@DGG@@QAAXXZ 100595ec f drfile.obj
 0001:000585f4       __fh?FreeHashTable@DGG@@QAAXXZ 100595f4 f drfile.obj
 0001:000585f6       ?FreeHashTable@DGG@@QAAXXZ 100595f6 f drfile.obj
 0001:0005861c       __pcd_tbl?FSave@MSOSP@@UAAHPAVSVB@@PAVDG@@@Z 1005961c f drfile.obj
 0001:00058654       __nep?FSave@MSOSP@@UAAHPAVSVB@@PAVDG@@@Z 10059654 f drfile.obj
 0001:0005865c       __fh?FSave@MSOSP@@UAAHPAVSVB@@PAVDG@@@Z 1005965c f drfile.obj
 0001:0005865f       ?FSave@MSOSP@@UAAHPAVSVB@@PAVDG@@@Z 1005965f f drfile.obj
 0001:00058908       __pcd_tbl?FSaveDeletedPsplNext@MSOSP@@QAAHPAVSVB@@@Z 10059908 f drfile.obj
 0001:00058918       __nep?FSaveDeletedPsplNext@MSOSP@@QAAHPAVSVB@@@Z 10059918 f drfile.obj
 0001:00058920       __fh?FSaveDeletedPsplNext@MSOSP@@QAAHPAVSVB@@@Z 10059920 f drfile.obj
 0001:00058922       ?FSaveDeletedPsplNext@MSOSP@@QAAHPAVSVB@@@Z 10059922 f drfile.obj
 0001:00058974       __pcd_tbl?ExportLinks@MSOSP@@QAAXPAVSVB@@@Z 10059974 f drfile.obj
 0001:00058988       __nep?ExportLinks@MSOSP@@QAAXPAVSVB@@@Z 10059988 f drfile.obj
 0001:00058990       __fh?ExportLinks@MSOSP@@QAAXPAVSVB@@@Z 10059990 f drfile.obj
 0001:00058992       ?ExportLinks@MSOSP@@QAAXPAVSVB@@@Z 10059992 f drfile.obj
 0001:00058a58       __pcd_tbl?FImportLink@MSOSP@@QAAHPAU_hlinkprop@@@Z 10059a58 f drfile.obj
 0001:00058a64       __nep?FImportLink@MSOSP@@QAAHPAU_hlinkprop@@@Z 10059a64 f drfile.obj
 0001:00058a6c       __fh?FImportLink@MSOSP@@QAAHPAU_hlinkprop@@@Z 10059a6c f drfile.obj
 0001:00058a6e       ?FImportLink@MSOSP@@QAAHPAU_hlinkprop@@@Z 10059a6e f drfile.obj
 0001:00058ac4       __pcd_tbl?FLoad@MSOSP@@UAAHPAVLDB@@PAVDG@@@Z 10059ac4 f drfile.obj
 0001:00058b00       __nep?FLoad@MSOSP@@UAAHPAVLDB@@PAVDG@@@Z 10059b00 f drfile.obj
 0001:00058b08       __fh?FLoad@MSOSP@@UAAHPAVLDB@@PAVDG@@@Z 10059b08 f drfile.obj
 0001:00058b0b       ?FLoad@MSOSP@@UAAHPAVLDB@@PAVDG@@@Z 10059b0b f drfile.obj
 0001:00058ddc       __pcd_tbl?FLoadDeletedPsplNext@MSOSP@@QAAHPAVLDB@@PAVDG@@@Z 10059ddc f drfile.obj
 0001:00058de8       __nep?FLoadDeletedPsplNext@MSOSP@@QAAHPAVLDB@@PAVDG@@@Z 10059de8 f drfile.obj
 0001:00058df0       __fh?FLoadDeletedPsplNext@MSOSP@@QAAHPAVLDB@@PAVDG@@@Z 10059df0 f drfile.obj
 0001:00058df2       ?FLoadDeletedPsplNext@MSOSP@@QAAHPAVLDB@@PAVDG@@@Z 10059df2 f drfile.obj
 0001:00058e0c       __pcd_tbl?SpidsToPsps@MSOSP@@UAAXPAVDGG@@@Z 10059e0c f drfile.obj
 0001:00058e14       __nep?SpidsToPsps@MSOSP@@UAAXPAVDGG@@@Z 10059e14 f drfile.obj
 0001:00058e1c       __fh?SpidsToPsps@MSOSP@@UAAXPAVDGG@@@Z 10059e1c f drfile.obj
 0001:00058e1e       ?SpidsToPsps@MSOSP@@UAAXPAVDGG@@@Z 10059e1e f drfile.obj
 0001:00058e50       __pcd_tbl?FSaveFspgr@SPGR@@QAAHPAVSVB@@@Z 10059e50 f drfile.obj
 0001:00058e60       __nep?FSaveFspgr@SPGR@@QAAHPAVSVB@@@Z 10059e60 f drfile.obj
 0001:00058e68       __fh?FSaveFspgr@SPGR@@QAAHPAVSVB@@@Z 10059e68 f drfile.obj
 0001:00058e6a       ?FSaveFspgr@SPGR@@QAAHPAVSVB@@@Z 10059e6a f drfile.obj
 0001:00058eb4       __pcd_tbl?FSave@SPGR@@UAAHPAVSVB@@PAVDG@@@Z 10059eb4 f drfile.obj
 0001:00058ec8       __nep?FSave@SPGR@@UAAHPAVSVB@@PAVDG@@@Z 10059ec8 f drfile.obj
 0001:00058ed0       __fh?FSave@SPGR@@UAAHPAVSVB@@PAVDG@@@Z 10059ed0 f drfile.obj
 0001:00058ed2       ?FSave@SPGR@@UAAHPAVSVB@@PAVDG@@@Z 10059ed2 f drfile.obj
 0001:00058f38       __pcd_tbl?FLoadFspgr@SPGR@@QAAHPAVLDB@@@Z 10059f38 f drfile.obj
 0001:00058f44       __nep?FLoadFspgr@SPGR@@QAAHPAVLDB@@@Z 10059f44 f drfile.obj
 0001:00058f4c       __fh?FLoadFspgr@SPGR@@QAAHPAVLDB@@@Z 10059f4c f drfile.obj
 0001:00058f4e       ?FLoadFspgr@SPGR@@QAAHPAVLDB@@@Z 10059f4e f drfile.obj
 0001:00058f6c       __pcd_tbl?FLoad@SPGR@@UAAHPAVLDB@@PAVDG@@@Z 10059f6c f drfile.obj
 0001:00058f84       __nep?FLoad@SPGR@@UAAHPAVLDB@@PAVDG@@@Z 10059f84 f drfile.obj
 0001:00058f8c       __fh?FLoad@SPGR@@UAAHPAVLDB@@PAVDG@@@Z 10059f8c f drfile.obj
 0001:00058f8e       ?FLoad@SPGR@@UAAHPAVLDB@@PAVDG@@@Z 10059f8e f drfile.obj
 0001:00059020       __pcd_tbl?SpidsToPsps@SPGR@@UAAXPAVDGG@@@Z 1005a020 f drfile.obj
 0001:0005902c       __nep?SpidsToPsps@SPGR@@UAAXPAVDGG@@@Z 1005a02c f drfile.obj
 0001:00059034       __fh?SpidsToPsps@SPGR@@UAAXPAVDGG@@@Z 1005a034 f drfile.obj
 0001:00059036       ?SpidsToPsps@SPGR@@UAAXPAVDGG@@@Z 1005a036 f drfile.obj
 0001:00059064       __pcd_tbl?FSave@DG@@QAAHPAVSVB@@@Z 1005a064 f drfile.obj
 0001:00059090       __nep?FSave@DG@@QAAHPAVSVB@@@Z 1005a090 f drfile.obj
 0001:00059098       __fh?FSave@DG@@QAAHPAVSVB@@@Z 1005a098 f drfile.obj
 0001:0005909b       ?FSave@DG@@QAAHPAVSVB@@@Z  1005a09b f drfile.obj
 0001:00059204       __pcd_tbl?FSaveBytes@SVB@@QAAHPAXK@Z 1005a204 f drfile.obj
 0001:00059208       __nep?FSaveBytes@SVB@@QAAHPAXK@Z 1005a208 f drfile.obj
 0001:00059210       __fh?FSaveBytes@SVB@@QAAHPAXK@Z 1005a210 f drfile.obj
 0001:00059212       ?FSaveBytes@SVB@@QAAHPAXK@Z 1005a212 f drfile.obj
 0001:00059228       __pcd_tbl?FLoad@DG@@QAAHPAVLDB@@@Z 1005a228 f drfile.obj
 0001:00059264       __nep?FLoad@DG@@QAAHPAVLDB@@@Z 1005a264 f drfile.obj
 0001:0005926c       __fh?FLoad@DG@@QAAHPAVLDB@@@Z 1005a26c f drfile.obj
 0001:0005926f       ?FLoad@DG@@QAAHPAVLDB@@@Z  1005a26f f drfile.obj
 0001:000594b0       __pcd_tbl?CleanUp@DG@@QAAXXZ 1005a4b0 f drfile.obj
 0001:000594b8       __nep?CleanUp@DG@@QAAXXZ   1005a4b8 f drfile.obj
 0001:000594c0       __fh?CleanUp@DG@@QAAXXZ    1005a4c0 f drfile.obj
 0001:000594c2       ?CleanUp@DG@@QAAXXZ        1005a4c2 f drfile.obj
 0001:000594ec       __pcd_tbl?FLoadInPlace@DG@@QAAHPAVLDB@@H@Z 1005a4ec f drfile.obj
 0001:000594fc       __nep?FLoadInPlace@DG@@QAAHPAVLDB@@H@Z 1005a4fc f drfile.obj
 0001:00059504       __fh?FLoadInPlace@DG@@QAAHPAVLDB@@H@Z 1005a504 f drfile.obj
 0001:00059507       ?FLoadInPlace@DG@@QAAHPAVLDB@@H@Z 1005a507 f drfile.obj
 0001:00059588       __pcd_tbl?FLoadOLEObjectInPlace@DG@@QAAHPAUtagSTGMEDIUM@@IH@Z 1005a588 f drfile.obj
 0001:000595a4       __nep?FLoadOLEObjectInPlace@DG@@QAAHPAUtagSTGMEDIUM@@IH@Z 1005a5a4 f drfile.obj
 0001:000595ac       __fh?FLoadOLEObjectInPlace@DG@@QAAHPAUtagSTGMEDIUM@@IH@Z 1005a5ac f drfile.obj
 0001:000595ae       ?FLoadOLEObjectInPlace@DG@@QAAHPAUtagSTGMEDIUM@@IH@Z 1005a5ae f drfile.obj
 0001:0005967c       __pcd_tbl?FLoadMetafileInPlace@DG@@QAAHPAUtagSTGMEDIUM@@W4MSOBLIPTYPE@@PAUtagPOINT@@H@Z 1005a67c f drfile.obj
 0001:000596b8       __nep?FLoadMetafileInPlace@DG@@QAAHPAUtagSTGMEDIUM@@W4MSOBLIPTYPE@@PAUtagPOINT@@H@Z 1005a6b8 f drfile.obj
 0001:000596c0       __fh?FLoadMetafileInPlace@DG@@QAAHPAUtagSTGMEDIUM@@W4MSOBLIPTYPE@@PAUtagPOINT@@H@Z 1005a6c0 f drfile.obj
 0001:000596c2       ?FLoadMetafileInPlace@DG@@QAAHPAUtagSTGMEDIUM@@W4MSOBLIPTYPE@@PAUtagPOINT@@H@Z 1005a6c2 f drfile.obj
 0001:0005978c       __nep?FNeedsSave@DG@@UAAHXZ 1005a78c f drfile.obj
 0001:0005978c       __pcd_tbl?FNeedsSave@DG@@UAAHXZ 1005a78c f drfile.obj
 0001:00059794       __fh?FNeedsSave@DG@@UAAHXZ 1005a794 f drfile.obj
 0001:00059796       ?FNeedsSave@DG@@UAAHXZ     1005a796 f drfile.obj
 0001:0005979c       __pcd_tbl?SetFNeedsSave@DG@@UAAXH@Z 1005a79c f drfile.obj
 0001:0005979c       __nep?SetFNeedsSave@DG@@UAAXH@Z 1005a79c f drfile.obj
 0001:000597a4       __fh?SetFNeedsSave@DG@@UAAXH@Z 1005a7a4 f drfile.obj
 0001:000597a6       ?SetFNeedsSave@DG@@UAAXH@Z 1005a7a6 f drfile.obj
 0001:000597b8       __nep?FNeedsSave@DGG@@UAAHXZ 1005a7b8 f drfile.obj
 0001:000597b8       __pcd_tbl?FNeedsSave@DGG@@UAAHXZ 1005a7b8 f drfile.obj
 0001:000597c0       __fh?FNeedsSave@DGG@@UAAHXZ 1005a7c0 f drfile.obj
 0001:000597c2       ?FNeedsSave@DGG@@UAAHXZ    1005a7c2 f drfile.obj
 0001:000597c8       __pcd_tbl?SetFNeedsSave@DGG@@UAAXH@Z 1005a7c8 f drfile.obj
 0001:000597c8       __nep?SetFNeedsSave@DGG@@UAAXH@Z 1005a7c8 f drfile.obj
 0001:000597d0       __fh?SetFNeedsSave@DGG@@UAAXH@Z 1005a7d0 f drfile.obj
 0001:000597d2       ?SetFNeedsSave@DGG@@UAAXH@Z 1005a7d2 f drfile.obj
 0001:000597e0       __pcd_tbl?FSaveUndoRecordGuts@DG@@QAAHPAUMSOSVB@@PAUUR@@@Z 1005a7e0 f drfile.obj
 0001:00059814       __nep?FSaveUndoRecordGuts@DG@@QAAHPAUMSOSVB@@PAUUR@@@Z 1005a814 f drfile.obj
 0001:0005981c       __fh?FSaveUndoRecordGuts@DG@@QAAHPAUMSOSVB@@PAUUR@@@Z 1005a81c f drfile.obj
 0001:0005981f       ?FSaveUndoRecordGuts@DG@@QAAHPAUMSOSVB@@PAUUR@@@Z 1005a81f f drfile.obj
 0001:00059c40       __pcd_tbl?FSaveUndoRecord@DG@@UAAHPAUMSOSVB@@PAX@Z 1005ac40 f drfile.obj
 0001:00059c54       __nep?FSaveUndoRecord@DG@@UAAHPAUMSOSVB@@PAX@Z 1005ac54 f drfile.obj
 0001:00059c5c       __fh?FSaveUndoRecord@DG@@UAAHPAUMSOSVB@@PAX@Z 1005ac5c f drfile.obj
 0001:00059c5f       ?FSaveUndoRecord@DG@@UAAHPAUMSOSVB@@PAX@Z 1005ac5f f drfile.obj
 0001:00059d70       __pcd_tbl?FLoadUndoRecordGuts@DG@@QAAHPAUMSOLDB@@PAPAUUR@@@Z 1005ad70 f drfile.obj
 0001:00059da4       __nep?FLoadUndoRecordGuts@DG@@QAAHPAUMSOLDB@@PAPAUUR@@@Z 1005ada4 f drfile.obj
 0001:00059dac       __fh?FLoadUndoRecordGuts@DG@@QAAHPAUMSOLDB@@PAPAUUR@@@Z 1005adac f drfile.obj
 0001:00059daf       ?FLoadUndoRecordGuts@DG@@QAAHPAUMSOLDB@@PAPAUUR@@@Z 1005adaf f drfile.obj
 0001:0005a2dc       __pcd_tbl?FLoadBytes@LDB@@QAAHPAXK@Z 1005b2dc f drfile.obj
 0001:0005a2e0       __nep?FLoadBytes@LDB@@QAAHPAXK@Z 1005b2e0 f drfile.obj
 0001:0005a2e8       __fh?FLoadBytes@LDB@@QAAHPAXK@Z 1005b2e8 f drfile.obj
 0001:0005a2ea       ?FLoadBytes@LDB@@QAAHPAXK@Z 1005b2ea f drfile.obj
 0001:0005a2fc       __pcd_tbl?FFindAnchorInUndo@DG@@QAAHPAUUR@@HPAPAUMSOSP@@PAPAPAXPAW4MSODGSAK@@@Z 1005b2fc f drfile.obj
 0001:0005a300       __nep?FFindAnchorInUndo@DG@@QAAHPAUUR@@HPAPAUMSOSP@@PAPAPAXPAW4MSODGSAK@@@Z 1005b300 f drfile.obj
 0001:0005a308       __fh?FFindAnchorInUndo@DG@@QAAHPAUUR@@HPAPAUMSOSP@@PAPAPAXPAW4MSODGSAK@@@Z 1005b308 f drfile.obj
 0001:0005a30a       ?FFindAnchorInUndo@DG@@QAAHPAUUR@@HPAPAUMSOSP@@PAPAPAXPAW4MSODGSAK@@@Z 1005b30a f drfile.obj
 0001:0005a364       __pcd_tbl?FFindTextboxInUndo@DG@@QAAHPAUUR@@HPAPAUMSOSP@@PAPAJ@Z 1005b364 f drfile.obj
 0001:0005a368       __nep?FFindTextboxInUndo@DG@@QAAHPAUUR@@HPAPAUMSOSP@@PAPAJ@Z 1005b368 f drfile.obj
 0001:0005a370       __fh?FFindTextboxInUndo@DG@@QAAHPAUUR@@HPAPAUMSOSP@@PAPAJ@Z 1005b370 f drfile.obj
 0001:0005a372       ?FFindTextboxInUndo@DG@@QAAHPAUUR@@HPAPAUMSOSP@@PAPAJ@Z 1005b372 f drfile.obj
 0001:0005a3b4       __pcd_tbl?FLoadUndoRecord@DG@@UAAHPAUMSOLDB@@PAPAX@Z 1005b3b4 f drfile.obj
 0001:0005a3d8       __nep?FLoadUndoRecord@DG@@UAAHPAUMSOLDB@@PAPAX@Z 1005b3d8 f drfile.obj
 0001:0005a3e0       __fh?FLoadUndoRecord@DG@@UAAHPAUMSOLDB@@PAPAX@Z 1005b3e0 f drfile.obj
 0001:0005a3e2       ?FLoadUndoRecord@DG@@UAAHPAUMSOLDB@@PAPAX@Z 1005b3e2 f drfile.obj
 0001:0005a51c       __pcd_tbl?ConvertFpspToPsp@DG@@QAAXPAUFPSP@@PAPAUMSOSP@@@Z 1005b51c f drfile.obj
 0001:0005a520       __nep?ConvertFpspToPsp@DG@@QAAXPAUFPSP@@PAPAUMSOSP@@@Z 1005b520 f drfile.obj
 0001:0005a528       __fh?ConvertFpspToPsp@DG@@QAAXPAUFPSP@@PAPAUMSOSP@@@Z 1005b528 f drfile.obj
 0001:0005a52a       ?ConvertFpspToPsp@DG@@QAAXPAUFPSP@@PAPAUMSOSP@@@Z 1005b52a f drfile.obj
 0001:0005a534       __pcd_tbl?ConvertFpsplToPspl@DG@@QAAXPAU_FPSPL@@PAPAUSPL@@@Z 1005b534 f drfile.obj
 0001:0005a53c       __nep?ConvertFpsplToPspl@DG@@QAAXPAU_FPSPL@@PAPAUSPL@@@Z 1005b53c f drfile.obj
 0001:0005a544       __fh?ConvertFpsplToPspl@DG@@QAAXPAU_FPSPL@@PAPAUSPL@@@Z 1005b544 f drfile.obj
 0001:0005a546       ?ConvertFpsplToPspl@DG@@QAAXPAU_FPSPL@@PAPAUSPL@@@Z 1005b546 f drfile.obj
 0001:0005a564       __pcd_tbl?FSave@SOLVER@@QAAHPAVSVB@@@Z 1005b564 f drfile.obj
 0001:0005a57c       __nep?FSave@SOLVER@@QAAHPAVSVB@@@Z 1005b57c f drfile.obj
 0001:0005a584       __fh?FSave@SOLVER@@QAAHPAVSVB@@@Z 1005b584 f drfile.obj
 0001:0005a586       ?FSave@SOLVER@@QAAHPAVSVB@@@Z 1005b586 f drfile.obj
 0001:0005a5e0       __pcd_tbl?FLoad@SOLVER@@QAAHPAVLDB@@@Z 1005b5e0 f drfile.obj
 0001:0005a5fc       __nep?FLoad@SOLVER@@QAAHPAVLDB@@@Z 1005b5fc f drfile.obj
 0001:0005a604       __fh?FLoad@SOLVER@@QAAHPAVLDB@@@Z 1005b604 f drfile.obj
 0001:0005a606       ?FLoad@SOLVER@@QAAHPAVLDB@@@Z 1005b606 f drfile.obj
 0001:0005a710       __pcd_tbl?FSaveMRU@DGG@@QAAHPAVSVB@@@Z 1005b710 f drfile.obj
 0001:0005a718       __nep?FSaveMRU@DGG@@QAAHPAVSVB@@@Z 1005b718 f drfile.obj
 0001:0005a720       __fh?FSaveMRU@DGG@@QAAHPAVSVB@@@Z 1005b720 f drfile.obj
 0001:0005a722       ?FSaveMRU@DGG@@QAAHPAVSVB@@@Z 1005b722 f drfile.obj
 0001:0005a79c       __pcd_tbl?FLoadMRU@DGG@@QAAHPAVLDB@@@Z 1005b79c f drfile.obj
 0001:0005a7a0       __nep?FLoadMRU@DGG@@QAAHPAVLDB@@@Z 1005b7a0 f drfile.obj
 0001:0005a7a8       __fh?FLoadMRU@DGG@@QAAHPAVLDB@@@Z 1005b7a8 f drfile.obj
 0001:0005a7aa       ?FLoadMRU@DGG@@QAAHPAVLDB@@@Z 1005b7aa f drfile.obj
 0001:0005a7fc       __pcd_tbl?FSaveSplitMenuColors@DGG@@QAAHPAVSVB@@@Z 1005b7fc f drfile.obj
 0001:0005a804       __nep?FSaveSplitMenuColors@DGG@@QAAHPAVSVB@@@Z 1005b804 f drfile.obj
 0001:0005a80c       __fh?FSaveSplitMenuColors@DGG@@QAAHPAVSVB@@@Z 1005b80c f drfile.obj
 0001:0005a80e       ?FSaveSplitMenuColors@DGG@@QAAHPAVSVB@@@Z 1005b80e f drfile.obj
 0001:0005a86c       __pcd_tbl?FLoadSplitMenuColors@DGG@@QAAHPAVLDB@@@Z 1005b86c f drfile.obj
 0001:0005a870       __nep?FLoadSplitMenuColors@DGG@@QAAHPAVLDB@@@Z 1005b870 f drfile.obj
 0001:0005a878       __fh?FLoadSplitMenuColors@DGG@@QAAHPAVLDB@@@Z 1005b878 f drfile.obj
 0001:0005a87a       ?FLoadSplitMenuColors@DGG@@QAAHPAVLDB@@@Z 1005b87a f drfile.obj
 0001:0005a8d0       __pcd_tbl?PfbcNew@DGG@@QAAPAVFBC@@XZ 1005b8d0 f drfile.obj
 0001:0005a8e0       __nep?PfbcNew@DGG@@QAAPAVFBC@@XZ 1005b8e0 f drfile.obj
 0001:0005a8e8       __fh?PfbcNew@DGG@@QAAPAVFBC@@XZ 1005b8e8 f drfile.obj
 0001:0005a8ea       ?PfbcNew@DGG@@QAAPAVFBC@@XZ 1005b8ea f drfile.obj
 0001:0005a92c       ??1FBC@@QAA@XZ             1005b92c f drfile.obj
 0001:0005a9e4       __pcd_tbl?FClone@FBC@@QAAHPAPAV1@@Z 1005b9e4 f drfile.obj
 0001:0005a9fc       __nep?FClone@FBC@@QAAHPAPAV1@@Z 1005b9fc f drfile.obj
 0001:0005aa04       __fh?FClone@FBC@@QAAHPAPAV1@@Z 1005ba04 f drfile.obj
 0001:0005aa06       ?FClone@FBC@@QAAHPAPAV1@@Z 1005ba06 f drfile.obj
 0001:0005aa80       __pcd_tbl?InsertFileBlock@FBC@@QAAXW4MSOFBT@@KPAUMSOFBH@@PAX@Z 1005ba80 f drfile.obj
 0001:0005aa98       __nep?InsertFileBlock@FBC@@QAAXW4MSOFBT@@KPAUMSOFBH@@PAX@Z 1005ba98 f drfile.obj
 0001:0005aaa0       __fh?InsertFileBlock@FBC@@QAAXW4MSOFBT@@KPAUMSOFBH@@PAX@Z 1005baa0 f drfile.obj
 0001:0005aaa2       ?InsertFileBlock@FBC@@QAAXW4MSOFBT@@KPAUMSOFBH@@PAX@Z 1005baa2 f drfile.obj
 0001:0005aaf4       __pcd_tbl?PfbceLookup@FBC@@QAAPAUFBCE@@W4MSOFBT@@K@Z 1005baf4 f drfile.obj
 0001:0005aaf8       __nep?PfbceLookup@FBC@@QAAPAUFBCE@@W4MSOFBT@@K@Z 1005baf8 f drfile.obj
 0001:0005ab00       __fh?PfbceLookup@FBC@@QAAPAUFBCE@@W4MSOFBT@@K@Z 1005bb00 f drfile.obj
 0001:0005ab02       ?PfbceLookup@FBC@@QAAPAUFBCE@@W4MSOFBT@@K@Z 1005bb02 f drfile.obj
 0001:0005ab18       __nep?SgnCompareFbce@FBC@@CAHPBX0@Z 1005bb18 f drfile.obj
 0001:0005ab18       __pcd_tbl?SgnCompareFbce@FBC@@CAHPBX0@Z 1005bb18 f drfile.obj
 0001:0005ab20       __fh?SgnCompareFbce@FBC@@CAHPBX0@Z 1005bb20 f drfile.obj
 0001:0005ab22       ?SgnCompareFbce@FBC@@CAHPBX0@Z 1005bb22 f drfile.obj
 0001:0005ab28       __pcd_tbl?InitSaveBlock@DGG@@UAAXPAUMSOSVB@@PAUIStream@@1@Z 1005bb28 f drfile.obj
 0001:0005ab2c       __nep?InitSaveBlock@DGG@@UAAXPAUMSOSVB@@PAUIStream@@1@Z 1005bb2c f drfile.obj
 0001:0005ab34       __fh?InitSaveBlock@DGG@@UAAXPAUMSOSVB@@PAUIStream@@1@Z 1005bb34 f drfile.obj
 0001:0005ab36       ?InitSaveBlock@DGG@@UAAXPAUMSOSVB@@PAUIStream@@1@Z 1005bb36 f drfile.obj
 0001:0005ab3c       __pcd_tbl?Init@SVB@@QAAXPAUIStream@@0@Z 1005bb3c f drfile.obj
 0001:0005ab3c       __nep?Init@SVB@@QAAXPAUIStream@@0@Z 1005bb3c f drfile.obj
 0001:0005ab44       __fh?Init@SVB@@QAAXPAUIStream@@0@Z 1005bb44 f drfile.obj
 0001:0005ab46       ?Init@SVB@@QAAXPAUIStream@@0@Z 1005bb46 f drfile.obj
 0001:0005ab70       __pcd_tbl?FSaveFbh@SVB@@AAAHEGW4MSOFBT@@K@Z 1005bb70 f drfile.obj
 0001:0005ab78       __nep?FSaveFbh@SVB@@AAAHEGW4MSOFBT@@K@Z 1005bb78 f drfile.obj
 0001:0005ab80       __fh?FSaveFbh@SVB@@AAAHEGW4MSOFBT@@K@Z 1005bb80 f drfile.obj
 0001:0005ab82       ?FSaveFbh@SVB@@AAAHEGW4MSOFBT@@K@Z 1005bb82 f drfile.obj
 0001:0005abb8       __nep?BeginCountingPass@SVB@@QAAXPAUSVBCPS@@@Z 1005bbb8 f drfile.obj
 0001:0005abb8       __pcd_tbl?BeginCountingPass@SVB@@QAAXPAUSVBCPS@@@Z 1005bbb8 f drfile.obj
 0001:0005abc0       __fh?BeginCountingPass@SVB@@QAAXPAUSVBCPS@@@Z 1005bbc0 f drfile.obj
 0001:0005abc2       ?BeginCountingPass@SVB@@QAAXPAUSVBCPS@@@Z 1005bbc2 f drfile.obj
 0001:0005abf0       __nep?CbEndCountingPass@SVB@@QAAKPAUSVBCPS@@@Z 1005bbf0 f drfile.obj
 0001:0005abf0       __pcd_tbl?CbEndCountingPass@SVB@@QAAKPAUSVBCPS@@@Z 1005bbf0 f drfile.obj
 0001:0005abf8       __fh?CbEndCountingPass@SVB@@QAAKPAUSVBCPS@@@Z 1005bbf8 f drfile.obj
 0001:0005abfa       ?CbEndCountingPass@SVB@@QAAKPAUSVBCPS@@@Z 1005bbfa f drfile.obj
 0001:0005ac20       __pcd_tbl?FSaveFileBlocks@SVB@@QAAHPAVFBC@@W4MSOFBT@@K@Z 1005bc20 f drfile.obj
 0001:0005ac30       __nep?FSaveFileBlocks@SVB@@QAAHPAVFBC@@W4MSOFBT@@K@Z 1005bc30 f drfile.obj
 0001:0005ac38       __fh?FSaveFileBlocks@SVB@@QAAHPAVFBC@@W4MSOFBT@@K@Z 1005bc38 f drfile.obj
 0001:0005ac3a       ?FSaveFileBlocks@SVB@@QAAHPAVFBC@@W4MSOFBT@@K@Z 1005bc3a f drfile.obj
 0001:0005ac88       __pcd_tbl?InitLoadBlock@DGG@@UAAXPAUMSOLDB@@PAUIStream@@1@Z 1005bc88 f drfile.obj
 0001:0005ac8c       __nep?InitLoadBlock@DGG@@UAAXPAUMSOLDB@@PAUIStream@@1@Z 1005bc8c f drfile.obj
 0001:0005ac94       __fh?InitLoadBlock@DGG@@UAAXPAUMSOLDB@@PAUIStream@@1@Z 1005bc94 f drfile.obj
 0001:0005ac96       ?InitLoadBlock@DGG@@UAAXPAUMSOLDB@@PAUIStream@@1@Z 1005bc96 f drfile.obj
 0001:0005ac9c       __nep?Init@LDB@@QAAXPAUIStream@@0@Z 1005bc9c f drfile.obj
 0001:0005ac9c       __pcd_tbl?Init@LDB@@QAAXPAUIStream@@0@Z 1005bc9c f drfile.obj
 0001:0005aca4       __fh?Init@LDB@@QAAXPAUIStream@@0@Z 1005bca4 f drfile.obj
 0001:0005aca6       ?Init@LDB@@QAAXPAUIStream@@0@Z 1005bca6 f drfile.obj
 0001:0005acc4       __pcd_tbl?FSkipFileBlock@LDB@@QAAHXZ 1005bcc4 f drfile.obj
 0001:0005acc8       __nep?FSkipFileBlock@LDB@@QAAHXZ 1005bcc8 f drfile.obj
 0001:0005acd0       __fh?FSkipFileBlock@LDB@@QAAHXZ 1005bcd0 f drfile.obj
 0001:0005acd3       ?FSkipFileBlock@LDB@@QAAHXZ 1005bcd3 f drfile.obj
 0001:0005ad00       __pcd_tbl?FLoadFileBlock@LDB@@QAAHPAVFBC@@W4MSOFBT@@K@Z 1005bd00 f drfile.obj
 0001:0005ad14       __nep?FLoadFileBlock@LDB@@QAAHPAVFBC@@W4MSOFBT@@K@Z 1005bd14 f drfile.obj
 0001:0005ad1c       __fh?FLoadFileBlock@LDB@@QAAHPAVFBC@@W4MSOFBT@@K@Z 1005bd1c f drfile.obj
 0001:0005ad1e       ?FLoadFileBlock@LDB@@QAAHPAVFBC@@W4MSOFBT@@K@Z 1005bd1e f drfile.obj
 0001:0005ad4c       __pcd_tbl?ConvertFrcToRc@@YAXPAUFRC@@PAUtagRECT@@@Z 1005bd4c f drfile.obj
 0001:0005ad4c       __nep?ConvertFrcToRc@@YAXPAUFRC@@PAUtagRECT@@@Z 1005bd4c f drfile.obj
 0001:0005ad54       __fh?ConvertFrcToRc@@YAXPAUFRC@@PAUtagRECT@@@Z 1005bd54 f drfile.obj
 0001:0005ad56       ?ConvertFrcToRc@@YAXPAUFRC@@PAUtagRECT@@@Z 1005bd56 f drfile.obj
 0001:0005ad6c       __pcd_tbl?ConvertRcToFrc@@YAXPAUtagRECT@@PAUFRC@@@Z 1005bd6c f drfile.obj
 0001:0005ad6c       __nep?ConvertRcToFrc@@YAXPAUtagRECT@@PAUFRC@@@Z 1005bd6c f drfile.obj
 0001:0005ad74       __fh?ConvertRcToFrc@@YAXPAUtagRECT@@PAUFRC@@@Z 1005bd74 f drfile.obj
 0001:0005ad76       ?ConvertRcToFrc@@YAXPAUtagRECT@@PAUFRC@@@Z 1005bd76 f drfile.obj
 0001:0005ad8c       __nep?ConvertRitToFrit@@YAXPAURIT@@PAU_FRIT@@@Z 1005bd8c f drfile.obj
 0001:0005ad8c       __pcd_tbl?ConvertRitToFrit@@YAXPAURIT@@PAU_FRIT@@@Z 1005bd8c f drfile.obj
 0001:0005ad94       __fh?ConvertRitToFrit@@YAXPAURIT@@PAU_FRIT@@@Z 1005bd94 f drfile.obj
 0001:0005ad96       ?ConvertRitToFrit@@YAXPAURIT@@PAU_FRIT@@@Z 1005bd96 f drfile.obj
 0001:0005ada0       __pcd_tbl?ConvertFritToRit@@YAXPAU_FRIT@@PAURIT@@@Z 1005bda0 f drfile.obj
 0001:0005ada0       __nep?ConvertFritToRit@@YAXPAU_FRIT@@PAURIT@@@Z 1005bda0 f drfile.obj
 0001:0005ada8       __fh?ConvertFritToRit@@YAXPAU_FRIT@@PAURIT@@@Z 1005bda8 f drfile.obj
 0001:0005adaa       ?ConvertFritToRit@@YAXPAU_FRIT@@PAURIT@@@Z 1005bdaa f drfile.obj
 0001:0005adb4       __pcd_tbl_MsoFWriteFbh     1005bdb4 f drfile.obj
 0001:0005adb8       __nep_MsoFWriteFbh         1005bdb8 f drfile.obj
 0001:0005adc0       __fh_MsoFWriteFbh          1005bdc0 f drfile.obj
 0001:0005adc2       _MsoFWriteFbh              1005bdc2 f drfile.obj
 0001:0005add0       __pcd_tbl?WritePspl@@YAXPAUSPL@@PAU_FPSPL@@@Z 1005bdd0 f drfile.obj
 0001:0005add4       __nep?WritePspl@@YAXPAUSPL@@PAU_FPSPL@@@Z 1005bdd4 f drfile.obj
 0001:0005addc       __fh?WritePspl@@YAXPAUSPL@@PAU_FPSPL@@@Z 1005bddc f drfile.obj
 0001:0005adde       ?WritePspl@@YAXPAUSPL@@PAU_FPSPL@@@Z 1005bdde f drfile.obj
 0001:0005adfc       __pcd_tbl?FLoadSp@DG@@QAAHPAVLDB@@PAPAUMSOSP@@@Z 1005bdfc f drfile.obj
 0001:0005ae18       __nep?FLoadSp@DG@@QAAHPAVLDB@@PAPAUMSOSP@@@Z 1005be18 f drfile.obj
 0001:0005ae20       __fh?FLoadSp@DG@@QAAHPAVLDB@@PAPAUMSOSP@@@Z 1005be20 f drfile.obj
 0001:0005ae22       ?FLoadSp@DG@@QAAHPAVLDB@@PAPAUMSOSP@@@Z 1005be22 f drfile.obj
 0001:0005ae88       __nep?SpidGetShapeId@DG@@UAAKPAUMSOSP@@@Z 1005be88 f drfile.obj
 0001:0005ae88       __pcd_tbl?SpidGetShapeId@DG@@UAAKPAUMSOSP@@@Z 1005be88 f drfile.obj
 0001:0005ae90       __fh?SpidGetShapeId@DG@@UAAKPAUMSOSP@@@Z 1005be90 f drfile.obj
 0001:0005ae92       ?SpidGetShapeId@DG@@UAAKPAUMSOSP@@@Z 1005be92 f drfile.obj
 0001:0005ae98       __pcd_tbl?FFindShape@DG@@UAAHPAPAUMSOSP@@K@Z 1005be98 f drfile.obj
 0001:0005ae9c       __nep?FFindShape@DG@@UAAHPAPAUMSOSP@@K@Z 1005be9c f drfile.obj
 0001:0005aea4       __fh?FFindShape@DG@@UAAHPAPAUMSOSP@@K@Z 1005bea4 f drfile.obj
 0001:0005aea6       ?FFindShape@DG@@UAAHPAPAUMSOSP@@K@Z 1005bea6 f drfile.obj
 0001:0005aeb0       __pcd_tbl?PspFromSpid@DG@@QAAPAUMSOSP@@K@Z 1005beb0 f drfile.obj
 0001:0005aebc       __nep?PspFromSpid@DG@@QAAPAUMSOSP@@K@Z 1005bebc f drfile.obj
 0001:0005aec4       __fh?PspFromSpid@DG@@QAAPAUMSOSP@@K@Z 1005bec4 f drfile.obj
 0001:0005aec6       ?PspFromSpid@DG@@QAAPAUMSOSP@@K@Z 1005bec6 f drfile.obj
 0001:0005af04       __nep?SpidfFromSpid@DG@@UAAKK@Z 1005bf04 f drfile.obj
 0001:0005af04       __pcd_tbl?SpidfFromSpid@DG@@UAAKK@Z 1005bf04 f drfile.obj
 0001:0005af0c       __fh?SpidfFromSpid@DG@@UAAKK@Z 1005bf0c f drfile.obj
 0001:0005af0e       ?SpidfFromSpid@DG@@UAAKK@Z 1005bf0e f drfile.obj
 0001:0005af44       __pcd_tbl?SpidFromSpidf@DG@@UAAKK@Z 1005bf44 f drfile.obj
 0001:0005af44       __nep?SpidFromSpidf@DG@@UAAKK@Z 1005bf44 f drfile.obj
 0001:0005af4c       __fh?SpidFromSpidf@DG@@UAAKK@Z 1005bf4c f drfile.obj
 0001:0005af4e       ?SpidFromSpidf@DG@@UAAKK@Z 1005bf4e f drfile.obj
 0001:0005af84       __nep?DgidGetDrawingId@DG@@UAAKXZ 1005bf84 f drfile.obj
 0001:0005af84       __pcd_tbl?DgidGetDrawingId@DG@@UAAKXZ 1005bf84 f drfile.obj
 0001:0005af8c       __fh?DgidGetDrawingId@DG@@UAAKXZ 1005bf8c f drfile.obj
 0001:0005af8e       ?DgidGetDrawingId@DG@@UAAKXZ 1005bf8e f drfile.obj
 0001:0005af94       __pcd_tbl?FFindShape@DGG@@UAAHPAPAUMSOSP@@PAPAUIMsoDrawing@@K@Z 1005bf94 f drfile.obj
 0001:0005af9c       __nep?FFindShape@DGG@@UAAHPAPAUMSOSP@@PAPAUIMsoDrawing@@K@Z 1005bf9c f drfile.obj
 0001:0005afa4       __fh?FFindShape@DGG@@UAAHPAPAUMSOSP@@PAPAUIMsoDrawing@@K@Z 1005bfa4 f drfile.obj
 0001:0005afa6       ?FFindShape@DGG@@UAAHPAPAUMSOSP@@PAPAUIMsoDrawing@@K@Z 1005bfa6 f drfile.obj
 0001:0005afec       __pcd_tbl?FGetRelatedShapeHash@DGG@@UAAHPAPAUMSOSP@@PAUIMsoDrawing@@@Z 1005bfec f drfile.obj
 0001:0005aff8       __nep?FGetRelatedShapeHash@DGG@@UAAHPAPAUMSOSP@@PAUIMsoDrawing@@@Z 1005bff8 f drfile.obj
 0001:0005b000       __fh?FGetRelatedShapeHash@DGG@@UAAHPAPAUMSOSP@@PAUIMsoDrawing@@@Z 1005c000 f drfile.obj
 0001:0005b002       ?FGetRelatedShapeHash@DGG@@UAAHPAPAUMSOSP@@PAUIMsoDrawing@@@Z 1005c002 f drfile.obj
 0001:0005b058       __pcd_tbl?SpidCreate@DGG@@QAAKPAVDG@@@Z 1005c058 f drfile.obj
 0001:0005b05c       __nep?SpidCreate@DGG@@QAAKPAVDG@@@Z 1005c05c f drfile.obj
 0001:0005b064       __fh?SpidCreate@DGG@@QAAKPAVDG@@@Z 1005c064 f drfile.obj
 0001:0005b066       ?SpidCreate@DGG@@QAAKPAVDG@@@Z 1005c066 f drfile.obj
 0001:0005b0bc       __pcd_tbl?PspLookupSpid@SLS@@QAAPAUMSOSP@@K@Z 1005c0bc f drfile.obj
 0001:0005b0c0       __nep?PspLookupSpid@SLS@@QAAPAUMSOSP@@K@Z 1005c0c0 f drfile.obj
 0001:0005b0c8       __fh?PspLookupSpid@SLS@@QAAPAUMSOSP@@K@Z 1005c0c8 f drfile.obj
 0001:0005b0ca       ?PspLookupSpid@SLS@@QAAPAUMSOSP@@K@Z 1005c0ca f drfile.obj
 0001:0005b0e0       __pcd_tbl?FSave@BSTORE@@QAAHPAVSVB@@@Z 1005c0e0 f drfile.obj
 0001:0005b0fc       __nep?FSave@BSTORE@@QAAHPAVSVB@@@Z 1005c0fc f drfile.obj
 0001:0005b104       __fh?FSave@BSTORE@@QAAHPAVSVB@@@Z 1005c104 f drfile.obj
 0001:0005b106       ?FSave@BSTORE@@QAAHPAVSVB@@@Z 1005c106 f drfile.obj
 0001:0005b1a0       __pcd_tbl?FSaveBse@BSTORE@@QAAHPAVSVB@@PAUBSE@@@Z 1005c1a0 f drfile.obj
 0001:0005b1b8       __nep?FSaveBse@BSTORE@@QAAHPAVSVB@@PAUBSE@@@Z 1005c1b8 f drfile.obj
 0001:0005b1c0       __fh?FSaveBse@BSTORE@@QAAHPAVSVB@@PAUBSE@@@Z 1005c1c0 f drfile.obj
 0001:0005b1c2       ?FSaveBse@BSTORE@@QAAHPAVSVB@@PAUBSE@@@Z 1005c1c2 f drfile.obj
 0001:0005b2ec       __pcd_tbl?FLoad@BSTORE@@QAAHPAVLDB@@@Z 1005c2ec f drfile.obj
 0001:0005b304       __nep?FLoad@BSTORE@@QAAHPAVLDB@@@Z 1005c304 f drfile.obj
 0001:0005b30c       __fh?FLoad@BSTORE@@QAAHPAVLDB@@@Z 1005c30c f drfile.obj
 0001:0005b30e       ?FLoad@BSTORE@@QAAHPAVLDB@@@Z 1005c30e f drfile.obj
 0001:0005b3b8       __pcd_tbl?FLoadBlip@BSTORE@@IAAHPAVLDB@@PAUBSE@@@Z 1005c3b8 f drfile.obj
 0001:0005b3dc       __nep?FLoadBlip@BSTORE@@IAAHPAVLDB@@PAUBSE@@@Z 1005c3dc f drfile.obj
 0001:0005b3e4       __fh?FLoadBlip@BSTORE@@IAAHPAVLDB@@PAUBSE@@@Z 1005c3e4 f drfile.obj
 0001:0005b3e7       ?FLoadBlip@BSTORE@@IAAHPAVLDB@@PAUBSE@@@Z 1005c3e7 f drfile.obj
 0001:0005b5a8       __pcd_tbl?FSaveBlip@BSTORE@@IAAHPAVSVB@@PAUBSE@@@Z 1005c5a8 f drfile.obj
 0001:0005b5b4       __nep?FSaveBlip@BSTORE@@IAAHPAVSVB@@PAUBSE@@@Z 1005c5b4 f drfile.obj
 0001:0005b5bc       __fh?FSaveBlip@BSTORE@@IAAHPAVSVB@@PAUBSE@@@Z 1005c5bc f drfile.obj
 0001:0005b5bf       ?FSaveBlip@BSTORE@@IAAHPAVSVB@@PAUBSE@@@Z 1005c5bf f drfile.obj
 0001:0005b6e0       __pcd_tbl?FLoadBse@BSTORE@@QAAHPAVLDB@@PAKH@Z 1005c6e0 f drfile.obj
 0001:0005b6f8       __nep?FLoadBse@BSTORE@@QAAHPAVLDB@@PAKH@Z 1005c6f8 f drfile.obj
 0001:0005b700       __fh?FLoadBse@BSTORE@@QAAHPAVLDB@@PAKH@Z 1005c700 f drfile.obj
 0001:0005b703       ?FLoadBse@BSTORE@@QAAHPAVLDB@@PAKH@Z 1005c703 f drfile.obj
 0001:0005b80c       ?MapTxFxAlignOut@@YA?AW4MsoTextEffectAlignment@@W4MSOGEOTEXTALIGN@@@Z 1005c80c f drfxoa.obj
 0001:0005b8b4       ?MapTxFxPresetOut@@YA?AW4MsoPresetTextEffectShape@@W4MSOSPT@@@Z 1005c8b4 f drfxoa.obj
 0001:0005b95c       ?Map3DExtrusionDirOut@@YA?AW4MsoPresetExtrusionDirection@@W4MSOPRE@@@Z 1005c95c f drfxoa.obj
 0001:0005ba08       ?Map3DLightDirOut@@YA?AW4MsoPresetLightingDirection@@W4MSOPRE@@@Z 1005ca08 f drfxoa.obj
 0001:0005bab0       ?Map3DLightSoftOut@@YA?AW4MsoPresetLightingSoftness@@W4MSOPRE@@@Z 1005cab0 f drfxoa.obj
 0001:0005bb58       ?Map3DMaterialOut@@YA?AW4MsoPresetMaterial@@W4MSOPRE@@@Z 1005cb58 f drfxoa.obj
 0001:0005bc00       ?Map3DFxOut@@YA?AW4MsoPresetThreeDFormat@@W4MSOPRE@@@Z 1005cc00 f drfxoa.obj
 0001:0005bca0       ?get_Parent@DISPCOF@@UAAJPAPAUIDispatch@@@Z 1005cca0 f drfxoa.obj
 0001:0005bd3c       ?AutomaticLength@DISPCOF@@UAAJXZ 1005cd3c f drfxoa.obj
 0001:0005be30       ?CustomDrop@DISPCOF@@UAAJM@Z 1005ce30 f drfxoa.obj
 0001:0005bf40       ?CustomLength@DISPCOF@@UAAJM@Z 1005cf40 f drfxoa.obj
 0001:0005c0a4       ?PresetDrop@DISPCOF@@UAAJW4MsoCalloutDropType@@@Z 1005d0a4 f drfxoa.obj
 0001:0005c164       ?get_Accent@DISPCOF@@UAAJPAW4MsoTriState@@@Z 1005d164 f drfxoa.obj
 0001:0005c268       ?put_Accent@DISPCOF@@UAAJW4MsoTriState@@@Z 1005d268 f drfxoa.obj
 0001:0005c354       ?get_Angle@DISPCOF@@UAAJPAW4MsoCalloutAngleType@@@Z 1005d354 f drfxoa.obj
 0001:0005c488       ?put_Angle@DISPCOF@@UAAJW4MsoCalloutAngleType@@@Z 1005d488 f drfxoa.obj
 0001:0005c5b8       ?get_AutoAttach@DISPCOF@@UAAJPAW4MsoTriState@@@Z 1005d5b8 f drfxoa.obj
 0001:0005c6c0       ?put_AutoAttach@DISPCOF@@UAAJW4MsoTriState@@@Z 1005d6c0 f drfxoa.obj
 0001:0005c7b0       ?get_AutoLength@DISPCOF@@UAAJPAW4MsoTriState@@@Z 1005d7b0 f drfxoa.obj
 0001:0005c8dc       ?get_Border@DISPCOF@@UAAJPAW4MsoTriState@@@Z 1005d8dc f drfxoa.obj
 0001:0005c9e0       ?put_Border@DISPCOF@@UAAJW4MsoTriState@@@Z 1005d9e0 f drfxoa.obj
 0001:0005cacc       ?get_Drop@DISPCOF@@UAAJPAM@Z 1005dacc f drfxoa.obj
 0001:0005cc1c       ?get_DropType@DISPCOF@@UAAJPAW4MsoCalloutDropType@@@Z 1005dc1c f drfxoa.obj
 0001:0005cd80       ?get_Gap@DISPCOF@@UAAJPAM@Z 1005dd80 f drfxoa.obj
 0001:0005ced0       ?put_Gap@DISPCOF@@UAAJM@Z  1005ded0 f drfxoa.obj
 0001:0005cfdc       ?get_Length@DISPCOF@@UAAJPAM@Z 1005dfdc f drfxoa.obj
 0001:0005d160       ?get_Type@DISPCOF@@UAAJPAW4MsoCalloutType@@@Z 1005e160 f drfxoa.obj
 0001:0005d274       ?put_Type@DISPCOF@@UAAJW4MsoCalloutType@@@Z 1005e274 f drfxoa.obj
 0001:0005d398       ?FDebugMessage@DISPCOF@@QAAHPAUMSOINST@@IIJ@Z 1005e398 f drfxoa.obj
 0001:0005d3f0       ?get_Parent@DISPTBOX@@UAAJPAPAUIDispatch@@@Z 1005e3f0 f drfxoa.obj
 0001:0005d48c       ?get_MarginBottom@DISPTBOX@@UAAJPAM@Z 1005e48c f drfxoa.obj
 0001:0005d5e4       ?get_MarginLeft@DISPTBOX@@UAAJPAM@Z 1005e5e4 f drfxoa.obj
 0001:0005d73c       ?get_MarginRight@DISPTBOX@@UAAJPAM@Z 1005e73c f drfxoa.obj
 0001:0005d894       ?get_MarginTop@DISPTBOX@@UAAJPAM@Z 1005e894 f drfxoa.obj
 0001:0005d9ec       ?get_Orientation@DISPTBOX@@UAAJPAW4MsoOrientation@@@Z 1005e9ec f drfxoa.obj
 0001:0005db4c       ?put_MarginBottom@DISPTBOX@@UAAJM@Z 1005eb4c f drfxoa.obj
 0001:0005dc88       ?put_MarginLeft@DISPTBOX@@UAAJM@Z 1005ec88 f drfxoa.obj
 0001:0005ddc4       ?put_MarginRight@DISPTBOX@@UAAJM@Z 1005edc4 f drfxoa.obj
 0001:0005df00       ?put_MarginTop@DISPTBOX@@UAAJM@Z 1005ef00 f drfxoa.obj
 0001:0005e03c       ?put_Orientation@DISPTBOX@@UAAJW4MsoOrientation@@@Z 1005f03c f drfxoa.obj
 0001:0005e160       ?FDebugMessage@DISPTBOX@@QAAHPAUMSOINST@@IIJ@Z 1005f160 f drfxoa.obj
 0001:0005e1bc       ?get_Parent@DISPTFXF@@UAAJPAPAUIDispatch@@@Z 1005f1bc f drfxoa.obj
 0001:0005e258       ?get_Alignment@DISPTFXF@@UAAJPAW4MsoTextEffectAlignment@@@Z 1005f258 f drfxoa.obj
 0001:0005e370       ?get_FontBold@DISPTFXF@@UAAJPAW4MsoTriState@@@Z 1005f370 f drfxoa.obj
 0001:0005e474       ?put_FontBold@DISPTFXF@@UAAJW4MsoTriState@@@Z 1005f474 f drfxoa.obj
 0001:0005e560       ?get_FontItalic@DISPTFXF@@UAAJPAW4MsoTriState@@@Z 1005f560 f drfxoa.obj
 0001:0005e668       ?put_FontItalic@DISPTFXF@@UAAJW4MsoTriState@@@Z 1005f668 f drfxoa.obj
 0001:0005e758       ?get_FontName@DISPTFXF@@UAAJPAPAD@Z 1005f758 f drfxoa.obj
 0001:0005e85c       ?put_FontName@DISPTFXF@@UAAJPAD@Z 1005f85c f drfxoa.obj
 0001:0005e944       ?get_FontSize@DISPTFXF@@UAAJPAM@Z 1005f944 f drfxoa.obj
 0001:0005ea5c       ?put_FontSize@DISPTFXF@@UAAJM@Z 1005fa5c f drfxoa.obj
 0001:0005eb60       ?get_KernedPairs@DISPTFXF@@UAAJPAW4MsoTriState@@@Z 1005fb60 f drfxoa.obj
 0001:0005ec68       ?get_NormalizedHeight@DISPTFXF@@UAAJPAW4MsoTriState@@@Z 1005fc68 f drfxoa.obj
 0001:0005ed74       ?get_PresetShape@DISPTFXF@@UAAJPAW4MsoPresetTextEffectShape@@@Z 1005fd74 f drfxoa.obj
 0001:0005ee8c       ?get_PresetTextEffect@DISPTFXF@@UAAJPAW4MsoPresetTextEffect@@@Z 1005fe8c f drfxoa.obj
 0001:0005efc0       ?put_PresetTextEffect@DISPTFXF@@UAAJW4MsoPresetTextEffect@@@Z 1005ffc0 f drfxoa.obj
 0001:0005f108       ?get_RotatedChars@DISPTFXF@@UAAJPAW4MsoTriState@@@Z 10060108 f drfxoa.obj
 0001:0005f210       ?get_Text@DISPTFXF@@UAAJPAPAD@Z 10060210 f drfxoa.obj
 0001:0005f310       ?HrFetchText@@YAJPAVDispShape@@W4MSOPID@@PAPADW4OANameMode@@@Z 10060310 f drfxoa.obj
 0001:0005f480       ?get_Tracking@DISPTFXF@@UAAJPAM@Z 10060480 f drfxoa.obj
 0001:0005f5c4       ?put_Alignment@DISPTFXF@@UAAJW4MsoTextEffectAlignment@@@Z 100605c4 f drfxoa.obj
 0001:0005f730       ?put_KernedPairs@DISPTFXF@@UAAJW4MsoTriState@@@Z 10060730 f drfxoa.obj
 0001:0005f820       ?put_NormalizedHeight@DISPTFXF@@UAAJW4MsoTriState@@@Z 10060820 f drfxoa.obj
 0001:0005f914       ?put_PresetShape@DISPTFXF@@UAAJW4MsoPresetTextEffectShape@@@Z 10060914 f drfxoa.obj
 0001:0005fa80       ?put_RotatedChars@DISPTFXF@@UAAJW4MsoTriState@@@Z 10060a80 f drfxoa.obj
 0001:0005fb70       ?put_Text@DISPTFXF@@UAAJPAD@Z 10060b70 f drfxoa.obj
 0001:0005fc54       ?HrPutText@@YAJPAVDispShape@@W4MSOPID@@PAD@Z 10060c54 f drfxoa.obj
 0001:0005fe6c       ?put_Tracking@DISPTFXF@@UAAJM@Z 10060e6c f drfxoa.obj
 0001:0005ffe0       ?FDebugMessage@DISPTFXF@@QAAHPAUMSOINST@@IIJ@Z 10060fe0 f drfxoa.obj
 0001:0006003c       ?get_Parent@DISP3DF@@UAAJPAPAUIDispatch@@@Z 1006103c f drfxoa.obj
 0001:000600d8       ?ResetRotation@DISP3DF@@UAAJXZ 100610d8 f drfxoa.obj
 0001:000601fc       ?SetThreeDFormat@DISP3DF@@UAAJW4MsoPresetThreeDFormat@@@Z 100611fc f drfxoa.obj
 0001:0006039c       ?SetExtrusionDirection@DISP3DF@@UAAJW4MsoPresetExtrusionDirection@@@Z 1006139c f drfxoa.obj
 0001:00060530       ?get_Depth@DISP3DF@@UAAJPAM@Z 10061530 f drfxoa.obj
 0001:00060654       ?get_ExtrusionColor@DISP3DF@@UAAJPAPAU_Color@@@Z 10061654 f drfxoa.obj
 0001:00060778       ?get_ExtrusionColorType@DISP3DF@@UAAJPAW4MsoExtrusionColorType@@@Z 10061778 f drfxoa.obj
 0001:000608d0       ?put_ExtrusionColorType@DISP3DF@@UAAJW4MsoExtrusionColorType@@@Z 100618d0 f drfxoa.obj
 0001:0006098c       ?get_Perspective@DISP3DF@@UAAJPAW4MsoTriState@@@Z 1006198c f drfxoa.obj
 0001:00060ac4       ?get_PresetExtrusionDirection@DISP3DF@@UAAJPAW4MsoPresetExtrusionDirection@@@Z 10061ac4 f drfxoa.obj
 0001:00060bfc       ?get_PresetLightingDirection@DISP3DF@@UAAJPAW4MsoPresetLightingDirection@@@Z 10061bfc f drfxoa.obj
 0001:00060d34       ?get_PresetLightingSoftness@DISP3DF@@UAAJPAW4MsoPresetLightingSoftness@@@Z 10061d34 f drfxoa.obj
 0001:00060e6c       ?get_PresetMaterial@DISP3DF@@UAAJPAW4MsoPresetMaterial@@@Z 10061e6c f drfxoa.obj
 0001:00060f9c       ?get_PresetThreeDFormat@DISP3DF@@UAAJPAW4MsoPresetThreeDFormat@@@Z 10061f9c f drfxoa.obj
 0001:000610d0       ?get_RotationX@DISP3DF@@UAAJPAM@Z 100620d0 f drfxoa.obj
 0001:000611e8       ?get_RotationY@DISP3DF@@UAAJPAM@Z 100621e8 f drfxoa.obj
 0001:00061300       ?get_Visible@DISP3DF@@UAAJPAW4MsoTriState@@@Z 10062300 f drfxoa.obj
 0001:00061404       ?put_Visible@DISP3DF@@UAAJW4MsoTriState@@@Z 10062404 f drfxoa.obj
 0001:000614f0       ?put_Depth@DISP3DF@@UAAJM@Z 100624f0 f drfxoa.obj
 0001:000615fc       ?put_Perspective@DISP3DF@@UAAJW4MsoTriState@@@Z 100625fc f drfxoa.obj
 0001:00061710       ?put_PresetLightingDirection@DISP3DF@@UAAJW4MsoPresetLightingDirection@@@Z 10062710 f drfxoa.obj
 0001:000618ac       ?put_PresetLightingSoftness@DISP3DF@@UAAJW4MsoPresetLightingSoftness@@@Z 100628ac f drfxoa.obj
 0001:00061a48       ?put_PresetMaterial@DISP3DF@@UAAJW4MsoPresetMaterial@@@Z 10062a48 f drfxoa.obj
 0001:00061bdc       ?put_RotationX@DISP3DF@@UAAJM@Z 10062bdc f drfxoa.obj
 0001:00061d44       ?put_RotationY@DISP3DF@@UAAJM@Z 10062d44 f drfxoa.obj
 0001:00061eac       ?FDebugMessage@DISP3DF@@QAAHPAUMSOINST@@IIJ@Z 10062eac f drfxoa.obj
 0001:00061f04       ?HrGetTriState@@YAJPAVDispShape@@W4MSOPID@@JPAW4MsoTriState@@@Z 10062f04 f drfxoa.obj
 0001:00061fc4       ?HrSetTriState@@YAJPAVDispShape@@W4MSOPID@@JW4MsoTriState@@@Z 10062fc4 f drfxoa.obj
 0001:000620f8       __pcd_tbl_MsoFInsertPicture 100630f8 f drhitshp.obj
 0001:000620f8       __nep_MsoFInsertPicture    100630f8 f drhitshp.obj
 0001:00062100       __fh_MsoFInsertPicture     10063100 f drhitshp.obj
 0001:00062102       _MsoFInsertPicture         10063102 f drhitshp.obj
 0001:00062104       ??0SLS@@QAA@XZ             10063104 f drlist.obj
 0001:00062170       ??1SLS@@QAA@XZ             10063170 f drlist.obj
 0001:000621e0       __pcd_tbl?FAddShape@SLS@@QAAHPAUMSOSP@@@Z 100631e0 f drlist.obj
 0001:000621e8       __nep?FAddShape@SLS@@QAAHPAUMSOSP@@@Z 100631e8 f drlist.obj
 0001:000621f0       __fh?FAddShape@SLS@@QAAHPAUMSOSP@@@Z 100631f0 f drlist.obj
 0001:000621f2       ?FAddShape@SLS@@QAAHPAUMSOSP@@@Z 100631f2 f drlist.obj
 0001:00062210       __pcd_tbl?FRemoveShape@SLS@@QAAHPAUMSOSP@@@Z 10063210 f drlist.obj
 0001:00062218       __nep?FRemoveShape@SLS@@QAAHPAUMSOSP@@@Z 10063218 f drlist.obj
 0001:00062220       __fh?FRemoveShape@SLS@@QAAHPAUMSOSP@@@Z 10063220 f drlist.obj
 0001:00062222       ?FRemoveShape@SLS@@QAAHPAUMSOSP@@@Z 10063222 f drlist.obj
 0001:00062238       __nep?IShapeInList@SLS@@QAAHPAUMSOSP@@@Z 10063238 f drlist.obj
 0001:00062238       __pcd_tbl?IShapeInList@SLS@@QAAHPAUMSOSP@@@Z 10063238 f drlist.obj
 0001:00062240       __fh?IShapeInList@SLS@@QAAHPAUMSOSP@@@Z 10063240 f drlist.obj
 0001:00062242       ?IShapeInList@SLS@@QAAHPAUMSOSP@@@Z 10063242 f drlist.obj
 0001:00062268       __nep?InitEnumAllShapes@SLS@@QAAXPAUDGEN@@@Z 10063268 f drlist.obj
 0001:00062268       __pcd_tbl?InitEnumAllShapes@SLS@@QAAXPAUDGEN@@@Z 10063268 f drlist.obj
 0001:00062270       __fh?InitEnumAllShapes@SLS@@QAAXPAUDGEN@@@Z 10063270 f drlist.obj
 0001:00062272       ?InitEnumAllShapes@SLS@@QAAXPAUDGEN@@@Z 10063272 f drlist.obj
 0001:00062284       __pcd_tbl?FEnumAllShapes@SLS@@QAAHPAUDGEN@@@Z 10063284 f drlist.obj
 0001:00062284       __nep?FEnumAllShapes@SLS@@QAAHPAUDGEN@@@Z 10063284 f drlist.obj
 0001:0006228c       __fh?FEnumAllShapes@SLS@@QAAHPAUDGEN@@@Z 1006328c f drlist.obj
 0001:0006228e       ?FEnumAllShapes@SLS@@QAAHPAUDGEN@@@Z 1006328e f drlist.obj
 0001:000622b0       __pcd_tbl?FInitHash@SLS@@QAAHH@Z 100632b0 f drlist.obj
 0001:000622b8       __nep?FInitHash@SLS@@QAAHH@Z 100632b8 f drlist.obj
 0001:000622c0       __fh?FInitHash@SLS@@QAAHH@Z 100632c0 f drlist.obj
 0001:000622c2       ?FInitHash@SLS@@QAAHH@Z    100632c2 f drlist.obj
 0001:000622e0       __nep?FHashInsertPsp@SLS@@QAAHPAUMSOSP@@@Z 100632e0 f drlist.obj
 0001:000622e0       __pcd_tbl?FHashInsertPsp@SLS@@QAAHPAUMSOSP@@@Z 100632e0 f drlist.obj
 0001:000622e8       __fh?FHashInsertPsp@SLS@@QAAHPAUMSOSP@@@Z 100632e8 f drlist.obj
 0001:000622ea       ?FHashInsertPsp@SLS@@QAAHPAUMSOSP@@@Z 100632ea f drlist.obj
 0001:00062330       __pcd_tbl?PspHashLookupSpid@SLS@@QAAPAUMSOSP@@KPAH@Z 10063330 f drlist.obj
 0001:00062330       __nep?PspHashLookupSpid@SLS@@QAAPAUMSOSP@@KPAH@Z 10063330 f drlist.obj
 0001:00062338       __fh?PspHashLookupSpid@SLS@@QAAPAUMSOSP@@KPAH@Z 10063338 f drlist.obj
 0001:0006233a       ?PspHashLookupSpid@SLS@@QAAPAUMSOSP@@KPAH@Z 1006333a f drlist.obj
 0001:00062374       __pcd_tbl?ReleaseAllShapes@SLS@@QAAXPAVDG@@@Z 10063374 f drlist.obj
 0001:00062380       __nep?ReleaseAllShapes@SLS@@QAAXPAVDG@@@Z 10063380 f drlist.obj
 0001:00062388       __fh?ReleaseAllShapes@SLS@@QAAXPAVDG@@@Z 10063388 f drlist.obj
 0001:0006238a       ?ReleaseAllShapes@SLS@@QAAXPAVDG@@@Z 1006338a f drlist.obj
 0001:000623ac       __pcd_tbl?SetFActiveHsp@DG@@UAAXPAUMSOSP@@HH@Z 100633ac f drole.obj
 0001:000623b0       __nep?SetFActiveHsp@DG@@UAAXPAUMSOSP@@HH@Z 100633b0 f drole.obj
 0001:000623b8       __fh?SetFActiveHsp@DG@@UAAXPAUMSOSP@@HH@Z 100633b8 f drole.obj
 0001:000623ba       ?SetFActiveHsp@DG@@UAAXPAUMSOSP@@HH@Z 100633ba f drole.obj
 0001:000623e4       __pcd_tbl?HspCreateShapeFromOid@DG@@UAAPAUMSOSP@@JPAUtagRECT@@PAXPAUIMsoDrawingSelection@@H@Z 100633e4 f drole.obj
 0001:000623ec       __nep?HspCreateShapeFromOid@DG@@UAAPAUMSOSP@@JPAUtagRECT@@PAXPAUIMsoDrawingSelection@@H@Z 100633ec f drole.obj
 0001:000623f4       __fh?HspCreateShapeFromOid@DG@@UAAPAUMSOSP@@JPAUtagRECT@@PAXPAUIMsoDrawingSelection@@H@Z 100633f4 f drole.obj
 0001:000623f6       ?HspCreateShapeFromOid@DG@@UAAPAUMSOSP@@JPAUtagRECT@@PAXPAUIMsoDrawingSelection@@H@Z 100633f6 f drole.obj
 0001:00062444       __pcd_tbl?SetPictOfHsp@DG@@UAAXPAUMSOSP@@PAXJH@Z 10063444 f drole.obj
 0001:0006247c       __nep?SetPictOfHsp@DG@@UAAXPAUMSOSP@@PAXJH@Z 1006347c f drole.obj
 0001:00062484       __fh?SetPictOfHsp@DG@@UAAXPAUMSOSP@@PAXJH@Z 10063484 f drole.obj
 0001:00062486       ?SetPictOfHsp@DG@@UAAXPAUMSOSP@@PAXJH@Z 10063486 f drole.obj
 0001:00062550       __pcd_tbl?FSetNewOidOfHsp@DG@@UAAHPAUMSOSP@@JH@Z 10063550 f drole.obj
 0001:00062558       __nep?FSetNewOidOfHsp@DG@@UAAHPAUMSOSP@@JH@Z 10063558 f drole.obj
 0001:00062560       __fh?FSetNewOidOfHsp@DG@@UAAHPAUMSOSP@@JH@Z 10063560 f drole.obj
 0001:00062562       ?FSetNewOidOfHsp@DG@@UAAHPAUMSOSP@@JH@Z 10063562 f drole.obj
 0001:00062598       __pcd_tbl?OidFromHsp@DG@@UAAJPAUMSOSP@@@Z 10063598 f drole.obj
 0001:0006259c       __nep?OidFromHsp@DG@@UAAJPAUMSOSP@@@Z 1006359c f drole.obj
 0001:000625a4       __fh?OidFromHsp@DG@@UAAJPAUMSOSP@@@Z 100635a4 f drole.obj
 0001:000625a6       ?OidFromHsp@DG@@UAAJPAUMSOSP@@@Z 100635a6 f drole.obj
 0001:000625b0       __pcd_tbl?HspFromOid@DG@@UAAPAUMSOSP@@J@Z 100635b0 f drole.obj
 0001:000625bc       __nep?HspFromOid@DG@@UAAPAUMSOSP@@J@Z 100635bc f drole.obj
 0001:000625c4       __fh?HspFromOid@DG@@UAAPAUMSOSP@@J@Z 100635c4 f drole.obj
 0001:000625c6       ?HspFromOid@DG@@UAAPAUMSOSP@@J@Z 100635c6 f drole.obj
 0001:000625ec       __pcd_tbl?DgrEditObject@DGSL@@QAA?AW4MSODGR@@HPAPAXPAUMSOSP@@@Z 100635ec f drole.obj
 0001:00062600       __nep?DgrEditObject@DGSL@@QAA?AW4MSODGR@@HPAPAXPAUMSOSP@@@Z 10063600 f drole.obj
 0001:00062608       __fh?DgrEditObject@DGSL@@QAA?AW4MSODGR@@HPAPAXPAUMSOSP@@@Z 10063608 f drole.obj
 0001:0006260a       ?DgrEditObject@DGSL@@QAA?AW4MSODGR@@HPAPAXPAUMSOSP@@@Z 1006360a f drole.obj
 0001:0006267c       __pcd_tbl?DgrEditPicture@DGSL@@QAA?AW4MSODGR@@HPAPAXPAUMSOSP@@@Z 1006367c f drole.obj
 0001:00062690       __nep?DgrEditPicture@DGSL@@QAA?AW4MSODGR@@HPAPAXPAUMSOSP@@@Z 10063690 f drole.obj
 0001:00062698       __fh?DgrEditPicture@DGSL@@QAA?AW4MSODGR@@HPAPAXPAUMSOSP@@@Z 10063698 f drole.obj
 0001:0006269a       ?DgrEditPicture@DGSL@@QAA?AW4MSODGR@@HPAPAXPAUMSOSP@@@Z 1006369a f drole.obj
 0001:00062734       __pcd_tbl?LOsGet@@YAKPAU_OLESTREAM@@PAXK@Z 10063734 f drole.obj
 0001:00062738       __nep?LOsGet@@YAKPAU_OLESTREAM@@PAXK@Z 10063738 f drole.obj
 0001:00062740       __fh?LOsGet@@YAKPAU_OLESTREAM@@PAXK@Z 10063740 f drole.obj
 0001:00062742       ?LOsGet@@YAKPAU_OLESTREAM@@PAXK@Z 10063742 f drole.obj
 0001:00062750       __pcd_tbl?LOsPut@@YAKPAU_OLESTREAM@@PBXK@Z 10063750 f drole.obj
 0001:00062754       __nep?LOsPut@@YAKPAU_OLESTREAM@@PBXK@Z 10063754 f drole.obj
 0001:0006275c       __fh?LOsPut@@YAKPAU_OLESTREAM@@PBXK@Z 1006375c f drole.obj
 0001:0006275e       ?LOsPut@@YAKPAU_OLESTREAM@@PBXK@Z 1006375e f drole.obj
 0001:0006276c       __pcd_tbl?FConvertPistgToPistm@@YAHPAUIStorage@@PAUIStream@@@Z 1006376c f drole.obj
 0001:00062774       __nep?FConvertPistgToPistm@@YAHPAUIStorage@@PAUIStream@@@Z 10063774 f drole.obj
 0001:0006277c       __fh?FConvertPistgToPistm@@YAHPAUIStorage@@PAUIStream@@@Z 1006377c f drole.obj
 0001:0006277e       ?FConvertPistgToPistm@@YAHPAUIStorage@@PAUIStream@@@Z 1006377e f drole.obj
