
kmrtint.nostrip.dll:     file format pei-i386

Disassembly of section .text:

50001000 <_DllMainCRTStartup@12>:
50001000:	55                   	push   %ebp
50001001:	89 e5                	mov    %esp,%ebp
50001003:	83 ec 18             	sub    $0x18,%esp
50001006:	89 75 fc             	mov    %esi,0xfffffffc(%ebp)
50001009:	8b 75 0c             	mov    0xc(%ebp),%esi
5000100c:	89 5d f8             	mov    %ebx,0xfffffff8(%ebp)
5000100f:	83 fe 01             	cmp    $0x1,%esi
50001012:	74 5c                	je     50001070 <_DllMainCRTStartup@12+0x70>
50001014:	89 74 24 04          	mov    %esi,0x4(%esp)
50001018:	8b 55 10             	mov    0x10(%ebp),%edx
5000101b:	89 54 24 08          	mov    %edx,0x8(%esp)
5000101f:	8b 55 08             	mov    0x8(%ebp),%edx
50001022:	89 14 24             	mov    %edx,(%esp)
50001025:	e8 a6 02 00 00       	call   500012d0 <_DllMain@12>
5000102a:	83 ec 0c             	sub    $0xc,%esp
5000102d:	83 fe 01             	cmp    $0x1,%esi
50001030:	89 c3                	mov    %eax,%ebx
50001032:	74 2c                	je     50001060 <_DllMainCRTStartup@12+0x60>
50001034:	85 f6                	test   %esi,%esi
50001036:	75 0c                	jne    50001044 <_DllMainCRTStartup@12+0x44>
50001038:	8b 0d 00 40 00 50    	mov    0x50004000,%ecx
5000103e:	85 c9                	test   %ecx,%ecx
50001040:	75 10                	jne    50001052 <_DllMainCRTStartup@12+0x52>
50001042:	31 db                	xor    %ebx,%ebx
50001044:	89 d8                	mov    %ebx,%eax
50001046:	8b 5d f8             	mov    0xfffffff8(%ebp),%ebx
50001049:	8b 75 fc             	mov    0xfffffffc(%ebp),%esi
5000104c:	89 ec                	mov    %ebp,%esp
5000104e:	5d                   	pop    %ebp
5000104f:	c2 0c 00             	ret    $0xc
50001052:	e8 59 00 00 00       	call   500010b0 <___dll_exit>
50001057:	eb eb                	jmp    50001044 <_DllMainCRTStartup@12+0x44>
50001059:	8d b4 26 00 00 00 00 	lea    0x0(%esi),%esi
50001060:	85 c0                	test   %eax,%eax
50001062:	75 d0                	jne    50001034 <_DllMainCRTStartup@12+0x34>
50001064:	e8 47 00 00 00       	call   500010b0 <___dll_exit>
50001069:	eb c9                	jmp    50001034 <_DllMainCRTStartup@12+0x34>
5000106b:	90                   	nop    
5000106c:	8d 74 26 00          	lea    0x0(%esi),%esi
50001070:	c7 04 24 80 00 00 00 	movl   $0x80,(%esp)
50001077:	e8 84 06 00 00       	call   50001700 <_malloc>
5000107c:	a3 00 40 00 50       	mov    %eax,0x50004000
50001081:	85 c0                	test   %eax,%eax
50001083:	74 1a                	je     5000109f <_DllMainCRTStartup@12+0x9f>
50001085:	c7 00 00 00 00 00    	movl   $0x0,(%eax)
5000108b:	a3 10 40 00 50       	mov    %eax,0x50004010
50001090:	e8 4b 03 00 00       	call   500013e0 <__pei386_runtime_relocator>
50001095:	e8 d6 02 00 00       	call   50001370 <___main>
5000109a:	e9 75 ff ff ff       	jmp    50001014 <_DllMainCRTStartup@12+0x14>
5000109f:	e8 4c 06 00 00       	call   500016f0 <__errno>
500010a4:	c7 00 0c 00 00 00    	movl   $0xc,(%eax)
500010aa:	31 c0                	xor    %eax,%eax
500010ac:	eb 98                	jmp    50001046 <_DllMainCRTStartup@12+0x46>
500010ae:	89 f6                	mov    %esi,%esi

500010b0 <___dll_exit>:
500010b0:	55                   	push   %ebp
500010b1:	89 e5                	mov    %esp,%ebp
500010b3:	83 ec 08             	sub    $0x8,%esp
500010b6:	89 5d fc             	mov    %ebx,0xfffffffc(%ebp)
500010b9:	8b 15 00 40 00 50    	mov    0x50004000,%edx
500010bf:	85 d2                	test   %edx,%edx
500010c1:	74 29                	je     500010ec <___dll_exit+0x3c>
500010c3:	8b 1d 10 40 00 50    	mov    0x50004010,%ebx
500010c9:	83 eb 04             	sub    $0x4,%ebx
500010cc:	39 d3                	cmp    %edx,%ebx
500010ce:	72 0d                	jb     500010dd <___dll_exit+0x2d>
500010d0:	8b 03                	mov    (%ebx),%eax
500010d2:	85 c0                	test   %eax,%eax
500010d4:	75 2a                	jne    50001100 <___dll_exit+0x50>
500010d6:	83 eb 04             	sub    $0x4,%ebx
500010d9:	39 d3                	cmp    %edx,%ebx
500010db:	73 f3                	jae    500010d0 <___dll_exit+0x20>
500010dd:	89 14 24             	mov    %edx,(%esp)
500010e0:	e8 fb 05 00 00       	call   500016e0 <_free>
500010e5:	31 c0                	xor    %eax,%eax
500010e7:	a3 00 40 00 50       	mov    %eax,0x50004000
500010ec:	c7 04 24 00 00 00 00 	movl   $0x0,(%esp)
500010f3:	e8 d8 05 00 00       	call   500016d0 <_fflush>
500010f8:	8b 5d fc             	mov    0xfffffffc(%ebp),%ebx
500010fb:	89 ec                	mov    %ebp,%esp
500010fd:	5d                   	pop    %ebp
500010fe:	c3                   	ret    
500010ff:	90                   	nop    
50001100:	ff d0                	call   *%eax
50001102:	8b 15 00 40 00 50    	mov    0x50004000,%edx
50001108:	eb cc                	jmp    500010d6 <___dll_exit+0x26>
5000110a:	8d b6 00 00 00 00    	lea    0x0(%esi),%esi

50001110 <_atexit>:
50001110:	55                   	push   %ebp
50001111:	89 e5                	mov    %esp,%ebp
50001113:	83 ec 18             	sub    $0x18,%esp
50001116:	c7 44 24 08 10 40 00 	movl   $0x50004010,0x8(%esp)
5000111d:	50 
5000111e:	8b 55 08             	mov    0x8(%ebp),%edx
50001121:	c7 44 24 04 00 40 00 	movl   $0x50004000,0x4(%esp)
50001128:	50 
50001129:	89 14 24             	mov    %edx,(%esp)
5000112c:	e8 8f 05 00 00       	call   500016c0 <___dllonexit>
50001131:	85 c0                	test   %eax,%eax
50001133:	0f 95 c2             	setne  %dl
50001136:	89 ec                	mov    %ebp,%esp
50001138:	5d                   	pop    %ebp
50001139:	0f b6 c2             	movzbl %dl,%eax
5000113c:	48                   	dec    %eax
5000113d:	c3                   	ret    
5000113e:	89 f6                	mov    %esi,%esi

50001140 <__onexit>:
50001140:	55                   	push   %ebp
50001141:	89 e5                	mov    %esp,%ebp
50001143:	83 ec 18             	sub    $0x18,%esp
50001146:	c7 44 24 08 10 40 00 	movl   $0x50004010,0x8(%esp)
5000114d:	50 
5000114e:	8b 55 08             	mov    0x8(%ebp),%edx
50001151:	c7 44 24 04 00 40 00 	movl   $0x50004000,0x4(%esp)
50001158:	50 
50001159:	89 14 24             	mov    %edx,(%esp)
5000115c:	e8 5f 05 00 00       	call   500016c0 <___dllonexit>
50001161:	89 ec                	mov    %ebp,%esp
50001163:	5d                   	pop    %ebp
50001164:	c3                   	ret    
50001165:	90                   	nop    
50001166:	90                   	nop    
50001167:	90                   	nop    
50001168:	90                   	nop    
50001169:	90                   	nop    
5000116a:	90                   	nop    
5000116b:	90                   	nop    
5000116c:	90                   	nop    
5000116d:	90                   	nop    
5000116e:	90                   	nop    
5000116f:	90                   	nop    

50001170 <___do_sjlj_init>:
50001170:	55                   	push   %ebp
50001171:	89 e5                	mov    %esp,%ebp
50001173:	5d                   	pop    %ebp
50001174:	e9 07 03 00 00       	jmp    50001480 <___w32_sharedptr_initialize>
50001179:	90                   	nop    
5000117a:	90                   	nop    
5000117b:	90                   	nop    
5000117c:	90                   	nop    
5000117d:	90                   	nop    
5000117e:	90                   	nop    
5000117f:	90                   	nop    

50001180 <_OpenDevice>:
50001180:	55                   	push   %ebp
50001181:	89 e5                	mov    %esp,%ebp
50001183:	83 ec 48             	sub    $0x48,%esp
50001186:	83 ec 08             	sub    $0x8,%esp
50001189:	68 00 30 00 50       	push   $0x50003000
5000118e:	8d 45 d0             	lea    0xffffffd0(%ebp),%eax
50001191:	50                   	push   %eax
50001192:	e8 e9 00 00 00       	call   50001280 <_RtlInitUnicodeString@8>
50001197:	83 c4 08             	add    $0x8,%esp
5000119a:	c7 45 d8 18 00 00 00 	movl   $0x18,0xffffffd8(%ebp)
500011a1:	8d 45 d0             	lea    0xffffffd0(%ebp),%eax
500011a4:	89 45 e0             	mov    %eax,0xffffffe0(%ebp)
500011a7:	c7 45 e4 00 00 00 00 	movl   $0x0,0xffffffe4(%ebp)
500011ae:	c7 45 dc 00 00 00 00 	movl   $0x0,0xffffffdc(%ebp)
500011b5:	c7 45 e8 00 00 00 00 	movl   $0x0,0xffffffe8(%ebp)
500011bc:	c7 45 ec 00 00 00 00 	movl   $0x0,0xffffffec(%ebp)
500011c3:	83 ec 04             	sub    $0x4,%esp
500011c6:	6a 00                	push   $0x0
500011c8:	6a 00                	push   $0x0
500011ca:	6a 20                	push   $0x20
500011cc:	6a 01                	push   $0x1
500011ce:	6a 00                	push   $0x0
500011d0:	6a 00                	push   $0x0
500011d2:	6a 00                	push   $0x0
500011d4:	8d 45 c8             	lea    0xffffffc8(%ebp),%eax
500011d7:	50                   	push   %eax
500011d8:	8d 45 d8             	lea    0xffffffd8(%ebp),%eax
500011db:	50                   	push   %eax
500011dc:	68 9f 01 12 00       	push   $0x12019f
500011e1:	8d 45 c4             	lea    0xffffffc4(%ebp),%eax
500011e4:	50                   	push   %eax
500011e5:	e8 a6 00 00 00       	call   50001290 <_NtCreateFile@44>
500011ea:	83 c4 04             	add    $0x4,%esp
500011ed:	89 45 c0             	mov    %eax,0xffffffc0(%ebp)
500011f0:	83 7d c0 00          	cmpl   $0x0,0xffffffc0(%ebp)
500011f4:	79 09                	jns    500011ff <_OpenDevice+0x7f>
500011f6:	c7 45 bc ff ff ff ff 	movl   $0xffffffff,0xffffffbc(%ebp)
500011fd:	eb 06                	jmp    50001205 <_OpenDevice+0x85>
500011ff:	8b 45 c4             	mov    0xffffffc4(%ebp),%eax
50001202:	89 45 bc             	mov    %eax,0xffffffbc(%ebp)
50001205:	8b 45 bc             	mov    0xffffffbc(%ebp),%eax
50001208:	c9                   	leave  
50001209:	c3                   	ret    

5000120a <_RegTestMain@8>:
5000120a:	55                   	push   %ebp
5000120b:	89 e5                	mov    %esp,%ebp
5000120d:	83 ec 18             	sub    $0x18,%esp
50001210:	e8 6b ff ff ff       	call   50001180 <_OpenDevice>
50001215:	89 45 f4             	mov    %eax,0xfffffff4(%ebp)
50001218:	83 7d f4 ff          	cmpl   $0xffffffff,0xfffffff4(%ebp)
5000121c:	74 54                	je     50001272 <_RegTestMain@8+0x68>
5000121e:	83 ec 08             	sub    $0x8,%esp
50001221:	6a 00                	push   $0x0
50001223:	6a 00                	push   $0x0
50001225:	6a 00                	push   $0x0
50001227:	6a 00                	push   $0x0
50001229:	68 04 00 11 00       	push   $0x110004
5000122e:	8d 45 f8             	lea    0xfffffff8(%ebp),%eax
50001231:	50                   	push   %eax
50001232:	6a 00                	push   $0x0
50001234:	6a 00                	push   $0x0
50001236:	6a 00                	push   $0x0
50001238:	ff 75 f4             	pushl  0xfffffff4(%ebp)
5000123b:	e8 60 00 00 00       	call   500012a0 <_NtDeviceIoControlFile@40>
50001240:	83 c4 08             	add    $0x8,%esp
50001243:	89 45 f0             	mov    %eax,0xfffffff0(%ebp)
50001246:	81 7d f0 03 01 00 00 	cmpl   $0x103,0xfffffff0(%ebp)
5000124d:	75 15                	jne    50001264 <_RegTestMain@8+0x5a>
5000124f:	83 ec 04             	sub    $0x4,%esp
50001252:	6a 00                	push   $0x0
50001254:	6a 00                	push   $0x0
50001256:	ff 75 f4             	pushl  0xfffffff4(%ebp)
50001259:	e8 52 00 00 00       	call   500012b0 <_NtWaitForSingleObject@12>
5000125e:	83 c4 04             	add    $0x4,%esp
50001261:	89 45 f0             	mov    %eax,0xfffffff0(%ebp)
50001264:	83 ec 0c             	sub    $0xc,%esp
50001267:	ff 75 f4             	pushl  0xfffffff4(%ebp)
5000126a:	e8 51 00 00 00       	call   500012c0 <_NtClose@4>
5000126f:	83 c4 0c             	add    $0xc,%esp
50001272:	c9                   	leave  
50001273:	c2 08 00             	ret    $0x8
50001276:	90                   	nop    
50001277:	90                   	nop    
50001278:	90                   	nop    
50001279:	90                   	nop    
5000127a:	90                   	nop    
5000127b:	90                   	nop    
5000127c:	90                   	nop    
5000127d:	90                   	nop    
5000127e:	90                   	nop    
5000127f:	90                   	nop    

50001280 <_RtlInitUnicodeString@8>:
50001280:	ff 25 b4 60 00 50    	jmp    *0x500060b4
50001286:	90                   	nop    
50001287:	90                   	nop    
	...

50001290 <_NtCreateFile@44>:
50001290:	ff 25 a8 60 00 50    	jmp    *0x500060a8
50001296:	90                   	nop    
50001297:	90                   	nop    
	...

500012a0 <_NtDeviceIoControlFile@40>:
500012a0:	ff 25 ac 60 00 50    	jmp    *0x500060ac
500012a6:	90                   	nop    
500012a7:	90                   	nop    
	...

500012b0 <_NtWaitForSingleObject@12>:
500012b0:	ff 25 b0 60 00 50    	jmp    *0x500060b0
500012b6:	90                   	nop    
500012b7:	90                   	nop    
	...

500012c0 <_NtClose@4>:
500012c0:	ff 25 a4 60 00 50    	jmp    *0x500060a4
500012c6:	90                   	nop    
500012c7:	90                   	nop    
	...

500012d0 <_DllMain@12>:
500012d0:	55                   	push   %ebp
500012d1:	89 e5                	mov    %esp,%ebp
500012d3:	b8 01 00 00 00       	mov    $0x1,%eax
500012d8:	5d                   	pop    %ebp
500012d9:	c2 0c 00             	ret    $0xc
500012dc:	90                   	nop    
500012dd:	90                   	nop    
500012de:	90                   	nop    
500012df:	90                   	nop    

500012e0 <___do_global_dtors>:
500012e0:	55                   	push   %ebp
500012e1:	89 e5                	mov    %esp,%ebp
500012e3:	83 ec 08             	sub    $0x8,%esp
500012e6:	a1 04 20 00 50       	mov    0x50002004,%eax
500012eb:	8b 10                	mov    (%eax),%edx
500012ed:	85 d2                	test   %edx,%edx
500012ef:	75 04                	jne    500012f5 <___do_global_dtors+0x15>
500012f1:	89 ec                	mov    %ebp,%esp
500012f3:	5d                   	pop    %ebp
500012f4:	c3                   	ret    
500012f5:	ff 10                	call   *(%eax)
500012f7:	8b 15 04 20 00 50    	mov    0x50002004,%edx
500012fd:	8b 4a 04             	mov    0x4(%edx),%ecx
50001300:	8d 42 04             	lea    0x4(%edx),%eax
50001303:	a3 04 20 00 50       	mov    %eax,0x50002004
50001308:	85 c9                	test   %ecx,%ecx
5000130a:	75 e9                	jne    500012f5 <___do_global_dtors+0x15>
5000130c:	eb e3                	jmp    500012f1 <___do_global_dtors+0x11>
5000130e:	89 f6                	mov    %esi,%esi

50001310 <___do_global_ctors>:
50001310:	55                   	push   %ebp
50001311:	89 e5                	mov    %esp,%ebp
50001313:	83 ec 08             	sub    $0x8,%esp
50001316:	89 5d fc             	mov    %ebx,0xfffffffc(%ebp)
50001319:	a1 60 17 00 50       	mov    0x50001760,%eax
5000131e:	83 f8 ff             	cmp    $0xffffffff,%eax
50001321:	74 29                	je     5000134c <___do_global_ctors+0x3c>
50001323:	85 c0                	test   %eax,%eax
50001325:	89 c3                	mov    %eax,%ebx
50001327:	75 17                	jne    50001340 <___do_global_ctors+0x30>
50001329:	c7 04 24 e0 12 00 50 	movl   $0x500012e0,(%esp)
50001330:	e8 db fd ff ff       	call   50001110 <_atexit>
50001335:	8b 5d fc             	mov    0xfffffffc(%ebp),%ebx
50001338:	89 ec                	mov    %ebp,%esp
5000133a:	5d                   	pop    %ebp
5000133b:	c3                   	ret    
5000133c:	8d 74 26 00          	lea    0x0(%esi),%esi
50001340:	ff 14 9d 60 17 00 50 	call   *0x50001760(,%ebx,4)
50001347:	4b                   	dec    %ebx
50001348:	75 f6                	jne    50001340 <___do_global_ctors+0x30>
5000134a:	eb dd                	jmp    50001329 <___do_global_ctors+0x19>
5000134c:	8b 0d 64 17 00 50    	mov    0x50001764,%ecx
50001352:	31 c0                	xor    %eax,%eax
50001354:	85 c9                	test   %ecx,%ecx
50001356:	74 cb                	je     50001323 <___do_global_ctors+0x13>
50001358:	ba 60 17 00 50       	mov    $0x50001760,%edx
5000135d:	8d 76 00             	lea    0x0(%esi),%esi
50001360:	40                   	inc    %eax
50001361:	8b 4c 82 04          	mov    0x4(%edx,%eax,4),%ecx
50001365:	85 c9                	test   %ecx,%ecx
50001367:	75 f7                	jne    50001360 <___do_global_ctors+0x50>
50001369:	eb b8                	jmp    50001323 <___do_global_ctors+0x13>
5000136b:	90                   	nop    
5000136c:	8d 74 26 00          	lea    0x0(%esi),%esi

50001370 <___main>:
50001370:	55                   	push   %ebp
50001371:	89 e5                	mov    %esp,%ebp
50001373:	83 ec 08             	sub    $0x8,%esp
50001376:	89 5d fc             	mov    %ebx,0xfffffffc(%ebp)
50001379:	8b 15 00 20 00 50    	mov    0x50002000,%edx
5000137f:	85 d2                	test   %edx,%edx
50001381:	75 27                	jne    500013aa <___main+0x3a>
50001383:	a1 60 17 00 50       	mov    0x50001760,%eax
50001388:	ba 01 00 00 00       	mov    $0x1,%edx
5000138d:	89 15 00 20 00 50    	mov    %edx,0x50002000
50001393:	83 f8 ff             	cmp    $0xffffffff,%eax
50001396:	74 25                	je     500013bd <___main+0x4d>
50001398:	85 c0                	test   %eax,%eax
5000139a:	89 c3                	mov    %eax,%ebx
5000139c:	75 13                	jne    500013b1 <___main+0x41>
5000139e:	c7 04 24 e0 12 00 50 	movl   $0x500012e0,(%esp)
500013a5:	e8 66 fd ff ff       	call   50001110 <_atexit>
500013aa:	8b 5d fc             	mov    0xfffffffc(%ebp),%ebx
500013ad:	89 ec                	mov    %ebp,%esp
500013af:	5d                   	pop    %ebp
500013b0:	c3                   	ret    
500013b1:	ff 14 9d 60 17 00 50 	call   *0x50001760(,%ebx,4)
500013b8:	4b                   	dec    %ebx
500013b9:	75 f6                	jne    500013b1 <___main+0x41>
500013bb:	eb e1                	jmp    5000139e <___main+0x2e>
500013bd:	8b 0d 64 17 00 50    	mov    0x50001764,%ecx
500013c3:	31 c0                	xor    %eax,%eax
500013c5:	85 c9                	test   %ecx,%ecx
500013c7:	74 cf                	je     50001398 <___main+0x28>
500013c9:	ba 60 17 00 50       	mov    $0x50001760,%edx
500013ce:	89 f6                	mov    %esi,%esi
500013d0:	40                   	inc    %eax
500013d1:	8b 5c 82 04          	mov    0x4(%edx,%eax,4),%ebx
500013d5:	85 db                	test   %ebx,%ebx
500013d7:	75 f7                	jne    500013d0 <___main+0x60>
500013d9:	eb bd                	jmp    50001398 <___main+0x28>
500013db:	90                   	nop    
500013dc:	90                   	nop    
500013dd:	90                   	nop    
500013de:	90                   	nop    
500013df:	90                   	nop    

500013e0 <__pei386_runtime_relocator>:
500013e0:	55                   	push   %ebp
500013e1:	b9 68 30 00 50       	mov    $0x50003068,%ecx
500013e6:	81 f9 68 30 00 50    	cmp    $0x50003068,%ecx
500013ec:	89 e5                	mov    %esp,%ebp
500013ee:	73 16                	jae    50001406 <__pei386_runtime_relocator+0x26>
500013f0:	8b 51 04             	mov    0x4(%ecx),%edx
500013f3:	8b 01                	mov    (%ecx),%eax
500013f5:	83 c1 08             	add    $0x8,%ecx
500013f8:	01 82 00 00 00 50    	add    %eax,0x50000000(%edx)
500013fe:	81 f9 68 30 00 50    	cmp    $0x50003068,%ecx
50001404:	72 ea                	jb     500013f0 <__pei386_runtime_relocator+0x10>
50001406:	5d                   	pop    %ebp
50001407:	c3                   	ret    
50001408:	90                   	nop    
50001409:	90                   	nop    
5000140a:	90                   	nop    
5000140b:	90                   	nop    
5000140c:	90                   	nop    
5000140d:	90                   	nop    
5000140e:	90                   	nop    
5000140f:	90                   	nop    

50001410 <___w32_sharedptr_default_unexpected>:
50001410:	55                   	push   %ebp
50001411:	a1 50 40 00 50       	mov    0x50004050,%eax
50001416:	89 e5                	mov    %esp,%ebp
50001418:	5d                   	pop    %ebp
50001419:	8b 48 04             	mov    0x4(%eax),%ecx
5000141c:	ff e1                	jmp    *%ecx
5000141e:	89 f6                	mov    %esi,%esi

50001420 <___w32_sharedptr_get>:
50001420:	55                   	push   %ebp
50001421:	ba 42 00 00 00       	mov    $0x42,%edx
50001426:	89 e5                	mov    %esp,%ebp
50001428:	53                   	push   %ebx
50001429:	0f b7 c0             	movzwl %ax,%eax
5000142c:	83 ec 64             	sub    $0x64,%esp
5000142f:	89 54 24 08          	mov    %edx,0x8(%esp)
50001433:	8d 55 a8             	lea    0xffffffa8(%ebp),%edx
50001436:	31 db                	xor    %ebx,%ebx
50001438:	89 54 24 04          	mov    %edx,0x4(%esp)
5000143c:	89 04 24             	mov    %eax,(%esp)
5000143f:	e8 dc 02 00 00       	call   50001720 <_GetAtomNameA@12>
50001444:	83 ec 0c             	sub    $0xc,%esp
50001447:	85 c0                	test   %eax,%eax
50001449:	ba 1f 00 00 00       	mov    $0x1f,%edx
5000144e:	b9 01 00 00 00       	mov    $0x1,%ecx
50001453:	75 07                	jne    5000145c <___w32_sharedptr_get+0x3c>
50001455:	eb 1f                	jmp    50001476 <___w32_sharedptr_get+0x56>
50001457:	01 c9                	add    %ecx,%ecx
50001459:	4a                   	dec    %edx
5000145a:	78 0e                	js     5000146a <___w32_sharedptr_get+0x4a>
5000145c:	80 7c 15 a8 41       	cmpb   $0x41,0xffffffa8(%ebp,%edx,1)
50001461:	75 f4                	jne    50001457 <___w32_sharedptr_get+0x37>
50001463:	09 cb                	or     %ecx,%ebx
50001465:	01 c9                	add    %ecx,%ecx
50001467:	4a                   	dec    %edx
50001468:	79 f2                	jns    5000145c <___w32_sharedptr_get+0x3c>
5000146a:	83 3b 3c             	cmpl   $0x3c,(%ebx)
5000146d:	75 07                	jne    50001476 <___w32_sharedptr_get+0x56>
5000146f:	89 d8                	mov    %ebx,%eax
50001471:	8b 5d fc             	mov    0xfffffffc(%ebp),%ebx
50001474:	c9                   	leave  
50001475:	c3                   	ret    
50001476:	e8 95 02 00 00       	call   50001710 <_abort>
5000147b:	90                   	nop    
5000147c:	8d 74 26 00          	lea    0x0(%esi),%esi

50001480 <___w32_sharedptr_initialize>:
50001480:	55                   	push   %ebp
50001481:	89 e5                	mov    %esp,%ebp
50001483:	57                   	push   %edi
50001484:	56                   	push   %esi
50001485:	53                   	push   %ebx
50001486:	81 ec cc 00 00 00    	sub    $0xcc,%esp
5000148c:	8b 0d 50 40 00 50    	mov    0x50004050,%ecx
50001492:	85 c9                	test   %ecx,%ecx
50001494:	74 08                	je     5000149e <___w32_sharedptr_initialize+0x1e>
50001496:	8d 65 f4             	lea    0xfffffff4(%ebp),%esp
50001499:	5b                   	pop    %ebx
5000149a:	5e                   	pop    %esi
5000149b:	5f                   	pop    %edi
5000149c:	5d                   	pop    %ebp
5000149d:	c3                   	ret    
5000149e:	c7 45 98 41 41 41 41 	movl   $0x41414141,0xffffff98(%ebp)
500014a5:	a1 28 30 00 50       	mov    0x50003028,%eax
500014aa:	8d 75 98             	lea    0xffffff98(%ebp),%esi
500014ad:	c7 45 9c 41 41 41 41 	movl   $0x41414141,0xffffff9c(%ebp)
500014b4:	c7 45 a0 41 41 41 41 	movl   $0x41414141,0xffffffa0(%ebp)
500014bb:	89 45 b8             	mov    %eax,0xffffffb8(%ebp)
500014be:	a1 2c 30 00 50       	mov    0x5000302c,%eax
500014c3:	c7 45 a4 41 41 41 41 	movl   $0x41414141,0xffffffa4(%ebp)
500014ca:	c7 45 a8 41 41 41 41 	movl   $0x41414141,0xffffffa8(%ebp)
500014d1:	89 45 bc             	mov    %eax,0xffffffbc(%ebp)
500014d4:	a1 30 30 00 50       	mov    0x50003030,%eax
500014d9:	c7 45 ac 41 41 41 41 	movl   $0x41414141,0xffffffac(%ebp)
500014e0:	c7 45 b0 41 41 41 41 	movl   $0x41414141,0xffffffb0(%ebp)
500014e7:	89 45 c0             	mov    %eax,0xffffffc0(%ebp)
500014ea:	a1 34 30 00 50       	mov    0x50003034,%eax
500014ef:	c7 45 b4 41 41 41 41 	movl   $0x41414141,0xffffffb4(%ebp)
500014f6:	89 45 c4             	mov    %eax,0xffffffc4(%ebp)
500014f9:	a1 38 30 00 50       	mov    0x50003038,%eax
500014fe:	89 45 c8             	mov    %eax,0xffffffc8(%ebp)
50001501:	a1 3c 30 00 50       	mov    0x5000303c,%eax
50001506:	89 45 cc             	mov    %eax,0xffffffcc(%ebp)
50001509:	a1 40 30 00 50       	mov    0x50003040,%eax
5000150e:	89 45 d0             	mov    %eax,0xffffffd0(%ebp)
50001511:	a1 44 30 00 50       	mov    0x50003044,%eax
50001516:	89 45 d4             	mov    %eax,0xffffffd4(%ebp)
50001519:	0f b7 05 48 30 00 50 	movzwl 0x50003048,%eax
50001520:	66 89 45 d8          	mov    %ax,0xffffffd8(%ebp)
50001524:	89 34 24             	mov    %esi,(%esp)
50001527:	e8 04 02 00 00       	call   50001730 <_FindAtomA@4>
5000152c:	0f b7 c0             	movzwl %ax,%eax
5000152f:	83 ec 04             	sub    $0x4,%esp
50001532:	85 c0                	test   %eax,%eax
50001534:	89 85 44 ff ff ff    	mov    %eax,0xffffff44(%ebp)
5000153a:	0f 85 3a 01 00 00    	jne    5000167a <___w32_sharedptr_initialize+0x1fa>
50001540:	c7 04 24 3c 00 00 00 	movl   $0x3c,(%esp)
50001547:	e8 b4 01 00 00       	call   50001700 <_malloc>
5000154c:	85 c0                	test   %eax,%eax
5000154e:	89 c3                	mov    %eax,%ebx
50001550:	0f 84 58 01 00 00    	je     500016ae <___w32_sharedptr_initialize+0x22e>
50001556:	fc                   	cld    
50001557:	89 c7                	mov    %eax,%edi
50001559:	8b 85 44 ff ff ff    	mov    0xffffff44(%ebp),%eax
5000155f:	b9 0f 00 00 00       	mov    $0xf,%ecx
50001564:	f3 ab                	repz stos %eax,%es:(%edi)
50001566:	c7 43 04 10 17 00 50 	movl   $0x50001710,0x4(%ebx)
5000156d:	b9 01 00 00 00       	mov    $0x1,%ecx
50001572:	c7 43 08 10 14 00 50 	movl   $0x50001410,0x8(%ebx)
50001579:	a1 20 40 00 50       	mov    0x50004020,%eax
5000157e:	c7 03 3c 00 00 00    	movl   $0x3c,(%ebx)
50001584:	8b 15 24 40 00 50    	mov    0x50004024,%edx
5000158a:	c7 43 28 00 00 00 00 	movl   $0x0,0x28(%ebx)
50001591:	89 43 14             	mov    %eax,0x14(%ebx)
50001594:	a1 20 20 00 50       	mov    0x50002020,%eax
50001599:	89 53 18             	mov    %edx,0x18(%ebx)
5000159c:	8b 15 24 20 00 50    	mov    0x50002024,%edx
500015a2:	89 43 1c             	mov    %eax,0x1c(%ebx)
500015a5:	a1 30 40 00 50       	mov    0x50004030,%eax
500015aa:	89 53 20             	mov    %edx,0x20(%ebx)
500015ad:	c7 43 30 ff ff ff ff 	movl   $0xffffffff,0x30(%ebx)
500015b4:	89 43 2c             	mov    %eax,0x2c(%ebx)
500015b7:	8b 15 2c 20 00 50    	mov    0x5000202c,%edx
500015bd:	a1 28 20 00 50       	mov    0x50002028,%eax
500015c2:	89 53 38             	mov    %edx,0x38(%ebx)
500015c5:	ba 1f 00 00 00       	mov    $0x1f,%edx
500015ca:	89 43 34             	mov    %eax,0x34(%ebx)
500015cd:	8d 76 00             	lea    0x0(%esi),%esi
500015d0:	89 d8                	mov    %ebx,%eax
500015d2:	21 c8                	and    %ecx,%eax
500015d4:	83 f8 01             	cmp    $0x1,%eax
500015d7:	19 c0                	sbb    %eax,%eax
500015d9:	24 20                	and    $0x20,%al
500015db:	01 c9                	add    %ecx,%ecx
500015dd:	04 41                	add    $0x41,%al
500015df:	88 84 15 48 ff ff ff 	mov    %al,0xffffff48(%ebp,%edx,1)
500015e6:	4a                   	dec    %edx
500015e7:	79 e7                	jns    500015d0 <___w32_sharedptr_initialize+0x150>
500015e9:	a1 28 30 00 50       	mov    0x50003028,%eax
500015ee:	89 85 68 ff ff ff    	mov    %eax,0xffffff68(%ebp)
500015f4:	a1 2c 30 00 50       	mov    0x5000302c,%eax
500015f9:	89 85 6c ff ff ff    	mov    %eax,0xffffff6c(%ebp)
500015ff:	a1 30 30 00 50       	mov    0x50003030,%eax
50001604:	89 85 70 ff ff ff    	mov    %eax,0xffffff70(%ebp)
5000160a:	a1 34 30 00 50       	mov    0x50003034,%eax
5000160f:	89 85 74 ff ff ff    	mov    %eax,0xffffff74(%ebp)
50001615:	a1 38 30 00 50       	mov    0x50003038,%eax
5000161a:	89 85 78 ff ff ff    	mov    %eax,0xffffff78(%ebp)
50001620:	a1 3c 30 00 50       	mov    0x5000303c,%eax
50001625:	89 85 7c ff ff ff    	mov    %eax,0xffffff7c(%ebp)
5000162b:	a1 40 30 00 50       	mov    0x50003040,%eax
50001630:	89 45 80             	mov    %eax,0xffffff80(%ebp)
50001633:	a1 44 30 00 50       	mov    0x50003044,%eax
50001638:	89 45 84             	mov    %eax,0xffffff84(%ebp)
5000163b:	0f b7 05 48 30 00 50 	movzwl 0x50003048,%eax
50001642:	66 89 45 88          	mov    %ax,0xffffff88(%ebp)
50001646:	8d 85 48 ff ff ff    	lea    0xffffff48(%ebp),%eax
5000164c:	89 04 24             	mov    %eax,(%esp)
5000164f:	e8 ec 00 00 00       	call   50001740 <_AddAtomA@4>
50001654:	0f b7 f8             	movzwl %ax,%edi
50001657:	83 ec 04             	sub    $0x4,%esp
5000165a:	85 ff                	test   %edi,%edi
5000165c:	75 41                	jne    5000169f <___w32_sharedptr_initialize+0x21f>
5000165e:	31 d2                	xor    %edx,%edx
50001660:	85 d2                	test   %edx,%edx
50001662:	75 1d                	jne    50001681 <___w32_sharedptr_initialize+0x201>
50001664:	89 1c 24             	mov    %ebx,(%esp)
50001667:	e8 74 00 00 00       	call   500016e0 <_free>
5000166c:	89 34 24             	mov    %esi,(%esp)
5000166f:	e8 bc 00 00 00       	call   50001730 <_FindAtomA@4>
50001674:	83 ec 04             	sub    $0x4,%esp
50001677:	0f b7 c0             	movzwl %ax,%eax
5000167a:	e8 a1 fd ff ff       	call   50001420 <___w32_sharedptr_get>
5000167f:	89 c3                	mov    %eax,%ebx
50001681:	89 1d 50 40 00 50    	mov    %ebx,0x50004050
50001687:	8d 43 04             	lea    0x4(%ebx),%eax
5000168a:	a3 40 40 00 50       	mov    %eax,0x50004040
5000168f:	8d 43 08             	lea    0x8(%ebx),%eax
50001692:	a3 60 40 00 50       	mov    %eax,0x50004060
50001697:	8d 65 f4             	lea    0xfffffff4(%ebp),%esp
5000169a:	5b                   	pop    %ebx
5000169b:	5e                   	pop    %esi
5000169c:	5f                   	pop    %edi
5000169d:	5d                   	pop    %ebp
5000169e:	c3                   	ret    
5000169f:	89 f8                	mov    %edi,%eax
500016a1:	e8 7a fd ff ff       	call   50001420 <___w32_sharedptr_get>
500016a6:	39 d8                	cmp    %ebx,%eax
500016a8:	89 fa                	mov    %edi,%edx
500016aa:	75 b2                	jne    5000165e <___w32_sharedptr_initialize+0x1de>
500016ac:	eb b2                	jmp    50001660 <___w32_sharedptr_initialize+0x1e0>
500016ae:	e8 5d 00 00 00       	call   50001710 <_abort>
500016b3:	90                   	nop    
500016b4:	90                   	nop    
500016b5:	90                   	nop    
500016b6:	90                   	nop    
500016b7:	90                   	nop    
500016b8:	90                   	nop    
500016b9:	90                   	nop    
500016ba:	90                   	nop    
500016bb:	90                   	nop    
500016bc:	90                   	nop    
500016bd:	90                   	nop    
500016be:	90                   	nop    
500016bf:	90                   	nop    

500016c0 <___dllonexit>:
500016c0:	ff 25 d4 60 00 50    	jmp    *0x500060d4
500016c6:	90                   	nop    
500016c7:	90                   	nop    
	...

500016d0 <_fflush>:
500016d0:	ff 25 e0 60 00 50    	jmp    *0x500060e0
500016d6:	90                   	nop    
500016d7:	90                   	nop    
	...

500016e0 <_free>:
500016e0:	ff 25 e4 60 00 50    	jmp    *0x500060e4
500016e6:	90                   	nop    
500016e7:	90                   	nop    
	...

500016f0 <__errno>:
500016f0:	ff 25 d8 60 00 50    	jmp    *0x500060d8
500016f6:	90                   	nop    
500016f7:	90                   	nop    
	...

50001700 <_malloc>:
50001700:	ff 25 e8 60 00 50    	jmp    *0x500060e8
50001706:	90                   	nop    
50001707:	90                   	nop    
	...

50001710 <_abort>:
50001710:	ff 25 dc 60 00 50    	jmp    *0x500060dc
50001716:	90                   	nop    
50001717:	90                   	nop    
	...

50001720 <_GetAtomNameA@12>:
50001720:	ff 25 c8 60 00 50    	jmp    *0x500060c8
50001726:	90                   	nop    
50001727:	90                   	nop    
	...

50001730 <_FindAtomA@4>:
50001730:	ff 25 c4 60 00 50    	jmp    *0x500060c4
50001736:	90                   	nop    
50001737:	90                   	nop    
	...

50001740 <_AddAtomA@4>:
50001740:	ff 25 c0 60 00 50    	jmp    *0x500060c0
50001746:	90                   	nop    
50001747:	90                   	nop    
	...

50001750 <___sjlj_init_ctor>:
50001750:	55                   	push   %ebp
50001751:	89 e5                	mov    %esp,%ebp
50001753:	5d                   	pop    %ebp
50001754:	e9 17 fa ff ff       	jmp    50001170 <___do_sjlj_init>
50001759:	90                   	nop    
5000175a:	90                   	nop    
5000175b:	90                   	nop    
5000175c:	90                   	nop    
5000175d:	90                   	nop    
5000175e:	90                   	nop    
5000175f:	90                   	nop    

50001760 <__CTOR_LIST__>:
50001760:	ff                   	(bad)  
50001761:	ff                   	(bad)  
50001762:	ff                   	(bad)  
50001763:	ff 50 17             	call   *0x17(%eax)

50001764 <.ctors>:
50001764:	50                   	push   %eax
50001765:	17                   	pop    %ss
50001766:	00 50 00             	add    %dl,0x0(%eax)
50001769:	00 00                	add    %al,(%eax)
	...

5000176c <__DTOR_LIST__>:
5000176c:	ff                   	(bad)  
5000176d:	ff                   	(bad)  
5000176e:	ff                   	(bad)  
5000176f:	ff 00                	incl   (%eax)
50001771:	00 00                	add    %al,(%eax)
	...
