
usbcore.nostrip.sys:     file format pei-i386

Disassembly of section .text:

00011000 <__end__>:
   11000:	55                   	push   %ebp
   11001:	89 e5                	mov    %esp,%ebp
   11003:	83 ec 08             	sub    $0x8,%esp
   11006:	8b 45 08             	mov    0x8(%ebp),%eax
   11009:	8b 40 54             	mov    0x54(%eax),%eax
   1100c:	89 45 fc             	mov    %eax,0xfffffffc(%ebp)
   1100f:	8b 45 fc             	mov    0xfffffffc(%ebp),%eax
   11012:	c7 40 04 01 00 00 00 	movl   $0x1,0x4(%eax)
   11019:	83 ec 0c             	sub    $0xc,%esp
   1101c:	ff 75 fc             	pushl  0xfffffffc(%ebp)
   1101f:	e8 41 88 00 00       	call   19865 <_my_wake_up>
   11024:	83 c4 10             	add    $0x10,%esp
   11027:	c9                   	leave  
   11028:	c3                   	ret    

00011029 <_usb_start_wait_urb>:
   11029:	55                   	push   %ebp
   1102a:	89 e5                	mov    %esp,%ebp
   1102c:	83 ec 18             	sub    $0x18,%esp
   1102f:	c7 45 fc 00 00 00 00 	movl   $0x0,0xfffffffc(%ebp)
   11036:	8b 45 08             	mov    0x8(%ebp),%eax
   11039:	8d 55 f8             	lea    0xfffffff8(%ebp),%edx
   1103c:	89 50 54             	mov    %edx,0x54(%eax)
   1103f:	83 ec 08             	sub    $0x8,%esp
   11042:	6a 00                	push   $0x0
   11044:	ff 75 08             	pushl  0x8(%ebp)
   11047:	e8 57 71 00 00       	call   181a3 <_usb_submit_urb@8>
   1104c:	83 c4 08             	add    $0x8,%esp
   1104f:	89 45 f4             	mov    %eax,0xfffffff4(%ebp)
   11052:	83 7d f4 00          	cmpl   $0x0,0xfffffff4(%ebp)
   11056:	74 19                	je     11071 <_usb_start_wait_urb+0x48>
   11058:	83 ec 0c             	sub    $0xc,%esp
   1105b:	ff 75 08             	pushl  0x8(%ebp)
   1105e:	e8 d3 70 00 00       	call   18136 <_usb_free_urb@4>
   11063:	83 c4 0c             	add    $0xc,%esp
   11066:	8b 45 f4             	mov    0xfffffff4(%ebp),%eax
   11069:	89 45 f0             	mov    %eax,0xfffffff0(%ebp)
   1106c:	e9 bd 00 00 00       	jmp    1112e <_usb_start_wait_urb+0x105>
   11071:	83 7d 0c 00          	cmpl   $0x0,0xc(%ebp)
   11075:	74 1f                	je     11096 <_usb_start_wait_urb+0x6d>
   11077:	83 7d fc 00          	cmpl   $0x0,0xfffffffc(%ebp)
   1107b:	75 19                	jne    11096 <_usb_start_wait_urb+0x6d>
   1107d:	83 ec 0c             	sub    $0xc,%esp
   11080:	ff 75 0c             	pushl  0xc(%ebp)
   11083:	e8 ec 87 00 00       	call   19874 <_my_schedule_timeout>
   11088:	83 c4 10             	add    $0x10,%esp
   1108b:	89 45 0c             	mov    %eax,0xc(%ebp)
   1108e:	f0 83 44 24 00 00    	lock addl $0x0,0x0(%esp,1)
   11094:	eb db                	jmp    11071 <_usb_start_wait_urb+0x48>
   11096:	83 7d 0c 00          	cmpl   $0x0,0xc(%ebp)
   1109a:	75 64                	jne    11100 <_usb_start_wait_urb+0xd7>
   1109c:	83 7d fc 00          	cmpl   $0x0,0xfffffffc(%ebp)
   110a0:	75 5e                	jne    11100 <_usb_start_wait_urb+0xd7>
   110a2:	8b 45 08             	mov    0x8(%ebp),%eax
   110a5:	83 78 1c 8d          	cmpl   $0xffffff8d,0x1c(%eax)
   110a9:	74 3e                	je     110e9 <_usb_start_wait_urb+0xc0>
   110ab:	83 ec 04             	sub    $0x4,%esp
   110ae:	6a 45                	push   $0x45
   110b0:	68 00 b0 01 00       	push   $0x1b000
   110b5:	68 0a b0 01 00       	push   $0x1b00a
   110ba:	e8 a1 89 00 00       	call   19a60 <_DbgPrint>
   110bf:	83 c4 10             	add    $0x10,%esp
   110c2:	ff 75 0c             	pushl  0xc(%ebp)
   110c5:	8b 45 08             	mov    0x8(%ebp),%eax
   110c8:	ff 70 1c             	pushl  0x1c(%eax)
   110cb:	8b 45 08             	mov    0x8(%ebp),%eax
   110ce:	ff 70 18             	pushl  0x18(%eax)
   110d1:	68 14 b0 01 00       	push   $0x1b014
   110d6:	e8 85 89 00 00       	call   19a60 <_DbgPrint>
   110db:	83 c4 10             	add    $0x10,%esp
   110de:	8b 45 08             	mov    0x8(%ebp),%eax
   110e1:	8b 40 1c             	mov    0x1c(%eax),%eax
   110e4:	89 45 f4             	mov    %eax,0xfffffff4(%ebp)
   110e7:	eb 20                	jmp    11109 <_usb_start_wait_urb+0xe0>
   110e9:	83 ec 0c             	sub    $0xc,%esp
   110ec:	ff 75 08             	pushl  0x8(%ebp)
   110ef:	e8 c6 73 00 00       	call   184ba <_usb_unlink_urb@4>
   110f4:	83 c4 0c             	add    $0xc,%esp
   110f7:	c7 45 f4 92 ff ff ff 	movl   $0xffffff92,0xfffffff4(%ebp)
   110fe:	eb 09                	jmp    11109 <_usb_start_wait_urb+0xe0>
   11100:	8b 45 08             	mov    0x8(%ebp),%eax
   11103:	8b 40 1c             	mov    0x1c(%eax),%eax
   11106:	89 45 f4             	mov    %eax,0xfffffff4(%ebp)
   11109:	83 7d 10 00          	cmpl   $0x0,0x10(%ebp)
   1110d:	74 0b                	je     1111a <_usb_start_wait_urb+0xf1>
   1110f:	8b 45 10             	mov    0x10(%ebp),%eax
   11112:	8b 55 08             	mov    0x8(%ebp),%edx
   11115:	8b 52 30             	mov    0x30(%edx),%edx
   11118:	89 10                	mov    %edx,(%eax)
   1111a:	83 ec 0c             	sub    $0xc,%esp
   1111d:	ff 75 08             	pushl  0x8(%ebp)
   11120:	e8 11 70 00 00       	call   18136 <_usb_free_urb@4>
   11125:	83 c4 0c             	add    $0xc,%esp
   11128:	8b 45 f4             	mov    0xfffffff4(%ebp),%eax
   1112b:	89 45 f0             	mov    %eax,0xfffffff0(%ebp)
   1112e:	8b 45 f0             	mov    0xfffffff0(%ebp),%eax
   11131:	c9                   	leave  
   11132:	c3                   	ret    

00011133 <_usb_internal_control_msg>:
   11133:	55                   	push   %ebp
   11134:	89 e5                	mov    %esp,%ebp
   11136:	83 ec 18             	sub    $0x18,%esp
   11139:	83 ec 08             	sub    $0x8,%esp
   1113c:	6a 00                	push   $0x0
   1113e:	6a 00                	push   $0x0
   11140:	e8 a7 6f 00 00       	call   180ec <_usb_alloc_urb@8>
   11145:	83 c4 08             	add    $0x8,%esp
   11148:	89 45 fc             	mov    %eax,0xfffffffc(%ebp)
   1114b:	83 7d fc 00          	cmpl   $0x0,0xfffffffc(%ebp)
   1114f:	75 09                	jne    1115a <_usb_internal_control_msg+0x27>
   11151:	c7 45 f0 f4 ff ff ff 	movl   $0xfffffff4,0xfffffff0(%ebp)
   11158:	eb 4d                	jmp    111a7 <_usb_internal_control_msg+0x74>
   1115a:	6a 00                	push   $0x0
   1115c:	68 00 10 01 00       	push   $0x11000
   11161:	ff 75 18             	pushl  0x18(%ebp)
   11164:	ff 75 14             	pushl  0x14(%ebp)
   11167:	ff 75 10             	pushl  0x10(%ebp)
   1116a:	ff 75 0c             	pushl  0xc(%ebp)
   1116d:	ff 75 08             	pushl  0x8(%ebp)
   11170:	ff 75 fc             	pushl  0xfffffffc(%ebp)
   11173:	e8 34 00 00 00       	call   111ac <_usb_fill_control_urb>
   11178:	83 c4 20             	add    $0x20,%esp
   1117b:	83 ec 04             	sub    $0x4,%esp
   1117e:	8d 45 f4             	lea    0xfffffff4(%ebp),%eax
   11181:	50                   	push   %eax
   11182:	ff 75 1c             	pushl  0x1c(%ebp)
   11185:	ff 75 fc             	pushl  0xfffffffc(%ebp)
   11188:	e8 9c fe ff ff       	call   11029 <_usb_start_wait_urb>
   1118d:	83 c4 10             	add    $0x10,%esp
   11190:	89 45 f8             	mov    %eax,0xfffffff8(%ebp)
   11193:	83 7d f8 00          	cmpl   $0x0,0xfffffff8(%ebp)
   11197:	79 08                	jns    111a1 <_usb_internal_control_msg+0x6e>
   11199:	8b 45 f8             	mov    0xfffffff8(%ebp),%eax
   1119c:	89 45 f0             	mov    %eax,0xfffffff0(%ebp)
   1119f:	eb 06                	jmp    111a7 <_usb_internal_control_msg+0x74>
   111a1:	8b 45 f4             	mov    0xfffffff4(%ebp),%eax
   111a4:	89 45 f0             	mov    %eax,0xfffffff0(%ebp)
   111a7:	8b 45 f0             	mov    0xfffffff0(%ebp),%eax
   111aa:	c9                   	leave  
   111ab:	c3                   	ret    

000111ac <_usb_fill_control_urb>:
   111ac:	55                   	push   %ebp
   111ad:	89 e5                	mov    %esp,%ebp
   111af:	8b 55 08             	mov    0x8(%ebp),%edx
   111b2:	8b 45 0c             	mov    0xc(%ebp),%eax
   111b5:	89 42 14             	mov    %eax,0x14(%edx)
   111b8:	8b 55 08             	mov    0x8(%ebp),%edx
   111bb:	8b 45 10             	mov    0x10(%ebp),%eax
   111be:	89 42 18             	mov    %eax,0x18(%edx)
   111c1:	8b 55 08             	mov    0x8(%ebp),%edx
   111c4:	8b 45 14             	mov    0x14(%ebp),%eax
   111c7:	89 42 38             	mov    %eax,0x38(%edx)
   111ca:	8b 55 08             	mov    0x8(%ebp),%edx
   111cd:	8b 45 18             	mov    0x18(%ebp),%eax
   111d0:	89 42 24             	mov    %eax,0x24(%edx)
   111d3:	8b 55 08             	mov    0x8(%ebp),%edx
   111d6:	8b 45 1c             	mov    0x1c(%ebp),%eax
   111d9:	89 42 2c             	mov    %eax,0x2c(%edx)
   111dc:	8b 55 08             	mov    0x8(%ebp),%edx
   111df:	8b 45 20             	mov    0x20(%ebp),%eax
   111e2:	89 42 58             	mov    %eax,0x58(%edx)
   111e5:	8b 55 08             	mov    0x8(%ebp),%edx
   111e8:	8b 45 24             	mov    0x24(%ebp),%eax
   111eb:	89 42 54             	mov    %eax,0x54(%edx)
   111ee:	5d                   	pop    %ebp
   111ef:	c3                   	ret    

000111f0 <_usb_control_msg>:
   111f0:	55                   	push   %ebp
   111f1:	89 e5                	mov    %esp,%ebp
   111f3:	56                   	push   %esi
   111f4:	53                   	push   %ebx
   111f5:	83 ec 20             	sub    $0x20,%esp
   111f8:	8b 45 10             	mov    0x10(%ebp),%eax
   111fb:	8b 55 14             	mov    0x14(%ebp),%edx
   111fe:	8b 4d 18             	mov    0x18(%ebp),%ecx
   11201:	8b 5d 1c             	mov    0x1c(%ebp),%ebx
   11204:	8b 75 24             	mov    0x24(%ebp),%esi
   11207:	88 45 f7             	mov    %al,0xfffffff7(%ebp)
   1120a:	88 55 f6             	mov    %dl,0xfffffff6(%ebp)
   1120d:	66 89 4d f4          	mov    %cx,0xfffffff4(%ebp)
   11211:	66 89 5d f2          	mov    %bx,0xfffffff2(%ebp)
   11215:	66 89 75 f0          	mov    %si,0xfffffff0(%ebp)
   11219:	83 ec 08             	sub    $0x8,%esp
   1121c:	6a 08                	push   $0x8
   1121e:	6a 01                	push   $0x1
   11220:	e8 0b 88 00 00       	call   19a30 <_ExAllocatePool@8>
   11225:	83 c4 08             	add    $0x8,%esp
   11228:	89 45 ec             	mov    %eax,0xffffffec(%ebp)
   1122b:	83 7d ec 00          	cmpl   $0x0,0xffffffec(%ebp)
   1122f:	75 09                	jne    1123a <_usb_control_msg+0x4a>
   11231:	c7 45 e4 f4 ff ff ff 	movl   $0xfffffff4,0xffffffe4(%ebp)
   11238:	eb 6a                	jmp    112a4 <_usb_control_msg+0xb4>
   1123a:	8b 55 ec             	mov    0xffffffec(%ebp),%edx
   1123d:	8a 45 f6             	mov    0xfffffff6(%ebp),%al
   11240:	88 02                	mov    %al,(%edx)
   11242:	8b 55 ec             	mov    0xffffffec(%ebp),%edx
   11245:	8a 45 f7             	mov    0xfffffff7(%ebp),%al
   11248:	88 42 01             	mov    %al,0x1(%edx)
   1124b:	8b 55 ec             	mov    0xffffffec(%ebp),%edx
   1124e:	8b 45 f4             	mov    0xfffffff4(%ebp),%eax
   11251:	66 89 42 02          	mov    %ax,0x2(%edx)
   11255:	8b 55 ec             	mov    0xffffffec(%ebp),%edx
   11258:	66 8b 45 f2          	mov    0xfffffff2(%ebp),%ax
   1125c:	66 89 42 04          	mov    %ax,0x4(%edx)
   11260:	8b 55 ec             	mov    0xffffffec(%ebp),%edx
   11263:	8b 45 f0             	mov    0xfffffff0(%ebp),%eax
   11266:	66 89 42 06          	mov    %ax,0x6(%edx)
   1126a:	83 ec 08             	sub    $0x8,%esp
   1126d:	ff 75 28             	pushl  0x28(%ebp)
   11270:	8b 45 f0             	mov    0xfffffff0(%ebp),%eax
   11273:	25 ff ff 00 00       	and    $0xffff,%eax
   11278:	50                   	push   %eax
   11279:	ff 75 20             	pushl  0x20(%ebp)
   1127c:	ff 75 ec             	pushl  0xffffffec(%ebp)
   1127f:	ff 75 0c             	pushl  0xc(%ebp)
   11282:	ff 75 08             	pushl  0x8(%ebp)
   11285:	e8 a9 fe ff ff       	call   11133 <_usb_internal_control_msg>
   1128a:	83 c4 20             	add    $0x20,%esp
   1128d:	89 45 e8             	mov    %eax,0xffffffe8(%ebp)
   11290:	83 ec 0c             	sub    $0xc,%esp
   11293:	ff 75 ec             	pushl  0xffffffec(%ebp)
   11296:	e8 a5 87 00 00       	call   19a40 <_ExFreePool@4>
   1129b:	83 c4 0c             	add    $0xc,%esp
   1129e:	8b 45 e8             	mov    0xffffffe8(%ebp),%eax
   112a1:	89 45 e4             	mov    %eax,0xffffffe4(%ebp)
   112a4:	8b 45 e4             	mov    0xffffffe4(%ebp),%eax
   112a7:	8d 65 f8             	lea    0xfffffff8(%ebp),%esp
   112aa:	5b                   	pop    %ebx
   112ab:	5e                   	pop    %esi
   112ac:	5d                   	pop    %ebp
   112ad:	c3                   	ret    

000112ae <_usb_bulk_msg>:
   112ae:	55                   	push   %ebp
   112af:	89 e5                	mov    %esp,%ebp
   112b1:	83 ec 08             	sub    $0x8,%esp
   112b4:	83 7d 14 00          	cmpl   $0x0,0x14(%ebp)
   112b8:	79 09                	jns    112c3 <_usb_bulk_msg+0x15>
   112ba:	c7 45 f8 ea ff ff ff 	movl   $0xffffffea,0xfffffff8(%ebp)
   112c1:	eb 59                	jmp    1131c <_usb_bulk_msg+0x6e>
   112c3:	83 ec 08             	sub    $0x8,%esp
   112c6:	6a 00                	push   $0x0
   112c8:	6a 00                	push   $0x0
   112ca:	e8 1d 6e 00 00       	call   180ec <_usb_alloc_urb@8>
   112cf:	83 c4 08             	add    $0x8,%esp
   112d2:	89 45 fc             	mov    %eax,0xfffffffc(%ebp)
   112d5:	83 7d fc 00          	cmpl   $0x0,0xfffffffc(%ebp)
   112d9:	75 09                	jne    112e4 <_usb_bulk_msg+0x36>
   112db:	c7 45 f8 f4 ff ff ff 	movl   $0xfffffff4,0xfffffff8(%ebp)
   112e2:	eb 38                	jmp    1131c <_usb_bulk_msg+0x6e>
   112e4:	83 ec 04             	sub    $0x4,%esp
   112e7:	6a 00                	push   $0x0
   112e9:	68 00 10 01 00       	push   $0x11000
   112ee:	ff 75 14             	pushl  0x14(%ebp)
   112f1:	ff 75 10             	pushl  0x10(%ebp)
   112f4:	ff 75 0c             	pushl  0xc(%ebp)
   112f7:	ff 75 08             	pushl  0x8(%ebp)
   112fa:	ff 75 fc             	pushl  0xfffffffc(%ebp)
   112fd:	e8 1f 00 00 00       	call   11321 <_usb_fill_bulk_urb>
   11302:	83 c4 20             	add    $0x20,%esp
   11305:	83 ec 04             	sub    $0x4,%esp
   11308:	ff 75 18             	pushl  0x18(%ebp)
   1130b:	ff 75 1c             	pushl  0x1c(%ebp)
   1130e:	ff 75 fc             	pushl  0xfffffffc(%ebp)
   11311:	e8 13 fd ff ff       	call   11029 <_usb_start_wait_urb>
   11316:	83 c4 10             	add    $0x10,%esp
   11319:	89 45 f8             	mov    %eax,0xfffffff8(%ebp)
   1131c:	8b 45 f8             	mov    0xfffffff8(%ebp),%eax
   1131f:	c9                   	leave  
   11320:	c3                   	ret    

00011321 <_usb_fill_bulk_urb>:
   11321:	55                   	push   %ebp
   11322:	89 e5                	mov    %esp,%ebp
   11324:	8b 55 08             	mov    0x8(%ebp),%edx
   11327:	8b 45 0c             	mov    0xc(%ebp),%eax
   1132a:	89 42 14             	mov    %eax,0x14(%edx)
   1132d:	8b 55 08             	mov    0x8(%ebp),%edx
   11330:	8b 45 10             	mov    0x10(%ebp),%eax
   11333:	89 42 18             	mov    %eax,0x18(%edx)
   11336:	8b 55 08             	mov    0x8(%ebp),%edx
   11339:	8b 45 14             	mov    0x14(%ebp),%eax
   1133c:	89 42 24             	mov    %eax,0x24(%edx)
   1133f:	8b 55 08             	mov    0x8(%ebp),%edx
   11342:	8b 45 18             	mov    0x18(%ebp),%eax
   11345:	89 42 2c             	mov    %eax,0x2c(%edx)
   11348:	8b 55 08             	mov    0x8(%ebp),%edx
   1134b:	8b 45 1c             	mov    0x1c(%ebp),%eax
   1134e:	89 42 58             	mov    %eax,0x58(%edx)
   11351:	8b 55 08             	mov    0x8(%ebp),%edx
   11354:	8b 45 20             	mov    0x20(%ebp),%eax
   11357:	89 42 54             	mov    %eax,0x54(%edx)
   1135a:	5d                   	pop    %ebp
   1135b:	c3                   	ret    

0001135c <_usb_get_descriptor>:
   1135c:	55                   	push   %ebp
   1135d:	89 e5                	mov    %esp,%ebp
   1135f:	83 ec 18             	sub    $0x18,%esp
   11362:	8b 45 0c             	mov    0xc(%ebp),%eax
   11365:	8b 55 10             	mov    0x10(%ebp),%edx
   11368:	88 45 ff             	mov    %al,0xffffffff(%ebp)
   1136b:	88 55 fe             	mov    %dl,0xfffffffe(%ebp)
   1136e:	c7 45 f8 05 00 00 00 	movl   $0x5,0xfffffff8(%ebp)
   11375:	83 ec 04             	sub    $0x4,%esp
   11378:	ff 75 18             	pushl  0x18(%ebp)
   1137b:	6a 00                	push   $0x0
   1137d:	ff 75 14             	pushl  0x14(%ebp)
   11380:	e8 cb 86 00 00       	call   19a50 <_memset>
   11385:	83 c4 10             	add    $0x10,%esp
   11388:	8d 45 f8             	lea    0xfffffff8(%ebp),%eax
   1138b:	ff 08                	decl   (%eax)
   1138d:	83 7d f8 ff          	cmpl   $0xffffffff,0xfffffff8(%ebp)
   11391:	74 69                	je     113fc <_usb_get_descriptor+0xa0>
   11393:	83 ec 0c             	sub    $0xc,%esp
   11396:	68 f4 01 00 00       	push   $0x1f4
   1139b:	8b 45 18             	mov    0x18(%ebp),%eax
   1139e:	25 ff ff 00 00       	and    $0xffff,%eax
   113a3:	50                   	push   %eax
   113a4:	ff 75 14             	pushl  0x14(%ebp)
   113a7:	6a 00                	push   $0x0
   113a9:	b8 00 00 00 00       	mov    $0x0,%eax
   113ae:	8a 45 ff             	mov    0xffffffff(%ebp),%al
   113b1:	89 c2                	mov    %eax,%edx
   113b3:	c1 e2 08             	shl    $0x8,%edx
   113b6:	b8 00 00 00 00       	mov    $0x0,%eax
   113bb:	8a 45 fe             	mov    0xfffffffe(%ebp),%al
   113be:	01 d0                	add    %edx,%eax
   113c0:	25 ff ff 00 00       	and    $0xffff,%eax
   113c5:	50                   	push   %eax
   113c6:	68 80 00 00 00       	push   $0x80
   113cb:	6a 06                	push   $0x6
   113cd:	6a 00                	push   $0x0
   113cf:	ff 75 08             	pushl  0x8(%ebp)
   113d2:	e8 2a 00 00 00       	call   11401 <___create_pipe>
   113d7:	83 c4 08             	add    $0x8,%esp
   113da:	0d 80 00 00 80       	or     $0x80000080,%eax
   113df:	50                   	push   %eax
   113e0:	ff 75 08             	pushl  0x8(%ebp)
   113e3:	e8 08 fe ff ff       	call   111f0 <_usb_control_msg>
   113e8:	83 c4 30             	add    $0x30,%esp
   113eb:	89 45 f4             	mov    %eax,0xfffffff4(%ebp)
   113ee:	83 7d f4 00          	cmpl   $0x0,0xfffffff4(%ebp)
   113f2:	7f 08                	jg     113fc <_usb_get_descriptor+0xa0>
   113f4:	83 7d f4 e0          	cmpl   $0xffffffe0,0xfffffff4(%ebp)
   113f8:	74 02                	je     113fc <_usb_get_descriptor+0xa0>
   113fa:	eb 8c                	jmp    11388 <_usb_get_descriptor+0x2c>
   113fc:	8b 45 f4             	mov    0xfffffff4(%ebp),%eax
   113ff:	c9                   	leave  
   11400:	c3                   	ret    

00011401 <___create_pipe>:
   11401:	55                   	push   %ebp
   11402:	89 e5                	mov    %esp,%ebp
   11404:	8b 45 08             	mov    0x8(%ebp),%eax
   11407:	8b 00                	mov    (%eax),%eax
   11409:	c1 e0 08             	shl    $0x8,%eax
   1140c:	8b 55 0c             	mov    0xc(%ebp),%edx
   1140f:	c1 e2 0f             	shl    $0xf,%edx
   11412:	09 d0                	or     %edx,%eax
   11414:	5d                   	pop    %ebp
   11415:	c3                   	ret    

00011416 <_usb_get_string>:
   11416:	55                   	push   %ebp
   11417:	89 e5                	mov    %esp,%ebp
   11419:	83 ec 08             	sub    $0x8,%esp
   1141c:	8b 45 0c             	mov    0xc(%ebp),%eax
   1141f:	8b 55 10             	mov    0x10(%ebp),%edx
   11422:	66 89 45 fe          	mov    %ax,0xfffffffe(%ebp)
   11426:	88 55 fd             	mov    %dl,0xfffffffd(%ebp)
   11429:	83 ec 0c             	sub    $0xc,%esp
   1142c:	68 f4 01 00 00       	push   $0x1f4
   11431:	8b 45 18             	mov    0x18(%ebp),%eax
   11434:	25 ff ff 00 00       	and    $0xffff,%eax
   11439:	50                   	push   %eax
   1143a:	ff 75 14             	pushl  0x14(%ebp)
   1143d:	66 8b 45 fe          	mov    0xfffffffe(%ebp),%ax
   11441:	25 ff ff 00 00       	and    $0xffff,%eax
   11446:	50                   	push   %eax
   11447:	b8 00 00 00 00       	mov    $0x0,%eax
   1144c:	8a 45 fd             	mov    0xfffffffd(%ebp),%al
   1144f:	05 00 03 00 00       	add    $0x300,%eax
   11454:	25 ff ff 00 00       	and    $0xffff,%eax
   11459:	50                   	push   %eax
   1145a:	68 80 00 00 00       	push   $0x80
   1145f:	6a 06                	push   $0x6
   11461:	6a 00                	push   $0x0
   11463:	ff 75 08             	pushl  0x8(%ebp)
   11466:	e8 96 ff ff ff       	call   11401 <___create_pipe>
   1146b:	83 c4 08             	add    $0x8,%esp
   1146e:	0d 80 00 00 80       	or     $0x80000080,%eax
   11473:	50                   	push   %eax
   11474:	ff 75 08             	pushl  0x8(%ebp)
   11477:	e8 74 fd ff ff       	call   111f0 <_usb_control_msg>
   1147c:	83 c4 30             	add    $0x30,%esp
   1147f:	c9                   	leave  
   11480:	c3                   	ret    

00011481 <_usb_get_device_descriptor>:
   11481:	55                   	push   %ebp
   11482:	89 e5                	mov    %esp,%ebp
   11484:	83 ec 08             	sub    $0x8,%esp
   11487:	83 ec 0c             	sub    $0xc,%esp
   1148a:	6a 12                	push   $0x12
   1148c:	8b 45 08             	mov    0x8(%ebp),%eax
   1148f:	05 70 01 00 00       	add    $0x170,%eax
   11494:	50                   	push   %eax
   11495:	6a 00                	push   $0x0
   11497:	6a 01                	push   $0x1
   11499:	ff 75 08             	pushl  0x8(%ebp)
   1149c:	e8 bb fe ff ff       	call   1135c <_usb_get_descriptor>
   114a1:	83 c4 20             	add    $0x20,%esp
   114a4:	89 45 fc             	mov    %eax,0xfffffffc(%ebp)
   114a7:	8b 45 fc             	mov    0xfffffffc(%ebp),%eax
   114aa:	c9                   	leave  
   114ab:	c3                   	ret    

000114ac <_usb_get_status>:
   114ac:	55                   	push   %ebp
   114ad:	89 e5                	mov    %esp,%ebp
   114af:	83 ec 08             	sub    $0x8,%esp
   114b2:	83 ec 0c             	sub    $0xc,%esp
   114b5:	68 f4 01 00 00       	push   $0x1f4
   114ba:	6a 02                	push   $0x2
   114bc:	ff 75 14             	pushl  0x14(%ebp)
   114bf:	8b 45 10             	mov    0x10(%ebp),%eax
   114c2:	25 ff ff 00 00       	and    $0xffff,%eax
   114c7:	50                   	push   %eax
   114c8:	6a 00                	push   $0x0
   114ca:	8b 55 0c             	mov    0xc(%ebp),%edx
   114cd:	b0 80                	mov    $0x80,%al
   114cf:	09 d0                	or     %edx,%eax
   114d1:	25 ff 00 00 00       	and    $0xff,%eax
   114d6:	50                   	push   %eax
   114d7:	6a 00                	push   $0x0
   114d9:	6a 00                	push   $0x0
   114db:	ff 75 08             	pushl  0x8(%ebp)
   114de:	e8 1e ff ff ff       	call   11401 <___create_pipe>
   114e3:	83 c4 08             	add    $0x8,%esp
   114e6:	0d 80 00 00 80       	or     $0x80000080,%eax
   114eb:	50                   	push   %eax
   114ec:	ff 75 08             	pushl  0x8(%ebp)
   114ef:	e8 fc fc ff ff       	call   111f0 <_usb_control_msg>
   114f4:	83 c4 30             	add    $0x30,%esp
   114f7:	c9                   	leave  
   114f8:	c3                   	ret    

000114f9 <_usb_set_maxpacket>:
   114f9:	55                   	push   %ebp
   114fa:	89 e5                	mov    %esp,%ebp
   114fc:	53                   	push   %ebx
   114fd:	83 ec 1c             	sub    $0x1c,%esp
   11500:	c7 45 f8 00 00 00 00 	movl   $0x0,0xfffffff8(%ebp)
   11507:	8b 45 08             	mov    0x8(%ebp),%eax
   1150a:	8b 80 88 01 00 00    	mov    0x188(%eax),%eax
   11510:	8a 40 04             	mov    0x4(%eax),%al
   11513:	25 ff 00 00 00       	and    $0xff,%eax
   11518:	3b 45 f8             	cmp    0xfffffff8(%ebp),%eax
   1151b:	0f 8e 49 01 00 00    	jle    1166a <_usb_set_maxpacket+0x171>
   11521:	8b 45 08             	mov    0x8(%ebp),%eax
   11524:	8b 98 88 01 00 00    	mov    0x188(%eax),%ebx
   1152a:	8b 4d f8             	mov    0xfffffff8(%ebp),%ecx
   1152d:	89 c8                	mov    %ecx,%eax
   1152f:	c1 e0 02             	shl    $0x2,%eax
   11532:	01 c8                	add    %ecx,%eax
   11534:	8d 14 85 00 00 00 00 	lea    0x0(,%eax,4),%edx
   1153b:	01 d0                	add    %edx,%eax
   1153d:	01 c0                	add    %eax,%eax
   1153f:	01 c8                	add    %ecx,%eax
   11541:	c1 e0 02             	shl    $0x2,%eax
   11544:	03 43 0c             	add    0xc(%ebx),%eax
   11547:	89 45 f0             	mov    %eax,0xfffffff0(%ebp)
   1154a:	8b 4d f0             	mov    0xfffffff0(%ebp),%ecx
   1154d:	8b 45 f0             	mov    0xfffffff0(%ebp),%eax
   11550:	8b 50 04             	mov    0x4(%eax),%edx
   11553:	89 d0                	mov    %edx,%eax
   11555:	01 c0                	add    %eax,%eax
   11557:	01 d0                	add    %edx,%eax
   11559:	c1 e0 03             	shl    $0x3,%eax
   1155c:	03 01                	add    (%ecx),%eax
   1155e:	89 45 ec             	mov    %eax,0xffffffec(%ebp)
   11561:	8b 45 ec             	mov    0xffffffec(%ebp),%eax
   11564:	8b 40 0c             	mov    0xc(%eax),%eax
   11567:	89 45 e8             	mov    %eax,0xffffffe8(%ebp)
   1156a:	c7 45 e4 00 00 00 00 	movl   $0x0,0xffffffe4(%ebp)
   11571:	8b 45 ec             	mov    0xffffffec(%ebp),%eax
   11574:	8a 40 04             	mov    0x4(%eax),%al
   11577:	25 ff 00 00 00       	and    $0xff,%eax
   1157c:	3b 45 e4             	cmp    0xffffffe4(%ebp),%eax
   1157f:	0f 8e db 00 00 00    	jle    11660 <_usb_set_maxpacket+0x167>
   11585:	8b 55 e4             	mov    0xffffffe4(%ebp),%edx
   11588:	89 d0                	mov    %edx,%eax
   1158a:	c1 e0 02             	shl    $0x2,%eax
   1158d:	01 d0                	add    %edx,%eax
   1158f:	c1 e0 02             	shl    $0x2,%eax
   11592:	03 45 e8             	add    0xffffffe8(%ebp),%eax
   11595:	89 45 e0             	mov    %eax,0xffffffe0(%ebp)
   11598:	8b 45 e0             	mov    0xffffffe0(%ebp),%eax
   1159b:	8a 40 02             	mov    0x2(%eax),%al
   1159e:	25 ff 00 00 00       	and    $0xff,%eax
   115a3:	83 e0 0f             	and    $0xf,%eax
   115a6:	89 45 f4             	mov    %eax,0xfffffff4(%ebp)
   115a9:	8b 45 e0             	mov    0xffffffe0(%ebp),%eax
   115ac:	8a 40 03             	mov    0x3(%eax),%al
   115af:	25 ff 00 00 00       	and    $0xff,%eax
   115b4:	83 e0 03             	and    $0x3,%eax
   115b7:	85 c0                	test   %eax,%eax
   115b9:	75 2e                	jne    115e9 <_usb_set_maxpacket+0xf0>
   115bb:	8b 55 08             	mov    0x8(%ebp),%edx
   115be:	8b 4d f4             	mov    0xfffffff4(%ebp),%ecx
   115c1:	8b 45 e0             	mov    0xffffffe0(%ebp),%eax
   115c4:	66 8b 40 04          	mov    0x4(%eax),%ax
   115c8:	25 ff ff 00 00       	and    $0xffff,%eax
   115cd:	89 44 8a 78          	mov    %eax,0x78(%edx,%ecx,4)
   115d1:	8b 55 08             	mov    0x8(%ebp),%edx
   115d4:	8b 4d f4             	mov    0xfffffff4(%ebp),%ecx
   115d7:	8b 45 e0             	mov    0xffffffe0(%ebp),%eax
   115da:	66 8b 40 04          	mov    0x4(%eax),%ax
   115de:	25 ff ff 00 00       	and    $0xffff,%eax
   115e3:	89 44 8a 38          	mov    %eax,0x38(%edx,%ecx,4)
   115e7:	eb 6d                	jmp    11656 <_usb_set_maxpacket+0x15d>
   115e9:	8b 45 e0             	mov    0xffffffe0(%ebp),%eax
   115ec:	80 78 02 00          	cmpb   $0x0,0x2(%eax)
   115f0:	78 33                	js     11625 <_usb_set_maxpacket+0x12c>
   115f2:	8b 45 e0             	mov    0xffffffe0(%ebp),%eax
   115f5:	66 8b 40 04          	mov    0x4(%eax),%ax
   115f9:	89 c1                	mov    %eax,%ecx
   115fb:	81 e1 ff ff 00 00    	and    $0xffff,%ecx
   11601:	8b 55 08             	mov    0x8(%ebp),%edx
   11604:	8b 45 f4             	mov    0xfffffff4(%ebp),%eax
   11607:	3b 4c 82 78          	cmp    0x78(%edx,%eax,4),%ecx
   1160b:	7e 49                	jle    11656 <_usb_set_maxpacket+0x15d>
   1160d:	8b 55 08             	mov    0x8(%ebp),%edx
   11610:	8b 4d f4             	mov    0xfffffff4(%ebp),%ecx
   11613:	8b 45 e0             	mov    0xffffffe0(%ebp),%eax
   11616:	66 8b 40 04          	mov    0x4(%eax),%ax
   1161a:	25 ff ff 00 00       	and    $0xffff,%eax
   1161f:	89 44 8a 78          	mov    %eax,0x78(%edx,%ecx,4)
   11623:	eb 31                	jmp    11656 <_usb_set_maxpacket+0x15d>
   11625:	8b 45 e0             	mov    0xffffffe0(%ebp),%eax
   11628:	66 8b 40 04          	mov    0x4(%eax),%ax
   1162c:	89 c1                	mov    %eax,%ecx
   1162e:	81 e1 ff ff 00 00    	and    $0xffff,%ecx
   11634:	8b 55 08             	mov    0x8(%ebp),%edx
   11637:	8b 45 f4             	mov    0xfffffff4(%ebp),%eax
   1163a:	3b 4c 82 38          	cmp    0x38(%edx,%eax,4),%ecx
   1163e:	7e 16                	jle    11656 <_usb_set_maxpacket+0x15d>
   11640:	8b 55 08             	mov    0x8(%ebp),%edx
   11643:	8b 4d f4             	mov    0xfffffff4(%ebp),%ecx
   11646:	8b 45 e0             	mov    0xffffffe0(%ebp),%eax
   11649:	66 8b 40 04          	mov    0x4(%eax),%ax
   1164d:	25 ff ff 00 00       	and    $0xffff,%eax
   11652:	89 44 8a 38          	mov    %eax,0x38(%edx,%ecx,4)
   11656:	8d 45 e4             	lea    0xffffffe4(%ebp),%eax
   11659:	ff 00                	incl   (%eax)
   1165b:	e9 11 ff ff ff       	jmp    11571 <_usb_set_maxpacket+0x78>
   11660:	8d 45 f8             	lea    0xfffffff8(%ebp),%eax
   11663:	ff 00                	incl   (%eax)
   11665:	e9 9d fe ff ff       	jmp    11507 <_usb_set_maxpacket+0xe>
   1166a:	83 c4 1c             	add    $0x1c,%esp
   1166d:	5b                   	pop    %ebx
   1166e:	5d                   	pop    %ebp
   1166f:	c3                   	ret    

00011670 <_usb_clear_halt>:
   11670:	55                   	push   %ebp
   11671:	89 e5                	mov    %esp,%ebp
   11673:	57                   	push   %edi
   11674:	56                   	push   %esi
   11675:	53                   	push   %ebx
   11676:	83 ec 0c             	sub    $0xc,%esp
   11679:	8b 45 0c             	mov    0xc(%ebp),%eax
   1167c:	c1 f8 0f             	sar    $0xf,%eax
   1167f:	83 e0 0f             	and    $0xf,%eax
   11682:	89 45 ec             	mov    %eax,0xffffffec(%ebp)
   11685:	8b 45 0c             	mov    0xc(%ebp),%eax
   11688:	c1 e8 07             	shr    $0x7,%eax
   1168b:	83 e0 01             	and    $0x1,%eax
   1168e:	85 c0                	test   %eax,%eax
   11690:	74 09                	je     1169b <_usb_clear_halt+0x2b>
   11692:	8d 45 ec             	lea    0xffffffec(%ebp),%eax
   11695:	81 08 80 00 00 00    	orl    $0x80,(%eax)
   1169b:	83 ec 0c             	sub    $0xc,%esp
   1169e:	68 f4 01 00 00       	push   $0x1f4
   116a3:	6a 00                	push   $0x0
   116a5:	6a 00                	push   $0x0
   116a7:	8b 45 ec             	mov    0xffffffec(%ebp),%eax
   116aa:	25 ff ff 00 00       	and    $0xffff,%eax
   116af:	50                   	push   %eax
   116b0:	6a 00                	push   $0x0
   116b2:	6a 02                	push   $0x2
   116b4:	6a 01                	push   $0x1
   116b6:	6a 00                	push   $0x0
   116b8:	ff 75 08             	pushl  0x8(%ebp)
   116bb:	e8 41 fd ff ff       	call   11401 <___create_pipe>
   116c0:	83 c4 08             	add    $0x8,%esp
   116c3:	0d 00 00 00 80       	or     $0x80000000,%eax
   116c8:	50                   	push   %eax
   116c9:	ff 75 08             	pushl  0x8(%ebp)
   116cc:	e8 1f fb ff ff       	call   111f0 <_usb_control_msg>
   116d1:	83 c4 30             	add    $0x30,%esp
   116d4:	89 45 f0             	mov    %eax,0xfffffff0(%ebp)
   116d7:	83 7d f0 00          	cmpl   $0x0,0xfffffff0(%ebp)
   116db:	79 0b                	jns    116e8 <_usb_clear_halt+0x78>
   116dd:	8b 45 f0             	mov    0xfffffff0(%ebp),%eax
   116e0:	89 45 e8             	mov    %eax,0xffffffe8(%ebp)
   116e3:	e9 83 00 00 00       	jmp    1176b <_usb_clear_halt+0xfb>
   116e8:	8b 5d 08             	mov    0x8(%ebp),%ebx
   116eb:	8b 45 0c             	mov    0xc(%ebp),%eax
   116ee:	c1 e8 07             	shr    $0x7,%eax
   116f1:	83 f0 01             	xor    $0x1,%eax
   116f4:	89 c6                	mov    %eax,%esi
   116f6:	83 e6 01             	and    $0x1,%esi
   116f9:	8b 7d 08             	mov    0x8(%ebp),%edi
   116fc:	8b 45 0c             	mov    0xc(%ebp),%eax
   116ff:	c1 e8 07             	shr    $0x7,%eax
   11702:	83 f0 01             	xor    $0x1,%eax
   11705:	89 c2                	mov    %eax,%edx
   11707:	83 e2 01             	and    $0x1,%edx
   1170a:	8b 45 0c             	mov    0xc(%ebp),%eax
   1170d:	c1 f8 0f             	sar    $0xf,%eax
   11710:	89 c1                	mov    %eax,%ecx
   11712:	83 e1 0f             	and    $0xf,%ecx
   11715:	b8 01 00 00 00       	mov    $0x1,%eax
   1171a:	d3 e0                	shl    %cl,%eax
   1171c:	f7 d0                	not    %eax
   1171e:	23 44 97 28          	and    0x28(%edi,%edx,4),%eax
   11722:	89 44 b3 28          	mov    %eax,0x28(%ebx,%esi,4)
   11726:	8b 5d 08             	mov    0x8(%ebp),%ebx
   11729:	8b 45 0c             	mov    0xc(%ebp),%eax
   1172c:	c1 e8 07             	shr    $0x7,%eax
   1172f:	83 f0 01             	xor    $0x1,%eax
   11732:	89 c6                	mov    %eax,%esi
   11734:	83 e6 01             	and    $0x1,%esi
   11737:	8b 7d 08             	mov    0x8(%ebp),%edi
   1173a:	8b 45 0c             	mov    0xc(%ebp),%eax
   1173d:	c1 e8 07             	shr    $0x7,%eax
   11740:	83 f0 01             	xor    $0x1,%eax
   11743:	89 c2                	mov    %eax,%edx
   11745:	83 e2 01             	and    $0x1,%edx
   11748:	8b 45 0c             	mov    0xc(%ebp),%eax
   1174b:	c1 f8 0f             	sar    $0xf,%eax
   1174e:	89 c1                	mov    %eax,%ecx
   11750:	83 e1 0f             	and    $0xf,%ecx
   11753:	b8 01 00 00 00       	mov    $0x1,%eax
   11758:	d3 e0                	shl    %cl,%eax
   1175a:	f7 d0                	not    %eax
   1175c:	23 44 97 30          	and    0x30(%edi,%edx,4),%eax
   11760:	89 44 b3 30          	mov    %eax,0x30(%ebx,%esi,4)
   11764:	c7 45 e8 00 00 00 00 	movl   $0x0,0xffffffe8(%ebp)
   1176b:	8b 45 e8             	mov    0xffffffe8(%ebp),%eax
   1176e:	8d 65 f4             	lea    0xfffffff4(%ebp),%esp
   11771:	5b                   	pop    %ebx
   11772:	5e                   	pop    %esi
   11773:	5f                   	pop    %edi
   11774:	5d                   	pop    %ebp
   11775:	c3                   	ret    

00011776 <_usb_set_interface>:
   11776:	55                   	push   %ebp
   11777:	89 e5                	mov    %esp,%ebp
   11779:	57                   	push   %edi
   1177a:	56                   	push   %esi
   1177b:	53                   	push   %ebx
   1177c:	83 ec 3c             	sub    $0x3c,%esp
   1177f:	8b 45 08             	mov    0x8(%ebp),%eax
   11782:	8b 80 bc 00 00 00    	mov    0xbc(%eax),%eax
   11788:	8b 40 20             	mov    0x20(%eax),%eax
   1178b:	8b 40 1c             	mov    0x1c(%eax),%eax
   1178e:	89 45 e0             	mov    %eax,0xffffffe0(%ebp)
   11791:	83 ec 08             	sub    $0x8,%esp
   11794:	ff 75 0c             	pushl  0xc(%ebp)
   11797:	ff 75 08             	pushl  0x8(%ebp)
   1179a:	e8 d6 44 00 00       	call   15c75 <_usb_ifnum_to_if>
   1179f:	83 c4 10             	add    $0x10,%esp
   117a2:	89 45 f0             	mov    %eax,0xfffffff0(%ebp)
   117a5:	83 7d f0 00          	cmpl   $0x0,0xfffffff0(%ebp)
   117a9:	75 0c                	jne    117b7 <_usb_set_interface+0x41>
   117ab:	c7 45 d4 ea ff ff ff 	movl   $0xffffffea,0xffffffd4(%ebp)
   117b2:	e9 85 02 00 00       	jmp    11a3c <_usb_set_interface+0x2c6>
   117b7:	8b 45 f0             	mov    0xfffffff0(%ebp),%eax
   117ba:	83 78 08 01          	cmpl   $0x1,0x8(%eax)
   117be:	75 0c                	jne    117cc <_usb_set_interface+0x56>
   117c0:	c7 45 d4 00 00 00 00 	movl   $0x0,0xffffffd4(%ebp)
   117c7:	e9 70 02 00 00       	jmp    11a3c <_usb_set_interface+0x2c6>
   117cc:	83 7d 10 00          	cmpl   $0x0,0x10(%ebp)
   117d0:	78 0d                	js     117df <_usb_set_interface+0x69>
   117d2:	8b 55 f0             	mov    0xfffffff0(%ebp),%edx
   117d5:	8b 45 10             	mov    0x10(%ebp),%eax
   117d8:	3b 42 08             	cmp    0x8(%edx),%eax
   117db:	73 02                	jae    117df <_usb_set_interface+0x69>
   117dd:	eb 0c                	jmp    117eb <_usb_set_interface+0x75>
   117df:	c7 45 d4 ea ff ff ff 	movl   $0xffffffea,0xffffffd4(%ebp)
   117e6:	e9 51 02 00 00       	jmp    11a3c <_usb_set_interface+0x2c6>
   117eb:	83 ec 0c             	sub    $0xc,%esp
   117ee:	68 f4 01 00 00       	push   $0x1f4
   117f3:	6a 00                	push   $0x0
   117f5:	6a 00                	push   $0x0
   117f7:	8b 45 0c             	mov    0xc(%ebp),%eax
   117fa:	25 ff ff 00 00       	and    $0xffff,%eax
   117ff:	50                   	push   %eax
   11800:	8b 4d f0             	mov    0xfffffff0(%ebp),%ecx
   11803:	8b 55 10             	mov    0x10(%ebp),%edx
   11806:	89 d0                	mov    %edx,%eax
   11808:	01 c0                	add    %eax,%eax
   1180a:	01 d0                	add    %edx,%eax
   1180c:	8d 14 c5 00 00 00 00 	lea    0x0(,%eax,8),%edx
   11813:	8b 01                	mov    (%ecx),%eax
   11815:	8a 44 02 03          	mov    0x3(%edx,%eax,1),%al
   11819:	25 ff 00 00 00       	and    $0xff,%eax
   1181e:	50                   	push   %eax
   1181f:	6a 01                	push   $0x1
   11821:	6a 0b                	push   $0xb
   11823:	6a 00                	push   $0x0
   11825:	ff 75 08             	pushl  0x8(%ebp)
   11828:	e8 d4 fb ff ff       	call   11401 <___create_pipe>
   1182d:	83 c4 08             	add    $0x8,%esp
   11830:	0d 00 00 00 80       	or     $0x80000000,%eax
   11835:	50                   	push   %eax
   11836:	ff 75 08             	pushl  0x8(%ebp)
   11839:	e8 b2 f9 ff ff       	call   111f0 <_usb_control_msg>
   1183e:	83 c4 30             	add    $0x30,%esp
   11841:	89 45 e4             	mov    %eax,0xffffffe4(%ebp)
   11844:	83 7d e4 00          	cmpl   $0x0,0xffffffe4(%ebp)
   11848:	79 0b                	jns    11855 <_usb_set_interface+0xdf>
   1184a:	8b 45 e4             	mov    0xffffffe4(%ebp),%eax
   1184d:	89 45 d4             	mov    %eax,0xffffffd4(%ebp)
   11850:	e9 e7 01 00 00       	jmp    11a3c <_usb_set_interface+0x2c6>
   11855:	8b 4d f0             	mov    0xfffffff0(%ebp),%ecx
   11858:	8b 45 f0             	mov    0xfffffff0(%ebp),%eax
   1185b:	8b 50 04             	mov    0x4(%eax),%edx
   1185e:	89 d0                	mov    %edx,%eax
   11860:	01 c0                	add    %eax,%eax
   11862:	01 d0                	add    %edx,%eax
   11864:	c1 e0 03             	shl    $0x3,%eax
   11867:	03 01                	add    (%ecx),%eax
   11869:	89 45 ec             	mov    %eax,0xffffffec(%ebp)
   1186c:	c7 45 e8 00 00 00 00 	movl   $0x0,0xffffffe8(%ebp)
   11873:	8b 45 ec             	mov    0xffffffec(%ebp),%eax
   11876:	8a 40 04             	mov    0x4(%eax),%al
   11879:	25 ff 00 00 00       	and    $0xff,%eax
   1187e:	3b 45 e8             	cmp    0xffffffe8(%ebp),%eax
   11881:	0f 8e 96 00 00 00    	jle    1191d <_usb_set_interface+0x1a7>
   11887:	8b 4d ec             	mov    0xffffffec(%ebp),%ecx
   1188a:	8b 55 e8             	mov    0xffffffe8(%ebp),%edx
   1188d:	89 d0                	mov    %edx,%eax
   1188f:	c1 e0 02             	shl    $0x2,%eax
   11892:	01 d0                	add    %edx,%eax
   11894:	8d 14 85 00 00 00 00 	lea    0x0(,%eax,4),%edx
   1189b:	8b 41 0c             	mov    0xc(%ecx),%eax
   1189e:	8a 44 02 02          	mov    0x2(%edx,%eax,1),%al
   118a2:	88 45 df             	mov    %al,0xffffffdf(%ebp)
   118a5:	0f be 45 df          	movsbl 0xffffffdf(%ebp),%eax
   118a9:	f7 d0                	not    %eax
   118ab:	c1 e8 1f             	shr    $0x1f,%eax
   118ae:	89 45 d8             	mov    %eax,0xffffffd8(%ebp)
   118b1:	83 7d e0 00          	cmpl   $0x0,0xffffffe0(%ebp)
   118b5:	74 17                	je     118ce <_usb_set_interface+0x158>
   118b7:	83 ec 08             	sub    $0x8,%esp
   118ba:	b8 00 00 00 00       	mov    $0x0,%eax
   118bf:	8a 45 df             	mov    0xffffffdf(%ebp),%al
   118c2:	50                   	push   %eax
   118c3:	ff 75 08             	pushl  0x8(%ebp)
   118c6:	8b 45 e0             	mov    0xffffffe0(%ebp),%eax
   118c9:	ff d0                	call   *%eax
   118cb:	83 c4 10             	add    $0x10,%esp
   118ce:	8d 45 df             	lea    0xffffffdf(%ebp),%eax
   118d1:	80 20 0f             	andb   $0xf,(%eax)
   118d4:	b8 00 00 00 00       	mov    $0x0,%eax
   118d9:	8a 45 df             	mov    0xffffffdf(%ebp),%al
   118dc:	89 45 d0             	mov    %eax,0xffffffd0(%ebp)
   118df:	8b 45 d0             	mov    0xffffffd0(%ebp),%eax
   118e2:	c1 e0 02             	shl    $0x2,%eax
   118e5:	89 45 d0             	mov    %eax,0xffffffd0(%ebp)
   118e8:	83 7d d8 00          	cmpl   $0x0,0xffffffd8(%ebp)
   118ec:	74 0f                	je     118fd <_usb_set_interface+0x187>
   118ee:	8b 55 d0             	mov    0xffffffd0(%ebp),%edx
   118f1:	03 55 08             	add    0x8(%ebp),%edx
   118f4:	89 55 cc             	mov    %edx,0xffffffcc(%ebp)
   118f7:	83 45 cc 78          	addl   $0x78,0xffffffcc(%ebp)
   118fb:	eb 0d                	jmp    1190a <_usb_set_interface+0x194>
   118fd:	8b 45 d0             	mov    0xffffffd0(%ebp),%eax
   11900:	03 45 08             	add    0x8(%ebp),%eax
   11903:	89 45 cc             	mov    %eax,0xffffffcc(%ebp)
   11906:	83 45 cc 38          	addl   $0x38,0xffffffcc(%ebp)
   1190a:	8b 55 cc             	mov    0xffffffcc(%ebp),%edx
   1190d:	c7 02 00 00 00 00    	movl   $0x0,(%edx)
   11913:	8d 45 e8             	lea    0xffffffe8(%ebp),%eax
   11916:	ff 00                	incl   (%eax)
   11918:	e9 56 ff ff ff       	jmp    11873 <_usb_set_interface+0xfd>
   1191d:	8b 55 f0             	mov    0xfffffff0(%ebp),%edx
   11920:	8b 45 10             	mov    0x10(%ebp),%eax
   11923:	89 42 04             	mov    %eax,0x4(%edx)
   11926:	8b 4d f0             	mov    0xfffffff0(%ebp),%ecx
   11929:	8b 55 10             	mov    0x10(%ebp),%edx
   1192c:	89 d0                	mov    %edx,%eax
   1192e:	01 c0                	add    %eax,%eax
   11930:	01 d0                	add    %edx,%eax
   11932:	c1 e0 03             	shl    $0x3,%eax
   11935:	03 01                	add    (%ecx),%eax
   11937:	89 45 ec             	mov    %eax,0xffffffec(%ebp)
   1193a:	c7 45 e8 00 00 00 00 	movl   $0x0,0xffffffe8(%ebp)
   11941:	8b 45 ec             	mov    0xffffffec(%ebp),%eax
   11944:	8a 40 04             	mov    0x4(%eax),%al
   11947:	25 ff 00 00 00       	and    $0xff,%eax
   1194c:	3b 45 e8             	cmp    0xffffffe8(%ebp),%eax
   1194f:	0f 8e e0 00 00 00    	jle    11a35 <_usb_set_interface+0x2bf>
   11955:	8b 4d ec             	mov    0xffffffec(%ebp),%ecx
   11958:	8b 55 e8             	mov    0xffffffe8(%ebp),%edx
   1195b:	89 d0                	mov    %edx,%eax
   1195d:	c1 e0 02             	shl    $0x2,%eax
   11960:	01 d0                	add    %edx,%eax
   11962:	8d 14 85 00 00 00 00 	lea    0x0(,%eax,4),%edx
   11969:	8b 41 0c             	mov    0xc(%ecx),%eax
   1196c:	8a 44 02 02          	mov    0x2(%edx,%eax,1),%al
   11970:	88 45 df             	mov    %al,0xffffffdf(%ebp)
   11973:	0f be 45 df          	movsbl 0xffffffdf(%ebp),%eax
   11977:	f7 d0                	not    %eax
   11979:	c1 e8 1f             	shr    $0x1f,%eax
   1197c:	89 45 d8             	mov    %eax,0xffffffd8(%ebp)
   1197f:	8d 45 df             	lea    0xffffffdf(%ebp),%eax
   11982:	80 20 0f             	andb   $0xf,(%eax)
   11985:	8b 5d 08             	mov    0x8(%ebp),%ebx
   11988:	8b 75 d8             	mov    0xffffffd8(%ebp),%esi
   1198b:	8b 7d 08             	mov    0x8(%ebp),%edi
   1198e:	8b 55 d8             	mov    0xffffffd8(%ebp),%edx
   11991:	b9 00 00 00 00       	mov    $0x0,%ecx
   11996:	8a 4d df             	mov    0xffffffdf(%ebp),%cl
   11999:	b8 01 00 00 00       	mov    $0x1,%eax
   1199e:	d3 e0                	shl    %cl,%eax
   119a0:	f7 d0                	not    %eax
   119a2:	23 44 97 28          	and    0x28(%edi,%edx,4),%eax
   119a6:	89 44 b3 28          	mov    %eax,0x28(%ebx,%esi,4)
   119aa:	b8 00 00 00 00       	mov    $0x0,%eax
   119af:	8a 45 df             	mov    0xffffffdf(%ebp),%al
   119b2:	89 45 c8             	mov    %eax,0xffffffc8(%ebp)
   119b5:	8b 45 c8             	mov    0xffffffc8(%ebp),%eax
   119b8:	c1 e0 02             	shl    $0x2,%eax
   119bb:	89 45 c8             	mov    %eax,0xffffffc8(%ebp)
   119be:	83 7d d8 00          	cmpl   $0x0,0xffffffd8(%ebp)
   119c2:	74 0f                	je     119d3 <_usb_set_interface+0x25d>
   119c4:	8b 55 c8             	mov    0xffffffc8(%ebp),%edx
   119c7:	03 55 08             	add    0x8(%ebp),%edx
   119ca:	89 55 c4             	mov    %edx,0xffffffc4(%ebp)
   119cd:	83 45 c4 78          	addl   $0x78,0xffffffc4(%ebp)
   119d1:	eb 0d                	jmp    119e0 <_usb_set_interface+0x26a>
   119d3:	8b 45 c8             	mov    0xffffffc8(%ebp),%eax
   119d6:	03 45 08             	add    0x8(%ebp),%eax
   119d9:	89 45 c4             	mov    %eax,0xffffffc4(%ebp)
   119dc:	83 45 c4 38          	addl   $0x38,0xffffffc4(%ebp)
   119e0:	8b 4d ec             	mov    0xffffffec(%ebp),%ecx
   119e3:	8b 55 e8             	mov    0xffffffe8(%ebp),%edx
   119e6:	89 d0                	mov    %edx,%eax
   119e8:	c1 e0 02             	shl    $0x2,%eax
   119eb:	01 d0                	add    %edx,%eax
   119ed:	8d 14 85 00 00 00 00 	lea    0x0(,%eax,4),%edx
   119f4:	8b 41 0c             	mov    0xc(%ecx),%eax
   119f7:	66 8b 44 02 04       	mov    0x4(%edx,%eax,1),%ax
   119fc:	25 ff ff 00 00       	and    $0xffff,%eax
   11a01:	8b 55 c4             	mov    0xffffffc4(%ebp),%edx
   11a04:	89 02                	mov    %eax,(%edx)
   11a06:	8b 5d 08             	mov    0x8(%ebp),%ebx
   11a09:	8b 75 d8             	mov    0xffffffd8(%ebp),%esi
   11a0c:	8b 7d 08             	mov    0x8(%ebp),%edi
   11a0f:	8b 55 d8             	mov    0xffffffd8(%ebp),%edx
   11a12:	b9 00 00 00 00       	mov    $0x0,%ecx
   11a17:	8a 4d df             	mov    0xffffffdf(%ebp),%cl
   11a1a:	b8 01 00 00 00       	mov    $0x1,%eax
   11a1f:	d3 e0                	shl    %cl,%eax
   11a21:	f7 d0                	not    %eax
   11a23:	23 44 97 30          	and    0x30(%edi,%edx,4),%eax
   11a27:	89 44 b3 30          	mov    %eax,0x30(%ebx,%esi,4)
   11a2b:	8d 45 e8             	lea    0xffffffe8(%ebp),%eax
   11a2e:	ff 00                	incl   (%eax)
   11a30:	e9 0c ff ff ff       	jmp    11941 <_usb_set_interface+0x1cb>
   11a35:	c7 45 d4 00 00 00 00 	movl   $0x0,0xffffffd4(%ebp)
   11a3c:	8b 45 d4             	mov    0xffffffd4(%ebp),%eax
   11a3f:	8d 65 f4             	lea    0xfffffff4(%ebp),%esp
   11a42:	5b                   	pop    %ebx
   11a43:	5e                   	pop    %esi
   11a44:	5f                   	pop    %edi
   11a45:	5d                   	pop    %ebp
   11a46:	c3                   	ret    

00011a47 <_usb_set_configuration>:
   11a47:	55                   	push   %ebp
   11a48:	89 e5                	mov    %esp,%ebp
   11a4a:	83 ec 18             	sub    $0x18,%esp
   11a4d:	c7 45 f4 00 00 00 00 	movl   $0x0,0xfffffff4(%ebp)
   11a54:	8b 45 08             	mov    0x8(%ebp),%eax
   11a57:	8b 80 bc 00 00 00    	mov    0xbc(%eax),%eax
   11a5d:	8b 40 20             	mov    0x20(%eax),%eax
   11a60:	8b 40 1c             	mov    0x1c(%eax),%eax
   11a63:	89 45 f0             	mov    %eax,0xfffffff0(%ebp)
   11a66:	c7 45 fc 00 00 00 00 	movl   $0x0,0xfffffffc(%ebp)
   11a6d:	8b 45 08             	mov    0x8(%ebp),%eax
   11a70:	8a 80 81 01 00 00    	mov    0x181(%eax),%al
   11a76:	25 ff 00 00 00       	and    $0xff,%eax
   11a7b:	3b 45 fc             	cmp    0xfffffffc(%ebp),%eax
   11a7e:	7e 48                	jle    11ac8 <_usb_set_configuration+0x81>
   11a80:	8b 4d 08             	mov    0x8(%ebp),%ecx
   11a83:	8b 55 fc             	mov    0xfffffffc(%ebp),%edx
   11a86:	89 d0                	mov    %edx,%eax
   11a88:	01 c0                	add    %eax,%eax
   11a8a:	01 d0                	add    %edx,%eax
   11a8c:	8d 14 c5 00 00 00 00 	lea    0x0(,%eax,8),%edx
   11a93:	8b 81 84 01 00 00    	mov    0x184(%ecx),%eax
   11a99:	8a 44 02 05          	mov    0x5(%edx,%eax,1),%al
   11a9d:	25 ff 00 00 00       	and    $0xff,%eax
   11aa2:	3b 45 0c             	cmp    0xc(%ebp),%eax
   11aa5:	75 1a                	jne    11ac1 <_usb_set_configuration+0x7a>
   11aa7:	8b 4d 08             	mov    0x8(%ebp),%ecx
   11aaa:	8b 55 fc             	mov    0xfffffffc(%ebp),%edx
   11aad:	89 d0                	mov    %edx,%eax
   11aaf:	01 c0                	add    %eax,%eax
   11ab1:	01 d0                	add    %edx,%eax
   11ab3:	c1 e0 03             	shl    $0x3,%eax
   11ab6:	03 81 84 01 00 00    	add    0x184(%ecx),%eax
   11abc:	89 45 f4             	mov    %eax,0xfffffff4(%ebp)
   11abf:	eb 07                	jmp    11ac8 <_usb_set_configuration+0x81>
   11ac1:	8d 45 fc             	lea    0xfffffffc(%ebp),%eax
   11ac4:	ff 00                	incl   (%eax)
   11ac6:	eb a5                	jmp    11a6d <_usb_set_configuration+0x26>
   11ac8:	83 7d f4 00          	cmpl   $0x0,0xfffffff4(%ebp)
   11acc:	75 06                	jne    11ad4 <_usb_set_configuration+0x8d>
   11ace:	83 7d 0c 00          	cmpl   $0x0,0xc(%ebp)
   11ad2:	75 0c                	jne    11ae0 <_usb_set_configuration+0x99>
   11ad4:	83 7d f4 00          	cmpl   $0x0,0xfffffff4(%ebp)
   11ad8:	74 12                	je     11aec <_usb_set_configuration+0xa5>
   11ada:	83 7d 0c 00          	cmpl   $0x0,0xc(%ebp)
   11ade:	75 0c                	jne    11aec <_usb_set_configuration+0xa5>
   11ae0:	c7 45 ec ea ff ff ff 	movl   $0xffffffea,0xffffffec(%ebp)
   11ae7:	e9 f2 00 00 00       	jmp    11bde <_usb_set_configuration+0x197>
   11aec:	8b 45 08             	mov    0x8(%ebp),%eax
   11aef:	83 78 14 04          	cmpl   $0x4,0x14(%eax)
   11af3:	74 3f                	je     11b34 <_usb_set_configuration+0xed>
   11af5:	83 7d f0 00          	cmpl   $0x0,0xfffffff0(%ebp)
   11af9:	74 39                	je     11b34 <_usb_set_configuration+0xed>
   11afb:	c7 45 fc 01 00 00 00 	movl   $0x1,0xfffffffc(%ebp)
   11b02:	83 7d fc 0e          	cmpl   $0xe,0xfffffffc(%ebp)
   11b06:	7f 2c                	jg     11b34 <_usb_set_configuration+0xed>
   11b08:	83 ec 08             	sub    $0x8,%esp
   11b0b:	ff 75 fc             	pushl  0xfffffffc(%ebp)
   11b0e:	ff 75 08             	pushl  0x8(%ebp)
   11b11:	8b 45 f0             	mov    0xfffffff0(%ebp),%eax
   11b14:	ff d0                	call   *%eax
   11b16:	83 c4 10             	add    $0x10,%esp
   11b19:	83 ec 08             	sub    $0x8,%esp
   11b1c:	8b 45 fc             	mov    0xfffffffc(%ebp),%eax
   11b1f:	0c 80                	or     $0x80,%al
   11b21:	50                   	push   %eax
   11b22:	ff 75 08             	pushl  0x8(%ebp)
   11b25:	8b 45 f0             	mov    0xfffffff0(%ebp),%eax
   11b28:	ff d0                	call   *%eax
   11b2a:	83 c4 10             	add    $0x10,%esp
   11b2d:	8d 45 fc             	lea    0xfffffffc(%ebp),%eax
   11b30:	ff 00                	incl   (%eax)
   11b32:	eb ce                	jmp    11b02 <_usb_set_configuration+0xbb>
   11b34:	8b 55 08             	mov    0x8(%ebp),%edx
   11b37:	8b 45 08             	mov    0x8(%ebp),%eax
   11b3a:	c7 40 2c 00 00 00 00 	movl   $0x0,0x2c(%eax)
   11b41:	c7 42 28 00 00 00 00 	movl   $0x0,0x28(%edx)
   11b48:	8b 55 08             	mov    0x8(%ebp),%edx
   11b4b:	8b 45 08             	mov    0x8(%ebp),%eax
   11b4e:	c7 40 34 00 00 00 00 	movl   $0x0,0x34(%eax)
   11b55:	c7 42 30 00 00 00 00 	movl   $0x0,0x30(%edx)
   11b5c:	8b 45 08             	mov    0x8(%ebp),%eax
   11b5f:	c7 40 14 04 00 00 00 	movl   $0x4,0x14(%eax)
   11b66:	83 ec 0c             	sub    $0xc,%esp
   11b69:	68 f4 01 00 00       	push   $0x1f4
   11b6e:	6a 00                	push   $0x0
   11b70:	6a 00                	push   $0x0
   11b72:	6a 00                	push   $0x0
   11b74:	8b 45 0c             	mov    0xc(%ebp),%eax
   11b77:	25 ff ff 00 00       	and    $0xffff,%eax
   11b7c:	50                   	push   %eax
   11b7d:	6a 00                	push   $0x0
   11b7f:	6a 09                	push   $0x9
   11b81:	6a 00                	push   $0x0
   11b83:	ff 75 08             	pushl  0x8(%ebp)
   11b86:	e8 76 f8 ff ff       	call   11401 <___create_pipe>
   11b8b:	83 c4 08             	add    $0x8,%esp
   11b8e:	0d 00 00 00 80       	or     $0x80000000,%eax
   11b93:	50                   	push   %eax
   11b94:	ff 75 08             	pushl  0x8(%ebp)
   11b97:	e8 54 f6 ff ff       	call   111f0 <_usb_control_msg>
   11b9c:	83 c4 30             	add    $0x30,%esp
   11b9f:	89 45 f8             	mov    %eax,0xfffffff8(%ebp)
   11ba2:	83 7d f8 00          	cmpl   $0x0,0xfffffff8(%ebp)
   11ba6:	79 08                	jns    11bb0 <_usb_set_configuration+0x169>
   11ba8:	8b 45 f8             	mov    0xfffffff8(%ebp),%eax
   11bab:	89 45 ec             	mov    %eax,0xffffffec(%ebp)
   11bae:	eb 2e                	jmp    11bde <_usb_set_configuration+0x197>
   11bb0:	83 7d 0c 00          	cmpl   $0x0,0xc(%ebp)
   11bb4:	74 0a                	je     11bc0 <_usb_set_configuration+0x179>
   11bb6:	8b 45 08             	mov    0x8(%ebp),%eax
   11bb9:	c7 40 14 05 00 00 00 	movl   $0x5,0x14(%eax)
   11bc0:	8b 55 08             	mov    0x8(%ebp),%edx
   11bc3:	8b 45 f4             	mov    0xfffffff4(%ebp),%eax
   11bc6:	89 82 88 01 00 00    	mov    %eax,0x188(%edx)
   11bcc:	ff 75 08             	pushl  0x8(%ebp)
   11bcf:	e8 25 f9 ff ff       	call   114f9 <_usb_set_maxpacket>
   11bd4:	83 c4 04             	add    $0x4,%esp
   11bd7:	c7 45 ec 00 00 00 00 	movl   $0x0,0xffffffec(%ebp)
   11bde:	8b 45 ec             	mov    0xffffffec(%ebp),%eax
   11be1:	c9                   	leave  
   11be2:	c3                   	ret    

00011be3 <_usb_string>:
   11be3:	55                   	push   %ebp
   11be4:	89 e5                	mov    %esp,%ebp
   11be6:	83 ec 18             	sub    $0x18,%esp
   11be9:	83 7d 14 00          	cmpl   $0x0,0x14(%ebp)
   11bed:	74 0c                	je     11bfb <_usb_string+0x18>
   11bef:	83 7d 10 00          	cmpl   $0x0,0x10(%ebp)
   11bf3:	74 06                	je     11bfb <_usb_string+0x18>
   11bf5:	83 7d 0c 00          	cmpl   $0x0,0xc(%ebp)
   11bf9:	75 0c                	jne    11c07 <_usb_string+0x24>
   11bfb:	c7 45 e8 ea ff ff ff 	movl   $0xffffffea,0xffffffe8(%ebp)
   11c02:	e9 a7 01 00 00       	jmp    11dae <_usb_string+0x1cb>
   11c07:	8b 45 10             	mov    0x10(%ebp),%eax
   11c0a:	c6 00 00             	movb   $0x0,(%eax)
   11c0d:	83 ec 08             	sub    $0x8,%esp
   11c10:	68 00 01 00 00       	push   $0x100
   11c15:	6a 01                	push   $0x1
   11c17:	e8 14 7e 00 00       	call   19a30 <_ExAllocatePool@8>
   11c1c:	83 c4 08             	add    $0x8,%esp
   11c1f:	89 45 fc             	mov    %eax,0xfffffffc(%ebp)
   11c22:	83 7d fc 00          	cmpl   $0x0,0xfffffffc(%ebp)
   11c26:	75 0c                	jne    11c34 <_usb_string+0x51>
   11c28:	c7 45 e8 f4 ff ff ff 	movl   $0xfffffff4,0xffffffe8(%ebp)
   11c2f:	e9 7a 01 00 00       	jmp    11dae <_usb_string+0x1cb>
   11c34:	8b 45 08             	mov    0x8(%ebp),%eax
   11c37:	83 b8 90 01 00 00 00 	cmpl   $0x0,0x190(%eax)
   11c3e:	75 6e                	jne    11cae <_usb_string+0xcb>
   11c40:	83 ec 0c             	sub    $0xc,%esp
   11c43:	6a 04                	push   $0x4
   11c45:	ff 75 fc             	pushl  0xfffffffc(%ebp)
   11c48:	6a 00                	push   $0x0
   11c4a:	6a 00                	push   $0x0
   11c4c:	ff 75 08             	pushl  0x8(%ebp)
   11c4f:	e8 c2 f7 ff ff       	call   11416 <_usb_get_string>
   11c54:	83 c4 20             	add    $0x20,%esp
   11c57:	89 45 f8             	mov    %eax,0xfffffff8(%ebp)
   11c5a:	83 7d f8 00          	cmpl   $0x0,0xfffffff8(%ebp)
   11c5e:	79 05                	jns    11c65 <_usb_string+0x82>
   11c60:	e9 35 01 00 00       	jmp    11d9a <_usb_string+0x1b7>
   11c65:	8b 45 fc             	mov    0xfffffffc(%ebp),%eax
   11c68:	80 38 03             	cmpb   $0x3,(%eax)
   11c6b:	77 0c                	ja     11c79 <_usb_string+0x96>
   11c6d:	c7 45 f8 ea ff ff ff 	movl   $0xffffffea,0xfffffff8(%ebp)
   11c74:	e9 21 01 00 00       	jmp    11d9a <_usb_string+0x1b7>
   11c79:	8b 45 08             	mov    0x8(%ebp),%eax
   11c7c:	c7 80 90 01 00 00 ff 	movl   $0xffffffff,0x190(%eax)
   11c83:	ff ff ff 
   11c86:	8b 4d 08             	mov    0x8(%ebp),%ecx
   11c89:	8b 45 fc             	mov    0xfffffffc(%ebp),%eax
   11c8c:	83 c0 02             	add    $0x2,%eax
   11c8f:	ba 00 00 00 00       	mov    $0x0,%edx
   11c94:	8a 10                	mov    (%eax),%dl
   11c96:	8b 45 fc             	mov    0xfffffffc(%ebp),%eax
   11c99:	83 c0 03             	add    $0x3,%eax
   11c9c:	8a 00                	mov    (%eax),%al
   11c9e:	25 ff 00 00 00       	and    $0xff,%eax
   11ca3:	c1 e0 08             	shl    $0x8,%eax
   11ca6:	09 d0                	or     %edx,%eax
   11ca8:	89 81 94 01 00 00    	mov    %eax,0x194(%ecx)
   11cae:	83 ec 0c             	sub    $0xc,%esp
   11cb1:	6a 02                	push   $0x2
   11cb3:	ff 75 fc             	pushl  0xfffffffc(%ebp)
   11cb6:	8b 45 0c             	mov    0xc(%ebp),%eax
   11cb9:	25 ff 00 00 00       	and    $0xff,%eax
   11cbe:	50                   	push   %eax
   11cbf:	8b 45 08             	mov    0x8(%ebp),%eax
   11cc2:	8b 80 94 01 00 00    	mov    0x194(%eax),%eax
   11cc8:	25 ff ff 00 00       	and    $0xffff,%eax
   11ccd:	50                   	push   %eax
   11cce:	ff 75 08             	pushl  0x8(%ebp)
   11cd1:	e8 40 f7 ff ff       	call   11416 <_usb_get_string>
   11cd6:	83 c4 20             	add    $0x20,%esp
   11cd9:	89 45 f8             	mov    %eax,0xfffffff8(%ebp)
   11cdc:	83 7d f8 01          	cmpl   $0x1,0xfffffff8(%ebp)
   11ce0:	7f 05                	jg     11ce7 <_usb_string+0x104>
   11ce2:	e9 b3 00 00 00       	jmp    11d9a <_usb_string+0x1b7>
   11ce7:	8b 45 fc             	mov    0xfffffffc(%ebp),%eax
   11cea:	8a 00                	mov    (%eax),%al
   11cec:	25 ff 00 00 00       	and    $0xff,%eax
   11cf1:	89 45 f4             	mov    %eax,0xfffffff4(%ebp)
   11cf4:	83 ec 0c             	sub    $0xc,%esp
   11cf7:	ff 75 f4             	pushl  0xfffffff4(%ebp)
   11cfa:	ff 75 fc             	pushl  0xfffffffc(%ebp)
   11cfd:	8b 45 0c             	mov    0xc(%ebp),%eax
   11d00:	25 ff 00 00 00       	and    $0xff,%eax
   11d05:	50                   	push   %eax
   11d06:	8b 45 08             	mov    0x8(%ebp),%eax
   11d09:	8b 80 94 01 00 00    	mov    0x194(%eax),%eax
   11d0f:	25 ff ff 00 00       	and    $0xffff,%eax
   11d14:	50                   	push   %eax
   11d15:	ff 75 08             	pushl  0x8(%ebp)
   11d18:	e8 f9 f6 ff ff       	call   11416 <_usb_get_string>
   11d1d:	83 c4 20             	add    $0x20,%esp
   11d20:	89 45 f8             	mov    %eax,0xfffffff8(%ebp)
   11d23:	83 7d f8 00          	cmpl   $0x0,0xfffffff8(%ebp)
   11d27:	79 02                	jns    11d2b <_usb_string+0x148>
   11d29:	eb 6f                	jmp    11d9a <_usb_string+0x1b7>
   11d2b:	8d 45 14             	lea    0x14(%ebp),%eax
   11d2e:	ff 08                	decl   (%eax)
   11d30:	c7 45 ec 00 00 00 00 	movl   $0x0,0xffffffec(%ebp)
   11d37:	c7 45 f0 02 00 00 00 	movl   $0x2,0xfffffff0(%ebp)
   11d3e:	8b 45 f8             	mov    0xfffffff8(%ebp),%eax
   11d41:	3b 45 f0             	cmp    0xfffffff0(%ebp),%eax
   11d44:	76 45                	jbe    11d8b <_usb_string+0x1a8>
   11d46:	8b 45 ec             	mov    0xffffffec(%ebp),%eax
   11d49:	3b 45 14             	cmp    0x14(%ebp),%eax
   11d4c:	72 02                	jb     11d50 <_usb_string+0x16d>
   11d4e:	eb 3b                	jmp    11d8b <_usb_string+0x1a8>
   11d50:	8b 45 f0             	mov    0xfffffff0(%ebp),%eax
   11d53:	03 45 fc             	add    0xfffffffc(%ebp),%eax
   11d56:	40                   	inc    %eax
   11d57:	80 38 00             	cmpb   $0x0,(%eax)
   11d5a:	74 10                	je     11d6c <_usb_string+0x189>
   11d5c:	8b 45 ec             	mov    0xffffffec(%ebp),%eax
   11d5f:	03 45 10             	add    0x10(%ebp),%eax
   11d62:	c6 00 3f             	movb   $0x3f,(%eax)
   11d65:	8d 45 ec             	lea    0xffffffec(%ebp),%eax
   11d68:	ff 00                	incl   (%eax)
   11d6a:	eb 17                	jmp    11d83 <_usb_string+0x1a0>
   11d6c:	8b 45 ec             	mov    0xffffffec(%ebp),%eax
   11d6f:	89 c2                	mov    %eax,%edx
   11d71:	03 55 10             	add    0x10(%ebp),%edx
   11d74:	8b 45 fc             	mov    0xfffffffc(%ebp),%eax
   11d77:	03 45 f0             	add    0xfffffff0(%ebp),%eax
   11d7a:	8a 00                	mov    (%eax),%al
   11d7c:	88 02                	mov    %al,(%edx)
   11d7e:	8d 45 ec             	lea    0xffffffec(%ebp),%eax
   11d81:	ff 00                	incl   (%eax)
   11d83:	8d 45 f0             	lea    0xfffffff0(%ebp),%eax
   11d86:	83 00 02             	addl   $0x2,(%eax)
   11d89:	eb b3                	jmp    11d3e <_usb_string+0x15b>
   11d8b:	8b 45 10             	mov    0x10(%ebp),%eax
   11d8e:	03 45 ec             	add    0xffffffec(%ebp),%eax
   11d91:	c6 00 00             	movb   $0x0,(%eax)
   11d94:	8b 45 ec             	mov    0xffffffec(%ebp),%eax
   11d97:	89 45 f8             	mov    %eax,0xfffffff8(%ebp)
   11d9a:	83 ec 0c             	sub    $0xc,%esp
   11d9d:	ff 75 fc             	pushl  0xfffffffc(%ebp)
   11da0:	e8 9b 7c 00 00       	call   19a40 <_ExFreePool@4>
   11da5:	83 c4 0c             	add    $0xc,%esp
   11da8:	8b 45 f8             	mov    0xfffffff8(%ebp),%eax
   11dab:	89 45 e8             	mov    %eax,0xffffffe8(%ebp)
   11dae:	8b 45 e8             	mov    0xffffffe8(%ebp),%eax
   11db1:	c9                   	leave  
   11db2:	c3                   	ret    
   11db3:	90                   	nop    
   11db4:	90                   	nop    
   11db5:	90                   	nop    
   11db6:	90                   	nop    
   11db7:	90                   	nop    
   11db8:	90                   	nop    
   11db9:	90                   	nop    
   11dba:	90                   	nop    
   11dbb:	90                   	nop    
   11dbc:	90                   	nop    
   11dbd:	90                   	nop    
   11dbe:	90                   	nop    
   11dbf:	90                   	nop    

00011dc0 <_ascii2utf>:
   11dc0:	55                   	push   %ebp
   11dc1:	89 e5                	mov    %esp,%ebp
   11dc3:	83 ec 04             	sub    $0x4,%esp
   11dc6:	c7 45 fc 00 00 00 00 	movl   $0x0,0xfffffffc(%ebp)
   11dcd:	8b 45 08             	mov    0x8(%ebp),%eax
   11dd0:	80 38 00             	cmpb   $0x0,(%eax)
   11dd3:	74 33                	je     11e08 <_ascii2utf+0x48>
   11dd5:	83 7d 10 01          	cmpl   $0x1,0x10(%ebp)
   11dd9:	7e 2d                	jle    11e08 <_ascii2utf+0x48>
   11ddb:	8b 45 0c             	mov    0xc(%ebp),%eax
   11dde:	89 c2                	mov    %eax,%edx
   11de0:	8b 45 08             	mov    0x8(%ebp),%eax
   11de3:	ff 45 08             	incl   0x8(%ebp)
   11de6:	8a 00                	mov    (%eax),%al
   11de8:	88 02                	mov    %al,(%edx)
   11dea:	8d 45 0c             	lea    0xc(%ebp),%eax
   11ded:	ff 00                	incl   (%eax)
   11def:	8b 45 0c             	mov    0xc(%ebp),%eax
   11df2:	c6 00 00             	movb   $0x0,(%eax)
   11df5:	8d 45 0c             	lea    0xc(%ebp),%eax
   11df8:	ff 00                	incl   (%eax)
   11dfa:	8d 45 10             	lea    0x10(%ebp),%eax
   11dfd:	83 28 02             	subl   $0x2,(%eax)
   11e00:	8d 45 fc             	lea    0xfffffffc(%ebp),%eax
   11e03:	83 00 02             	addl   $0x2,(%eax)
   11e06:	eb c5                	jmp    11dcd <_ascii2utf+0xd>
   11e08:	8b 45 fc             	mov    0xfffffffc(%ebp),%eax
   11e0b:	c9                   	leave  
   11e0c:	c3                   	ret    

00011e0d <_rh_string>:
   11e0d:	55                   	push   %ebp
   11e0e:	89 e5                	mov    %esp,%ebp
   11e10:	53                   	push   %ebx
   11e11:	81 ec 84 00 00 00    	sub    $0x84,%esp
   11e17:	83 7d 08 00          	cmpl   $0x0,0x8(%ebp)
   11e1b:	75 38                	jne    11e55 <_rh_string+0x48>
   11e1d:	8b 45 10             	mov    0x10(%ebp),%eax
   11e20:	c6 00 04             	movb   $0x4,(%eax)
   11e23:	8d 45 10             	lea    0x10(%ebp),%eax
   11e26:	ff 00                	incl   (%eax)
   11e28:	8b 45 10             	mov    0x10(%ebp),%eax
   11e2b:	c6 00 03             	movb   $0x3,(%eax)
   11e2e:	8d 45 10             	lea    0x10(%ebp),%eax
   11e31:	ff 00                	incl   (%eax)
   11e33:	8b 45 10             	mov    0x10(%ebp),%eax
   11e36:	c6 00 09             	movb   $0x9,(%eax)
   11e39:	8d 45 10             	lea    0x10(%ebp),%eax
   11e3c:	ff 00                	incl   (%eax)
   11e3e:	8b 45 10             	mov    0x10(%ebp),%eax
   11e41:	c6 00 04             	movb   $0x4,(%eax)
   11e44:	8d 45 10             	lea    0x10(%ebp),%eax
   11e47:	ff 00                	incl   (%eax)
   11e49:	c7 45 84 04 00 00 00 	movl   $0x4,0xffffff84(%ebp)
   11e50:	e9 af 00 00 00       	jmp    11f04 <_rh_string+0xf7>
   11e55:	83 7d 08 01          	cmpl   $0x1,0x8(%ebp)
   11e59:	75 17                	jne    11e72 <_rh_string+0x65>
   11e5b:	83 ec 08             	sub    $0x8,%esp
   11e5e:	8b 45 0c             	mov    0xc(%ebp),%eax
   11e61:	ff 70 08             	pushl  0x8(%eax)
   11e64:	8d 45 88             	lea    0xffffff88(%ebp),%eax
   11e67:	50                   	push   %eax
   11e68:	e8 33 7c 00 00       	call   19aa0 <_strcpy>
   11e6d:	83 c4 10             	add    $0x10,%esp
   11e70:	eb 52                	jmp    11ec4 <_rh_string+0xb7>
   11e72:	83 7d 08 02          	cmpl   $0x2,0x8(%ebp)
   11e76:	75 17                	jne    11e8f <_rh_string+0x82>
   11e78:	83 ec 08             	sub    $0x8,%esp
   11e7b:	8b 45 0c             	mov    0xc(%ebp),%eax
   11e7e:	ff 70 4c             	pushl  0x4c(%eax)
   11e81:	8d 45 88             	lea    0xffffff88(%ebp),%eax
   11e84:	50                   	push   %eax
   11e85:	e8 16 7c 00 00       	call   19aa0 <_strcpy>
   11e8a:	83 c4 10             	add    $0x10,%esp
   11e8d:	eb 35                	jmp    11ec4 <_rh_string+0xb7>
   11e8f:	83 7d 08 03          	cmpl   $0x3,0x8(%ebp)
   11e93:	75 26                	jne    11ebb <_rh_string+0xae>
   11e95:	83 ec 0c             	sub    $0xc,%esp
   11e98:	8b 45 0c             	mov    0xc(%ebp),%eax
   11e9b:	ff 70 50             	pushl  0x50(%eax)
   11e9e:	68 a6 b0 01 00       	push   $0x1b0a6
   11ea3:	68 ab b0 01 00       	push   $0x1b0ab
   11ea8:	68 b0 b0 01 00       	push   $0x1b0b0
   11ead:	8d 45 88             	lea    0xffffff88(%ebp),%eax
   11eb0:	50                   	push   %eax
   11eb1:	e8 da 7b 00 00       	call   19a90 <_sprintf>
   11eb6:	83 c4 20             	add    $0x20,%esp
   11eb9:	eb 09                	jmp    11ec4 <_rh_string+0xb7>
   11ebb:	c7 45 84 00 00 00 00 	movl   $0x0,0xffffff84(%ebp)
   11ec2:	eb 40                	jmp    11f04 <_rh_string+0xf7>
   11ec4:	8b 5d 10             	mov    0x10(%ebp),%ebx
   11ec7:	8d 45 88             	lea    0xffffff88(%ebp),%eax
   11eca:	83 ec 0c             	sub    $0xc,%esp
   11ecd:	50                   	push   %eax
   11ece:	e8 ad 7b 00 00       	call   19a80 <_strlen>
   11ed3:	83 c4 10             	add    $0x10,%esp
   11ed6:	01 c0                	add    %eax,%eax
   11ed8:	83 c0 02             	add    $0x2,%eax
   11edb:	88 03                	mov    %al,(%ebx)
   11edd:	8b 45 10             	mov    0x10(%ebp),%eax
   11ee0:	40                   	inc    %eax
   11ee1:	c6 00 03             	movb   $0x3,(%eax)
   11ee4:	8b 45 14             	mov    0x14(%ebp),%eax
   11ee7:	83 e8 02             	sub    $0x2,%eax
   11eea:	50                   	push   %eax
   11eeb:	8b 45 10             	mov    0x10(%ebp),%eax
   11eee:	83 c0 02             	add    $0x2,%eax
   11ef1:	50                   	push   %eax
   11ef2:	8d 45 88             	lea    0xffffff88(%ebp),%eax
   11ef5:	50                   	push   %eax
   11ef6:	e8 c5 fe ff ff       	call   11dc0 <_ascii2utf>
   11efb:	83 c4 0c             	add    $0xc,%esp
   11efe:	83 c0 02             	add    $0x2,%eax
   11f01:	89 45 84             	mov    %eax,0xffffff84(%ebp)
   11f04:	8b 45 84             	mov    0xffffff84(%ebp),%eax
   11f07:	8b 5d fc             	mov    0xfffffffc(%ebp),%ebx
   11f0a:	c9                   	leave  
   11f0b:	c3                   	ret    

00011f0c <_rh_call_control>:
   11f0c:	55                   	push   %ebp
   11f0d:	89 e5                	mov    %esp,%ebp
   11f0f:	53                   	push   %ebx
   11f10:	83 ec 24             	sub    $0x24,%esp
   11f13:	8b 45 0c             	mov    0xc(%ebp),%eax
   11f16:	8b 40 38             	mov    0x38(%eax),%eax
   11f19:	89 45 f8             	mov    %eax,0xfffffff8(%ebp)
   11f1c:	c7 45 ec 00 00 00 00 	movl   $0x0,0xffffffec(%ebp)
   11f23:	8b 45 0c             	mov    0xc(%ebp),%eax
   11f26:	8b 40 24             	mov    0x24(%eax),%eax
   11f29:	89 45 e8             	mov    %eax,0xffffffe8(%ebp)
   11f2c:	c7 45 e4 00 00 00 00 	movl   $0x0,0xffffffe4(%ebp)
   11f33:	8b 45 f8             	mov    0xfffffff8(%ebp),%eax
   11f36:	8a 00                	mov    (%eax),%al
   11f38:	25 ff 00 00 00       	and    $0xff,%eax
   11f3d:	89 c2                	mov    %eax,%edx
   11f3f:	c1 e2 08             	shl    $0x8,%edx
   11f42:	8b 45 f8             	mov    0xfffffff8(%ebp),%eax
   11f45:	8a 40 01             	mov    0x1(%eax),%al
   11f48:	25 ff 00 00 00       	and    $0xff,%eax
   11f4d:	09 d0                	or     %edx,%eax
   11f4f:	66 89 45 f6          	mov    %ax,0xfffffff6(%ebp)
   11f53:	8b 45 f8             	mov    0xfffffff8(%ebp),%eax
   11f56:	66 8b 40 02          	mov    0x2(%eax),%ax
   11f5a:	66 89 45 f4          	mov    %ax,0xfffffff4(%ebp)
   11f5e:	8b 45 f8             	mov    0xfffffff8(%ebp),%eax
   11f61:	66 8b 40 04          	mov    0x4(%eax),%ax
   11f65:	66 89 45 f2          	mov    %ax,0xfffffff2(%ebp)
   11f69:	8b 45 f8             	mov    0xfffffff8(%ebp),%eax
   11f6c:	66 8b 40 06          	mov    0x6(%eax),%ax
   11f70:	66 89 45 f0          	mov    %ax,0xfffffff0(%ebp)
   11f74:	8b 45 f0             	mov    0xfffffff0(%ebp),%eax
   11f77:	89 c2                	mov    %eax,%edx
   11f79:	81 e2 ff ff 00 00    	and    $0xffff,%edx
   11f7f:	8b 45 0c             	mov    0xc(%ebp),%eax
   11f82:	3b 50 2c             	cmp    0x2c(%eax),%edx
   11f85:	7e 05                	jle    11f8c <_rh_call_control+0x80>
   11f87:	e9 49 02 00 00       	jmp    121d5 <_rh_call_control+0x2c9>
   11f8c:	8b 45 0c             	mov    0xc(%ebp),%eax
   11f8f:	c7 40 1c 00 00 00 00 	movl   $0x0,0x1c(%eax)
   11f96:	8b 55 0c             	mov    0xc(%ebp),%edx
   11f99:	8b 45 f0             	mov    0xfffffff0(%ebp),%eax
   11f9c:	25 ff ff 00 00       	and    $0xffff,%eax
   11fa1:	89 42 30             	mov    %eax,0x30(%edx)
   11fa4:	66 8b 45 f6          	mov    0xfffffff6(%ebp),%ax
   11fa8:	89 c2                	mov    %eax,%edx
   11faa:	81 e2 ff ff 00 00    	and    $0xffff,%edx
   11fb0:	89 55 dc             	mov    %edx,0xffffffdc(%ebp)
   11fb3:	81 7d dc 01 01 00 00 	cmpl   $0x101,0xffffffdc(%ebp)
   11fba:	0f 84 1f 02 00 00    	je     121df <_rh_call_control+0x2d3>
   11fc0:	81 7d dc 01 01 00 00 	cmpl   $0x101,0xffffffdc(%ebp)
   11fc7:	7f 42                	jg     1200b <_rh_call_control+0xff>
   11fc9:	83 7d dc 05          	cmpl   $0x5,0xffffffdc(%ebp)
   11fcd:	0f 84 0c 02 00 00    	je     121df <_rh_call_control+0x2d3>
   11fd3:	83 7d dc 05          	cmpl   $0x5,0xffffffdc(%ebp)
   11fd7:	7f 19                	jg     11ff2 <_rh_call_control+0xe6>
   11fd9:	83 7d dc 01          	cmpl   $0x1,0xffffffdc(%ebp)
   11fdd:	0f 84 fc 01 00 00    	je     121df <_rh_call_control+0x2d3>
   11fe3:	83 7d dc 03          	cmpl   $0x3,0xffffffdc(%ebp)
   11fe7:	0f 84 f2 01 00 00    	je     121df <_rh_call_control+0x2d3>
   11fed:	e9 9e 01 00 00       	jmp    12190 <_rh_call_control+0x284>
   11ff2:	83 7d dc 09          	cmpl   $0x9,0xffffffdc(%ebp)
   11ff6:	0f 84 e3 01 00 00    	je     121df <_rh_call_control+0x2d3>
   11ffc:	83 7d dc 0b          	cmpl   $0xb,0xffffffdc(%ebp)
   12000:	0f 84 d9 01 00 00    	je     121df <_rh_call_control+0x2d3>
   12006:	e9 85 01 00 00       	jmp    12190 <_rh_call_control+0x284>
   1200b:	81 7d dc 06 80 00 00 	cmpl   $0x8006,0xffffffdc(%ebp)
   12012:	74 77                	je     1208b <_rh_call_control+0x17f>
   12014:	81 7d dc 06 80 00 00 	cmpl   $0x8006,0xffffffdc(%ebp)
   1201b:	7f 1b                	jg     12038 <_rh_call_control+0x12c>
   1201d:	81 7d dc 03 01 00 00 	cmpl   $0x103,0xffffffdc(%ebp)
   12024:	0f 84 b5 01 00 00    	je     121df <_rh_call_control+0x2d3>
   1202a:	81 7d dc 00 80 00 00 	cmpl   $0x8000,0xffffffdc(%ebp)
   12031:	74 3b                	je     1206e <_rh_call_control+0x162>
   12033:	e9 58 01 00 00       	jmp    12190 <_rh_call_control+0x284>
   12038:	81 7d dc 0a 80 00 00 	cmpl   $0x800a,0xffffffdc(%ebp)
   1203f:	0f 84 34 01 00 00    	je     12179 <_rh_call_control+0x26d>
   12045:	81 7d dc 0a 80 00 00 	cmpl   $0x800a,0xffffffdc(%ebp)
   1204c:	7f 0e                	jg     1205c <_rh_call_control+0x150>
   1204e:	81 7d dc 08 80 00 00 	cmpl   $0x8008,0xffffffdc(%ebp)
   12055:	74 29                	je     12080 <_rh_call_control+0x174>
   12057:	e9 34 01 00 00       	jmp    12190 <_rh_call_control+0x284>
   1205c:	81 7d dc 00 81 00 00 	cmpl   $0x8100,0xffffffdc(%ebp)
   12063:	0f 84 18 01 00 00    	je     12181 <_rh_call_control+0x275>
   12069:	e9 22 01 00 00       	jmp    12190 <_rh_call_control+0x284>
   1206e:	8b 45 e8             	mov    0xffffffe8(%ebp),%eax
   12071:	c6 00 01             	movb   $0x1,(%eax)
   12074:	8b 45 e8             	mov    0xffffffe8(%ebp),%eax
   12077:	40                   	inc    %eax
   12078:	c6 00 00             	movb   $0x0,(%eax)
   1207b:	e9 5f 01 00 00       	jmp    121df <_rh_call_control+0x2d3>
   12080:	8b 45 e8             	mov    0xffffffe8(%ebp),%eax
   12083:	c6 00 01             	movb   $0x1,(%eax)
   12086:	e9 54 01 00 00       	jmp    121df <_rh_call_control+0x2d3>
   1208b:	8b 45 f4             	mov    0xfffffff4(%ebp),%eax
   1208e:	25 ff ff 00 00       	and    $0xffff,%eax
   12093:	25 00 ff 00 00       	and    $0xff00,%eax
   12098:	89 45 e0             	mov    %eax,0xffffffe0(%ebp)
   1209b:	81 7d e0 00 02 00 00 	cmpl   $0x200,0xffffffe0(%ebp)
   120a2:	74 6f                	je     12113 <_rh_call_control+0x207>
   120a4:	81 7d e0 00 02 00 00 	cmpl   $0x200,0xffffffe0(%ebp)
   120ab:	7f 0e                	jg     120bb <_rh_call_control+0x1af>
   120ad:	81 7d e0 00 01 00 00 	cmpl   $0x100,0xffffffe0(%ebp)
   120b4:	74 17                	je     120cd <_rh_call_control+0x1c1>
   120b6:	e9 1a 01 00 00       	jmp    121d5 <_rh_call_control+0x2c9>
   120bb:	81 7d e0 00 03 00 00 	cmpl   $0x300,0xffffffe0(%ebp)
   120c2:	0f 84 84 00 00 00    	je     1214c <_rh_call_control+0x240>
   120c8:	e9 08 01 00 00       	jmp    121d5 <_rh_call_control+0x2c9>
   120cd:	8b 45 08             	mov    0x8(%ebp),%eax
   120d0:	8b 40 74             	mov    0x74(%eax),%eax
   120d3:	8b 40 08             	mov    0x8(%eax),%eax
   120d6:	c1 e8 05             	shr    $0x5,%eax
   120d9:	83 e0 01             	and    $0x1,%eax
   120dc:	85 c0                	test   %eax,%eax
   120de:	74 09                	je     120e9 <_rh_call_control+0x1dd>
   120e0:	c7 45 ec 50 b0 01 00 	movl   $0x1b050,0xffffffec(%ebp)
   120e7:	eb 1e                	jmp    12107 <_rh_call_control+0x1fb>
   120e9:	8b 45 08             	mov    0x8(%ebp),%eax
   120ec:	8b 40 74             	mov    0x74(%eax),%eax
   120ef:	8b 40 08             	mov    0x8(%eax),%eax
   120f2:	c1 e8 04             	shr    $0x4,%eax
   120f5:	83 e0 01             	and    $0x1,%eax
   120f8:	85 c0                	test   %eax,%eax
   120fa:	0f 84 d5 00 00 00    	je     121d5 <_rh_call_control+0x2c9>
   12100:	c7 45 ec 62 b0 01 00 	movl   $0x1b062,0xffffffec(%ebp)
   12107:	c7 45 e4 12 00 00 00 	movl   $0x12,0xffffffe4(%ebp)
   1210e:	e9 cc 00 00 00       	jmp    121df <_rh_call_control+0x2d3>
   12113:	8b 45 08             	mov    0x8(%ebp),%eax
   12116:	8b 40 74             	mov    0x74(%eax),%eax
   12119:	8b 40 08             	mov    0x8(%eax),%eax
   1211c:	c1 e8 05             	shr    $0x5,%eax
   1211f:	83 e0 01             	and    $0x1,%eax
   12122:	85 c0                	test   %eax,%eax
   12124:	74 13                	je     12139 <_rh_call_control+0x22d>
   12126:	c7 45 ec 8d b0 01 00 	movl   $0x1b08d,0xffffffec(%ebp)
   1212d:	c7 45 e4 19 00 00 00 	movl   $0x19,0xffffffe4(%ebp)
   12134:	e9 a6 00 00 00       	jmp    121df <_rh_call_control+0x2d3>
   12139:	c7 45 ec 74 b0 01 00 	movl   $0x1b074,0xffffffec(%ebp)
   12140:	c7 45 e4 19 00 00 00 	movl   $0x19,0xffffffe4(%ebp)
   12147:	e9 93 00 00 00       	jmp    121df <_rh_call_control+0x2d3>
   1214c:	8b 5d 0c             	mov    0xc(%ebp),%ebx
   1214f:	8b 45 f0             	mov    0xfffffff0(%ebp),%eax
   12152:	25 ff ff 00 00       	and    $0xffff,%eax
   12157:	50                   	push   %eax
   12158:	ff 75 e8             	pushl  0xffffffe8(%ebp)
   1215b:	ff 75 08             	pushl  0x8(%ebp)
   1215e:	8b 45 f4             	mov    0xfffffff4(%ebp),%eax
   12161:	25 ff ff 00 00       	and    $0xffff,%eax
   12166:	25 ff 00 00 00       	and    $0xff,%eax
   1216b:	50                   	push   %eax
   1216c:	e8 9c fc ff ff       	call   11e0d <_rh_string>
   12171:	83 c4 10             	add    $0x10,%esp
   12174:	89 43 30             	mov    %eax,0x30(%ebx)
   12177:	eb 66                	jmp    121df <_rh_call_control+0x2d3>
   12179:	8b 45 e8             	mov    0xffffffe8(%ebp),%eax
   1217c:	c6 00 00             	movb   $0x0,(%eax)
   1217f:	eb 5e                	jmp    121df <_rh_call_control+0x2d3>
   12181:	8b 45 e8             	mov    0xffffffe8(%ebp),%eax
   12184:	c6 00 00             	movb   $0x0,(%eax)
   12187:	8b 45 e8             	mov    0xffffffe8(%ebp),%eax
   1218a:	40                   	inc    %eax
   1218b:	c6 00 00             	movb   $0x0,(%eax)
   1218e:	eb 4f                	jmp    121df <_rh_call_control+0x2d3>
   12190:	8b 5d 0c             	mov    0xc(%ebp),%ebx
   12193:	83 ec 08             	sub    $0x8,%esp
   12196:	8b 45 08             	mov    0x8(%ebp),%eax
   12199:	8b 50 74             	mov    0x74(%eax),%edx
   1219c:	8b 45 f0             	mov    0xfffffff0(%ebp),%eax
   1219f:	25 ff ff 00 00       	and    $0xffff,%eax
   121a4:	50                   	push   %eax
   121a5:	ff 75 e8             	pushl  0xffffffe8(%ebp)
   121a8:	66 8b 45 f2          	mov    0xfffffff2(%ebp),%ax
   121ac:	25 ff ff 00 00       	and    $0xffff,%eax
   121b1:	50                   	push   %eax
   121b2:	8b 45 f4             	mov    0xfffffff4(%ebp),%eax
   121b5:	25 ff ff 00 00       	and    $0xffff,%eax
   121ba:	50                   	push   %eax
   121bb:	66 8b 45 f6          	mov    0xfffffff6(%ebp),%ax
   121bf:	25 ff ff 00 00       	and    $0xffff,%eax
   121c4:	50                   	push   %eax
   121c5:	ff 75 08             	pushl  0x8(%ebp)
   121c8:	8b 42 38             	mov    0x38(%edx),%eax
   121cb:	ff d0                	call   *%eax
   121cd:	83 c4 20             	add    $0x20,%esp
   121d0:	89 43 1c             	mov    %eax,0x1c(%ebx)
   121d3:	eb 0a                	jmp    121df <_rh_call_control+0x2d3>
   121d5:	8b 45 0c             	mov    0xc(%ebp),%eax
   121d8:	c7 40 1c e0 ff ff ff 	movl   $0xffffffe0,0x1c(%eax)
   121df:	8b 45 0c             	mov    0xc(%ebp),%eax
   121e2:	83 78 1c 00          	cmpl   $0x0,0x1c(%eax)
   121e6:	74 0a                	je     121f2 <_rh_call_control+0x2e6>
   121e8:	8b 45 0c             	mov    0xc(%ebp),%eax
   121eb:	c7 40 30 00 00 00 00 	movl   $0x0,0x30(%eax)
   121f2:	83 7d ec 00          	cmpl   $0x0,0xffffffec(%ebp)
   121f6:	74 31                	je     12229 <_rh_call_control+0x31d>
   121f8:	8b 45 0c             	mov    0xc(%ebp),%eax
   121fb:	8b 40 2c             	mov    0x2c(%eax),%eax
   121fe:	3b 45 e4             	cmp    0xffffffe4(%ebp),%eax
   12201:	7d 09                	jge    1220c <_rh_call_control+0x300>
   12203:	8b 45 0c             	mov    0xc(%ebp),%eax
   12206:	8b 40 2c             	mov    0x2c(%eax),%eax
   12209:	89 45 e4             	mov    %eax,0xffffffe4(%ebp)
   1220c:	8b 55 0c             	mov    0xc(%ebp),%edx
   1220f:	8b 45 e4             	mov    0xffffffe4(%ebp),%eax
   12212:	89 42 30             	mov    %eax,0x30(%edx)
   12215:	83 ec 04             	sub    $0x4,%esp
   12218:	ff 75 e4             	pushl  0xffffffe4(%ebp)
   1221b:	ff 75 ec             	pushl  0xffffffec(%ebp)
   1221e:	ff 75 e8             	pushl  0xffffffe8(%ebp)
   12221:	e8 4a 78 00 00       	call   19a70 <_memcpy>
   12226:	83 c4 10             	add    $0x10,%esp
   12229:	83 ec 04             	sub    $0x4,%esp
   1222c:	6a 00                	push   $0x0
   1222e:	ff 75 0c             	pushl  0xc(%ebp)
   12231:	ff 75 08             	pushl  0x8(%ebp)
   12234:	e8 5d 14 00 00       	call   13696 <_usb_hcd_giveback_urb@12>
   12239:	83 c4 04             	add    $0x4,%esp
   1223c:	b8 00 00 00 00       	mov    $0x0,%eax
   12241:	8b 5d fc             	mov    0xfffffffc(%ebp),%ebx
   12244:	c9                   	leave  
   12245:	c3                   	ret    

00012246 <_rh_status_urb>:
   12246:	55                   	push   %ebp
   12247:	89 e5                	mov    %esp,%ebp
   12249:	83 ec 18             	sub    $0x18,%esp
   1224c:	8b 45 0c             	mov    0xc(%ebp),%eax
   1224f:	8b 40 14             	mov    0x14(%eax),%eax
   12252:	8b 80 ac 01 00 00    	mov    0x1ac(%eax),%eax
   12258:	89 45 f4             	mov    %eax,0xfffffff4(%ebp)
   1225b:	83 7d f4 00          	cmpl   $0x0,0xfffffff4(%ebp)
   1225f:	79 04                	jns    12265 <_rh_status_urb+0x1f>
   12261:	83 45 f4 07          	addl   $0x7,0xfffffff4(%ebp)
   12265:	8b 45 f4             	mov    0xfffffff4(%ebp),%eax
   12268:	c1 f8 03             	sar    $0x3,%eax
   1226b:	40                   	inc    %eax
   1226c:	89 45 fc             	mov    %eax,0xfffffffc(%ebp)
   1226f:	8b 45 08             	mov    0x8(%ebp),%eax
   12272:	83 78 58 00          	cmpl   $0x0,0x58(%eax)
   12276:	75 16                	jne    1228e <_rh_status_urb+0x48>
   12278:	8b 45 0c             	mov    0xc(%ebp),%eax
   1227b:	83 78 1c 8d          	cmpl   $0xffffff8d,0x1c(%eax)
   1227f:	75 0d                	jne    1228e <_rh_status_urb+0x48>
   12281:	8b 45 0c             	mov    0xc(%ebp),%eax
   12284:	8b 40 2c             	mov    0x2c(%eax),%eax
   12287:	3b 45 fc             	cmp    0xfffffffc(%ebp),%eax
   1228a:	7c 02                	jl     1228e <_rh_status_urb+0x48>
   1228c:	eb 09                	jmp    12297 <_rh_status_urb+0x51>
   1228e:	c7 45 f8 ea ff ff ff 	movl   $0xffffffea,0xfffffff8(%ebp)
   12295:	eb 55                	jmp    122ec <_rh_status_urb+0xa6>
   12297:	83 ec 0c             	sub    $0xc,%esp
   1229a:	8b 45 08             	mov    0x8(%ebp),%eax
   1229d:	83 c0 54             	add    $0x54,%eax
   122a0:	50                   	push   %eax
   122a1:	e8 83 00 00 00       	call   12329 <_init_timer>
   122a6:	83 c4 10             	add    $0x10,%esp
   122a9:	8b 45 08             	mov    0x8(%ebp),%eax
   122ac:	c7 40 54 5e 23 01 00 	movl   $0x1235e,0x54(%eax)
   122b3:	8b 55 08             	mov    0x8(%ebp),%edx
   122b6:	8b 45 0c             	mov    0xc(%ebp),%eax
   122b9:	89 42 58             	mov    %eax,0x58(%edx)
   122bc:	8b 55 08             	mov    0x8(%ebp),%edx
   122bf:	a1 40 c2 01 00       	mov    0x1c240,%eax
   122c4:	83 c0 19             	add    $0x19,%eax
   122c7:	89 42 5c             	mov    %eax,0x5c(%edx)
   122ca:	83 ec 0c             	sub    $0xc,%esp
   122cd:	8b 45 08             	mov    0x8(%ebp),%eax
   122d0:	83 c0 54             	add    $0x54,%eax
   122d3:	50                   	push   %eax
   122d4:	e8 18 00 00 00       	call   122f1 <_add_timer>
   122d9:	83 c4 10             	add    $0x10,%esp
   122dc:	8b 55 0c             	mov    0xc(%ebp),%edx
   122df:	8b 45 08             	mov    0x8(%ebp),%eax
   122e2:	89 42 08             	mov    %eax,0x8(%edx)
   122e5:	c7 45 f8 00 00 00 00 	movl   $0x0,0xfffffff8(%ebp)
   122ec:	8b 45 f8             	mov    0xfffffff8(%ebp),%eax
   122ef:	c9                   	leave  
   122f0:	c3                   	ret    

000122f1 <_add_timer>:
   122f1:	55                   	push   %ebp
   122f2:	89 e5                	mov    %esp,%ebp
   122f4:	83 ec 04             	sub    $0x4,%esp
   122f7:	c7 45 fc 00 00 00 00 	movl   $0x0,0xfffffffc(%ebp)
   122fe:	83 7d fc 13          	cmpl   $0x13,0xfffffffc(%ebp)
   12302:	7f 23                	jg     12327 <_add_timer+0x36>
   12304:	8b 45 fc             	mov    0xfffffffc(%ebp),%eax
   12307:	83 3c 85 60 c1 01 00 	cmpl   $0x0,0x1c160(,%eax,4)
   1230e:	00 
   1230f:	75 0f                	jne    12320 <_add_timer+0x2f>
   12311:	8b 55 fc             	mov    0xfffffffc(%ebp),%edx
   12314:	8b 45 08             	mov    0x8(%ebp),%eax
   12317:	89 04 95 60 c1 01 00 	mov    %eax,0x1c160(,%edx,4)
   1231e:	eb 07                	jmp    12327 <_add_timer+0x36>
   12320:	8d 45 fc             	lea    0xfffffffc(%ebp),%eax
   12323:	ff 00                	incl   (%eax)
   12325:	eb d7                	jmp    122fe <_add_timer+0xd>
   12327:	c9                   	leave  
   12328:	c3                   	ret    

00012329 <_init_timer>:
   12329:	55                   	push   %ebp
   1232a:	89 e5                	mov    %esp,%ebp
   1232c:	8b 55 08             	mov    0x8(%ebp),%edx
   1232f:	83 c2 0c             	add    $0xc,%edx
   12332:	8b 45 08             	mov    0x8(%ebp),%eax
   12335:	83 c0 0c             	add    $0xc,%eax
   12338:	89 02                	mov    %eax,(%edx)
   1233a:	8b 55 08             	mov    0x8(%ebp),%edx
   1233d:	83 c2 0c             	add    $0xc,%edx
   12340:	8b 45 08             	mov    0x8(%ebp),%eax
   12343:	83 c0 0c             	add    $0xc,%eax
   12346:	89 42 04             	mov    %eax,0x4(%edx)
   12349:	8b 45 08             	mov    0x8(%ebp),%eax
   1234c:	c7 00 00 00 00 00    	movl   $0x0,(%eax)
   12352:	8b 45 08             	mov    0x8(%ebp),%eax
   12355:	c7 40 08 00 00 00 00 	movl   $0x0,0x8(%eax)
   1235c:	5d                   	pop    %ebp
   1235d:	c3                   	ret    

0001235e <_rh_report_status>:
   1235e:	55                   	push   %ebp
   1235f:	89 e5                	mov    %esp,%ebp
   12361:	83 ec 18             	sub    $0x18,%esp
   12364:	8b 45 08             	mov    0x8(%ebp),%eax
   12367:	89 45 fc             	mov    %eax,0xfffffffc(%ebp)
   1236a:	8b 45 fc             	mov    0xfffffffc(%ebp),%eax
   1236d:	c7 00 01 00 00 00    	movl   $0x1,(%eax)
   12373:	8b 45 fc             	mov    0xfffffffc(%ebp),%eax
   12376:	83 78 14 00          	cmpl   $0x0,0x14(%eax)
   1237a:	0f 84 c6 00 00 00    	je     12446 <_rh_report_status+0xe8>
   12380:	8b 45 fc             	mov    0xfffffffc(%ebp),%eax
   12383:	83 78 1c 8d          	cmpl   $0xffffff8d,0x1c(%eax)
   12387:	0f 85 b9 00 00 00    	jne    12446 <_rh_report_status+0xe8>
   1238d:	8b 45 fc             	mov    0xfffffffc(%ebp),%eax
   12390:	8b 40 14             	mov    0x14(%eax),%eax
   12393:	8b 80 bc 00 00 00    	mov    0xbc(%eax),%eax
   12399:	8b 40 30             	mov    0x30(%eax),%eax
   1239c:	89 45 f8             	mov    %eax,0xfffffff8(%ebp)
   1239f:	85 c0                	test   %eax,%eax
   123a1:	0f 84 9f 00 00 00    	je     12446 <_rh_report_status+0xe8>
   123a7:	8b 45 f8             	mov    0xfffffff8(%ebp),%eax
   123aa:	8b 80 e0 00 00 00    	mov    0xe0(%eax),%eax
   123b0:	83 e0 01             	and    $0x1,%eax
   123b3:	85 c0                	test   %eax,%eax
   123b5:	75 05                	jne    123bc <_rh_report_status+0x5e>
   123b7:	e9 8a 00 00 00       	jmp    12446 <_rh_report_status+0xe8>
   123bc:	83 ec 08             	sub    $0x8,%esp
   123bf:	8b 45 f8             	mov    0xfffffff8(%ebp),%eax
   123c2:	8b 50 74             	mov    0x74(%eax),%edx
   123c5:	8b 45 fc             	mov    0xfffffffc(%ebp),%eax
   123c8:	ff 70 24             	pushl  0x24(%eax)
   123cb:	ff 75 f8             	pushl  0xfffffff8(%ebp)
   123ce:	8b 42 34             	mov    0x34(%edx),%eax
   123d1:	ff d0                	call   *%eax
   123d3:	83 c4 10             	add    $0x10,%esp
   123d6:	89 45 f4             	mov    %eax,0xfffffff4(%ebp)
   123d9:	c7 05 00 c0 01 00 01 	movl   $0x1,0x1c000
   123e0:	00 00 00 
   123e3:	83 7d f4 00          	cmpl   $0x0,0xfffffff4(%ebp)
   123e7:	7e 29                	jle    12412 <_rh_report_status+0xb4>
   123e9:	8b 45 f8             	mov    0xfffffff8(%ebp),%eax
   123ec:	c7 40 58 00 00 00 00 	movl   $0x0,0x58(%eax)
   123f3:	8b 55 fc             	mov    0xfffffffc(%ebp),%edx
   123f6:	8b 45 f4             	mov    0xfffffff4(%ebp),%eax
   123f9:	89 42 30             	mov    %eax,0x30(%edx)
   123fc:	8b 45 fc             	mov    0xfffffffc(%ebp),%eax
   123ff:	c7 40 1c 00 00 00 00 	movl   $0x0,0x1c(%eax)
   12406:	8b 45 fc             	mov    0xfffffffc(%ebp),%eax
   12409:	c7 40 08 00 00 00 00 	movl   $0x0,0x8(%eax)
   12410:	eb 1b                	jmp    1242d <_rh_report_status+0xcf>
   12412:	83 ec 08             	sub    $0x8,%esp
   12415:	a1 40 c2 01 00       	mov    0x1c240,%eax
   1241a:	83 c0 19             	add    $0x19,%eax
   1241d:	50                   	push   %eax
   1241e:	8b 45 f8             	mov    0xfffffff8(%ebp),%eax
   12421:	83 c0 54             	add    $0x54,%eax
   12424:	50                   	push   %eax
   12425:	e8 1e 00 00 00       	call   12448 <_mod_timer>
   1242a:	83 c4 10             	add    $0x10,%esp
   1242d:	83 7d f4 00          	cmpl   $0x0,0xfffffff4(%ebp)
   12431:	7e 13                	jle    12446 <_rh_report_status+0xe8>
   12433:	83 ec 04             	sub    $0x4,%esp
   12436:	6a 00                	push   $0x0
   12438:	ff 75 fc             	pushl  0xfffffffc(%ebp)
   1243b:	ff 75 f8             	pushl  0xfffffff8(%ebp)
   1243e:	e8 53 12 00 00       	call   13696 <_usb_hcd_giveback_urb@12>
   12443:	83 c4 04             	add    $0x4,%esp
   12446:	c9                   	leave  
   12447:	c3                   	ret    

00012448 <_mod_timer>:
   12448:	55                   	push   %ebp
   12449:	89 e5                	mov    %esp,%ebp
   1244b:	83 ec 08             	sub    $0x8,%esp
   1244e:	83 ec 0c             	sub    $0xc,%esp
   12451:	ff 75 08             	pushl  0x8(%ebp)
   12454:	e8 19 00 00 00       	call   12472 <_del_timer>
   12459:	83 c4 10             	add    $0x10,%esp
   1245c:	8b 55 08             	mov    0x8(%ebp),%edx
   1245f:	8b 45 0c             	mov    0xc(%ebp),%eax
   12462:	89 42 08             	mov    %eax,0x8(%edx)
   12465:	ff 75 08             	pushl  0x8(%ebp)
   12468:	e8 84 fe ff ff       	call   122f1 <_add_timer>
   1246d:	83 c4 04             	add    $0x4,%esp
   12470:	c9                   	leave  
   12471:	c3                   	ret    

00012472 <_del_timer>:
   12472:	55                   	push   %ebp
   12473:	89 e5                	mov    %esp,%ebp
   12475:	83 ec 04             	sub    $0x4,%esp
   12478:	c7 45 fc 00 00 00 00 	movl   $0x0,0xfffffffc(%ebp)
   1247f:	83 7d fc 13          	cmpl   $0x13,0xfffffffc(%ebp)
   12483:	7f 26                	jg     124ab <_del_timer+0x39>
   12485:	8b 45 fc             	mov    0xfffffffc(%ebp),%eax
   12488:	8b 04 85 60 c1 01 00 	mov    0x1c160(,%eax,4),%eax
   1248f:	3b 45 08             	cmp    0x8(%ebp),%eax
   12492:	75 10                	jne    124a4 <_del_timer+0x32>
   12494:	8b 45 fc             	mov    0xfffffffc(%ebp),%eax
   12497:	c7 04 85 60 c1 01 00 	movl   $0x0,0x1c160(,%eax,4)
   1249e:	00 00 00 00 
   124a2:	eb 07                	jmp    124ab <_del_timer+0x39>
   124a4:	8d 45 fc             	lea    0xfffffffc(%ebp),%eax
   124a7:	ff 00                	incl   (%eax)
   124a9:	eb d4                	jmp    1247f <_del_timer+0xd>
   124ab:	c9                   	leave  
   124ac:	c3                   	ret    

000124ad <_rh_urb_enqueue>:
   124ad:	55                   	push   %ebp
   124ae:	89 e5                	mov    %esp,%ebp
   124b0:	83 ec 18             	sub    $0x18,%esp
   124b3:	8b 45 0c             	mov    0xc(%ebp),%eax
   124b6:	8b 40 18             	mov    0x18(%eax),%eax
   124b9:	c1 e8 1e             	shr    $0x1e,%eax
   124bc:	83 e0 03             	and    $0x3,%eax
   124bf:	83 f8 01             	cmp    $0x1,%eax
   124c2:	75 23                	jne    124e7 <_rh_urb_enqueue+0x3a>
   124c4:	c7 45 f8 00 00 00 00 	movl   $0x0,0xfffffff8(%ebp)
   124cb:	83 ec 08             	sub    $0x8,%esp
   124ce:	ff 75 0c             	pushl  0xc(%ebp)
   124d1:	ff 75 08             	pushl  0x8(%ebp)
   124d4:	e8 6d fd ff ff       	call   12246 <_rh_status_urb>
   124d9:	83 c4 10             	add    $0x10,%esp
   124dc:	89 45 fc             	mov    %eax,0xfffffffc(%ebp)
   124df:	8b 45 fc             	mov    0xfffffffc(%ebp),%eax
   124e2:	89 45 f4             	mov    %eax,0xfffffff4(%ebp)
   124e5:	eb 2e                	jmp    12515 <_rh_urb_enqueue+0x68>
   124e7:	8b 45 0c             	mov    0xc(%ebp),%eax
   124ea:	8b 40 18             	mov    0x18(%eax),%eax
   124ed:	c1 e8 1e             	shr    $0x1e,%eax
   124f0:	83 e0 03             	and    $0x3,%eax
   124f3:	83 f8 02             	cmp    $0x2,%eax
   124f6:	75 16                	jne    1250e <_rh_urb_enqueue+0x61>
   124f8:	83 ec 08             	sub    $0x8,%esp
   124fb:	ff 75 0c             	pushl  0xc(%ebp)
   124fe:	ff 75 08             	pushl  0x8(%ebp)
   12501:	e8 06 fa ff ff       	call   11f0c <_rh_call_control>
   12506:	83 c4 10             	add    $0x10,%esp
   12509:	89 45 f4             	mov    %eax,0xfffffff4(%ebp)
   1250c:	eb 07                	jmp    12515 <_rh_urb_enqueue+0x68>
   1250e:	c7 45 f4 ea ff ff ff 	movl   $0xffffffea,0xfffffff4(%ebp)
   12515:	8b 45 f4             	mov    0xfffffff4(%ebp),%eax
   12518:	c9                   	leave  
   12519:	c3                   	ret    

0001251a <_usb_rh_status_dequeue>:
   1251a:	55                   	push   %ebp
   1251b:	89 e5                	mov    %esp,%ebp
   1251d:	83 ec 08             	sub    $0x8,%esp
   12520:	83 ec 0c             	sub    $0xc,%esp
   12523:	8b 45 08             	mov    0x8(%ebp),%eax
   12526:	83 c0 54             	add    $0x54,%eax
   12529:	50                   	push   %eax
   1252a:	e8 2c 00 00 00       	call   1255b <_del_timer_sync>
   1252f:	83 c4 10             	add    $0x10,%esp
   12532:	8b 45 08             	mov    0x8(%ebp),%eax
   12535:	c7 40 58 00 00 00 00 	movl   $0x0,0x58(%eax)
   1253c:	8b 45 0c             	mov    0xc(%ebp),%eax
   1253f:	c7 40 08 00 00 00 00 	movl   $0x0,0x8(%eax)
   12546:	83 ec 04             	sub    $0x4,%esp
   12549:	6a 00                	push   $0x0
   1254b:	ff 75 0c             	pushl  0xc(%ebp)
   1254e:	ff 75 08             	pushl  0x8(%ebp)
   12551:	e8 40 11 00 00       	call   13696 <_usb_hcd_giveback_urb@12>
   12556:	83 c4 04             	add    $0x4,%esp
   12559:	c9                   	leave  
   1255a:	c3                   	ret    

0001255b <_del_timer_sync>:
   1255b:	55                   	push   %ebp
   1255c:	89 e5                	mov    %esp,%ebp
   1255e:	83 ec 04             	sub    $0x4,%esp
   12561:	c7 45 fc 00 00 00 00 	movl   $0x0,0xfffffffc(%ebp)
   12568:	83 7d fc 13          	cmpl   $0x13,0xfffffffc(%ebp)
   1256c:	7f 26                	jg     12594 <_del_timer_sync+0x39>
   1256e:	8b 45 fc             	mov    0xfffffffc(%ebp),%eax
   12571:	8b 04 85 60 c1 01 00 	mov    0x1c160(,%eax,4),%eax
   12578:	3b 45 08             	cmp    0x8(%ebp),%eax
   1257b:	75 10                	jne    1258d <_del_timer_sync+0x32>
   1257d:	8b 45 fc             	mov    0xfffffffc(%ebp),%eax
   12580:	c7 04 85 60 c1 01 00 	movl   $0x0,0x1c160(,%eax,4)
   12587:	00 00 00 00 
   1258b:	eb 07                	jmp    12594 <_del_timer_sync+0x39>
   1258d:	8d 45 fc             	lea    0xfffffffc(%ebp),%eax
   12590:	ff 00                	incl   (%eax)
   12592:	eb d4                	jmp    12568 <_del_timer_sync+0xd>
   12594:	c9                   	leave  
   12595:	c3                   	ret    

00012596 <_usb_bus_get>:
   12596:	55                   	push   %ebp
   12597:	89 e5                	mov    %esp,%ebp
   12599:	8b 45 08             	mov    0x8(%ebp),%eax
   1259c:	83 c0 48             	add    $0x48,%eax
   1259f:	8b 55 08             	mov    0x8(%ebp),%edx
   125a2:	83 c2 48             	add    $0x48,%edx
   125a5:	8b 12                	mov    (%edx),%edx
   125a7:	42                   	inc    %edx
   125a8:	89 10                	mov    %edx,(%eax)
   125aa:	5d                   	pop    %ebp
   125ab:	c3                   	ret    

000125ac <_usb_bus_put>:
   125ac:	55                   	push   %ebp
   125ad:	89 e5                	mov    %esp,%ebp
   125af:	83 ec 08             	sub    $0x8,%esp
   125b2:	8b 55 08             	mov    0x8(%ebp),%edx
   125b5:	83 c2 48             	add    $0x48,%edx
   125b8:	8b 45 08             	mov    0x8(%ebp),%eax
   125bb:	83 c0 48             	add    $0x48,%eax
   125be:	8b 00                	mov    (%eax),%eax
   125c0:	48                   	dec    %eax
   125c1:	89 02                	mov    %eax,(%edx)
   125c3:	8b 45 08             	mov    0x8(%ebp),%eax
   125c6:	83 c0 48             	add    $0x48,%eax
   125c9:	83 38 00             	cmpl   $0x0,(%eax)
   125cc:	75 0e                	jne    125dc <_usb_bus_put+0x30>
   125ce:	83 ec 0c             	sub    $0xc,%esp
   125d1:	ff 75 08             	pushl  0x8(%ebp)
   125d4:	e8 67 74 00 00       	call   19a40 <_ExFreePool@4>
   125d9:	83 c4 0c             	add    $0xc,%esp
   125dc:	c9                   	leave  
   125dd:	c3                   	ret    

000125de <_usb_bus_init@4>:
   125de:	55                   	push   %ebp
   125df:	89 e5                	mov    %esp,%ebp
   125e1:	83 ec 08             	sub    $0x8,%esp
   125e4:	83 ec 04             	sub    $0x4,%esp
   125e7:	6a 10                	push   $0x10
   125e9:	6a 00                	push   $0x0
   125eb:	8b 45 08             	mov    0x8(%ebp),%eax
   125ee:	83 c0 10             	add    $0x10,%eax
   125f1:	50                   	push   %eax
   125f2:	e8 59 74 00 00       	call   19a50 <_memset>
   125f7:	83 c4 10             	add    $0x10,%esp
   125fa:	8b 45 08             	mov    0x8(%ebp),%eax
   125fd:	c7 40 0c 01 00 00 00 	movl   $0x1,0xc(%eax)
   12604:	8b 45 08             	mov    0x8(%ebp),%eax
   12607:	c7 40 24 00 00 00 00 	movl   $0x0,0x24(%eax)
   1260e:	8b 45 08             	mov    0x8(%ebp),%eax
   12611:	c7 40 30 00 00 00 00 	movl   $0x0,0x30(%eax)
   12618:	8b 45 08             	mov    0x8(%ebp),%eax
   1261b:	c7 40 04 ff ff ff ff 	movl   $0xffffffff,0x4(%eax)
   12622:	8b 45 08             	mov    0x8(%ebp),%eax
   12625:	c7 40 34 00 00 00 00 	movl   $0x0,0x34(%eax)
   1262c:	8b 45 08             	mov    0x8(%ebp),%eax
   1262f:	c7 40 38 00 00 00 00 	movl   $0x0,0x38(%eax)
   12636:	8b 45 08             	mov    0x8(%ebp),%eax
   12639:	c7 40 3c 00 00 00 00 	movl   $0x0,0x3c(%eax)
   12640:	8b 55 08             	mov    0x8(%ebp),%edx
   12643:	83 c2 28             	add    $0x28,%edx
   12646:	8b 45 08             	mov    0x8(%ebp),%eax
   12649:	83 c0 28             	add    $0x28,%eax
   1264c:	89 02                	mov    %eax,(%edx)
   1264e:	8b 55 08             	mov    0x8(%ebp),%edx
   12651:	83 c2 28             	add    $0x28,%edx
   12654:	8b 45 08             	mov    0x8(%ebp),%eax
   12657:	83 c0 28             	add    $0x28,%eax
   1265a:	89 42 04             	mov    %eax,0x4(%edx)
   1265d:	8b 45 08             	mov    0x8(%ebp),%eax
   12660:	83 c0 48             	add    $0x48,%eax
   12663:	c7 00 01 00 00 00    	movl   $0x1,(%eax)
   12669:	c9                   	leave  
   1266a:	c2 04 00             	ret    $0x4

0001266d <_usb_alloc_bus@4>:
   1266d:	55                   	push   %ebp
   1266e:	89 e5                	mov    %esp,%ebp
   12670:	83 ec 08             	sub    $0x8,%esp
   12673:	83 ec 08             	sub    $0x8,%esp
   12676:	6a 4c                	push   $0x4c
   12678:	6a 01                	push   $0x1
   1267a:	e8 b1 73 00 00       	call   19a30 <_ExAllocatePool@8>
   1267f:	83 c4 08             	add    $0x8,%esp
   12682:	89 45 fc             	mov    %eax,0xfffffffc(%ebp)
   12685:	83 7d fc 00          	cmpl   $0x0,0xfffffffc(%ebp)
   12689:	75 09                	jne    12694 <_usb_alloc_bus@4+0x27>
   1268b:	c7 45 f8 00 00 00 00 	movl   $0x0,0xfffffff8(%ebp)
   12692:	eb 1d                	jmp    126b1 <_usb_alloc_bus@4+0x44>
   12694:	83 ec 0c             	sub    $0xc,%esp
   12697:	ff 75 fc             	pushl  0xfffffffc(%ebp)
   1269a:	e8 3f ff ff ff       	call   125de <_usb_bus_init@4>
   1269f:	83 c4 0c             	add    $0xc,%esp
   126a2:	8b 45 fc             	mov    0xfffffffc(%ebp),%eax
   126a5:	8b 55 08             	mov    0x8(%ebp),%edx
   126a8:	89 50 20             	mov    %edx,0x20(%eax)
   126ab:	8b 45 fc             	mov    0xfffffffc(%ebp),%eax
   126ae:	89 45 f8             	mov    %eax,0xfffffff8(%ebp)
   126b1:	8b 45 f8             	mov    0xfffffff8(%ebp),%eax
   126b4:	c9                   	leave  
   126b5:	c2 04 00             	ret    $0x4

000126b8 <_usb_free_bus@4>:
   126b8:	55                   	push   %ebp
   126b9:	89 e5                	mov    %esp,%ebp
   126bb:	83 ec 08             	sub    $0x8,%esp
   126be:	83 7d 08 00          	cmpl   $0x0,0x8(%ebp)
   126c2:	75 02                	jne    126c6 <_usb_free_bus@4+0xe>
   126c4:	eb 0e                	jmp    126d4 <_usb_free_bus@4+0x1c>
   126c6:	83 ec 0c             	sub    $0xc,%esp
   126c9:	ff 75 08             	pushl  0x8(%ebp)
   126cc:	e8 db fe ff ff       	call   125ac <_usb_bus_put>
   126d1:	83 c4 10             	add    $0x10,%esp
   126d4:	c9                   	leave  
   126d5:	c2 04 00             	ret    $0x4

000126d8 <_usb_register_bus@4>:
   126d8:	55                   	push   %ebp
   126d9:	89 e5                	mov    %esp,%ebp
   126db:	83 ec 08             	sub    $0x8,%esp
   126de:	83 ec 04             	sub    $0x4,%esp
   126e1:	6a 01                	push   $0x1
   126e3:	6a 40                	push   $0x40
   126e5:	68 10 c0 01 00       	push   $0x1c010
   126ea:	e8 b4 00 00 00       	call   127a3 <_find_next_zero_bit>
   126ef:	83 c4 10             	add    $0x10,%esp
   126f2:	89 45 fc             	mov    %eax,0xfffffffc(%ebp)
   126f5:	83 7d fc 3f          	cmpl   $0x3f,0xfffffffc(%ebp)
   126f9:	7f 1c                	jg     12717 <_usb_register_bus@4+0x3f>
   126fb:	83 ec 08             	sub    $0x8,%esp
   126fe:	68 10 c0 01 00       	push   $0x1c010
   12703:	ff 75 fc             	pushl  0xfffffffc(%ebp)
   12706:	e8 8a 00 00 00       	call   12795 <_set_bit>
   1270b:	83 c4 10             	add    $0x10,%esp
   1270e:	8b 55 08             	mov    0x8(%ebp),%edx
   12711:	8b 45 fc             	mov    0xfffffffc(%ebp),%eax
   12714:	89 42 04             	mov    %eax,0x4(%edx)
   12717:	ff 75 08             	pushl  0x8(%ebp)
   1271a:	e8 77 fe ff ff       	call   12596 <_usb_bus_get>
   1271f:	83 c4 04             	add    $0x4,%esp
   12722:	83 ec 08             	sub    $0x8,%esp
   12725:	68 00 a0 01 00       	push   $0x1a000
   1272a:	8b 45 08             	mov    0x8(%ebp),%eax
   1272d:	83 c0 28             	add    $0x28,%eax
   12730:	50                   	push   %eax
   12731:	e8 1a 00 00 00       	call   12750 <_list_add>
   12736:	83 c4 10             	add    $0x10,%esp
   12739:	83 ec 0c             	sub    $0xc,%esp
   1273c:	ff 75 08             	pushl  0x8(%ebp)
   1273f:	e8 07 00 00 00       	call   1274b <_usbfs_add_bus>
   12744:	83 c4 10             	add    $0x10,%esp
   12747:	c9                   	leave  
   12748:	c2 04 00             	ret    $0x4

0001274b <_usbfs_add_bus>:
   1274b:	55                   	push   %ebp
   1274c:	89 e5                	mov    %esp,%ebp
   1274e:	5d                   	pop    %ebp
   1274f:	c3                   	ret    

00012750 <_list_add>:
   12750:	55                   	push   %ebp
   12751:	89 e5                	mov    %esp,%ebp
   12753:	83 ec 08             	sub    $0x8,%esp
   12756:	83 ec 04             	sub    $0x4,%esp
   12759:	8b 45 0c             	mov    0xc(%ebp),%eax
   1275c:	ff 30                	pushl  (%eax)
   1275e:	ff 75 0c             	pushl  0xc(%ebp)
   12761:	ff 75 08             	pushl  0x8(%ebp)
   12764:	e8 05 00 00 00       	call   1276e <___list_add>
   12769:	83 c4 10             	add    $0x10,%esp
   1276c:	c9                   	leave  
   1276d:	c3                   	ret    

0001276e <___list_add>:
   1276e:	55                   	push   %ebp
   1276f:	89 e5                	mov    %esp,%ebp
   12771:	8b 55 10             	mov    0x10(%ebp),%edx
   12774:	8b 45 08             	mov    0x8(%ebp),%eax
   12777:	89 42 04             	mov    %eax,0x4(%edx)
   1277a:	8b 55 08             	mov    0x8(%ebp),%edx
   1277d:	8b 45 10             	mov    0x10(%ebp),%eax
   12780:	89 02                	mov    %eax,(%edx)
   12782:	8b 55 08             	mov    0x8(%ebp),%edx
   12785:	8b 45 0c             	mov    0xc(%ebp),%eax
   12788:	89 42 04             	mov    %eax,0x4(%edx)
   1278b:	8b 55 0c             	mov    0xc(%ebp),%edx
   1278e:	8b 45 08             	mov    0x8(%ebp),%eax
   12791:	89 02                	mov    %eax,(%edx)
   12793:	5d                   	pop    %ebp
   12794:	c3                   	ret    

00012795 <_set_bit>:
   12795:	55                   	push   %ebp
   12796:	89 e5                	mov    %esp,%ebp
   12798:	8b 55 0c             	mov    0xc(%ebp),%edx
   1279b:	8b 45 08             	mov    0x8(%ebp),%eax
   1279e:	0f ab 02             	bts    %eax,(%edx)
   127a1:	5d                   	pop    %ebp
   127a2:	c3                   	ret    

000127a3 <_find_next_zero_bit>:
   127a3:	55                   	push   %ebp
   127a4:	89 e5                	mov    %esp,%ebp
   127a6:	83 ec 18             	sub    $0x18,%esp
   127a9:	8b 45 10             	mov    0x10(%ebp),%eax
   127ac:	c1 f8 05             	sar    $0x5,%eax
   127af:	c1 e0 02             	shl    $0x2,%eax
   127b2:	03 45 08             	add    0x8(%ebp),%eax
   127b5:	89 45 fc             	mov    %eax,0xfffffffc(%ebp)
   127b8:	c7 45 f8 00 00 00 00 	movl   $0x0,0xfffffff8(%ebp)
   127bf:	8b 45 10             	mov    0x10(%ebp),%eax
   127c2:	83 e0 1f             	and    $0x1f,%eax
   127c5:	89 45 f4             	mov    %eax,0xfffffff4(%ebp)
   127c8:	83 7d f4 00          	cmpl   $0x0,0xfffffff4(%ebp)
   127cc:	74 42                	je     12810 <_find_next_zero_bit+0x6d>
   127ce:	8b 45 fc             	mov    0xfffffffc(%ebp),%eax
   127d1:	8b 4d f4             	mov    0xfffffff4(%ebp),%ecx
   127d4:	8b 00                	mov    (%eax),%eax
   127d6:	d3 e8                	shr    %cl,%eax
   127d8:	f7 d0                	not    %eax
   127da:	0f bc c0             	bsf    %eax,%eax
   127dd:	75 05                	jne    127e4 <_find_next_zero_bit+0x41>
   127df:	b8 20 00 00 00       	mov    $0x20,%eax
   127e4:	89 45 f8             	mov    %eax,0xfffffff8(%ebp)
   127e7:	b8 20 00 00 00       	mov    $0x20,%eax
   127ec:	2b 45 f4             	sub    0xfffffff4(%ebp),%eax
   127ef:	3b 45 f8             	cmp    0xfffffff8(%ebp),%eax
   127f2:	7e 0b                	jle    127ff <_find_next_zero_bit+0x5c>
   127f4:	8b 45 10             	mov    0x10(%ebp),%eax
   127f7:	03 45 f8             	add    0xfffffff8(%ebp),%eax
   127fa:	89 45 ec             	mov    %eax,0xffffffec(%ebp)
   127fd:	eb 43                	jmp    12842 <_find_next_zero_bit+0x9f>
   127ff:	b8 20 00 00 00       	mov    $0x20,%eax
   12804:	2b 45 f4             	sub    0xfffffff4(%ebp),%eax
   12807:	89 45 f8             	mov    %eax,0xfffffff8(%ebp)
   1280a:	8d 45 fc             	lea    0xfffffffc(%ebp),%eax
   1280d:	83 00 04             	addl   $0x4,(%eax)
   12810:	83 ec 08             	sub    $0x8,%esp
   12813:	8b 55 08             	mov    0x8(%ebp),%edx
   12816:	8b 45 fc             	mov    0xfffffffc(%ebp),%eax
   12819:	29 d0                	sub    %edx,%eax
   1281b:	8d 14 c5 00 00 00 00 	lea    0x0(,%eax,8),%edx
   12822:	8b 45 0c             	mov    0xc(%ebp),%eax
   12825:	29 d0                	sub    %edx,%eax
   12827:	50                   	push   %eax
   12828:	ff 75 fc             	pushl  0xfffffffc(%ebp)
   1282b:	e8 17 00 00 00       	call   12847 <_find_first_zero_bit>
   12830:	83 c4 10             	add    $0x10,%esp
   12833:	89 45 f0             	mov    %eax,0xfffffff0(%ebp)
   12836:	8b 45 f8             	mov    0xfffffff8(%ebp),%eax
   12839:	03 45 10             	add    0x10(%ebp),%eax
   1283c:	03 45 f0             	add    0xfffffff0(%ebp),%eax
   1283f:	89 45 ec             	mov    %eax,0xffffffec(%ebp)
   12842:	8b 45 ec             	mov    0xffffffec(%ebp),%eax
   12845:	c9                   	leave  
   12846:	c3                   	ret    

00012847 <_find_first_zero_bit>:
   12847:	55                   	push   %ebp
   12848:	89 e5                	mov    %esp,%ebp
   1284a:	57                   	push   %edi
   1284b:	53                   	push   %ebx
   1284c:	83 ec 14             	sub    $0x14,%esp
   1284f:	83 7d 0c 00          	cmpl   $0x0,0xc(%ebp)
   12853:	75 09                	jne    1285e <_find_first_zero_bit+0x17>
   12855:	c7 45 e4 00 00 00 00 	movl   $0x0,0xffffffe4(%ebp)
   1285c:	eb 48                	jmp    128a6 <_find_first_zero_bit+0x5f>
   1285e:	8b 45 0c             	mov    0xc(%ebp),%eax
   12861:	83 c0 1f             	add    $0x1f,%eax
   12864:	89 c1                	mov    %eax,%ecx
   12866:	c1 e9 05             	shr    $0x5,%ecx
   12869:	8b 7d 08             	mov    0x8(%ebp),%edi
   1286c:	8b 5d 08             	mov    0x8(%ebp),%ebx
   1286f:	b8 ff ff ff ff       	mov    $0xffffffff,%eax
   12874:	31 d2                	xor    %edx,%edx
   12876:	f3 af                	repz scas %es:(%edi),%eax
   12878:	74 09                	je     12883 <_find_first_zero_bit+0x3c>
   1287a:	33 47 fc             	xor    0xfffffffc(%edi),%eax
   1287d:	83 ef 04             	sub    $0x4,%edi
   12880:	0f bc d0             	bsf    %eax,%edx
   12883:	29 df                	sub    %ebx,%edi
   12885:	c1 e7 03             	shl    $0x3,%edi
   12888:	01 fa                	add    %edi,%edx
   1288a:	89 c3                	mov    %eax,%ebx
   1288c:	89 d0                	mov    %edx,%eax
   1288e:	89 45 e8             	mov    %eax,0xffffffe8(%ebp)
   12891:	89 c8                	mov    %ecx,%eax
   12893:	89 45 f4             	mov    %eax,0xfffffff4(%ebp)
   12896:	89 f8                	mov    %edi,%eax
   12898:	89 45 f0             	mov    %eax,0xfffffff0(%ebp)
   1289b:	89 d8                	mov    %ebx,%eax
   1289d:	89 45 ec             	mov    %eax,0xffffffec(%ebp)
   128a0:	8b 45 e8             	mov    0xffffffe8(%ebp),%eax
   128a3:	89 45 e4             	mov    %eax,0xffffffe4(%ebp)
   128a6:	8b 45 e4             	mov    0xffffffe4(%ebp),%eax
   128a9:	83 c4 14             	add    $0x14,%esp
   128ac:	5b                   	pop    %ebx
   128ad:	5f                   	pop    %edi
   128ae:	5d                   	pop    %ebp
   128af:	c3                   	ret    

000128b0 <_usb_deregister_bus@4>:
   128b0:	55                   	push   %ebp
   128b1:	89 e5                	mov    %esp,%ebp
   128b3:	83 ec 08             	sub    $0x8,%esp
   128b6:	83 ec 0c             	sub    $0xc,%esp
   128b9:	8b 45 08             	mov    0x8(%ebp),%eax
   128bc:	83 c0 28             	add    $0x28,%eax
   128bf:	50                   	push   %eax
   128c0:	e8 4c 00 00 00       	call   12911 <_list_del>
   128c5:	83 c4 10             	add    $0x10,%esp
   128c8:	83 ec 0c             	sub    $0xc,%esp
   128cb:	ff 75 08             	pushl  0x8(%ebp)
   128ce:	e8 39 00 00 00       	call   1290c <_usbfs_remove_bus>
   128d3:	83 c4 10             	add    $0x10,%esp
   128d6:	83 ec 08             	sub    $0x8,%esp
   128d9:	68 10 c0 01 00       	push   $0x1c010
   128de:	8b 45 08             	mov    0x8(%ebp),%eax
   128e1:	ff 70 04             	pushl  0x4(%eax)
   128e4:	e8 15 00 00 00       	call   128fe <_clear_bit>
   128e9:	83 c4 10             	add    $0x10,%esp
   128ec:	83 ec 0c             	sub    $0xc,%esp
   128ef:	ff 75 08             	pushl  0x8(%ebp)
   128f2:	e8 b5 fc ff ff       	call   125ac <_usb_bus_put>
   128f7:	83 c4 10             	add    $0x10,%esp
   128fa:	c9                   	leave  
   128fb:	c2 04 00             	ret    $0x4

000128fe <_clear_bit>:
   128fe:	55                   	push   %ebp
   128ff:	89 e5                	mov    %esp,%ebp
   12901:	8b 55 0c             	mov    0xc(%ebp),%edx
   12904:	8b 45 08             	mov    0x8(%ebp),%eax
   12907:	0f b3 02             	btr    %eax,(%edx)
   1290a:	5d                   	pop    %ebp
   1290b:	c3                   	ret    

0001290c <_usbfs_remove_bus>:
   1290c:	55                   	push   %ebp
   1290d:	89 e5                	mov    %esp,%ebp
   1290f:	5d                   	pop    %ebp
   12910:	c3                   	ret    

00012911 <_list_del>:
   12911:	55                   	push   %ebp
   12912:	89 e5                	mov    %esp,%ebp
   12914:	83 ec 08             	sub    $0x8,%esp
   12917:	83 ec 08             	sub    $0x8,%esp
   1291a:	8b 45 08             	mov    0x8(%ebp),%eax
   1291d:	ff 30                	pushl  (%eax)
   1291f:	8b 45 08             	mov    0x8(%ebp),%eax
   12922:	ff 70 04             	pushl  0x4(%eax)
   12925:	e8 18 00 00 00       	call   12942 <___list_del>
   1292a:	83 c4 10             	add    $0x10,%esp
   1292d:	8b 45 08             	mov    0x8(%ebp),%eax
   12930:	c7 00 00 00 00 00    	movl   $0x0,(%eax)
   12936:	8b 45 08             	mov    0x8(%ebp),%eax
   12939:	c7 40 04 00 00 00 00 	movl   $0x0,0x4(%eax)
   12940:	c9                   	leave  
   12941:	c3                   	ret    

00012942 <___list_del>:
   12942:	55                   	push   %ebp
   12943:	89 e5                	mov    %esp,%ebp
   12945:	8b 55 0c             	mov    0xc(%ebp),%edx
   12948:	8b 45 08             	mov    0x8(%ebp),%eax
   1294b:	89 42 04             	mov    %eax,0x4(%edx)
   1294e:	8b 55 08             	mov    0x8(%ebp),%edx
   12951:	8b 45 0c             	mov    0xc(%ebp),%eax
   12954:	89 02                	mov    %eax,(%edx)
   12956:	5d                   	pop    %ebp
   12957:	c3                   	ret    

00012958 <_usb_register_root_hub@8>:
   12958:	55                   	push   %ebp
   12959:	89 e5                	mov    %esp,%ebp
   1295b:	83 ec 08             	sub    $0x8,%esp
   1295e:	83 ec 04             	sub    $0x4,%esp
   12961:	8b 45 08             	mov    0x8(%ebp),%eax
   12964:	8b 80 bc 00 00 00    	mov    0xbc(%eax),%eax
   1296a:	ff 70 04             	pushl  0x4(%eax)
   1296d:	68 b9 b0 01 00       	push   $0x1b0b9
   12972:	8b 45 08             	mov    0x8(%ebp),%eax
   12975:	05 48 01 00 00       	add    $0x148,%eax
   1297a:	50                   	push   %eax
   1297b:	e8 10 71 00 00       	call   19a90 <_sprintf>
   12980:	83 c4 10             	add    $0x10,%esp
   12983:	8b 45 08             	mov    0x8(%ebp),%eax
   12986:	c7 40 14 03 00 00 00 	movl   $0x3,0x14(%eax)
   1298d:	83 ec 08             	sub    $0x8,%esp
   12990:	ff 75 0c             	pushl  0xc(%ebp)
   12993:	ff 75 08             	pushl  0x8(%ebp)
   12996:	e8 f8 41 00 00       	call   16b93 <_usb_new_device>
   1299b:	83 c4 10             	add    $0x10,%esp
   1299e:	89 45 fc             	mov    %eax,0xfffffffc(%ebp)
   129a1:	8b 45 fc             	mov    0xfffffffc(%ebp),%eax
   129a4:	c9                   	leave  
   129a5:	c2 08 00             	ret    $0x8

000129a8 <_usb_calc_bus_time@16>:
   129a8:	55                   	push   %ebp
   129a9:	89 e5                	mov    %esp,%ebp
   129ab:	83 ec 14             	sub    $0x14,%esp
   129ae:	8b 45 08             	mov    0x8(%ebp),%eax
   129b1:	89 45 f0             	mov    %eax,0xfffffff0(%ebp)
   129b4:	83 7d f0 02          	cmpl   $0x2,0xfffffff0(%ebp)
   129b8:	0f 84 21 01 00 00    	je     12adf <_usb_calc_bus_time@16+0x137>
   129be:	83 7d f0 02          	cmpl   $0x2,0xfffffff0(%ebp)
   129c2:	7f 0b                	jg     129cf <_usb_calc_bus_time@16+0x27>
   129c4:	83 7d f0 01          	cmpl   $0x1,0xfffffff0(%ebp)
   129c8:	74 14                	je     129de <_usb_calc_bus_time@16+0x36>
   129ca:	e9 e4 02 00 00       	jmp    12cb3 <_usb_calc_bus_time@16+0x30b>
   129cf:	83 7d f0 03          	cmpl   $0x3,0xfffffff0(%ebp)
   129d3:	0f 84 12 02 00 00    	je     12beb <_usb_calc_bus_time@16+0x243>
   129d9:	e9 d5 02 00 00       	jmp    12cb3 <_usb_calc_bus_time@16+0x30b>
   129de:	83 7d 0c 00          	cmpl   $0x0,0xc(%ebp)
   129e2:	74 76                	je     12a5a <_usb_calc_bus_time@16+0xb2>
   129e4:	8b 55 14             	mov    0x14(%ebp),%edx
   129e7:	89 d0                	mov    %edx,%eax
   129e9:	c1 e0 03             	shl    $0x3,%eax
   129ec:	29 d0                	sub    %edx,%eax
   129ee:	c1 e0 03             	shl    $0x3,%eax
   129f1:	89 45 ec             	mov    %eax,0xffffffec(%ebp)
   129f4:	b8 ab aa aa 2a       	mov    $0x2aaaaaab,%eax
   129f9:	f7 6d ec             	imull  0xffffffec(%ebp)
   129fc:	89 d1                	mov    %edx,%ecx
   129fe:	8b 45 ec             	mov    0xffffffec(%ebp),%eax
   12a01:	c1 f8 1f             	sar    $0x1f,%eax
   12a04:	89 ca                	mov    %ecx,%edx
   12a06:	29 c2                	sub    %eax,%edx
   12a08:	89 d0                	mov    %edx,%eax
   12a0a:	c1 e0 02             	shl    $0x2,%eax
   12a0d:	01 d0                	add    %edx,%eax
   12a0f:	c1 e0 03             	shl    $0x3,%eax
   12a12:	01 d0                	add    %edx,%eax
   12a14:	c1 e0 02             	shl    $0x2,%eax
   12a17:	01 d0                	add    %edx,%eax
   12a19:	c1 e0 03             	shl    $0x3,%eax
   12a1c:	01 d0                	add    %edx,%eax
   12a1e:	01 c0                	add    %eax,%eax
   12a20:	01 d0                	add    %edx,%eax
   12a22:	c1 e0 02             	shl    $0x2,%eax
   12a25:	01 d0                	add    %edx,%eax
   12a27:	c1 e0 05             	shl    $0x5,%eax
   12a2a:	29 d0                	sub    %edx,%eax
   12a2c:	01 c0                	add    %eax,%eax
   12a2e:	8d 88 0d 02 20 00    	lea    0x20020d(%eax),%ecx
   12a34:	b8 d3 4d 62 10       	mov    $0x10624dd3,%eax
   12a39:	f7 e9                	imul   %ecx
   12a3b:	c1 fa 06             	sar    $0x6,%edx
   12a3e:	89 c8                	mov    %ecx,%eax
   12a40:	c1 f8 1f             	sar    $0x1f,%eax
   12a43:	29 c2                	sub    %eax,%edx
   12a45:	89 d0                	mov    %edx,%eax
   12a47:	89 45 fc             	mov    %eax,0xfffffffc(%ebp)
   12a4a:	8b 45 fc             	mov    0xfffffffc(%ebp),%eax
   12a4d:	05 be 00 01 00       	add    $0x100be,%eax
   12a52:	89 45 f8             	mov    %eax,0xfffffff8(%ebp)
   12a55:	e9 60 02 00 00       	jmp    12cba <_usb_calc_bus_time@16+0x312>
   12a5a:	8b 55 14             	mov    0x14(%ebp),%edx
   12a5d:	89 d0                	mov    %edx,%eax
   12a5f:	c1 e0 03             	shl    $0x3,%eax
   12a62:	29 d0                	sub    %edx,%eax
   12a64:	c1 e0 03             	shl    $0x3,%eax
   12a67:	89 45 ec             	mov    %eax,0xffffffec(%ebp)
   12a6a:	b8 ab aa aa 2a       	mov    $0x2aaaaaab,%eax
   12a6f:	f7 6d ec             	imull  0xffffffec(%ebp)
   12a72:	89 d1                	mov    %edx,%ecx
   12a74:	8b 45 ec             	mov    0xffffffec(%ebp),%eax
   12a77:	c1 f8 1f             	sar    $0x1f,%eax
   12a7a:	29 c1                	sub    %eax,%ecx
   12a7c:	89 c8                	mov    %ecx,%eax
   12a7e:	c1 e0 03             	shl    $0x3,%eax
   12a81:	01 c8                	add    %ecx,%eax
   12a83:	c1 e0 02             	shl    $0x2,%eax
   12a86:	01 c8                	add    %ecx,%eax
   12a88:	8d 14 c5 00 00 00 00 	lea    0x0(,%eax,8),%edx
   12a8f:	01 d0                	add    %edx,%eax
   12a91:	01 c0                	add    %eax,%eax
   12a93:	01 c8                	add    %ecx,%eax
   12a95:	8d 14 85 00 00 00 00 	lea    0x0(,%eax,4),%edx
   12a9c:	01 d0                	add    %edx,%eax
   12a9e:	8d 14 85 00 00 00 00 	lea    0x0(,%eax,4),%edx
   12aa5:	01 d0                	add    %edx,%eax
   12aa7:	8d 14 85 00 00 00 00 	lea    0x0(,%eax,4),%edx
   12aae:	01 d0                	add    %edx,%eax
   12ab0:	c1 e0 03             	shl    $0x3,%eax
   12ab3:	8d 88 f4 8c 1f 00    	lea    0x1f8cf4(%eax),%ecx
   12ab9:	b8 d3 4d 62 10       	mov    $0x10624dd3,%eax
   12abe:	f7 e9                	imul   %ecx
   12ac0:	c1 fa 06             	sar    $0x6,%edx
   12ac3:	89 c8                	mov    %ecx,%eax
   12ac5:	c1 f8 1f             	sar    $0x1f,%eax
   12ac8:	29 c2                	sub    %eax,%edx
   12aca:	89 d0                	mov    %edx,%eax
   12acc:	89 45 fc             	mov    %eax,0xfffffffc(%ebp)
   12acf:	8b 45 fc             	mov    0xfffffffc(%ebp),%eax
   12ad2:	05 ed 00 01 00       	add    $0x100ed,%eax
   12ad7:	89 45 f8             	mov    %eax,0xfffffff8(%ebp)
   12ada:	e9 db 01 00 00       	jmp    12cba <_usb_calc_bus_time@16+0x312>
   12adf:	83 7d 10 00          	cmpl   $0x0,0x10(%ebp)
   12ae3:	0f 84 8e 00 00 00    	je     12b77 <_usb_calc_bus_time@16+0x1cf>
   12ae9:	8b 55 14             	mov    0x14(%ebp),%edx
   12aec:	89 d0                	mov    %edx,%eax
   12aee:	c1 e0 03             	shl    $0x3,%eax
   12af1:	29 d0                	sub    %edx,%eax
   12af3:	c1 e0 03             	shl    $0x3,%eax
   12af6:	89 45 ec             	mov    %eax,0xffffffec(%ebp)
   12af9:	b8 ab aa aa 2a       	mov    $0x2aaaaaab,%eax
   12afe:	f7 6d ec             	imull  0xffffffec(%ebp)
   12b01:	89 d1                	mov    %edx,%ecx
   12b03:	8b 45 ec             	mov    0xffffffec(%ebp),%eax
   12b06:	c1 f8 1f             	sar    $0x1f,%eax
   12b09:	29 c1                	sub    %eax,%ecx
   12b0b:	89 c8                	mov    %ecx,%eax
   12b0d:	c1 e0 03             	shl    $0x3,%eax
   12b10:	01 c8                	add    %ecx,%eax
   12b12:	8d 14 c5 00 00 00 00 	lea    0x0(,%eax,8),%edx
   12b19:	01 d0                	add    %edx,%eax
   12b1b:	01 c0                	add    %eax,%eax
   12b1d:	01 c8                	add    %ecx,%eax
   12b1f:	c1 e0 03             	shl    $0x3,%eax
   12b22:	01 c8                	add    %ecx,%eax
   12b24:	c1 e0 02             	shl    $0x2,%eax
   12b27:	01 c8                	add    %ecx,%eax
   12b29:	c1 e0 02             	shl    $0x2,%eax
   12b2c:	01 c8                	add    %ecx,%eax
   12b2e:	c1 e0 02             	shl    $0x2,%eax
   12b31:	8d 88 9e f3 03 00    	lea    0x3f39e(%eax),%ecx
   12b37:	b8 d3 4d 62 10       	mov    $0x10624dd3,%eax
   12b3c:	f7 e9                	imul   %ecx
   12b3e:	c1 fa 06             	sar    $0x6,%edx
   12b41:	89 c8                	mov    %ecx,%eax
   12b43:	c1 f8 1f             	sar    $0x1f,%eax
   12b46:	29 c2                	sub    %eax,%edx
   12b48:	89 d0                	mov    %edx,%eax
   12b4a:	89 45 fc             	mov    %eax,0xfffffffc(%ebp)
   12b4d:	83 7d 0c 00          	cmpl   $0x0,0xc(%ebp)
   12b51:	74 0d                	je     12b60 <_usb_calc_bus_time@16+0x1b8>
   12b53:	8b 45 fc             	mov    0xfffffffc(%ebp),%eax
   12b56:	05 4c 20 00 00       	add    $0x204c,%eax
   12b5b:	89 45 f4             	mov    %eax,0xfffffff4(%ebp)
   12b5e:	eb 0c                	jmp    12b6c <_usb_calc_bus_time@16+0x1c4>
   12b60:	8b 55 fc             	mov    0xfffffffc(%ebp),%edx
   12b63:	81 c2 61 1c 00 00    	add    $0x1c61,%edx
   12b69:	89 55 f4             	mov    %edx,0xfffffff4(%ebp)
   12b6c:	8b 45 f4             	mov    0xfffffff4(%ebp),%eax
   12b6f:	89 45 f8             	mov    %eax,0xfffffff8(%ebp)
   12b72:	e9 43 01 00 00       	jmp    12cba <_usb_calc_bus_time@16+0x312>
   12b77:	8b 55 14             	mov    0x14(%ebp),%edx
   12b7a:	89 d0                	mov    %edx,%eax
   12b7c:	c1 e0 03             	shl    $0x3,%eax
   12b7f:	29 d0                	sub    %edx,%eax
   12b81:	c1 e0 03             	shl    $0x3,%eax
   12b84:	89 45 ec             	mov    %eax,0xffffffec(%ebp)
   12b87:	b8 ab aa aa 2a       	mov    $0x2aaaaaab,%eax
   12b8c:	f7 6d ec             	imull  0xffffffec(%ebp)
   12b8f:	89 d1                	mov    %edx,%ecx
   12b91:	8b 45 ec             	mov    0xffffffec(%ebp),%eax
   12b94:	c1 f8 1f             	sar    $0x1f,%eax
   12b97:	29 c1                	sub    %eax,%ecx
   12b99:	89 c8                	mov    %ecx,%eax
   12b9b:	c1 e0 03             	shl    $0x3,%eax
   12b9e:	01 c8                	add    %ecx,%eax
   12ba0:	8d 14 c5 00 00 00 00 	lea    0x0(,%eax,8),%edx
   12ba7:	01 d0                	add    %edx,%eax
   12ba9:	01 c0                	add    %eax,%eax
   12bab:	01 c8                	add    %ecx,%eax
   12bad:	c1 e0 03             	shl    $0x3,%eax
   12bb0:	01 c8                	add    %ecx,%eax
   12bb2:	c1 e0 02             	shl    $0x2,%eax
   12bb5:	01 c8                	add    %ecx,%eax
   12bb7:	c1 e0 02             	shl    $0x2,%eax
   12bba:	01 c8                	add    %ecx,%eax
   12bbc:	c1 e0 02             	shl    $0x2,%eax
   12bbf:	8d 88 9e f3 03 00    	lea    0x3f39e(%eax),%ecx
   12bc5:	b8 d3 4d 62 10       	mov    $0x10624dd3,%eax
   12bca:	f7 e9                	imul   %ecx
   12bcc:	c1 fa 06             	sar    $0x6,%edx
   12bcf:	89 c8                	mov    %ecx,%eax
   12bd1:	c1 f8 1f             	sar    $0x1f,%eax
   12bd4:	29 c2                	sub    %eax,%edx
   12bd6:	89 d0                	mov    %edx,%eax
   12bd8:	89 45 fc             	mov    %eax,0xfffffffc(%ebp)
   12bdb:	8b 45 fc             	mov    0xfffffffc(%ebp),%eax
   12bde:	05 7b 27 00 00       	add    $0x277b,%eax
   12be3:	89 45 f8             	mov    %eax,0xfffffff8(%ebp)
   12be6:	e9 cf 00 00 00       	jmp    12cba <_usb_calc_bus_time@16+0x312>
   12beb:	83 7d 10 00          	cmpl   $0x0,0x10(%ebp)
   12bef:	74 5e                	je     12c4f <_usb_calc_bus_time@16+0x2a7>
   12bf1:	8b 55 14             	mov    0x14(%ebp),%edx
   12bf4:	89 d0                	mov    %edx,%eax
   12bf6:	c1 e0 03             	shl    $0x3,%eax
   12bf9:	29 d0                	sub    %edx,%eax
   12bfb:	c1 e0 03             	shl    $0x3,%eax
   12bfe:	89 45 ec             	mov    %eax,0xffffffec(%ebp)
   12c01:	b8 ab aa aa 2a       	mov    $0x2aaaaaab,%eax
   12c06:	f7 6d ec             	imull  0xffffffec(%ebp)
   12c09:	89 d1                	mov    %edx,%ecx
   12c0b:	8b 45 ec             	mov    0xffffffec(%ebp),%eax
   12c0e:	c1 f8 1f             	sar    $0x1f,%eax
   12c11:	89 ca                	mov    %ecx,%edx
   12c13:	29 c2                	sub    %eax,%edx
   12c15:	89 d0                	mov    %edx,%eax
   12c17:	c1 e0 06             	shl    $0x6,%eax
   12c1a:	01 d0                	add    %edx,%eax
   12c1c:	c1 e0 03             	shl    $0x3,%eax
   12c1f:	01 d0                	add    %edx,%eax
   12c21:	c1 e0 02             	shl    $0x2,%eax
   12c24:	29 d0                	sub    %edx,%eax
   12c26:	8d 90 fd a8 64 00    	lea    0x64a8fd(%eax),%edx
   12c2c:	b8 d3 4d 62 10       	mov    $0x10624dd3,%eax
   12c31:	f7 e2                	mul    %edx
   12c33:	89 d0                	mov    %edx,%eax
   12c35:	c1 e8 06             	shr    $0x6,%eax
   12c38:	8d 90 8d 05 00 00    	lea    0x58d(%eax),%edx
   12c3e:	b8 d3 4d 62 10       	mov    $0x10624dd3,%eax
   12c43:	f7 e2                	mul    %edx
   12c45:	89 d0                	mov    %edx,%eax
   12c47:	c1 e8 06             	shr    $0x6,%eax
   12c4a:	89 45 fc             	mov    %eax,0xfffffffc(%ebp)
   12c4d:	eb 5c                	jmp    12cab <_usb_calc_bus_time@16+0x303>
   12c4f:	8b 55 14             	mov    0x14(%ebp),%edx
   12c52:	89 d0                	mov    %edx,%eax
   12c54:	c1 e0 03             	shl    $0x3,%eax
   12c57:	29 d0                	sub    %edx,%eax
   12c59:	c1 e0 03             	shl    $0x3,%eax
   12c5c:	89 45 ec             	mov    %eax,0xffffffec(%ebp)
   12c5f:	b8 ab aa aa 2a       	mov    $0x2aaaaaab,%eax
   12c64:	f7 6d ec             	imull  0xffffffec(%ebp)
   12c67:	89 d1                	mov    %edx,%ecx
   12c69:	8b 45 ec             	mov    0xffffffec(%ebp),%eax
   12c6c:	c1 f8 1f             	sar    $0x1f,%eax
   12c6f:	89 ca                	mov    %ecx,%edx
   12c71:	29 c2                	sub    %eax,%edx
   12c73:	89 d0                	mov    %edx,%eax
   12c75:	c1 e0 06             	shl    $0x6,%eax
   12c78:	01 d0                	add    %edx,%eax
   12c7a:	c1 e0 03             	shl    $0x3,%eax
   12c7d:	01 d0                	add    %edx,%eax
   12c7f:	c1 e0 02             	shl    $0x2,%eax
   12c82:	29 d0                	sub    %edx,%eax
   12c84:	8d 90 fd a8 64 00    	lea    0x64a8fd(%eax),%edx
   12c8a:	b8 d3 4d 62 10       	mov    $0x10624dd3,%eax
   12c8f:	f7 e2                	mul    %edx
   12c91:	89 d0                	mov    %edx,%eax
   12c93:	c1 e8 06             	shr    $0x6,%eax
   12c96:	8d 90 72 04 00 00    	lea    0x472(%eax),%edx
   12c9c:	b8 d3 4d 62 10       	mov    $0x10624dd3,%eax
   12ca1:	f7 e2                	mul    %edx
   12ca3:	89 d0                	mov    %edx,%eax
   12ca5:	c1 e8 06             	shr    $0x6,%eax
   12ca8:	89 45 fc             	mov    %eax,0xfffffffc(%ebp)
   12cab:	8b 45 fc             	mov    0xfffffffc(%ebp),%eax
   12cae:	89 45 f8             	mov    %eax,0xfffffff8(%ebp)
   12cb1:	eb 07                	jmp    12cba <_usb_calc_bus_time@16+0x312>
   12cb3:	c7 45 f8 ff ff ff ff 	movl   $0xffffffff,0xfffffff8(%ebp)
   12cba:	8b 45 f8             	mov    0xfffffff8(%ebp),%eax
   12cbd:	c9                   	leave  
   12cbe:	c2 10 00             	ret    $0x10

00012cc1 <_usb_check_bandwidth@8>:
   12cc1:	55                   	push   %ebp
   12cc2:	89 e5                	mov    %esp,%ebp
   12cc4:	83 ec 20             	sub    $0x20,%esp
   12cc7:	8b 45 0c             	mov    0xc(%ebp),%eax
   12cca:	8b 40 18             	mov    0x18(%eax),%eax
   12ccd:	89 45 fc             	mov    %eax,0xfffffffc(%ebp)
   12cd0:	8b 45 fc             	mov    0xfffffffc(%ebp),%eax
   12cd3:	25 80 00 00 00       	and    $0x80,%eax
   12cd8:	89 45 f4             	mov    %eax,0xfffffff4(%ebp)
   12cdb:	8b 45 fc             	mov    0xfffffffc(%ebp),%eax
   12cde:	c1 e8 1e             	shr    $0x1e,%eax
   12ce1:	83 e0 03             	and    $0x3,%eax
   12ce4:	85 c0                	test   %eax,%eax
   12ce6:	0f 94 c0             	sete   %al
   12ce9:	25 ff 00 00 00       	and    $0xff,%eax
   12cee:	89 45 f0             	mov    %eax,0xfffffff0(%ebp)
   12cf1:	8b 45 08             	mov    0x8(%ebp),%eax
   12cf4:	8b 80 bc 00 00 00    	mov    0xbc(%eax),%eax
   12cfa:	8b 40 34             	mov    0x34(%eax),%eax
   12cfd:	89 45 ec             	mov    %eax,0xffffffec(%ebp)
   12d00:	83 7d f4 00          	cmpl   $0x0,0xfffffff4(%ebp)
   12d04:	75 15                	jne    12d1b <_usb_check_bandwidth@8+0x5a>
   12d06:	8b 55 08             	mov    0x8(%ebp),%edx
   12d09:	8b 45 fc             	mov    0xfffffffc(%ebp),%eax
   12d0c:	c1 e8 0f             	shr    $0xf,%eax
   12d0f:	83 e0 0f             	and    $0xf,%eax
   12d12:	8b 44 82 78          	mov    0x78(%edx,%eax,4),%eax
   12d16:	89 45 e4             	mov    %eax,0xffffffe4(%ebp)
   12d19:	eb 13                	jmp    12d2e <_usb_check_bandwidth@8+0x6d>
   12d1b:	8b 55 08             	mov    0x8(%ebp),%edx
   12d1e:	8b 45 fc             	mov    0xfffffffc(%ebp),%eax
   12d21:	c1 e8 0f             	shr    $0xf,%eax
   12d24:	83 e0 0f             	and    $0xf,%eax
   12d27:	8b 44 82 38          	mov    0x38(%edx,%eax,4),%eax
   12d2b:	89 45 e4             	mov    %eax,0xffffffe4(%ebp)
   12d2e:	ff 75 e4             	pushl  0xffffffe4(%ebp)
   12d31:	ff 75 f0             	pushl  0xfffffff0(%ebp)
   12d34:	ff 75 f4             	pushl  0xfffffff4(%ebp)
   12d37:	8b 45 08             	mov    0x8(%ebp),%eax
   12d3a:	ff 70 18             	pushl  0x18(%eax)
   12d3d:	e8 66 fc ff ff       	call   129a8 <_usb_calc_bus_time@16>
   12d42:	8d 88 f4 01 00 00    	lea    0x1f4(%eax),%ecx
   12d48:	b8 d3 4d 62 10       	mov    $0x10624dd3,%eax
   12d4d:	f7 e9                	imul   %ecx
   12d4f:	c1 fa 06             	sar    $0x6,%edx
   12d52:	89 c8                	mov    %ecx,%eax
   12d54:	c1 f8 1f             	sar    $0x1f,%eax
   12d57:	29 c2                	sub    %eax,%edx
   12d59:	89 d0                	mov    %edx,%eax
   12d5b:	89 45 f8             	mov    %eax,0xfffffff8(%ebp)
   12d5e:	83 7d f0 00          	cmpl   $0x0,0xfffffff0(%ebp)
   12d62:	74 13                	je     12d77 <_usb_check_bandwidth@8+0xb6>
   12d64:	8b 45 0c             	mov    0xc(%ebp),%eax
   12d67:	89 45 e0             	mov    %eax,0xffffffe0(%ebp)
   12d6a:	8b 45 f8             	mov    0xfffffff8(%ebp),%eax
   12d6d:	8b 4d e0             	mov    0xffffffe0(%ebp),%ecx
   12d70:	99                   	cltd   
   12d71:	f7 79 44             	idivl  0x44(%ecx)
   12d74:	89 45 f8             	mov    %eax,0xfffffff8(%ebp)
   12d77:	8b 45 f8             	mov    0xfffffff8(%ebp),%eax
   12d7a:	03 45 ec             	add    0xffffffec(%ebp),%eax
   12d7d:	89 45 e8             	mov    %eax,0xffffffe8(%ebp)
   12d80:	8b 45 f8             	mov    0xfffffff8(%ebp),%eax
   12d83:	c9                   	leave  
   12d84:	c2 08 00             	ret    $0x8

00012d87 <_usb_claim_bandwidth@16>:
   12d87:	55                   	push   %ebp
   12d88:	89 e5                	mov    %esp,%ebp
   12d8a:	8b 45 08             	mov    0x8(%ebp),%eax
   12d8d:	8b 88 bc 00 00 00    	mov    0xbc(%eax),%ecx
   12d93:	8b 45 08             	mov    0x8(%ebp),%eax
   12d96:	8b 90 bc 00 00 00    	mov    0xbc(%eax),%edx
   12d9c:	8b 45 10             	mov    0x10(%ebp),%eax
   12d9f:	03 42 34             	add    0x34(%edx),%eax
   12da2:	89 41 34             	mov    %eax,0x34(%ecx)
   12da5:	83 7d 14 00          	cmpl   $0x0,0x14(%ebp)
   12da9:	74 0e                	je     12db9 <_usb_claim_bandwidth@16+0x32>
   12dab:	8b 45 08             	mov    0x8(%ebp),%eax
   12dae:	8b 80 bc 00 00 00    	mov    0xbc(%eax),%eax
   12db4:	ff 40 3c             	incl   0x3c(%eax)
   12db7:	eb 0c                	jmp    12dc5 <_usb_claim_bandwidth@16+0x3e>
   12db9:	8b 45 08             	mov    0x8(%ebp),%eax
   12dbc:	8b 80 bc 00 00 00    	mov    0xbc(%eax),%eax
   12dc2:	ff 40 38             	incl   0x38(%eax)
   12dc5:	8b 55 0c             	mov    0xc(%ebp),%edx
   12dc8:	8b 45 10             	mov    0x10(%ebp),%eax
   12dcb:	89 42 34             	mov    %eax,0x34(%edx)
   12dce:	5d                   	pop    %ebp
   12dcf:	c2 10 00             	ret    $0x10

00012dd2 <_usb_release_bandwidth@12>:
   12dd2:	55                   	push   %ebp
   12dd3:	89 e5                	mov    %esp,%ebp
   12dd5:	53                   	push   %ebx
   12dd6:	8b 45 08             	mov    0x8(%ebp),%eax
   12dd9:	8b 98 bc 00 00 00    	mov    0xbc(%eax),%ebx
   12ddf:	8b 45 08             	mov    0x8(%ebp),%eax
   12de2:	8b 88 bc 00 00 00    	mov    0xbc(%eax),%ecx
   12de8:	8b 45 0c             	mov    0xc(%ebp),%eax
   12deb:	8b 50 34             	mov    0x34(%eax),%edx
   12dee:	8b 41 34             	mov    0x34(%ecx),%eax
   12df1:	29 d0                	sub    %edx,%eax
   12df3:	89 43 34             	mov    %eax,0x34(%ebx)
   12df6:	83 7d 10 00          	cmpl   $0x0,0x10(%ebp)
   12dfa:	74 0e                	je     12e0a <_usb_release_bandwidth@12+0x38>
   12dfc:	8b 45 08             	mov    0x8(%ebp),%eax
   12dff:	8b 80 bc 00 00 00    	mov    0xbc(%eax),%eax
   12e05:	ff 48 3c             	decl   0x3c(%eax)
   12e08:	eb 0c                	jmp    12e16 <_usb_release_bandwidth@12+0x44>
   12e0a:	8b 45 08             	mov    0x8(%ebp),%eax
   12e0d:	8b 80 bc 00 00 00    	mov    0xbc(%eax),%eax
   12e13:	ff 48 38             	decl   0x38(%eax)
   12e16:	8b 45 0c             	mov    0xc(%ebp),%eax
   12e19:	c7 40 34 00 00 00 00 	movl   $0x0,0x34(%eax)
   12e20:	5b                   	pop    %ebx
   12e21:	5d                   	pop    %ebp
   12e22:	c2 0c 00             	ret    $0xc

00012e25 <_hcd_alloc_dev>:
   12e25:	55                   	push   %ebp
   12e26:	89 e5                	mov    %esp,%ebp
   12e28:	83 ec 18             	sub    $0x18,%esp
   12e2b:	83 7d 08 00          	cmpl   $0x0,0x8(%ebp)
   12e2f:	74 0e                	je     12e3f <_hcd_alloc_dev+0x1a>
   12e31:	8b 45 08             	mov    0x8(%ebp),%eax
   12e34:	83 b8 98 01 00 00 00 	cmpl   $0x0,0x198(%eax)
   12e3b:	75 02                	jne    12e3f <_hcd_alloc_dev+0x1a>
   12e3d:	eb 0c                	jmp    12e4b <_hcd_alloc_dev+0x26>
   12e3f:	c7 45 f0 ea ff ff ff 	movl   $0xffffffea,0xfffffff0(%ebp)
   12e46:	e9 e7 00 00 00       	jmp    12f32 <_hcd_alloc_dev+0x10d>
   12e4b:	8b 45 08             	mov    0x8(%ebp),%eax
   12e4e:	83 b8 bc 00 00 00 00 	cmpl   $0x0,0xbc(%eax)
   12e55:	74 0f                	je     12e66 <_hcd_alloc_dev+0x41>
   12e57:	8b 45 08             	mov    0x8(%ebp),%eax
   12e5a:	8b 80 bc 00 00 00    	mov    0xbc(%eax),%eax
   12e60:	83 78 30 00          	cmpl   $0x0,0x30(%eax)
   12e64:	75 0c                	jne    12e72 <_hcd_alloc_dev+0x4d>
   12e66:	c7 45 f0 ed ff ff ff 	movl   $0xffffffed,0xfffffff0(%ebp)
   12e6d:	e9 c0 00 00 00       	jmp    12f32 <_hcd_alloc_dev+0x10d>
   12e72:	8b 45 08             	mov    0x8(%ebp),%eax
   12e75:	8b 80 bc 00 00 00    	mov    0xbc(%eax),%eax
   12e7b:	8b 40 30             	mov    0x30(%eax),%eax
   12e7e:	89 45 f8             	mov    %eax,0xfffffff8(%ebp)
   12e81:	8b 45 f8             	mov    0xfffffff8(%ebp),%eax
   12e84:	81 b8 e0 00 00 00 85 	cmpl   $0x85,0xe0(%eax)
   12e8b:	00 00 00 
   12e8e:	75 0c                	jne    12e9c <_hcd_alloc_dev+0x77>
   12e90:	c7 45 f0 bd ff ff ff 	movl   $0xffffffbd,0xfffffff0(%ebp)
   12e97:	e9 96 00 00 00       	jmp    12f32 <_hcd_alloc_dev+0x10d>
   12e9c:	83 ec 08             	sub    $0x8,%esp
   12e9f:	68 90 00 00 00       	push   $0x90
   12ea4:	6a 01                	push   $0x1
   12ea6:	e8 85 6b 00 00       	call   19a30 <_ExAllocatePool@8>
   12eab:	83 c4 08             	add    $0x8,%esp
   12eae:	89 45 fc             	mov    %eax,0xfffffffc(%ebp)
   12eb1:	83 7d fc 00          	cmpl   $0x0,0xfffffffc(%ebp)
   12eb5:	75 09                	jne    12ec0 <_hcd_alloc_dev+0x9b>
   12eb7:	c7 45 f0 f4 ff ff ff 	movl   $0xfffffff4,0xfffffff0(%ebp)
   12ebe:	eb 72                	jmp    12f32 <_hcd_alloc_dev+0x10d>
   12ec0:	83 ec 04             	sub    $0x4,%esp
   12ec3:	68 90 00 00 00       	push   $0x90
   12ec8:	6a 00                	push   $0x0
   12eca:	ff 75 fc             	pushl  0xfffffffc(%ebp)
   12ecd:	e8 7e 6b 00 00       	call   19a50 <_memset>
   12ed2:	83 c4 10             	add    $0x10,%esp
   12ed5:	8b 55 fc             	mov    0xfffffffc(%ebp),%edx
   12ed8:	8b 45 fc             	mov    0xfffffffc(%ebp),%eax
   12edb:	89 02                	mov    %eax,(%edx)
   12edd:	8b 55 fc             	mov    0xfffffffc(%ebp),%edx
   12ee0:	8b 45 fc             	mov    0xfffffffc(%ebp),%eax
   12ee3:	89 42 04             	mov    %eax,0x4(%edx)
   12ee6:	8b 55 fc             	mov    0xfffffffc(%ebp),%edx
   12ee9:	83 c2 08             	add    $0x8,%edx
   12eec:	8b 45 fc             	mov    0xfffffffc(%ebp),%eax
   12eef:	83 c0 08             	add    $0x8,%eax
   12ef2:	89 02                	mov    %eax,(%edx)
   12ef4:	8b 55 fc             	mov    0xfffffffc(%ebp),%edx
   12ef7:	83 c2 08             	add    $0x8,%edx
   12efa:	8b 45 fc             	mov    0xfffffffc(%ebp),%eax
   12efd:	83 c0 08             	add    $0x8,%eax
   12f00:	89 42 04             	mov    %eax,0x4(%edx)
   12f03:	c7 45 f4 00 00 00 00 	movl   $0x0,0xfffffff4(%ebp)
   12f0a:	83 ec 08             	sub    $0x8,%esp
   12f0d:	8b 45 f8             	mov    0xfffffff8(%ebp),%eax
   12f10:	83 c0 68             	add    $0x68,%eax
   12f13:	50                   	push   %eax
   12f14:	ff 75 fc             	pushl  0xfffffffc(%ebp)
   12f17:	e8 34 f8 ff ff       	call   12750 <_list_add>
   12f1c:	83 c4 10             	add    $0x10,%esp
   12f1f:	8b 55 08             	mov    0x8(%ebp),%edx
   12f22:	8b 45 fc             	mov    0xfffffffc(%ebp),%eax
   12f25:	89 82 98 01 00 00    	mov    %eax,0x198(%edx)
   12f2b:	c7 45 f0 00 00 00 00 	movl   $0x0,0xfffffff0(%ebp)
   12f32:	8b 45 f0             	mov    0xfffffff0(%ebp),%eax
   12f35:	c9                   	leave  
   12f36:	c3                   	ret    

00012f37 <_urb_unlink>:
   12f37:	55                   	push   %ebp
   12f38:	89 e5                	mov    %esp,%ebp
   12f3a:	83 ec 08             	sub    $0x8,%esp
   12f3d:	8b 45 08             	mov    0x8(%ebp),%eax
   12f40:	83 78 34 00          	cmpl   $0x0,0x34(%eax)
   12f44:	74 25                	je     12f6b <_urb_unlink+0x34>
   12f46:	8b 45 08             	mov    0x8(%ebp),%eax
   12f49:	8b 40 18             	mov    0x18(%eax),%eax
   12f4c:	c1 e8 1e             	shr    $0x1e,%eax
   12f4f:	83 e0 03             	and    $0x3,%eax
   12f52:	85 c0                	test   %eax,%eax
   12f54:	0f 94 c0             	sete   %al
   12f57:	25 ff 00 00 00       	and    $0xff,%eax
   12f5c:	50                   	push   %eax
   12f5d:	ff 75 08             	pushl  0x8(%ebp)
   12f60:	8b 45 08             	mov    0x8(%ebp),%eax
   12f63:	ff 70 14             	pushl  0x14(%eax)
   12f66:	e8 67 fe ff ff       	call   12dd2 <_usb_release_bandwidth@12>
   12f6b:	c7 45 fc 00 00 00 00 	movl   $0x0,0xfffffffc(%ebp)
   12f72:	83 ec 0c             	sub    $0xc,%esp
   12f75:	8b 45 08             	mov    0x8(%ebp),%eax
   12f78:	83 c0 0c             	add    $0xc,%eax
   12f7b:	50                   	push   %eax
   12f7c:	e8 1c 00 00 00       	call   12f9d <_list_del_init>
   12f81:	83 c4 10             	add    $0x10,%esp
   12f84:	8b 45 08             	mov    0x8(%ebp),%eax
   12f87:	8b 40 14             	mov    0x14(%eax),%eax
   12f8a:	89 45 f8             	mov    %eax,0xfffffff8(%ebp)
   12f8d:	83 ec 0c             	sub    $0xc,%esp
   12f90:	ff 75 f8             	pushl  0xfffffff8(%ebp)
   12f93:	e8 23 34 00 00       	call   163bb <_usb_put_dev@4>
   12f98:	83 c4 0c             	add    $0xc,%esp
   12f9b:	c9                   	leave  
   12f9c:	c3                   	ret    

00012f9d <_list_del_init>:
   12f9d:	55                   	push   %ebp
   12f9e:	89 e5                	mov    %esp,%ebp
   12fa0:	8b 45 08             	mov    0x8(%ebp),%eax
   12fa3:	ff 30                	pushl  (%eax)
   12fa5:	8b 45 08             	mov    0x8(%ebp),%eax
   12fa8:	ff 70 04             	pushl  0x4(%eax)
   12fab:	e8 92 f9 ff ff       	call   12942 <___list_del>
   12fb0:	83 c4 08             	add    $0x8,%esp
   12fb3:	8b 55 08             	mov    0x8(%ebp),%edx
   12fb6:	8b 45 08             	mov    0x8(%ebp),%eax
   12fb9:	89 02                	mov    %eax,(%edx)
   12fbb:	8b 55 08             	mov    0x8(%ebp),%edx
   12fbe:	8b 45 08             	mov    0x8(%ebp),%eax
   12fc1:	89 42 04             	mov    %eax,0x4(%edx)
   12fc4:	c9                   	leave  
   12fc5:	c3                   	ret    

00012fc6 <_hcd_submit_urb>:
   12fc6:	55                   	push   %ebp
   12fc7:	89 e5                	mov    %esp,%ebp
   12fc9:	83 ec 18             	sub    $0x18,%esp
   12fcc:	8b 45 08             	mov    0x8(%ebp),%eax
   12fcf:	8b 40 14             	mov    0x14(%eax),%eax
   12fd2:	8b 80 bc 00 00 00    	mov    0xbc(%eax),%eax
   12fd8:	8b 40 30             	mov    0x30(%eax),%eax
   12fdb:	89 45 f8             	mov    %eax,0xfffffff8(%ebp)
   12fde:	8b 45 08             	mov    0x8(%ebp),%eax
   12fe1:	8b 40 14             	mov    0x14(%eax),%eax
   12fe4:	8b 80 98 01 00 00    	mov    0x198(%eax),%eax
   12fea:	89 45 f4             	mov    %eax,0xfffffff4(%ebp)
   12fed:	83 7d f8 00          	cmpl   $0x0,0xfffffff8(%ebp)
   12ff1:	74 06                	je     12ff9 <_hcd_submit_urb+0x33>
   12ff3:	83 7d f4 00          	cmpl   $0x0,0xfffffff4(%ebp)
   12ff7:	75 0c                	jne    13005 <_hcd_submit_urb+0x3f>
   12ff9:	c7 45 ec ed ff ff ff 	movl   $0xffffffed,0xffffffec(%ebp)
   13000:	e9 77 01 00 00       	jmp    1317c <_hcd_submit_urb+0x1b6>
   13005:	c7 45 f0 00 00 00 00 	movl   $0x0,0xfffffff0(%ebp)
   1300c:	8b 45 f8             	mov    0xfffffff8(%ebp),%eax
   1300f:	8b 80 e0 00 00 00    	mov    0xe0(%eax),%eax
   13015:	83 e0 01             	and    $0x1,%eax
   13018:	85 c0                	test   %eax,%eax
   1301a:	74 42                	je     1305e <_hcd_submit_urb+0x98>
   1301c:	8b 45 f8             	mov    0xfffffff8(%ebp),%eax
   1301f:	81 b8 e0 00 00 00 85 	cmpl   $0x85,0xe0(%eax)
   13026:	00 00 00 
   13029:	74 33                	je     1305e <_hcd_submit_urb+0x98>
   1302b:	83 ec 0c             	sub    $0xc,%esp
   1302e:	8b 45 08             	mov    0x8(%ebp),%eax
   13031:	ff 70 14             	pushl  0x14(%eax)
   13034:	e8 31 33 00 00       	call   1636a <_usb_get_dev>
   13039:	83 c4 10             	add    $0x10,%esp
   1303c:	83 ec 08             	sub    $0x8,%esp
   1303f:	8b 45 f4             	mov    0xfffffff4(%ebp),%eax
   13042:	83 c0 08             	add    $0x8,%eax
   13045:	50                   	push   %eax
   13046:	8b 45 08             	mov    0x8(%ebp),%eax
   13049:	83 c0 0c             	add    $0xc,%eax
   1304c:	50                   	push   %eax
   1304d:	e8 2f 01 00 00       	call   13181 <_list_add_tail>
   13052:	83 c4 10             	add    $0x10,%esp
   13055:	c7 45 fc 00 00 00 00 	movl   $0x0,0xfffffffc(%ebp)
   1305c:	eb 24                	jmp    13082 <_hcd_submit_urb+0xbc>
   1305e:	8b 55 08             	mov    0x8(%ebp),%edx
   13061:	83 c2 0c             	add    $0xc,%edx
   13064:	8b 45 08             	mov    0x8(%ebp),%eax
   13067:	83 c0 0c             	add    $0xc,%eax
   1306a:	89 02                	mov    %eax,(%edx)
   1306c:	8b 55 08             	mov    0x8(%ebp),%edx
   1306f:	83 c2 0c             	add    $0xc,%edx
   13072:	8b 45 08             	mov    0x8(%ebp),%eax
   13075:	83 c0 0c             	add    $0xc,%eax
   13078:	89 42 04             	mov    %eax,0x4(%edx)
   1307b:	c7 45 fc 94 ff ff ff 	movl   $0xffffff94,0xfffffffc(%ebp)
   13082:	83 7d fc 00          	cmpl   $0x0,0xfffffffc(%ebp)
   13086:	74 0b                	je     13093 <_hcd_submit_urb+0xcd>
   13088:	8b 45 fc             	mov    0xfffffffc(%ebp),%eax
   1308b:	89 45 ec             	mov    %eax,0xffffffec(%ebp)
   1308e:	e9 e9 00 00 00       	jmp    1317c <_hcd_submit_urb+0x1b6>
   13093:	83 ec 0c             	sub    $0xc,%esp
   13096:	ff 75 08             	pushl  0x8(%ebp)
   13099:	e8 d2 50 00 00       	call   18170 <_usb_get_urb@4>
   1309e:	83 c4 0c             	add    $0xc,%esp
   130a1:	89 45 08             	mov    %eax,0x8(%ebp)
   130a4:	8b 45 08             	mov    0x8(%ebp),%eax
   130a7:	8b 55 f8             	mov    0xfffffff8(%ebp),%edx
   130aa:	8b 40 14             	mov    0x14(%eax),%eax
   130ad:	3b 42 24             	cmp    0x24(%edx),%eax
   130b0:	75 25                	jne    130d7 <_hcd_submit_urb+0x111>
   130b2:	8b 55 08             	mov    0x8(%ebp),%edx
   130b5:	8b 45 08             	mov    0x8(%ebp),%eax
   130b8:	8b 40 20             	mov    0x20(%eax),%eax
   130bb:	83 c8 04             	or     $0x4,%eax
   130be:	89 42 20             	mov    %eax,0x20(%edx)
   130c1:	83 ec 08             	sub    $0x8,%esp
   130c4:	ff 75 08             	pushl  0x8(%ebp)
   130c7:	ff 75 f8             	pushl  0xfffffff8(%ebp)
   130ca:	e8 de f3 ff ff       	call   124ad <_rh_urb_enqueue>
   130cf:	83 c4 10             	add    $0x10,%esp
   130d2:	89 45 fc             	mov    %eax,0xfffffffc(%ebp)
   130d5:	eb 7d                	jmp    13154 <_hcd_submit_urb+0x18e>
   130d7:	8b 45 08             	mov    0x8(%ebp),%eax
   130da:	8b 40 20             	mov    0x20(%eax),%eax
   130dd:	c1 e8 02             	shr    $0x2,%eax
   130e0:	83 e0 01             	and    $0x1,%eax
   130e3:	85 c0                	test   %eax,%eax
   130e5:	75 50                	jne    13137 <_hcd_submit_urb+0x171>
   130e7:	8b 45 f8             	mov    0xfffffff8(%ebp),%eax
   130ea:	8b 80 80 00 00 00    	mov    0x80(%eax),%eax
   130f0:	83 b8 84 00 00 00 00 	cmpl   $0x0,0x84(%eax)
   130f7:	74 3e                	je     13137 <_hcd_submit_urb+0x171>
   130f9:	8b 45 08             	mov    0x8(%ebp),%eax
   130fc:	8b 40 18             	mov    0x18(%eax),%eax
   130ff:	c1 e8 1e             	shr    $0x1e,%eax
   13102:	83 e0 03             	and    $0x3,%eax
   13105:	83 f8 02             	cmp    $0x2,%eax
   13108:	75 12                	jne    1311c <_hcd_submit_urb+0x156>
   1310a:	8b 45 08             	mov    0x8(%ebp),%eax
   1310d:	8b 55 08             	mov    0x8(%ebp),%edx
   13110:	8b 52 38             	mov    0x38(%edx),%edx
   13113:	81 e2 ff ff ff 0f    	and    $0xfffffff,%edx
   13119:	89 50 3c             	mov    %edx,0x3c(%eax)
   1311c:	8b 45 08             	mov    0x8(%ebp),%eax
   1311f:	83 78 2c 00          	cmpl   $0x0,0x2c(%eax)
   13123:	74 12                	je     13137 <_hcd_submit_urb+0x171>
   13125:	8b 45 08             	mov    0x8(%ebp),%eax
   13128:	8b 55 08             	mov    0x8(%ebp),%edx
   1312b:	8b 52 24             	mov    0x24(%edx),%edx
   1312e:	81 e2 ff ff ff 0f    	and    $0xfffffff,%edx
   13134:	89 50 28             	mov    %edx,0x28(%eax)
   13137:	83 ec 04             	sub    $0x4,%esp
   1313a:	8b 45 f8             	mov    0xfffffff8(%ebp),%eax
   1313d:	8b 40 74             	mov    0x74(%eax),%eax
   13140:	ff 75 0c             	pushl  0xc(%ebp)
   13143:	ff 75 08             	pushl  0x8(%ebp)
   13146:	ff 75 f8             	pushl  0xfffffff8(%ebp)
   13149:	8b 40 28             	mov    0x28(%eax),%eax
   1314c:	ff d0                	call   *%eax
   1314e:	83 c4 10             	add    $0x10,%esp
   13151:	89 45 fc             	mov    %eax,0xfffffffc(%ebp)
   13154:	83 7d fc 00          	cmpl   $0x0,0xfffffffc(%ebp)
   13158:	74 1c                	je     13176 <_hcd_submit_urb+0x1b0>
   1315a:	83 ec 0c             	sub    $0xc,%esp
   1315d:	ff 75 08             	pushl  0x8(%ebp)
   13160:	e8 d1 4f 00 00       	call   18136 <_usb_free_urb@4>
   13165:	83 c4 0c             	add    $0xc,%esp
   13168:	83 ec 0c             	sub    $0xc,%esp
   1316b:	ff 75 08             	pushl  0x8(%ebp)
   1316e:	e8 c4 fd ff ff       	call   12f37 <_urb_unlink>
   13173:	83 c4 10             	add    $0x10,%esp
   13176:	8b 45 fc             	mov    0xfffffffc(%ebp),%eax
   13179:	89 45 ec             	mov    %eax,0xffffffec(%ebp)
   1317c:	8b 45 ec             	mov    0xffffffec(%ebp),%eax
   1317f:	c9                   	leave  
   13180:	c3                   	ret    

00013181 <_list_add_tail>:
   13181:	55                   	push   %ebp
   13182:	89 e5                	mov    %esp,%ebp
   13184:	ff 75 0c             	pushl  0xc(%ebp)
   13187:	8b 45 0c             	mov    0xc(%ebp),%eax
   1318a:	ff 70 04             	pushl  0x4(%eax)
   1318d:	ff 75 08             	pushl  0x8(%ebp)
   13190:	e8 d9 f5 ff ff       	call   1276e <___list_add>
   13195:	83 c4 0c             	add    $0xc,%esp
   13198:	c9                   	leave  
   13199:	c3                   	ret    

0001319a <_hcd_get_frame_number>:
   1319a:	55                   	push   %ebp
   1319b:	89 e5                	mov    %esp,%ebp
   1319d:	83 ec 08             	sub    $0x8,%esp
   131a0:	8b 45 08             	mov    0x8(%ebp),%eax
   131a3:	8b 80 bc 00 00 00    	mov    0xbc(%eax),%eax
   131a9:	8b 40 30             	mov    0x30(%eax),%eax
   131ac:	89 45 fc             	mov    %eax,0xfffffffc(%ebp)
   131af:	83 ec 0c             	sub    $0xc,%esp
   131b2:	8b 45 fc             	mov    0xfffffffc(%ebp),%eax
   131b5:	8b 40 74             	mov    0x74(%eax),%eax
   131b8:	ff 75 fc             	pushl  0xfffffffc(%ebp)
   131bb:	8b 40 1c             	mov    0x1c(%eax),%eax
   131be:	ff d0                	call   *%eax
   131c0:	83 c4 10             	add    $0x10,%esp
   131c3:	c9                   	leave  
   131c4:	c3                   	ret    

000131c5 <_unlink1>:
   131c5:	55                   	push   %ebp
   131c6:	89 e5                	mov    %esp,%ebp
   131c8:	83 ec 08             	sub    $0x8,%esp
   131cb:	8b 45 08             	mov    0x8(%ebp),%eax
   131ce:	8b 40 58             	mov    0x58(%eax),%eax
   131d1:	3b 45 0c             	cmp    0xc(%ebp),%eax
   131d4:	75 13                	jne    131e9 <_unlink1+0x24>
   131d6:	83 ec 08             	sub    $0x8,%esp
   131d9:	ff 75 0c             	pushl  0xc(%ebp)
   131dc:	ff 75 08             	pushl  0x8(%ebp)
   131df:	e8 36 f3 ff ff       	call   1251a <_usb_rh_status_dequeue>
   131e4:	83 c4 10             	add    $0x10,%esp
   131e7:	eb 1a                	jmp    13203 <_unlink1+0x3e>
   131e9:	83 ec 08             	sub    $0x8,%esp
   131ec:	8b 45 08             	mov    0x8(%ebp),%eax
   131ef:	8b 40 74             	mov    0x74(%eax),%eax
   131f2:	ff 75 0c             	pushl  0xc(%ebp)
   131f5:	ff 75 08             	pushl  0x8(%ebp)
   131f8:	8b 40 2c             	mov    0x2c(%eax),%eax
   131fb:	ff d0                	call   *%eax
   131fd:	83 c4 10             	add    $0x10,%esp
   13200:	89 45 fc             	mov    %eax,0xfffffffc(%ebp)
   13203:	c9                   	leave  
   13204:	c3                   	ret    

00013205 <_unlink_complete>:
   13205:	55                   	push   %ebp
   13206:	89 e5                	mov    %esp,%ebp
   13208:	83 ec 08             	sub    $0x8,%esp
   1320b:	8b 45 08             	mov    0x8(%ebp),%eax
   1320e:	8b 40 54             	mov    0x54(%eax),%eax
   13211:	89 45 fc             	mov    %eax,0xfffffffc(%ebp)
   13214:	8b 55 08             	mov    0x8(%ebp),%edx
   13217:	8b 45 fc             	mov    0xfffffffc(%ebp),%eax
   1321a:	8b 40 08             	mov    0x8(%eax),%eax
   1321d:	89 42 58             	mov    %eax,0x58(%edx)
   13220:	8b 55 08             	mov    0x8(%ebp),%edx
   13223:	8b 45 fc             	mov    0xfffffffc(%ebp),%eax
   13226:	8b 40 0c             	mov    0xc(%eax),%eax
   13229:	89 42 54             	mov    %eax,0x54(%edx)
   1322c:	83 ec 08             	sub    $0x8,%esp
   1322f:	8b 45 08             	mov    0x8(%ebp),%eax
   13232:	ff 75 0c             	pushl  0xc(%ebp)
   13235:	ff 75 08             	pushl  0x8(%ebp)
   13238:	8b 40 58             	mov    0x58(%eax),%eax
   1323b:	ff d0                	call   *%eax
   1323d:	83 c4 10             	add    $0x10,%esp
   13240:	83 ec 0c             	sub    $0xc,%esp
   13243:	ff 75 fc             	pushl  0xfffffffc(%ebp)
   13246:	e8 05 00 00 00       	call   13250 <_complete>
   1324b:	83 c4 10             	add    $0x10,%esp
   1324e:	c9                   	leave  
   1324f:	c3                   	ret    

00013250 <_complete>:
   13250:	55                   	push   %ebp
   13251:	89 e5                	mov    %esp,%ebp
   13253:	83 ec 08             	sub    $0x8,%esp
   13256:	8b 45 08             	mov    0x8(%ebp),%eax
   13259:	ff 00                	incl   (%eax)
   1325b:	83 ec 0c             	sub    $0xc,%esp
   1325e:	8b 45 08             	mov    0x8(%ebp),%eax
   13261:	83 c0 04             	add    $0x4,%eax
   13264:	50                   	push   %eax
   13265:	e8 fb 65 00 00       	call   19865 <_my_wake_up>
   1326a:	83 c4 10             	add    $0x10,%esp
   1326d:	c9                   	leave  
   1326e:	c3                   	ret    

0001326f <_hcd_unlink_urb>:
   1326f:	55                   	push   %ebp
   13270:	89 e5                	mov    %esp,%ebp
   13272:	83 ec 38             	sub    $0x38,%esp
   13275:	c7 45 f0 00 00 00 00 	movl   $0x0,0xfffffff0(%ebp)
   1327c:	c7 45 ec 00 00 00 00 	movl   $0x0,0xffffffec(%ebp)
   13283:	83 7d 08 00          	cmpl   $0x0,0x8(%ebp)
   13287:	75 0c                	jne    13295 <_hcd_unlink_urb+0x26>
   13289:	c7 45 d0 ea ff ff ff 	movl   $0xffffffea,0xffffffd0(%ebp)
   13290:	e9 ab 01 00 00       	jmp    13440 <_hcd_unlink_urb+0x1d1>
   13295:	c7 45 e8 00 00 00 00 	movl   $0x0,0xffffffe8(%ebp)
   1329c:	c7 05 00 c0 01 00 01 	movl   $0x1,0x1c000
   132a3:	00 00 00 
   132a6:	8b 45 08             	mov    0x8(%ebp),%eax
   132a9:	83 78 14 00          	cmpl   $0x0,0x14(%eax)
   132ad:	74 0f                	je     132be <_hcd_unlink_urb+0x4f>
   132af:	8b 45 08             	mov    0x8(%ebp),%eax
   132b2:	8b 40 14             	mov    0x14(%eax),%eax
   132b5:	83 b8 bc 00 00 00 00 	cmpl   $0x0,0xbc(%eax)
   132bc:	75 0c                	jne    132ca <_hcd_unlink_urb+0x5b>
   132be:	c7 45 d4 ed ff ff ff 	movl   $0xffffffed,0xffffffd4(%ebp)
   132c5:	e9 64 01 00 00       	jmp    1342e <_hcd_unlink_urb+0x1bf>
   132ca:	8b 45 08             	mov    0x8(%ebp),%eax
   132cd:	8b 40 14             	mov    0x14(%eax),%eax
   132d0:	8b 80 98 01 00 00    	mov    0x198(%eax),%eax
   132d6:	89 45 f4             	mov    %eax,0xfffffff4(%ebp)
   132d9:	8b 45 08             	mov    0x8(%ebp),%eax
   132dc:	8b 40 14             	mov    0x14(%eax),%eax
   132df:	05 c0 00 00 00       	add    $0xc0,%eax
   132e4:	89 45 ec             	mov    %eax,0xffffffec(%ebp)
   132e7:	8b 45 08             	mov    0x8(%ebp),%eax
   132ea:	8b 40 14             	mov    0x14(%eax),%eax
   132ed:	8b 80 bc 00 00 00    	mov    0xbc(%eax),%eax
   132f3:	8b 40 30             	mov    0x30(%eax),%eax
   132f6:	89 45 f0             	mov    %eax,0xfffffff0(%ebp)
   132f9:	83 7d f4 00          	cmpl   $0x0,0xfffffff4(%ebp)
   132fd:	74 06                	je     13305 <_hcd_unlink_urb+0x96>
   132ff:	83 7d f0 00          	cmpl   $0x0,0xfffffff0(%ebp)
   13303:	75 0c                	jne    13311 <_hcd_unlink_urb+0xa2>
   13305:	c7 45 d4 ed ff ff ff 	movl   $0xffffffed,0xffffffd4(%ebp)
   1330c:	e9 1d 01 00 00       	jmp    1342e <_hcd_unlink_urb+0x1bf>
   13311:	8b 45 08             	mov    0x8(%ebp),%eax
   13314:	83 78 08 00          	cmpl   $0x0,0x8(%eax)
   13318:	75 0c                	jne    13326 <_hcd_unlink_urb+0xb7>
   1331a:	c7 45 d4 ea ff ff ff 	movl   $0xffffffea,0xffffffd4(%ebp)
   13321:	e9 08 01 00 00       	jmp    1342e <_hcd_unlink_urb+0x1bf>
   13326:	8b 45 08             	mov    0x8(%ebp),%eax
   13329:	83 78 1c 8d          	cmpl   $0xffffff8d,0x1c(%eax)
   1332d:	74 0c                	je     1333b <_hcd_unlink_urb+0xcc>
   1332f:	c7 45 d4 f0 ff ff ff 	movl   $0xfffffff0,0xffffffd4(%ebp)
   13336:	e9 f3 00 00 00       	jmp    1342e <_hcd_unlink_urb+0x1bf>
   1333b:	8b 45 08             	mov    0x8(%ebp),%eax
   1333e:	8b 40 20             	mov    0x20(%eax),%eax
   13341:	c1 e8 03             	shr    $0x3,%eax
   13344:	83 e0 01             	and    $0x1,%eax
   13347:	85 c0                	test   %eax,%eax
   13349:	75 38                	jne    13383 <_hcd_unlink_urb+0x114>
   1334b:	c7 45 d8 00 00 00 00 	movl   $0x0,0xffffffd8(%ebp)
   13352:	8b 45 08             	mov    0x8(%ebp),%eax
   13355:	8b 40 58             	mov    0x58(%eax),%eax
   13358:	89 45 e0             	mov    %eax,0xffffffe0(%ebp)
   1335b:	8b 45 08             	mov    0x8(%ebp),%eax
   1335e:	8b 40 54             	mov    0x54(%eax),%eax
   13361:	89 45 e4             	mov    %eax,0xffffffe4(%ebp)
   13364:	8b 45 08             	mov    0x8(%ebp),%eax
   13367:	c7 40 58 05 32 01 00 	movl   $0x13205,0x58(%eax)
   1336e:	8b 55 08             	mov    0x8(%ebp),%edx
   13371:	8d 45 d8             	lea    0xffffffd8(%ebp),%eax
   13374:	89 42 54             	mov    %eax,0x54(%edx)
   13377:	8b 45 08             	mov    0x8(%ebp),%eax
   1337a:	c7 40 1c fe ff ff ff 	movl   $0xfffffffe,0x1c(%eax)
   13381:	eb 0a                	jmp    1338d <_hcd_unlink_urb+0x11e>
   13383:	8b 45 08             	mov    0x8(%ebp),%eax
   13386:	c7 40 1c 98 ff ff ff 	movl   $0xffffff98,0x1c(%eax)
   1338d:	8b 45 f0             	mov    0xfffffff0(%ebp),%eax
   13390:	8b 40 58             	mov    0x58(%eax),%eax
   13393:	3b 45 08             	cmp    0x8(%ebp),%eax
   13396:	75 1a                	jne    133b2 <_hcd_unlink_urb+0x143>
   13398:	83 ec 08             	sub    $0x8,%esp
   1339b:	ff 75 08             	pushl  0x8(%ebp)
   1339e:	ff 75 f0             	pushl  0xfffffff0(%ebp)
   133a1:	e8 74 f1 ff ff       	call   1251a <_usb_rh_status_dequeue>
   133a6:	83 c4 10             	add    $0x10,%esp
   133a9:	c7 45 d4 00 00 00 00 	movl   $0x0,0xffffffd4(%ebp)
   133b0:	eb 4b                	jmp    133fd <_hcd_unlink_urb+0x18e>
   133b2:	83 ec 08             	sub    $0x8,%esp
   133b5:	8b 45 f0             	mov    0xfffffff0(%ebp),%eax
   133b8:	8b 40 74             	mov    0x74(%eax),%eax
   133bb:	ff 75 08             	pushl  0x8(%ebp)
   133be:	ff 75 f0             	pushl  0xfffffff0(%ebp)
   133c1:	8b 40 2c             	mov    0x2c(%eax),%eax
   133c4:	ff d0                	call   *%eax
   133c6:	83 c4 10             	add    $0x10,%esp
   133c9:	89 45 d4             	mov    %eax,0xffffffd4(%ebp)
   133cc:	83 7d d4 00          	cmpl   $0x0,0xffffffd4(%ebp)
   133d0:	74 2b                	je     133fd <_hcd_unlink_urb+0x18e>
   133d2:	8b 45 08             	mov    0x8(%ebp),%eax
   133d5:	8b 40 20             	mov    0x20(%eax),%eax
   133d8:	c1 e8 03             	shr    $0x3,%eax
   133db:	83 e0 01             	and    $0x1,%eax
   133de:	85 c0                	test   %eax,%eax
   133e0:	75 4c                	jne    1342e <_hcd_unlink_urb+0x1bf>
   133e2:	c7 45 e8 00 00 00 00 	movl   $0x0,0xffffffe8(%ebp)
   133e9:	8b 55 08             	mov    0x8(%ebp),%edx
   133ec:	8b 45 e0             	mov    0xffffffe0(%ebp),%eax
   133ef:	89 42 58             	mov    %eax,0x58(%edx)
   133f2:	8b 55 08             	mov    0x8(%ebp),%edx
   133f5:	8b 45 e4             	mov    0xffffffe4(%ebp),%eax
   133f8:	89 42 54             	mov    %eax,0x54(%edx)
   133fb:	eb 31                	jmp    1342e <_hcd_unlink_urb+0x1bf>
   133fd:	8b 45 08             	mov    0x8(%ebp),%eax
   13400:	8b 40 20             	mov    0x20(%eax),%eax
   13403:	c1 e8 03             	shr    $0x3,%eax
   13406:	83 e0 01             	and    $0x1,%eax
   13409:	85 c0                	test   %eax,%eax
   1340b:	74 09                	je     13416 <_hcd_unlink_urb+0x1a7>
   1340d:	c7 45 d0 8d ff ff ff 	movl   $0xffffff8d,0xffffffd0(%ebp)
   13414:	eb 2a                	jmp    13440 <_hcd_unlink_urb+0x1d1>
   13416:	83 ec 0c             	sub    $0xc,%esp
   13419:	8d 45 d8             	lea    0xffffffd8(%ebp),%eax
   1341c:	50                   	push   %eax
   1341d:	e8 b6 64 00 00       	call   198d8 <_my_wait_for_completion>
   13422:	83 c4 10             	add    $0x10,%esp
   13425:	c7 45 d0 00 00 00 00 	movl   $0x0,0xffffffd0(%ebp)
   1342c:	eb 12                	jmp    13440 <_hcd_unlink_urb+0x1d1>
   1342e:	83 7d d4 00          	cmpl   $0x0,0xffffffd4(%ebp)
   13432:	74 06                	je     1343a <_hcd_unlink_urb+0x1cb>
   13434:	83 7d ec 00          	cmpl   $0x0,0xffffffec(%ebp)
   13438:	74 00                	je     1343a <_hcd_unlink_urb+0x1cb>
   1343a:	8b 45 d4             	mov    0xffffffd4(%ebp),%eax
   1343d:	89 45 d0             	mov    %eax,0xffffffd0(%ebp)
   13440:	8b 45 d0             	mov    0xffffffd0(%ebp),%eax
   13443:	c9                   	leave  
   13444:	c3                   	ret    

00013445 <_hcd_endpoint_disable>:
   13445:	55                   	push   %ebp
   13446:	89 e5                	mov    %esp,%ebp
   13448:	53                   	push   %ebx
   13449:	83 ec 24             	sub    $0x24,%esp
   1344c:	8b 45 0c             	mov    0xc(%ebp),%eax
   1344f:	83 e0 0f             	and    $0xf,%eax
   13452:	89 45 e8             	mov    %eax,0xffffffe8(%ebp)
   13455:	8b 45 08             	mov    0x8(%ebp),%eax
   13458:	8b 80 98 01 00 00    	mov    0x198(%eax),%eax
   1345e:	89 45 f4             	mov    %eax,0xfffffff4(%ebp)
   13461:	8b 45 08             	mov    0x8(%ebp),%eax
   13464:	8b 80 bc 00 00 00    	mov    0xbc(%eax),%eax
   1346a:	8b 40 30             	mov    0x30(%eax),%eax
   1346d:	89 45 f0             	mov    %eax,0xfffffff0(%ebp)
   13470:	8b 45 0c             	mov    0xc(%ebp),%eax
   13473:	c1 e8 07             	shr    $0x7,%eax
   13476:	83 e0 01             	and    $0x1,%eax
   13479:	85 c0                	test   %eax,%eax
   1347b:	74 26                	je     134a3 <_hcd_endpoint_disable+0x5e>
   1347d:	8b 5d 08             	mov    0x8(%ebp),%ebx
   13480:	8b 55 08             	mov    0x8(%ebp),%edx
   13483:	8b 4d e8             	mov    0xffffffe8(%ebp),%ecx
   13486:	b8 01 00 00 00       	mov    $0x1,%eax
   1348b:	d3 e0                	shl    %cl,%eax
   1348d:	0b 42 30             	or     0x30(%edx),%eax
   13490:	89 43 30             	mov    %eax,0x30(%ebx)
   13493:	8b 55 08             	mov    0x8(%ebp),%edx
   13496:	8b 45 e8             	mov    0xffffffe8(%ebp),%eax
   13499:	c7 44 82 38 00 00 00 	movl   $0x0,0x38(%edx,%eax,4)
   134a0:	00 
   134a1:	eb 24                	jmp    134c7 <_hcd_endpoint_disable+0x82>
   134a3:	8b 5d 08             	mov    0x8(%ebp),%ebx
   134a6:	8b 55 08             	mov    0x8(%ebp),%edx
   134a9:	8b 4d e8             	mov    0xffffffe8(%ebp),%ecx
   134ac:	b8 01 00 00 00       	mov    $0x1,%eax
   134b1:	d3 e0                	shl    %cl,%eax
   134b3:	0b 42 34             	or     0x34(%edx),%eax
   134b6:	89 43 34             	mov    %eax,0x34(%ebx)
   134b9:	8b 55 08             	mov    0x8(%ebp),%edx
   134bc:	8b 45 e8             	mov    0xffffffe8(%ebp),%eax
   134bf:	c7 44 82 78 00 00 00 	movl   $0x0,0x78(%edx,%eax,4)
   134c6:	00 
   134c7:	c7 45 f8 00 00 00 00 	movl   $0x0,0xfffffff8(%ebp)
   134ce:	8b 45 f4             	mov    0xfffffff4(%ebp),%eax
   134d1:	83 c0 08             	add    $0x8,%eax
   134d4:	8b 00                	mov    (%eax),%eax
   134d6:	83 e8 0c             	sub    $0xc,%eax
   134d9:	89 45 ec             	mov    %eax,0xffffffec(%ebp)
   134dc:	8b 55 ec             	mov    0xffffffec(%ebp),%edx
   134df:	83 c2 0c             	add    $0xc,%edx
   134e2:	8b 45 f4             	mov    0xfffffff4(%ebp),%eax
   134e5:	83 c0 08             	add    $0x8,%eax
   134e8:	39 c2                	cmp    %eax,%edx
   134ea:	0f 84 a8 00 00 00    	je     13598 <_hcd_endpoint_disable+0x153>
   134f0:	8b 45 ec             	mov    0xffffffec(%ebp),%eax
   134f3:	8b 40 18             	mov    0x18(%eax),%eax
   134f6:	89 45 e4             	mov    %eax,0xffffffe4(%ebp)
   134f9:	8b 45 e4             	mov    0xffffffe4(%ebp),%eax
   134fc:	c1 f8 0f             	sar    $0xf,%eax
   134ff:	83 e0 0f             	and    $0xf,%eax
   13502:	3b 45 e8             	cmp    0xffffffe8(%ebp),%eax
   13505:	74 02                	je     13509 <_hcd_endpoint_disable+0xc4>
   13507:	eb 7e                	jmp    13587 <_hcd_endpoint_disable+0x142>
   13509:	8b 45 0c             	mov    0xc(%ebp),%eax
   1350c:	33 45 e4             	xor    0xffffffe4(%ebp),%eax
   1350f:	c1 e8 07             	shr    $0x7,%eax
   13512:	83 e0 01             	and    $0x1,%eax
   13515:	85 c0                	test   %eax,%eax
   13517:	74 02                	je     1351b <_hcd_endpoint_disable+0xd6>
   13519:	eb 6c                	jmp    13587 <_hcd_endpoint_disable+0x142>
   1351b:	8b 45 ec             	mov    0xffffffec(%ebp),%eax
   1351e:	83 78 1c 8d          	cmpl   $0xffffff8d,0x1c(%eax)
   13522:	74 02                	je     13526 <_hcd_endpoint_disable+0xe1>
   13524:	eb 61                	jmp    13587 <_hcd_endpoint_disable+0x142>
   13526:	83 ec 0c             	sub    $0xc,%esp
   13529:	ff 75 ec             	pushl  0xffffffec(%ebp)
   1352c:	e8 3f 4c 00 00       	call   18170 <_usb_get_urb@4>
   13531:	83 c4 0c             	add    $0xc,%esp
   13534:	c7 45 f8 00 00 00 00 	movl   $0x0,0xfffffff8(%ebp)
   1353b:	8b 45 ec             	mov    0xffffffec(%ebp),%eax
   1353e:	8b 40 1c             	mov    0x1c(%eax),%eax
   13541:	89 45 e4             	mov    %eax,0xffffffe4(%ebp)
   13544:	83 7d e4 8d          	cmpl   $0xffffff8d,0xffffffe4(%ebp)
   13548:	75 0a                	jne    13554 <_hcd_endpoint_disable+0x10f>
   1354a:	8b 45 ec             	mov    0xffffffec(%ebp),%eax
   1354d:	c7 40 1c 94 ff ff ff 	movl   $0xffffff94,0x1c(%eax)
   13554:	83 7d e4 8d          	cmpl   $0xffffff8d,0xffffffe4(%ebp)
   13558:	75 1a                	jne    13574 <_hcd_endpoint_disable+0x12f>
   1355a:	8b 45 ec             	mov    0xffffffec(%ebp),%eax
   1355d:	8b 40 18             	mov    0x18(%eax),%eax
   13560:	89 45 e4             	mov    %eax,0xffffffe4(%ebp)
   13563:	83 ec 08             	sub    $0x8,%esp
   13566:	ff 75 ec             	pushl  0xffffffec(%ebp)
   13569:	ff 75 f0             	pushl  0xfffffff0(%ebp)
   1356c:	e8 54 fc ff ff       	call   131c5 <_unlink1>
   13571:	83 c4 10             	add    $0x10,%esp
   13574:	83 ec 0c             	sub    $0xc,%esp
   13577:	ff 75 ec             	pushl  0xffffffec(%ebp)
   1357a:	e8 b7 4b 00 00       	call   18136 <_usb_free_urb@4>
   1357f:	83 c4 0c             	add    $0xc,%esp
   13582:	e9 e9 fe ff ff       	jmp    13470 <_hcd_endpoint_disable+0x2b>
   13587:	8b 45 ec             	mov    0xffffffec(%ebp),%eax
   1358a:	8b 40 0c             	mov    0xc(%eax),%eax
   1358d:	83 e8 0c             	sub    $0xc,%eax
   13590:	89 45 ec             	mov    %eax,0xffffffec(%ebp)
   13593:	e9 44 ff ff ff       	jmp    134dc <_hcd_endpoint_disable+0x97>
   13598:	8b 45 f0             	mov    0xfffffff0(%ebp),%eax
   1359b:	8b 40 74             	mov    0x74(%eax),%eax
   1359e:	83 78 30 00          	cmpl   $0x0,0x30(%eax)
   135a2:	74 1a                	je     135be <_hcd_endpoint_disable+0x179>
   135a4:	83 ec 04             	sub    $0x4,%esp
   135a7:	8b 45 f0             	mov    0xfffffff0(%ebp),%eax
   135aa:	8b 40 74             	mov    0x74(%eax),%eax
   135ad:	ff 75 0c             	pushl  0xc(%ebp)
   135b0:	ff 75 f4             	pushl  0xfffffff4(%ebp)
   135b3:	ff 75 f0             	pushl  0xfffffff0(%ebp)
   135b6:	8b 40 30             	mov    0x30(%eax),%eax
   135b9:	ff d0                	call   *%eax
   135bb:	83 c4 10             	add    $0x10,%esp
   135be:	8b 5d fc             	mov    0xfffffffc(%ebp),%ebx
   135c1:	c9                   	leave  
   135c2:	c3                   	ret    

000135c3 <_hcd_free_dev>:
   135c3:	55                   	push   %ebp
   135c4:	89 e5                	mov    %esp,%ebp
   135c6:	83 ec 18             	sub    $0x18,%esp
   135c9:	83 7d 08 00          	cmpl   $0x0,0x8(%ebp)
   135cd:	74 0c                	je     135db <_hcd_free_dev+0x18>
   135cf:	8b 45 08             	mov    0x8(%ebp),%eax
   135d2:	83 b8 98 01 00 00 00 	cmpl   $0x0,0x198(%eax)
   135d9:	75 0c                	jne    135e7 <_hcd_free_dev+0x24>
   135db:	c7 45 f0 ea ff ff ff 	movl   $0xffffffea,0xfffffff0(%ebp)
   135e2:	e9 95 00 00 00       	jmp    1367c <_hcd_free_dev+0xb9>
   135e7:	8b 45 08             	mov    0x8(%ebp),%eax
   135ea:	83 b8 bc 00 00 00 00 	cmpl   $0x0,0xbc(%eax)
   135f1:	74 0f                	je     13602 <_hcd_free_dev+0x3f>
   135f3:	8b 45 08             	mov    0x8(%ebp),%eax
   135f6:	8b 80 bc 00 00 00    	mov    0xbc(%eax),%eax
   135fc:	83 78 30 00          	cmpl   $0x0,0x30(%eax)
   13600:	75 09                	jne    1360b <_hcd_free_dev+0x48>
   13602:	c7 45 f0 ed ff ff ff 	movl   $0xffffffed,0xfffffff0(%ebp)
   13609:	eb 71                	jmp    1367c <_hcd_free_dev+0xb9>
   1360b:	8b 45 08             	mov    0x8(%ebp),%eax
   1360e:	8b 80 98 01 00 00    	mov    0x198(%eax),%eax
   13614:	89 45 fc             	mov    %eax,0xfffffffc(%ebp)
   13617:	8b 45 08             	mov    0x8(%ebp),%eax
   1361a:	8b 80 bc 00 00 00    	mov    0xbc(%eax),%eax
   13620:	8b 40 30             	mov    0x30(%eax),%eax
   13623:	89 45 f8             	mov    %eax,0xfffffff8(%ebp)
   13626:	83 ec 0c             	sub    $0xc,%esp
   13629:	8b 45 fc             	mov    0xfffffffc(%ebp),%eax
   1362c:	83 c0 08             	add    $0x8,%eax
   1362f:	50                   	push   %eax
   13630:	e8 4c 00 00 00       	call   13681 <_list_empty>
   13635:	83 c4 10             	add    $0x10,%esp
   13638:	85 c0                	test   %eax,%eax
   1363a:	75 09                	jne    13645 <_hcd_free_dev+0x82>
   1363c:	c7 45 f0 ea ff ff ff 	movl   $0xffffffea,0xfffffff0(%ebp)
   13643:	eb 37                	jmp    1367c <_hcd_free_dev+0xb9>
   13645:	c7 45 f4 00 00 00 00 	movl   $0x0,0xfffffff4(%ebp)
   1364c:	83 ec 0c             	sub    $0xc,%esp
   1364f:	ff 75 fc             	pushl  0xfffffffc(%ebp)
   13652:	e8 ba f2 ff ff       	call   12911 <_list_del>
   13657:	83 c4 10             	add    $0x10,%esp
   1365a:	8b 45 08             	mov    0x8(%ebp),%eax
   1365d:	c7 80 98 01 00 00 00 	movl   $0x0,0x198(%eax)
   13664:	00 00 00 
   13667:	83 ec 0c             	sub    $0xc,%esp
   1366a:	ff 75 fc             	pushl  0xfffffffc(%ebp)
   1366d:	e8 ce 63 00 00       	call   19a40 <_ExFreePool@4>
   13672:	83 c4 0c             	add    $0xc,%esp
   13675:	c7 45 f0 00 00 00 00 	movl   $0x0,0xfffffff0(%ebp)
   1367c:	8b 45 f0             	mov    0xfffffff0(%ebp),%eax
   1367f:	c9                   	leave  
   13680:	c3                   	ret    

00013681 <_list_empty>:
   13681:	55                   	push   %ebp
   13682:	89 e5                	mov    %esp,%ebp
   13684:	8b 45 08             	mov    0x8(%ebp),%eax
   13687:	8b 00                	mov    (%eax),%eax
   13689:	3b 45 08             	cmp    0x8(%ebp),%eax
   1368c:	0f 94 c0             	sete   %al
   1368f:	25 ff 00 00 00       	and    $0xff,%eax
   13694:	5d                   	pop    %ebp
   13695:	c3                   	ret    

00013696 <_usb_hcd_giveback_urb@12>:
   13696:	55                   	push   %ebp
   13697:	89 e5                	mov    %esp,%ebp
   13699:	83 ec 08             	sub    $0x8,%esp
   1369c:	83 ec 0c             	sub    $0xc,%esp
   1369f:	ff 75 0c             	pushl  0xc(%ebp)
   136a2:	e8 90 f8 ff ff       	call   12f37 <_urb_unlink>
   136a7:	83 c4 10             	add    $0x10,%esp
   136aa:	8b 45 0c             	mov    0xc(%ebp),%eax
   136ad:	8b 40 20             	mov    0x20(%eax),%eax
   136b0:	c1 e8 02             	shr    $0x2,%eax
   136b3:	83 e0 01             	and    $0x1,%eax
   136b6:	85 c0                	test   %eax,%eax
   136b8:	75 00                	jne    136ba <_usb_hcd_giveback_urb@12+0x24>
   136ba:	83 ec 08             	sub    $0x8,%esp
   136bd:	8b 45 0c             	mov    0xc(%ebp),%eax
   136c0:	ff 75 10             	pushl  0x10(%ebp)
   136c3:	ff 75 0c             	pushl  0xc(%ebp)
   136c6:	8b 40 58             	mov    0x58(%eax),%eax
   136c9:	ff d0                	call   *%eax
   136cb:	83 c4 10             	add    $0x10,%esp
   136ce:	83 ec 0c             	sub    $0xc,%esp
   136d1:	ff 75 0c             	pushl  0xc(%ebp)
   136d4:	e8 5d 4a 00 00       	call   18136 <_usb_free_urb@4>
   136d9:	83 c4 0c             	add    $0xc,%esp
   136dc:	c9                   	leave  
   136dd:	c2 0c 00             	ret    $0xc

000136e0 <_usb_hcd_irq>:
   136e0:	55                   	push   %ebp
   136e1:	89 e5                	mov    %esp,%ebp
   136e3:	83 ec 18             	sub    $0x18,%esp
   136e6:	8b 45 0c             	mov    0xc(%ebp),%eax
   136e9:	89 45 fc             	mov    %eax,0xfffffffc(%ebp)
   136ec:	8b 45 fc             	mov    0xfffffffc(%ebp),%eax
   136ef:	8b 80 e0 00 00 00    	mov    0xe0(%eax),%eax
   136f5:	89 45 f8             	mov    %eax,0xfffffff8(%ebp)
   136f8:	8b 45 fc             	mov    0xfffffffc(%ebp),%eax
   136fb:	83 b8 e0 00 00 00 00 	cmpl   $0x0,0xe0(%eax)
   13702:	75 09                	jne    1370d <_usb_hcd_irq+0x2d>
   13704:	c7 45 f4 00 00 00 00 	movl   $0x0,0xfffffff4(%ebp)
   1370b:	eb 46                	jmp    13753 <_usb_hcd_irq+0x73>
   1370d:	83 ec 08             	sub    $0x8,%esp
   13710:	8b 45 fc             	mov    0xfffffffc(%ebp),%eax
   13713:	8b 40 74             	mov    0x74(%eax),%eax
   13716:	ff 75 10             	pushl  0x10(%ebp)
   13719:	ff 75 fc             	pushl  0xfffffffc(%ebp)
   1371c:	8b 40 04             	mov    0x4(%eax),%eax
   1371f:	ff d0                	call   *%eax
   13721:	83 c4 10             	add    $0x10,%esp
   13724:	8b 45 fc             	mov    0xfffffffc(%ebp),%eax
   13727:	8b 80 e0 00 00 00    	mov    0xe0(%eax),%eax
   1372d:	3b 45 f8             	cmp    0xfffffff8(%ebp),%eax
   13730:	74 1a                	je     1374c <_usb_hcd_irq+0x6c>
   13732:	8b 45 fc             	mov    0xfffffffc(%ebp),%eax
   13735:	83 b8 e0 00 00 00 00 	cmpl   $0x0,0xe0(%eax)
   1373c:	75 0e                	jne    1374c <_usb_hcd_irq+0x6c>
   1373e:	83 ec 0c             	sub    $0xc,%esp
   13741:	ff 75 fc             	pushl  0xfffffffc(%ebp)
   13744:	e8 31 00 00 00       	call   1377a <_usb_hc_died@4>
   13749:	83 c4 0c             	add    $0xc,%esp
   1374c:	c7 45 f4 01 00 00 00 	movl   $0x1,0xfffffff4(%ebp)
   13753:	8b 45 f4             	mov    0xfffffff4(%ebp),%eax
   13756:	c9                   	leave  
   13757:	c3                   	ret    

00013758 <_hcd_panic>:
   13758:	55                   	push   %ebp
   13759:	89 e5                	mov    %esp,%ebp
   1375b:	83 ec 08             	sub    $0x8,%esp
   1375e:	8b 45 08             	mov    0x8(%ebp),%eax
   13761:	89 45 fc             	mov    %eax,0xfffffffc(%ebp)
   13764:	83 ec 0c             	sub    $0xc,%esp
   13767:	8b 45 fc             	mov    0xfffffffc(%ebp),%eax
   1376a:	8b 40 74             	mov    0x74(%eax),%eax
   1376d:	ff 75 fc             	pushl  0xfffffffc(%ebp)
   13770:	8b 40 18             	mov    0x18(%eax),%eax
   13773:	ff d0                	call   *%eax
   13775:	83 c4 10             	add    $0x10,%esp
   13778:	c9                   	leave  
   13779:	c3                   	ret    

0001377a <_usb_hc_died@4>:
   1377a:	55                   	push   %ebp
   1377b:	89 e5                	mov    %esp,%ebp
   1377d:	83 ec 18             	sub    $0x18,%esp
   13780:	c7 45 ec 00 00 00 00 	movl   $0x0,0xffffffec(%ebp)
   13787:	8b 45 08             	mov    0x8(%ebp),%eax
   1378a:	83 c0 68             	add    $0x68,%eax
   1378d:	8b 00                	mov    (%eax),%eax
   1378f:	89 45 fc             	mov    %eax,0xfffffffc(%ebp)
   13792:	8b 45 08             	mov    0x8(%ebp),%eax
   13795:	83 c0 68             	add    $0x68,%eax
   13798:	3b 45 fc             	cmp    0xfffffffc(%ebp),%eax
   1379b:	74 4c                	je     137e9 <_usb_hc_died@4+0x6f>
   1379d:	8b 45 fc             	mov    0xfffffffc(%ebp),%eax
   137a0:	89 45 f4             	mov    %eax,0xfffffff4(%ebp)
   137a3:	8b 45 f4             	mov    0xfffffff4(%ebp),%eax
   137a6:	83 c0 08             	add    $0x8,%eax
   137a9:	8b 00                	mov    (%eax),%eax
   137ab:	89 45 f8             	mov    %eax,0xfffffff8(%ebp)
   137ae:	8b 45 f4             	mov    0xfffffff4(%ebp),%eax
   137b1:	83 c0 08             	add    $0x8,%eax
   137b4:	3b 45 f8             	cmp    0xfffffff8(%ebp),%eax
   137b7:	74 26                	je     137df <_usb_hc_died@4+0x65>
   137b9:	8b 45 f8             	mov    0xfffffff8(%ebp),%eax
   137bc:	83 e8 0c             	sub    $0xc,%eax
   137bf:	89 45 f0             	mov    %eax,0xfffffff0(%ebp)
   137c2:	8b 45 f0             	mov    0xfffffff0(%ebp),%eax
   137c5:	83 78 1c 8d          	cmpl   $0xffffff8d,0x1c(%eax)
   137c9:	75 0a                	jne    137d5 <_usb_hc_died@4+0x5b>
   137cb:	8b 45 f0             	mov    0xfffffff0(%ebp),%eax
   137ce:	c7 40 1c 94 ff ff ff 	movl   $0xffffff94,0x1c(%eax)
   137d5:	8b 45 f8             	mov    0xfffffff8(%ebp),%eax
   137d8:	8b 00                	mov    (%eax),%eax
   137da:	89 45 f8             	mov    %eax,0xfffffff8(%ebp)
   137dd:	eb cf                	jmp    137ae <_usb_hc_died@4+0x34>
   137df:	8b 45 fc             	mov    0xfffffffc(%ebp),%eax
   137e2:	8b 00                	mov    (%eax),%eax
   137e4:	89 45 fc             	mov    %eax,0xfffffffc(%ebp)
   137e7:	eb a9                	jmp    13792 <_usb_hc_died@4+0x18>
   137e9:	8b 45 08             	mov    0x8(%ebp),%eax
   137ec:	8b 40 58             	mov    0x58(%eax),%eax
   137ef:	89 45 f0             	mov    %eax,0xfffffff0(%ebp)
   137f2:	83 7d f0 00          	cmpl   $0x0,0xfffffff0(%ebp)
   137f6:	74 0a                	je     13802 <_usb_hc_died@4+0x88>
   137f8:	8b 45 f0             	mov    0xfffffff0(%ebp),%eax
   137fb:	c7 40 1c 94 ff ff ff 	movl   $0xffffff94,0x1c(%eax)
   13802:	8b 45 08             	mov    0x8(%ebp),%eax
   13805:	83 c0 70             	add    $0x70,%eax
   13808:	c7 00 58 37 01 00    	movl   $0x13758,(%eax)
   1380e:	83 ec 0c             	sub    $0xc,%esp
   13811:	8b 45 08             	mov    0x8(%ebp),%eax
   13814:	83 c0 70             	add    $0x70,%eax
   13817:	50                   	push   %eax
   13818:	e8 07 00 00 00       	call   13824 <_schedule_work>
   1381d:	83 c4 10             	add    $0x10,%esp
   13820:	c9                   	leave  
   13821:	c2 04 00             	ret    $0x4

00013824 <_schedule_work>:
   13824:	55                   	push   %ebp
   13825:	89 e5                	mov    %esp,%ebp
   13827:	5d                   	pop    %ebp
   13828:	c3                   	ret    
   13829:	90                   	nop    
   1382a:	90                   	nop    
   1382b:	90                   	nop    
   1382c:	90                   	nop    
   1382d:	90                   	nop    
   1382e:	90                   	nop    
   1382f:	90                   	nop    

00013830 <_usb_hcd_pci_probe@8>:
   13830:	55                   	push   %ebp
   13831:	89 e5                	mov    %esp,%ebp
   13833:	83 ec 38             	sub    $0x38,%esp
   13836:	e8 ea 3a 00 00       	call   17325 <_usb_disabled@0>
   1383b:	85 c0                	test   %eax,%eax
   1383d:	74 0c                	je     1384b <_usb_hcd_pci_probe@8+0x1b>
   1383f:	c7 45 d4 ed ff ff ff 	movl   $0xffffffed,0xffffffd4(%ebp)
   13846:	e9 16 04 00 00       	jmp    13c61 <_usb_hcd_pci_probe@8+0x431>
   1384b:	83 7d 0c 00          	cmpl   $0x0,0xc(%ebp)
   1384f:	74 0d                	je     1385e <_usb_hcd_pci_probe@8+0x2e>
   13851:	8b 45 0c             	mov    0xc(%ebp),%eax
   13854:	8b 40 18             	mov    0x18(%eax),%eax
   13857:	89 45 fc             	mov    %eax,0xfffffffc(%ebp)
   1385a:	85 c0                	test   %eax,%eax
   1385c:	75 0c                	jne    1386a <_usb_hcd_pci_probe@8+0x3a>
   1385e:	c7 45 d4 ea ff ff ff 	movl   $0xffffffea,0xffffffd4(%ebp)
   13865:	e9 f7 03 00 00       	jmp    13c61 <_usb_hcd_pci_probe@8+0x431>
   1386a:	83 ec 0c             	sub    $0xc,%esp
   1386d:	ff 75 08             	pushl  0x8(%ebp)
   13870:	e8 7b 04 00 00       	call   13cf0 <_pci_enable_device>
   13875:	83 c4 10             	add    $0x10,%esp
   13878:	85 c0                	test   %eax,%eax
   1387a:	79 0c                	jns    13888 <_usb_hcd_pci_probe@8+0x58>
   1387c:	c7 45 d4 ed ff ff ff 	movl   $0xffffffed,0xffffffd4(%ebp)
   13883:	e9 d9 03 00 00       	jmp    13c61 <_usb_hcd_pci_probe@8+0x431>
   13888:	8b 45 08             	mov    0x8(%ebp),%eax
   1388b:	83 78 0c 00          	cmpl   $0x0,0xc(%eax)
   1388f:	75 0c                	jne    1389d <_usb_hcd_pci_probe@8+0x6d>
   13891:	c7 45 d4 ed ff ff ff 	movl   $0xffffffed,0xffffffd4(%ebp)
   13898:	e9 c4 03 00 00       	jmp    13c61 <_usb_hcd_pci_probe@8+0x431>
   1389d:	8b 45 fc             	mov    0xfffffffc(%ebp),%eax
   138a0:	8b 40 08             	mov    0x8(%eax),%eax
   138a3:	83 e0 01             	and    $0x1,%eax
   138a6:	85 c0                	test   %eax,%eax
   138a8:	0f 84 ec 00 00 00    	je     1399a <_usb_hcd_pci_probe@8+0x16a>
   138ae:	c7 45 e4 00 00 00 00 	movl   $0x0,0xffffffe4(%ebp)
   138b5:	83 ec 08             	sub    $0x8,%esp
   138b8:	6a 00                	push   $0x0
   138ba:	ff 75 08             	pushl  0x8(%ebp)
   138bd:	e8 1c 04 00 00       	call   13cde <_pci_resource_start>
   138c2:	83 c4 10             	add    $0x10,%esp
   138c5:	89 45 f8             	mov    %eax,0xfffffff8(%ebp)
   138c8:	83 ec 08             	sub    $0x8,%esp
   138cb:	6a 00                	push   $0x0
   138cd:	ff 75 08             	pushl  0x8(%ebp)
   138d0:	e8 ff 03 00 00       	call   13cd4 <_pci_resource_len>
   138d5:	83 c4 10             	add    $0x10,%esp
   138d8:	89 45 f4             	mov    %eax,0xfffffff4(%ebp)
   138db:	83 ec 04             	sub    $0x4,%esp
   138de:	8b 45 fc             	mov    0xfffffffc(%ebp),%eax
   138e1:	ff 30                	pushl  (%eax)
   138e3:	ff 75 f4             	pushl  0xfffffff4(%ebp)
   138e6:	ff 75 f8             	pushl  0xfffffff8(%ebp)
   138e9:	e8 dc 03 00 00       	call   13cca <_request_mem_region>
   138ee:	83 c4 10             	add    $0x10,%esp
   138f1:	85 c0                	test   %eax,%eax
   138f3:	75 38                	jne    1392d <_usb_hcd_pci_probe@8+0xfd>
   138f5:	83 ec 04             	sub    $0x4,%esp
   138f8:	6a 5c                	push   $0x5c
   138fa:	68 c0 b0 01 00       	push   $0x1b0c0
   138ff:	68 ca b0 01 00       	push   $0x1b0ca
   13904:	e8 57 61 00 00       	call   19a60 <_DbgPrint>
   13909:	83 c4 10             	add    $0x10,%esp
   1390c:	83 ec 08             	sub    $0x8,%esp
   1390f:	68 c0 b0 01 00       	push   $0x1b0c0
   13914:	68 d4 b0 01 00       	push   $0x1b0d4
   13919:	e8 42 61 00 00       	call   19a60 <_DbgPrint>
   1391e:	83 c4 10             	add    $0x10,%esp
   13921:	c7 45 d4 f0 ff ff ff 	movl   $0xfffffff0,0xffffffd4(%ebp)
   13928:	e9 34 03 00 00       	jmp    13c61 <_usb_hcd_pci_probe@8+0x431>
   1392d:	83 ec 08             	sub    $0x8,%esp
   13930:	ff 75 f4             	pushl  0xfffffff4(%ebp)
   13933:	ff 75 f8             	pushl  0xfffffff8(%ebp)
   13936:	e8 87 03 00 00       	call   13cc2 <_ioremap_nocache>
   1393b:	83 c4 10             	add    $0x10,%esp
   1393e:	89 45 f0             	mov    %eax,0xfffffff0(%ebp)
   13941:	83 7d f0 00          	cmpl   $0x0,0xfffffff0(%ebp)
   13945:	0f 85 13 01 00 00    	jne    13a5e <_usb_hcd_pci_probe@8+0x22e>
   1394b:	83 ec 04             	sub    $0x4,%esp
   1394e:	6a 61                	push   $0x61
   13950:	68 c0 b0 01 00       	push   $0x1b0c0
   13955:	68 ca b0 01 00       	push   $0x1b0ca
   1395a:	e8 01 61 00 00       	call   19a60 <_DbgPrint>
   1395f:	83 c4 10             	add    $0x10,%esp
   13962:	83 ec 08             	sub    $0x8,%esp
   13965:	68 c0 b0 01 00       	push   $0x1b0c0
   1396a:	68 f8 b0 01 00       	push   $0x1b0f8
   1396f:	e8 ec 60 00 00       	call   19a60 <_DbgPrint>
   13974:	83 c4 10             	add    $0x10,%esp
   13977:	c7 45 e8 f2 ff ff ff 	movl   $0xfffffff2,0xffffffe8(%ebp)
   1397e:	83 ec 08             	sub    $0x8,%esp
   13981:	ff 75 f4             	pushl  0xfffffff4(%ebp)
   13984:	ff 75 f8             	pushl  0xfffffff8(%ebp)
   13987:	e8 2c 03 00 00       	call   13cb8 <_release_mem_region>
   1398c:	83 c4 10             	add    $0x10,%esp
   1398f:	8b 45 e8             	mov    0xffffffe8(%ebp),%eax
   13992:	89 45 d4             	mov    %eax,0xffffffd4(%ebp)
   13995:	e9 c7 02 00 00       	jmp    13c61 <_usb_hcd_pci_probe@8+0x431>
   1399a:	c7 45 f4 00 00 00 00 	movl   $0x0,0xfffffff4(%ebp)
   139a1:	c7 45 f8 00 00 00 00 	movl   $0x0,0xfffffff8(%ebp)
   139a8:	c7 45 e4 00 00 00 00 	movl   $0x0,0xffffffe4(%ebp)
   139af:	83 7d e4 00          	cmpl   $0x0,0xffffffe4(%ebp)
   139b3:	79 65                	jns    13a1a <_usb_hcd_pci_probe@8+0x1ea>
   139b5:	83 ec 08             	sub    $0x8,%esp
   139b8:	ff 75 e4             	pushl  0xffffffe4(%ebp)
   139bb:	ff 75 08             	pushl  0x8(%ebp)
   139be:	e8 e3 02 00 00       	call   13ca6 <_pci_resource_flags>
   139c3:	83 c4 10             	add    $0x10,%esp
   139c6:	83 e0 01             	and    $0x1,%eax
   139c9:	85 c0                	test   %eax,%eax
   139cb:	75 02                	jne    139cf <_usb_hcd_pci_probe@8+0x19f>
   139cd:	eb 44                	jmp    13a13 <_usb_hcd_pci_probe@8+0x1e3>
   139cf:	83 ec 08             	sub    $0x8,%esp
   139d2:	ff 75 e4             	pushl  0xffffffe4(%ebp)
   139d5:	ff 75 08             	pushl  0x8(%ebp)
   139d8:	e8 01 03 00 00       	call   13cde <_pci_resource_start>
   139dd:	83 c4 10             	add    $0x10,%esp
   139e0:	89 45 f8             	mov    %eax,0xfffffff8(%ebp)
   139e3:	83 ec 08             	sub    $0x8,%esp
   139e6:	ff 75 e4             	pushl  0xffffffe4(%ebp)
   139e9:	ff 75 08             	pushl  0x8(%ebp)
   139ec:	e8 e3 02 00 00       	call   13cd4 <_pci_resource_len>
   139f1:	83 c4 10             	add    $0x10,%esp
   139f4:	89 45 f4             	mov    %eax,0xfffffff4(%ebp)
   139f7:	83 ec 04             	sub    $0x4,%esp
   139fa:	8b 45 fc             	mov    0xfffffffc(%ebp),%eax
   139fd:	ff 30                	pushl  (%eax)
   139ff:	ff 75 f4             	pushl  0xfffffff4(%ebp)
   13a02:	ff 75 f8             	pushl  0xfffffff8(%ebp)
   13a05:	e8 92 02 00 00       	call   13c9c <_request_region>
   13a0a:	83 c4 10             	add    $0x10,%esp
   13a0d:	85 c0                	test   %eax,%eax
   13a0f:	74 02                	je     13a13 <_usb_hcd_pci_probe@8+0x1e3>
   13a11:	eb 07                	jmp    13a1a <_usb_hcd_pci_probe@8+0x1ea>
   13a13:	8d 45 e4             	lea    0xffffffe4(%ebp),%eax
   13a16:	ff 00                	incl   (%eax)
   13a18:	eb 95                	jmp    139af <_usb_hcd_pci_probe@8+0x17f>
   13a1a:	83 7d e4 00          	cmpl   $0x0,0xffffffe4(%ebp)
   13a1e:	75 38                	jne    13a58 <_usb_hcd_pci_probe@8+0x228>
   13a20:	83 ec 04             	sub    $0x4,%esp
   13a23:	6a 76                	push   $0x76
   13a25:	68 c0 b0 01 00       	push   $0x1b0c0
   13a2a:	68 ca b0 01 00       	push   $0x1b0ca
   13a2f:	e8 2c 60 00 00       	call   19a60 <_DbgPrint>
   13a34:	83 c4 10             	add    $0x10,%esp
   13a37:	83 ec 08             	sub    $0x8,%esp
   13a3a:	68 c0 b0 01 00       	push   $0x1b0c0
   13a3f:	68 18 b1 01 00       	push   $0x1b118
   13a44:	e8 17 60 00 00       	call   19a60 <_DbgPrint>
   13a49:	83 c4 10             	add    $0x10,%esp
   13a4c:	c7 45 d4 f0 ff ff ff 	movl   $0xfffffff0,0xffffffd4(%ebp)
   13a53:	e9 09 02 00 00       	jmp    13c61 <_usb_hcd_pci_probe@8+0x431>
   13a58:	8b 45 f8             	mov    0xfffffff8(%ebp),%eax
   13a5b:	89 45 f0             	mov    %eax,0xfffffff0(%ebp)
   13a5e:	83 ec 0c             	sub    $0xc,%esp
   13a61:	ff 75 08             	pushl  0x8(%ebp)
   13a64:	e8 29 02 00 00       	call   13c92 <_pci_set_master>
   13a69:	83 c4 10             	add    $0x10,%esp
   13a6c:	8b 45 fc             	mov    0xfffffffc(%ebp),%eax
   13a6f:	8b 40 20             	mov    0x20(%eax),%eax
   13a72:	ff d0                	call   *%eax
   13a74:	89 45 ec             	mov    %eax,0xffffffec(%ebp)
   13a77:	83 7d ec 00          	cmpl   $0x0,0xffffffec(%ebp)
   13a7b:	75 72                	jne    13aef <_usb_hcd_pci_probe@8+0x2bf>
   13a7d:	83 ec 04             	sub    $0x4,%esp
   13a80:	68 83 00 00 00       	push   $0x83
   13a85:	68 c0 b0 01 00       	push   $0x1b0c0
   13a8a:	68 ca b0 01 00       	push   $0x1b0ca
   13a8f:	e8 cc 5f 00 00       	call   19a60 <_DbgPrint>
   13a94:	83 c4 10             	add    $0x10,%esp
   13a97:	83 ec 08             	sub    $0x8,%esp
   13a9a:	68 c0 b0 01 00       	push   $0x1b0c0
   13a9f:	68 3b b1 01 00       	push   $0x1b13b
   13aa4:	e8 b7 5f 00 00       	call   19a60 <_DbgPrint>
   13aa9:	83 c4 10             	add    $0x10,%esp
   13aac:	c7 45 e8 f4 ff ff ff 	movl   $0xfffffff4,0xffffffe8(%ebp)
   13ab3:	8b 45 fc             	mov    0xfffffffc(%ebp),%eax
   13ab6:	8b 40 08             	mov    0x8(%eax),%eax
   13ab9:	83 e0 01             	and    $0x1,%eax
   13abc:	85 c0                	test   %eax,%eax
   13abe:	74 13                	je     13ad3 <_usb_hcd_pci_probe@8+0x2a3>
   13ac0:	83 ec 0c             	sub    $0xc,%esp
   13ac3:	ff 75 f0             	pushl  0xfffffff0(%ebp)
   13ac6:	e8 bd 01 00 00       	call   13c88 <_iounmap>
   13acb:	83 c4 10             	add    $0x10,%esp
   13ace:	e9 ab fe ff ff       	jmp    1397e <_usb_hcd_pci_probe@8+0x14e>
   13ad3:	83 ec 08             	sub    $0x8,%esp
   13ad6:	ff 75 f4             	pushl  0xfffffff4(%ebp)
   13ad9:	ff 75 f8             	pushl  0xfffffff8(%ebp)
   13adc:	e8 9d 01 00 00       	call   13c7e <_release_region>
   13ae1:	83 c4 10             	add    $0x10,%esp
   13ae4:	8b 45 e8             	mov    0xffffffe8(%ebp),%eax
   13ae7:	89 45 d4             	mov    %eax,0xffffffd4(%ebp)
   13aea:	e9 72 01 00 00       	jmp    13c61 <_usb_hcd_pci_probe@8+0x431>
   13aef:	83 ec 08             	sub    $0x8,%esp
   13af2:	ff 75 ec             	pushl  0xffffffec(%ebp)
   13af5:	ff 75 08             	pushl  0x8(%ebp)
   13af8:	e8 6b 01 00 00       	call   13c68 <_pci_set_drvdata>
   13afd:	83 c4 10             	add    $0x10,%esp
   13b00:	8b 55 ec             	mov    0xffffffec(%ebp),%edx
   13b03:	8b 45 fc             	mov    0xfffffffc(%ebp),%eax
   13b06:	89 42 74             	mov    %eax,0x74(%edx)
   13b09:	8b 55 ec             	mov    0xffffffec(%ebp),%edx
   13b0c:	8b 45 fc             	mov    0xfffffffc(%ebp),%eax
   13b0f:	8b 00                	mov    (%eax),%eax
   13b11:	89 42 50             	mov    %eax,0x50(%edx)
   13b14:	8b 55 ec             	mov    0xffffffec(%ebp),%edx
   13b17:	8b 45 08             	mov    0x8(%ebp),%eax
   13b1a:	89 82 84 00 00 00    	mov    %eax,0x84(%edx)
   13b20:	8b 55 ec             	mov    0xffffffec(%ebp),%edx
   13b23:	8b 45 08             	mov    0x8(%ebp),%eax
   13b26:	8b 40 10             	mov    0x10(%eax),%eax
   13b29:	89 42 08             	mov    %eax,0x8(%edx)
   13b2c:	8b 55 ec             	mov    0xffffffec(%ebp),%edx
   13b2f:	8b 45 08             	mov    0x8(%ebp),%eax
   13b32:	83 c0 14             	add    $0x14,%eax
   13b35:	89 42 4c             	mov    %eax,0x4c(%edx)
   13b38:	8b 55 ec             	mov    0xffffffec(%ebp),%edx
   13b3b:	8b 45 08             	mov    0x8(%ebp),%eax
   13b3e:	83 c0 14             	add    $0x14,%eax
   13b41:	89 02                	mov    %eax,(%edx)
   13b43:	8b 55 ec             	mov    0xffffffec(%ebp),%edx
   13b46:	8b 45 ec             	mov    0xffffffec(%ebp),%eax
   13b49:	8b 00                	mov    (%eax),%eax
   13b4b:	89 82 80 00 00 00    	mov    %eax,0x80(%edx)
   13b51:	83 ec 0c             	sub    $0xc,%esp
   13b54:	ff 75 ec             	pushl  0xffffffec(%ebp)
   13b57:	e8 c4 49 00 00       	call   18520 <_hcd_buffer_create>
   13b5c:	83 c4 10             	add    $0x10,%esp
   13b5f:	89 45 e8             	mov    %eax,0xffffffe8(%ebp)
   13b62:	83 7d e8 00          	cmpl   $0x0,0xffffffe8(%ebp)
   13b66:	74 16                	je     13b7e <_usb_hcd_pci_probe@8+0x34e>
   13b68:	83 ec 0c             	sub    $0xc,%esp
   13b6b:	8b 45 fc             	mov    0xfffffffc(%ebp),%eax
   13b6e:	ff 75 ec             	pushl  0xffffffec(%ebp)
   13b71:	8b 40 24             	mov    0x24(%eax),%eax
   13b74:	ff d0                	call   *%eax
   13b76:	83 c4 10             	add    $0x10,%esp
   13b79:	e9 35 ff ff ff       	jmp    13ab3 <_usb_hcd_pci_probe@8+0x283>
   13b7e:	83 ec 04             	sub    $0x4,%esp
   13b81:	8b 45 08             	mov    0x8(%ebp),%eax
   13b84:	ff 70 0c             	pushl  0xc(%eax)
   13b87:	68 54 b1 01 00       	push   $0x1b154
   13b8c:	8d 45 d8             	lea    0xffffffd8(%ebp),%eax
   13b8f:	50                   	push   %eax
   13b90:	e8 fb 5e 00 00       	call   19a90 <_sprintf>
   13b95:	83 c4 10             	add    $0x10,%esp
   13b98:	83 ec 0c             	sub    $0xc,%esp
   13b9b:	ff 75 ec             	pushl  0xffffffec(%ebp)
   13b9e:	8b 45 ec             	mov    0xffffffec(%ebp),%eax
   13ba1:	ff 70 50             	pushl  0x50(%eax)
   13ba4:	6a 00                	push   $0x0
   13ba6:	68 e0 36 01 00       	push   $0x136e0
   13bab:	8b 45 08             	mov    0x8(%ebp),%eax
   13bae:	ff 70 0c             	pushl  0xc(%eax)
   13bb1:	e8 e0 5d 00 00       	call   19996 <_my_request_irq>
   13bb6:	83 c4 20             	add    $0x20,%esp
   13bb9:	85 c0                	test   %eax,%eax
   13bbb:	74 09                	je     13bc6 <_usb_hcd_pci_probe@8+0x396>
   13bbd:	c7 45 e8 f0 ff ff ff 	movl   $0xfffffff0,0xffffffe8(%ebp)
   13bc4:	eb a2                	jmp    13b68 <_usb_hcd_pci_probe@8+0x338>
   13bc6:	8b 55 ec             	mov    0xffffffec(%ebp),%edx
   13bc9:	8b 45 08             	mov    0x8(%ebp),%eax
   13bcc:	8b 40 0c             	mov    0xc(%eax),%eax
   13bcf:	89 42 78             	mov    %eax,0x78(%edx)
   13bd2:	8b 55 ec             	mov    0xffffffec(%ebp),%edx
   13bd5:	8b 45 f0             	mov    0xfffffff0(%ebp),%eax
   13bd8:	89 42 7c             	mov    %eax,0x7c(%edx)
   13bdb:	8b 55 ec             	mov    0xffffffec(%ebp),%edx
   13bde:	8b 45 e4             	mov    0xffffffe4(%ebp),%eax
   13be1:	89 82 88 00 00 00    	mov    %eax,0x88(%edx)
   13be7:	83 ec 0c             	sub    $0xc,%esp
   13bea:	ff 75 ec             	pushl  0xffffffec(%ebp)
   13bed:	e8 ec e9 ff ff       	call   125de <_usb_bus_init@4>
   13bf2:	83 c4 0c             	add    $0xc,%esp
   13bf5:	8b 45 ec             	mov    0xffffffec(%ebp),%eax
   13bf8:	c7 40 20 20 a0 01 00 	movl   $0x1a020,0x20(%eax)
   13bff:	8b 55 ec             	mov    0xffffffec(%ebp),%edx
   13c02:	8b 45 ec             	mov    0xffffffec(%ebp),%eax
   13c05:	89 42 30             	mov    %eax,0x30(%edx)
   13c08:	8b 55 ec             	mov    0xffffffec(%ebp),%edx
   13c0b:	83 c2 68             	add    $0x68,%edx
   13c0e:	8b 45 ec             	mov    0xffffffec(%ebp),%eax
   13c11:	83 c0 68             	add    $0x68,%eax
   13c14:	89 02                	mov    %eax,(%edx)
   13c16:	8b 55 ec             	mov    0xffffffec(%ebp),%edx
   13c19:	83 c2 68             	add    $0x68,%edx
   13c1c:	8b 45 ec             	mov    0xffffffec(%ebp),%eax
   13c1f:	83 c0 68             	add    $0x68,%eax
   13c22:	89 42 04             	mov    %eax,0x4(%edx)
   13c25:	83 ec 0c             	sub    $0xc,%esp
   13c28:	ff 75 ec             	pushl  0xffffffec(%ebp)
   13c2b:	e8 a8 ea ff ff       	call   126d8 <_usb_register_bus@4>
   13c30:	83 c4 0c             	add    $0xc,%esp
   13c33:	83 ec 0c             	sub    $0xc,%esp
   13c36:	8b 45 fc             	mov    0xfffffffc(%ebp),%eax
   13c39:	ff 75 ec             	pushl  0xffffffec(%ebp)
   13c3c:	8b 40 0c             	mov    0xc(%eax),%eax
   13c3f:	ff d0                	call   *%eax
   13c41:	83 c4 10             	add    $0x10,%esp
   13c44:	89 45 e8             	mov    %eax,0xffffffe8(%ebp)
   13c47:	83 7d e8 00          	cmpl   $0x0,0xffffffe8(%ebp)
   13c4b:	79 0e                	jns    13c5b <_usb_hcd_pci_probe@8+0x42b>
   13c4d:	83 ec 0c             	sub    $0xc,%esp
   13c50:	ff 75 08             	pushl  0x8(%ebp)
   13c53:	e8 a2 00 00 00       	call   13cfa <_usb_hcd_pci_remove@4>
   13c58:	83 c4 0c             	add    $0xc,%esp
   13c5b:	8b 45 e8             	mov    0xffffffe8(%ebp),%eax
   13c5e:	89 45 d4             	mov    %eax,0xffffffd4(%ebp)
   13c61:	8b 45 d4             	mov    0xffffffd4(%ebp),%eax
   13c64:	c9                   	leave  
   13c65:	c2 08 00             	ret    $0x8

00013c68 <_pci_set_drvdata>:
   13c68:	55                   	push   %ebp
   13c69:	89 e5                	mov    %esp,%ebp
   13c6b:	8b 45 08             	mov    0x8(%ebp),%eax
   13c6e:	8b 55 0c             	mov    0xc(%ebp),%edx
   13c71:	89 90 e4 00 00 00    	mov    %edx,0xe4(%eax)
   13c77:	b8 00 00 00 00       	mov    $0x0,%eax
   13c7c:	5d                   	pop    %ebp
   13c7d:	c3                   	ret    

00013c7e <_release_region>:
   13c7e:	55                   	push   %ebp
   13c7f:	89 e5                	mov    %esp,%ebp
   13c81:	b8 00 00 00 00       	mov    $0x0,%eax
   13c86:	5d                   	pop    %ebp
   13c87:	c3                   	ret    

00013c88 <_iounmap>:
   13c88:	55                   	push   %ebp
   13c89:	89 e5                	mov    %esp,%ebp
   13c8b:	b8 00 00 00 00       	mov    $0x0,%eax
   13c90:	5d                   	pop    %ebp
   13c91:	c3                   	ret    

00013c92 <_pci_set_master>:
   13c92:	55                   	push   %ebp
   13c93:	89 e5                	mov    %esp,%ebp
   13c95:	b8 00 00 00 00       	mov    $0x0,%eax
   13c9a:	5d                   	pop    %ebp
   13c9b:	c3                   	ret    

00013c9c <_request_region>:
   13c9c:	55                   	push   %ebp
   13c9d:	89 e5                	mov    %esp,%ebp
   13c9f:	b8 00 00 00 00       	mov    $0x0,%eax
   13ca4:	5d                   	pop    %ebp
   13ca5:	c3                   	ret    

00013ca6 <_pci_resource_flags>:
   13ca6:	55                   	push   %ebp
   13ca7:	89 e5                	mov    %esp,%ebp
   13ca9:	8b 55 08             	mov    0x8(%ebp),%edx
   13cac:	8b 45 0c             	mov    0xc(%ebp),%eax
   13caf:	8b 84 82 d4 00 00 00 	mov    0xd4(%edx,%eax,4),%eax
   13cb6:	5d                   	pop    %ebp
   13cb7:	c3                   	ret    

00013cb8 <_release_mem_region>:
   13cb8:	55                   	push   %ebp
   13cb9:	89 e5                	mov    %esp,%ebp
   13cbb:	b8 00 00 00 00       	mov    $0x0,%eax
   13cc0:	5d                   	pop    %ebp
   13cc1:	c3                   	ret    

00013cc2 <_ioremap_nocache>:
   13cc2:	55                   	push   %ebp
   13cc3:	89 e5                	mov    %esp,%ebp
   13cc5:	8b 45 08             	mov    0x8(%ebp),%eax
   13cc8:	5d                   	pop    %ebp
   13cc9:	c3                   	ret    

00013cca <_request_mem_region>:
   13cca:	55                   	push   %ebp
   13ccb:	89 e5                	mov    %esp,%ebp
   13ccd:	b8 01 00 00 00       	mov    $0x1,%eax
   13cd2:	5d                   	pop    %ebp
   13cd3:	c3                   	ret    

00013cd4 <_pci_resource_len>:
   13cd4:	55                   	push   %ebp
   13cd5:	89 e5                	mov    %esp,%ebp
   13cd7:	b8 00 00 00 00       	mov    $0x0,%eax
   13cdc:	5d                   	pop    %ebp
   13cdd:	c3                   	ret    

00013cde <_pci_resource_start>:
   13cde:	55                   	push   %ebp
   13cdf:	89 e5                	mov    %esp,%ebp
   13ce1:	8b 55 08             	mov    0x8(%ebp),%edx
   13ce4:	8b 45 0c             	mov    0xc(%ebp),%eax
   13ce7:	8b 84 82 c4 00 00 00 	mov    0xc4(%edx,%eax,4),%eax
   13cee:	5d                   	pop    %ebp
   13cef:	c3                   	ret    

00013cf0 <_pci_enable_device>:
   13cf0:	55                   	push   %ebp
   13cf1:	89 e5                	mov    %esp,%ebp
   13cf3:	b8 00 00 00 00       	mov    $0x0,%eax
   13cf8:	5d                   	pop    %ebp
   13cf9:	c3                   	ret    

00013cfa <_usb_hcd_pci_remove@4>:
   13cfa:	55                   	push   %ebp
   13cfb:	89 e5                	mov    %esp,%ebp
   13cfd:	83 ec 08             	sub    $0x8,%esp
   13d00:	83 ec 0c             	sub    $0xc,%esp
   13d03:	ff 75 08             	pushl  0x8(%ebp)
   13d06:	e8 22 01 00 00       	call   13e2d <_pci_get_drvdata>
   13d0b:	83 c4 10             	add    $0x10,%esp
   13d0e:	89 45 fc             	mov    %eax,0xfffffffc(%ebp)
   13d11:	83 7d fc 00          	cmpl   $0x0,0xfffffffc(%ebp)
   13d15:	75 05                	jne    13d1c <_usb_hcd_pci_remove@4+0x22>
   13d17:	e9 0d 01 00 00       	jmp    13e29 <_usb_hcd_pci_remove@4+0x12f>
   13d1c:	8b 45 fc             	mov    0xfffffffc(%ebp),%eax
   13d1f:	8b 40 24             	mov    0x24(%eax),%eax
   13d22:	89 45 f8             	mov    %eax,0xfffffff8(%ebp)
   13d25:	8b 45 fc             	mov    0xfffffffc(%ebp),%eax
   13d28:	c7 80 e0 00 00 00 85 	movl   $0x85,0xe0(%eax)
   13d2f:	00 00 00 
   13d32:	83 ec 0c             	sub    $0xc,%esp
   13d35:	8d 45 f8             	lea    0xfffffff8(%ebp),%eax
   13d38:	50                   	push   %eax
   13d39:	e8 d3 28 00 00       	call   16611 <_usb_disconnect>
   13d3e:	83 c4 10             	add    $0x10,%esp
   13d41:	83 ec 0c             	sub    $0xc,%esp
   13d44:	8b 45 fc             	mov    0xfffffffc(%ebp),%eax
   13d47:	8b 40 74             	mov    0x74(%eax),%eax
   13d4a:	ff 75 fc             	pushl  0xfffffffc(%ebp)
   13d4d:	8b 40 18             	mov    0x18(%eax),%eax
   13d50:	ff d0                	call   *%eax
   13d52:	83 c4 10             	add    $0x10,%esp
   13d55:	83 ec 0c             	sub    $0xc,%esp
   13d58:	ff 75 fc             	pushl  0xfffffffc(%ebp)
   13d5b:	e8 ca 47 00 00       	call   1852a <_hcd_buffer_destroy>
   13d60:	83 c4 10             	add    $0x10,%esp
   13d63:	8b 45 fc             	mov    0xfffffffc(%ebp),%eax
   13d66:	c7 80 e0 00 00 00 00 	movl   $0x0,0xe0(%eax)
   13d6d:	00 00 00 
   13d70:	6a 00                	push   $0x0
   13d72:	ff 75 08             	pushl  0x8(%ebp)
   13d75:	e8 ee fe ff ff       	call   13c68 <_pci_set_drvdata>
   13d7a:	83 c4 08             	add    $0x8,%esp
   13d7d:	83 ec 08             	sub    $0x8,%esp
   13d80:	ff 75 fc             	pushl  0xfffffffc(%ebp)
   13d83:	8b 45 fc             	mov    0xfffffffc(%ebp),%eax
   13d86:	ff 70 78             	pushl  0x78(%eax)
   13d89:	e8 86 5c 00 00       	call   19a14 <_my_free_irq>
   13d8e:	83 c4 10             	add    $0x10,%esp
   13d91:	8b 45 fc             	mov    0xfffffffc(%ebp),%eax
   13d94:	8b 40 74             	mov    0x74(%eax),%eax
   13d97:	8b 40 08             	mov    0x8(%eax),%eax
   13d9a:	83 e0 01             	and    $0x1,%eax
   13d9d:	85 c0                	test   %eax,%eax
   13d9f:	74 34                	je     13dd5 <_usb_hcd_pci_remove@4+0xdb>
   13da1:	8b 45 fc             	mov    0xfffffffc(%ebp),%eax
   13da4:	ff 70 7c             	pushl  0x7c(%eax)
   13da7:	e8 dc fe ff ff       	call   13c88 <_iounmap>
   13dac:	83 c4 04             	add    $0x4,%esp
   13daf:	6a 00                	push   $0x0
   13db1:	ff 75 08             	pushl  0x8(%ebp)
   13db4:	e8 1b ff ff ff       	call   13cd4 <_pci_resource_len>
   13db9:	83 c4 08             	add    $0x8,%esp
   13dbc:	50                   	push   %eax
   13dbd:	6a 00                	push   $0x0
   13dbf:	ff 75 08             	pushl  0x8(%ebp)
   13dc2:	e8 17 ff ff ff       	call   13cde <_pci_resource_start>
   13dc7:	83 c4 08             	add    $0x8,%esp
   13dca:	50                   	push   %eax
   13dcb:	e8 e8 fe ff ff       	call   13cb8 <_release_mem_region>
   13dd0:	83 c4 08             	add    $0x8,%esp
   13dd3:	eb 32                	jmp    13e07 <_usb_hcd_pci_remove@4+0x10d>
   13dd5:	8b 45 fc             	mov    0xfffffffc(%ebp),%eax
   13dd8:	ff b0 88 00 00 00    	pushl  0x88(%eax)
   13dde:	ff 75 08             	pushl  0x8(%ebp)
   13de1:	e8 ee fe ff ff       	call   13cd4 <_pci_resource_len>
   13de6:	83 c4 08             	add    $0x8,%esp
   13de9:	50                   	push   %eax
   13dea:	8b 45 fc             	mov    0xfffffffc(%ebp),%eax
   13ded:	ff b0 88 00 00 00    	pushl  0x88(%eax)
   13df3:	ff 75 08             	pushl  0x8(%ebp)
   13df6:	e8 e3 fe ff ff       	call   13cde <_pci_resource_start>
   13dfb:	83 c4 08             	add    $0x8,%esp
   13dfe:	50                   	push   %eax
   13dff:	e8 7a fe ff ff       	call   13c7e <_release_region>
   13e04:	83 c4 08             	add    $0x8,%esp
   13e07:	83 ec 0c             	sub    $0xc,%esp
   13e0a:	ff 75 fc             	pushl  0xfffffffc(%ebp)
   13e0d:	e8 9e ea ff ff       	call   128b0 <_usb_deregister_bus@4>
   13e12:	83 c4 0c             	add    $0xc,%esp
   13e15:	83 ec 0c             	sub    $0xc,%esp
   13e18:	8b 45 fc             	mov    0xfffffffc(%ebp),%eax
   13e1b:	8b 40 74             	mov    0x74(%eax),%eax
   13e1e:	ff 75 fc             	pushl  0xfffffffc(%ebp)
   13e21:	8b 40 24             	mov    0x24(%eax),%eax
   13e24:	ff d0                	call   *%eax
   13e26:	83 c4 10             	add    $0x10,%esp
   13e29:	c9                   	leave  
   13e2a:	c2 04 00             	ret    $0x4

00013e2d <_pci_get_drvdata>:
   13e2d:	55                   	push   %ebp
   13e2e:	89 e5                	mov    %esp,%ebp
   13e30:	8b 45 08             	mov    0x8(%ebp),%eax
   13e33:	8b 80 e4 00 00 00    	mov    0xe4(%eax),%eax
   13e39:	5d                   	pop    %ebp
   13e3a:	c3                   	ret    
   13e3b:	90                   	nop    
   13e3c:	90                   	nop    
   13e3d:	90                   	nop    
   13e3e:	90                   	nop    
   13e3f:	90                   	nop    

00013e40 <_get_hub_descriptor>:
   13e40:	55                   	push   %ebp
   13e41:	89 e5                	mov    %esp,%ebp
   13e43:	83 ec 08             	sub    $0x8,%esp
   13e46:	83 ec 0c             	sub    $0xc,%esp
   13e49:	68 f4 01 00 00       	push   $0x1f4
   13e4e:	8b 45 10             	mov    0x10(%ebp),%eax
   13e51:	25 ff ff 00 00       	and    $0xffff,%eax
   13e56:	50                   	push   %eax
   13e57:	ff 75 0c             	pushl  0xc(%ebp)
   13e5a:	6a 00                	push   $0x0
   13e5c:	68 00 29 00 00       	push   $0x2900
   13e61:	68 a0 00 00 00       	push   $0xa0
   13e66:	6a 06                	push   $0x6
   13e68:	6a 00                	push   $0x0
   13e6a:	ff 75 08             	pushl  0x8(%ebp)
   13e6d:	e8 16 00 00 00       	call   13e88 <___create_pipe>
   13e72:	83 c4 08             	add    $0x8,%esp
   13e75:	0d 80 00 00 80       	or     $0x80000080,%eax
   13e7a:	50                   	push   %eax
   13e7b:	ff 75 08             	pushl  0x8(%ebp)
   13e7e:	e8 6d d3 ff ff       	call   111f0 <_usb_control_msg>
   13e83:	83 c4 30             	add    $0x30,%esp
   13e86:	c9                   	leave  
   13e87:	c3                   	ret    

00013e88 <___create_pipe>:
   13e88:	55                   	push   %ebp
   13e89:	89 e5                	mov    %esp,%ebp
   13e8b:	8b 45 08             	mov    0x8(%ebp),%eax
   13e8e:	8b 00                	mov    (%eax),%eax
   13e90:	c1 e0 08             	shl    $0x8,%eax
   13e93:	8b 55 0c             	mov    0xc(%ebp),%edx
   13e96:	c1 e2 0f             	shl    $0xf,%edx
   13e99:	09 d0                	or     %edx,%eax
   13e9b:	5d                   	pop    %ebp
   13e9c:	c3                   	ret    

00013e9d <_clear_hub_feature>:
   13e9d:	55                   	push   %ebp
   13e9e:	89 e5                	mov    %esp,%ebp
   13ea0:	83 ec 08             	sub    $0x8,%esp
   13ea3:	83 ec 0c             	sub    $0xc,%esp
   13ea6:	6a 64                	push   $0x64
   13ea8:	6a 00                	push   $0x0
   13eaa:	6a 00                	push   $0x0
   13eac:	6a 00                	push   $0x0
   13eae:	8b 45 0c             	mov    0xc(%ebp),%eax
   13eb1:	25 ff ff 00 00       	and    $0xffff,%eax
   13eb6:	50                   	push   %eax
   13eb7:	6a 20                	push   $0x20
   13eb9:	6a 01                	push   $0x1
   13ebb:	6a 00                	push   $0x0
   13ebd:	ff 75 08             	pushl  0x8(%ebp)
   13ec0:	e8 c3 ff ff ff       	call   13e88 <___create_pipe>
   13ec5:	83 c4 08             	add    $0x8,%esp
   13ec8:	0d 00 00 00 80       	or     $0x80000000,%eax
   13ecd:	50                   	push   %eax
   13ece:	ff 75 08             	pushl  0x8(%ebp)
   13ed1:	e8 1a d3 ff ff       	call   111f0 <_usb_control_msg>
   13ed6:	83 c4 30             	add    $0x30,%esp
   13ed9:	c9                   	leave  
   13eda:	c3                   	ret    

00013edb <_clear_port_feature>:
   13edb:	55                   	push   %ebp
   13edc:	89 e5                	mov    %esp,%ebp
   13ede:	83 ec 08             	sub    $0x8,%esp
   13ee1:	83 ec 0c             	sub    $0xc,%esp
   13ee4:	6a 64                	push   $0x64
   13ee6:	6a 00                	push   $0x0
   13ee8:	6a 00                	push   $0x0
   13eea:	8b 45 0c             	mov    0xc(%ebp),%eax
   13eed:	25 ff ff 00 00       	and    $0xffff,%eax
   13ef2:	50                   	push   %eax
   13ef3:	8b 45 10             	mov    0x10(%ebp),%eax
   13ef6:	25 ff ff 00 00       	and    $0xffff,%eax
   13efb:	50                   	push   %eax
   13efc:	6a 23                	push   $0x23
   13efe:	6a 01                	push   $0x1
   13f00:	6a 00                	push   $0x0
   13f02:	ff 75 08             	pushl  0x8(%ebp)
   13f05:	e8 7e ff ff ff       	call   13e88 <___create_pipe>
   13f0a:	83 c4 08             	add    $0x8,%esp
   13f0d:	0d 00 00 00 80       	or     $0x80000000,%eax
   13f12:	50                   	push   %eax
   13f13:	ff 75 08             	pushl  0x8(%ebp)
   13f16:	e8 d5 d2 ff ff       	call   111f0 <_usb_control_msg>
   13f1b:	83 c4 30             	add    $0x30,%esp
   13f1e:	c9                   	leave  
   13f1f:	c3                   	ret    

00013f20 <_set_port_feature>:
   13f20:	55                   	push   %ebp
   13f21:	89 e5                	mov    %esp,%ebp
   13f23:	83 ec 08             	sub    $0x8,%esp
   13f26:	83 ec 0c             	sub    $0xc,%esp
   13f29:	6a 64                	push   $0x64
   13f2b:	6a 00                	push   $0x0
   13f2d:	6a 00                	push   $0x0
   13f2f:	8b 45 0c             	mov    0xc(%ebp),%eax
   13f32:	25 ff ff 00 00       	and    $0xffff,%eax
   13f37:	50                   	push   %eax
   13f38:	8b 45 10             	mov    0x10(%ebp),%eax
   13f3b:	25 ff ff 00 00       	and    $0xffff,%eax
   13f40:	50                   	push   %eax
   13f41:	6a 23                	push   $0x23
   13f43:	6a 03                	push   $0x3
   13f45:	6a 00                	push   $0x0
   13f47:	ff 75 08             	pushl  0x8(%ebp)
   13f4a:	e8 39 ff ff ff       	call   13e88 <___create_pipe>
   13f4f:	83 c4 08             	add    $0x8,%esp
   13f52:	0d 00 00 00 80       	or     $0x80000000,%eax
   13f57:	50                   	push   %eax
   13f58:	ff 75 08             	pushl  0x8(%ebp)
   13f5b:	e8 90 d2 ff ff       	call   111f0 <_usb_control_msg>
   13f60:	83 c4 30             	add    $0x30,%esp
   13f63:	c9                   	leave  
   13f64:	c3                   	ret    

00013f65 <_get_hub_status>:
   13f65:	55                   	push   %ebp
   13f66:	89 e5                	mov    %esp,%ebp
   13f68:	83 ec 08             	sub    $0x8,%esp
   13f6b:	83 ec 0c             	sub    $0xc,%esp
   13f6e:	68 f4 01 00 00       	push   $0x1f4
   13f73:	6a 04                	push   $0x4
   13f75:	ff 75 0c             	pushl  0xc(%ebp)
   13f78:	6a 00                	push   $0x0
   13f7a:	6a 00                	push   $0x0
   13f7c:	68 a0 00 00 00       	push   $0xa0
   13f81:	6a 00                	push   $0x0
   13f83:	6a 00                	push   $0x0
   13f85:	ff 75 08             	pushl  0x8(%ebp)
   13f88:	e8 fb fe ff ff       	call   13e88 <___create_pipe>
   13f8d:	83 c4 08             	add    $0x8,%esp
   13f90:	0d 80 00 00 80       	or     $0x80000080,%eax
   13f95:	50                   	push   %eax
   13f96:	ff 75 08             	pushl  0x8(%ebp)
   13f99:	e8 52 d2 ff ff       	call   111f0 <_usb_control_msg>
   13f9e:	83 c4 30             	add    $0x30,%esp
   13fa1:	c9                   	leave  
   13fa2:	c3                   	ret    

00013fa3 <_get_port_status>:
   13fa3:	55                   	push   %ebp
   13fa4:	89 e5                	mov    %esp,%ebp
   13fa6:	83 ec 08             	sub    $0x8,%esp
   13fa9:	83 ec 0c             	sub    $0xc,%esp
   13fac:	68 f4 01 00 00       	push   $0x1f4
   13fb1:	6a 04                	push   $0x4
   13fb3:	ff 75 10             	pushl  0x10(%ebp)
   13fb6:	8b 45 0c             	mov    0xc(%ebp),%eax
   13fb9:	25 ff ff 00 00       	and    $0xffff,%eax
   13fbe:	50                   	push   %eax
   13fbf:	6a 00                	push   $0x0
   13fc1:	68 a3 00 00 00       	push   $0xa3
   13fc6:	6a 00                	push   $0x0
   13fc8:	6a 00                	push   $0x0
   13fca:	ff 75 08             	pushl  0x8(%ebp)
   13fcd:	e8 b6 fe ff ff       	call   13e88 <___create_pipe>
   13fd2:	83 c4 08             	add    $0x8,%esp
   13fd5:	0d 80 00 00 80       	or     $0x80000080,%eax
   13fda:	50                   	push   %eax
   13fdb:	ff 75 08             	pushl  0x8(%ebp)
   13fde:	e8 0d d2 ff ff       	call   111f0 <_usb_control_msg>
   13fe3:	83 c4 30             	add    $0x30,%esp
   13fe6:	c9                   	leave  
   13fe7:	c3                   	ret    

00013fe8 <_hub_irq>:
   13fe8:	55                   	push   %ebp
   13fe9:	89 e5                	mov    %esp,%ebp
   13feb:	83 ec 18             	sub    $0x18,%esp
   13fee:	8b 45 08             	mov    0x8(%ebp),%eax
   13ff1:	8b 40 54             	mov    0x54(%eax),%eax
   13ff4:	89 45 fc             	mov    %eax,0xfffffffc(%ebp)
   13ff7:	8b 45 08             	mov    0x8(%ebp),%eax
   13ffa:	8b 40 1c             	mov    0x1c(%eax),%eax
   13ffd:	89 45 f0             	mov    %eax,0xfffffff0(%ebp)
   14000:	83 7d f0 98          	cmpl   $0xffffff98,0xfffffff0(%ebp)
   14004:	0f 84 ad 00 00 00    	je     140b7 <_hub_irq+0xcf>
   1400a:	83 7d f0 98          	cmpl   $0xffffff98,0xfffffff0(%ebp)
   1400e:	7f 0c                	jg     1401c <_hub_irq+0x34>
   14010:	83 7d f0 94          	cmpl   $0xffffff94,0xfffffff0(%ebp)
   14014:	0f 84 9d 00 00 00    	je     140b7 <_hub_irq+0xcf>
   1401a:	eb 10                	jmp    1402c <_hub_irq+0x44>
   1401c:	83 7d f0 fe          	cmpl   $0xfffffffe,0xfffffff0(%ebp)
   14020:	0f 84 91 00 00 00    	je     140b7 <_hub_irq+0xcf>
   14026:	83 7d f0 00          	cmpl   $0x0,0xfffffff0(%ebp)
   1402a:	74 21                	je     1404d <_hub_irq+0x65>
   1402c:	8b 45 fc             	mov    0xfffffffc(%ebp),%eax
   1402f:	ff 40 18             	incl   0x18(%eax)
   14032:	83 78 18 09          	cmpl   $0x9,0x18(%eax)
   14036:	7e 63                	jle    1409b <_hub_irq+0xb3>
   14038:	8b 45 fc             	mov    0xfffffffc(%ebp),%eax
   1403b:	83 78 14 00          	cmpl   $0x0,0x14(%eax)
   1403f:	75 5a                	jne    1409b <_hub_irq+0xb3>
   14041:	8b 45 fc             	mov    0xfffffffc(%ebp),%eax
   14044:	8b 55 08             	mov    0x8(%ebp),%edx
   14047:	8b 52 1c             	mov    0x1c(%edx),%edx
   1404a:	89 50 14             	mov    %edx,0x14(%eax)
   1404d:	8b 45 fc             	mov    0xfffffffc(%ebp),%eax
   14050:	c7 40 18 00 00 00 00 	movl   $0x0,0x18(%eax)
   14057:	c7 45 f8 00 00 00 00 	movl   $0x0,0xfffffff8(%ebp)
   1405e:	83 ec 0c             	sub    $0xc,%esp
   14061:	8b 45 fc             	mov    0xfffffffc(%ebp),%eax
   14064:	83 c0 24             	add    $0x24,%eax
   14067:	50                   	push   %eax
   14068:	e8 91 00 00 00       	call   140fe <_list_empty>
   1406d:	83 c4 10             	add    $0x10,%esp
   14070:	85 c0                	test   %eax,%eax
   14072:	74 27                	je     1409b <_hub_irq+0xb3>
   14074:	83 ec 08             	sub    $0x8,%esp
   14077:	68 40 a0 01 00       	push   $0x1a040
   1407c:	8b 45 fc             	mov    0xfffffffc(%ebp),%eax
   1407f:	83 c0 24             	add    $0x24,%eax
   14082:	50                   	push   %eax
   14083:	e8 31 00 00 00       	call   140b9 <_list_add>
   14088:	83 c4 10             	add    $0x10,%esp
   1408b:	83 ec 0c             	sub    $0xc,%esp
   1408e:	68 50 c0 01 00       	push   $0x1c050
   14093:	e8 cd 57 00 00       	call   19865 <_my_wake_up>
   14098:	83 c4 10             	add    $0x10,%esp
   1409b:	83 ec 08             	sub    $0x8,%esp
   1409e:	6a 00                	push   $0x0
   140a0:	8b 45 fc             	mov    0xfffffffc(%ebp),%eax
   140a3:	ff 70 04             	pushl  0x4(%eax)
   140a6:	e8 f8 40 00 00       	call   181a3 <_usb_submit_urb@8>
   140ab:	83 c4 08             	add    $0x8,%esp
   140ae:	89 45 f4             	mov    %eax,0xfffffff4(%ebp)
   140b1:	83 7d f4 00          	cmpl   $0x0,0xfffffff4(%ebp)
   140b5:	74 00                	je     140b7 <_hub_irq+0xcf>
   140b7:	c9                   	leave  
   140b8:	c3                   	ret    

000140b9 <_list_add>:
   140b9:	55                   	push   %ebp
   140ba:	89 e5                	mov    %esp,%ebp
   140bc:	83 ec 08             	sub    $0x8,%esp
   140bf:	83 ec 04             	sub    $0x4,%esp
   140c2:	8b 45 0c             	mov    0xc(%ebp),%eax
   140c5:	ff 30                	pushl  (%eax)
   140c7:	ff 75 0c             	pushl  0xc(%ebp)
   140ca:	ff 75 08             	pushl  0x8(%ebp)
   140cd:	e8 05 00 00 00       	call   140d7 <___list_add>
   140d2:	83 c4 10             	add    $0x10,%esp
   140d5:	c9                   	leave  
   140d6:	c3                   	ret    

000140d7 <___list_add>:
   140d7:	55                   	push   %ebp
   140d8:	89 e5                	mov    %esp,%ebp
   140da:	8b 55 10             	mov    0x10(%ebp),%edx
   140dd:	8b 45 08             	mov    0x8(%ebp),%eax
   140e0:	89 42 04             	mov    %eax,0x4(%edx)
   140e3:	8b 55 08             	mov    0x8(%ebp),%edx
   140e6:	8b 45 10             	mov    0x10(%ebp),%eax
   140e9:	89 02                	mov    %eax,(%edx)
   140eb:	8b 55 08             	mov    0x8(%ebp),%edx
   140ee:	8b 45 0c             	mov    0xc(%ebp),%eax
   140f1:	89 42 04             	mov    %eax,0x4(%edx)
   140f4:	8b 55 0c             	mov    0xc(%ebp),%edx
   140f7:	8b 45 08             	mov    0x8(%ebp),%eax
   140fa:	89 02                	mov    %eax,(%edx)
   140fc:	5d                   	pop    %ebp
   140fd:	c3                   	ret    

000140fe <_list_empty>:
   140fe:	55                   	push   %ebp
   140ff:	89 e5                	mov    %esp,%ebp
   14101:	8b 45 08             	mov    0x8(%ebp),%eax
   14104:	8b 00                	mov    (%eax),%eax
   14106:	3b 45 08             	cmp    0x8(%ebp),%eax
   14109:	0f 94 c0             	sete   %al
   1410c:	25 ff 00 00 00       	and    $0xff,%eax
   14111:	5d                   	pop    %ebp
   14112:	c3                   	ret    

00014113 <_hub_tt_kevent>:
   14113:	55                   	push   %ebp
   14114:	89 e5                	mov    %esp,%ebp
   14116:	83 ec 28             	sub    $0x28,%esp
   14119:	8b 45 08             	mov    0x8(%ebp),%eax
   1411c:	89 45 fc             	mov    %eax,0xfffffffc(%ebp)
   1411f:	c7 45 f8 00 00 00 00 	movl   $0x0,0xfffffff8(%ebp)
   14126:	8b 45 fc             	mov    0xfffffffc(%ebp),%eax
   14129:	83 c0 40             	add    $0x40,%eax
   1412c:	50                   	push   %eax
   1412d:	e8 cc ff ff ff       	call   140fe <_list_empty>
   14132:	83 c4 04             	add    $0x4,%esp
   14135:	85 c0                	test   %eax,%eax
   14137:	75 7a                	jne    141b3 <_hub_tt_kevent+0xa0>
   14139:	8b 45 fc             	mov    0xfffffffc(%ebp),%eax
   1413c:	8b 40 40             	mov    0x40(%eax),%eax
   1413f:	89 45 f4             	mov    %eax,0xfffffff4(%ebp)
   14142:	8b 45 f4             	mov    0xfffffff4(%ebp),%eax
   14145:	89 45 f0             	mov    %eax,0xfffffff0(%ebp)
   14148:	83 ec 0c             	sub    $0xc,%esp
   1414b:	ff 75 f0             	pushl  0xfffffff0(%ebp)
   1414e:	e8 b9 00 00 00       	call   1420c <_list_del>
   14153:	83 c4 10             	add    $0x10,%esp
   14156:	8b 45 fc             	mov    0xfffffffc(%ebp),%eax
   14159:	8b 00                	mov    (%eax),%eax
   1415b:	8b 80 b8 00 00 00    	mov    0xb8(%eax),%eax
   14161:	89 45 e4             	mov    %eax,0xffffffe4(%ebp)
   14164:	8b 45 e4             	mov    0xffffffe4(%ebp),%eax
   14167:	2d c0 00 00 00       	sub    $0xc0,%eax
   1416c:	89 45 ec             	mov    %eax,0xffffffec(%ebp)
   1416f:	83 ec 04             	sub    $0x4,%esp
   14172:	8b 45 f0             	mov    0xfffffff0(%ebp),%eax
   14175:	8b 40 08             	mov    0x8(%eax),%eax
   14178:	25 ff ff 00 00       	and    $0xffff,%eax
   1417d:	50                   	push   %eax
   1417e:	8b 45 f0             	mov    0xfffffff0(%ebp),%eax
   14181:	66 8b 40 0c          	mov    0xc(%eax),%ax
   14185:	25 ff ff 00 00       	and    $0xffff,%eax
   1418a:	50                   	push   %eax
   1418b:	ff 75 ec             	pushl  0xffffffec(%ebp)
   1418e:	e8 22 00 00 00       	call   141b5 <_hub_clear_tt_buffer>
   14193:	83 c4 10             	add    $0x10,%esp
   14196:	89 45 e8             	mov    %eax,0xffffffe8(%ebp)
   14199:	c7 45 f8 00 00 00 00 	movl   $0x0,0xfffffff8(%ebp)
   141a0:	83 ec 0c             	sub    $0xc,%esp
   141a3:	ff 75 f0             	pushl  0xfffffff0(%ebp)
   141a6:	e8 95 58 00 00       	call   19a40 <_ExFreePool@4>
   141ab:	83 c4 0c             	add    $0xc,%esp
   141ae:	e9 73 ff ff ff       	jmp    14126 <_hub_tt_kevent+0x13>
   141b3:	c9                   	leave  
   141b4:	c3                   	ret    

000141b5 <_hub_clear_tt_buffer>:
   141b5:	55                   	push   %ebp
   141b6:	89 e5                	mov    %esp,%ebp
   141b8:	83 ec 08             	sub    $0x8,%esp
   141bb:	8b 45 0c             	mov    0xc(%ebp),%eax
   141be:	8b 55 10             	mov    0x10(%ebp),%edx
   141c1:	66 89 45 fe          	mov    %ax,0xfffffffe(%ebp)
   141c5:	66 89 55 fc          	mov    %dx,0xfffffffc(%ebp)
   141c9:	83 ec 0c             	sub    $0xc,%esp
   141cc:	6a 64                	push   $0x64
   141ce:	6a 00                	push   $0x0
   141d0:	6a 00                	push   $0x0
   141d2:	8b 45 fc             	mov    0xfffffffc(%ebp),%eax
   141d5:	25 ff ff 00 00       	and    $0xffff,%eax
   141da:	50                   	push   %eax
   141db:	66 8b 45 fe          	mov    0xfffffffe(%ebp),%ax
   141df:	25 ff ff 00 00       	and    $0xffff,%eax
   141e4:	50                   	push   %eax
   141e5:	68 83 00 00 00       	push   $0x83
   141ea:	6a 08                	push   $0x8
   141ec:	6a 00                	push   $0x0
   141ee:	ff 75 08             	pushl  0x8(%ebp)
   141f1:	e8 92 fc ff ff       	call   13e88 <___create_pipe>
   141f6:	83 c4 08             	add    $0x8,%esp
   141f9:	0d 80 00 00 80       	or     $0x80000080,%eax
   141fe:	50                   	push   %eax
   141ff:	ff 75 08             	pushl  0x8(%ebp)
   14202:	e8 e9 cf ff ff       	call   111f0 <_usb_control_msg>
   14207:	83 c4 30             	add    $0x30,%esp
   1420a:	c9                   	leave  
   1420b:	c3                   	ret    

0001420c <_list_del>:
   1420c:	55                   	push   %ebp
   1420d:	89 e5                	mov    %esp,%ebp
   1420f:	83 ec 08             	sub    $0x8,%esp
   14212:	83 ec 08             	sub    $0x8,%esp
   14215:	8b 45 08             	mov    0x8(%ebp),%eax
   14218:	ff 30                	pushl  (%eax)
   1421a:	8b 45 08             	mov    0x8(%ebp),%eax
   1421d:	ff 70 04             	pushl  0x4(%eax)
   14220:	e8 18 00 00 00       	call   1423d <___list_del>
   14225:	83 c4 10             	add    $0x10,%esp
   14228:	8b 45 08             	mov    0x8(%ebp),%eax
   1422b:	c7 00 00 00 00 00    	movl   $0x0,(%eax)
   14231:	8b 45 08             	mov    0x8(%ebp),%eax
   14234:	c7 40 04 00 00 00 00 	movl   $0x0,0x4(%eax)
   1423b:	c9                   	leave  
   1423c:	c3                   	ret    

0001423d <___list_del>:
   1423d:	55                   	push   %ebp
   1423e:	89 e5                	mov    %esp,%ebp
   14240:	8b 55 0c             	mov    0xc(%ebp),%edx
   14243:	8b 45 08             	mov    0x8(%ebp),%eax
   14246:	89 42 04             	mov    %eax,0x4(%edx)
   14249:	8b 55 08             	mov    0x8(%ebp),%edx
   1424c:	8b 45 0c             	mov    0xc(%ebp),%eax
   1424f:	89 02                	mov    %eax,(%edx)
   14251:	5d                   	pop    %ebp
   14252:	c3                   	ret    

00014253 <_usb_hub_tt_clear_buffer>:
   14253:	55                   	push   %ebp
   14254:	89 e5                	mov    %esp,%ebp
   14256:	83 ec 28             	sub    $0x28,%esp
   14259:	8b 45 08             	mov    0x8(%ebp),%eax
   1425c:	8b 40 1c             	mov    0x1c(%eax),%eax
   1425f:	89 45 fc             	mov    %eax,0xfffffffc(%ebp)
   14262:	83 ec 08             	sub    $0x8,%esp
   14265:	6a 10                	push   $0x10
   14267:	6a 01                	push   $0x1
   14269:	e8 c2 57 00 00       	call   19a30 <_ExAllocatePool@8>
   1426e:	83 c4 08             	add    $0x8,%esp
   14271:	89 45 f4             	mov    %eax,0xfffffff4(%ebp)
   14274:	8b 45 f4             	mov    0xfffffff4(%ebp),%eax
   14277:	85 c0                	test   %eax,%eax
   14279:	75 05                	jne    14280 <_usb_hub_tt_clear_buffer+0x2d>
   1427b:	e9 d3 00 00 00       	jmp    14353 <_usb_hub_tt_clear_buffer+0x100>
   14280:	8b 45 f4             	mov    0xfffffff4(%ebp),%eax
   14283:	89 45 f0             	mov    %eax,0xfffffff0(%ebp)
   14286:	8b 45 fc             	mov    0xfffffffc(%ebp),%eax
   14289:	83 78 04 00          	cmpl   $0x0,0x4(%eax)
   1428d:	74 0b                	je     1429a <_usb_hub_tt_clear_buffer+0x47>
   1428f:	8b 45 08             	mov    0x8(%ebp),%eax
   14292:	8b 40 20             	mov    0x20(%eax),%eax
   14295:	89 45 ec             	mov    %eax,0xffffffec(%ebp)
   14298:	eb 07                	jmp    142a1 <_usb_hub_tt_clear_buffer+0x4e>
   1429a:	c7 45 ec 01 00 00 00 	movl   $0x1,0xffffffec(%ebp)
   142a1:	8b 45 ec             	mov    0xffffffec(%ebp),%eax
   142a4:	8b 55 f0             	mov    0xfffffff0(%ebp),%edx
   142a7:	89 42 08             	mov    %eax,0x8(%edx)
   142aa:	8b 55 f4             	mov    0xfffffff4(%ebp),%edx
   142ad:	8b 45 0c             	mov    0xc(%ebp),%eax
   142b0:	c1 f8 0f             	sar    $0xf,%eax
   142b3:	83 e0 0f             	and    $0xf,%eax
   142b6:	66 89 42 0c          	mov    %ax,0xc(%edx)
   142ba:	8b 4d f4             	mov    0xfffffff4(%ebp),%ecx
   142bd:	8b 55 f4             	mov    0xfffffff4(%ebp),%edx
   142c0:	8b 45 08             	mov    0x8(%ebp),%eax
   142c3:	8b 00                	mov    (%eax),%eax
   142c5:	c1 e0 04             	shl    $0x4,%eax
   142c8:	66 0b 42 0c          	or     0xc(%edx),%ax
   142cc:	66 89 41 0c          	mov    %ax,0xc(%ecx)
   142d0:	8b 55 f4             	mov    0xfffffff4(%ebp),%edx
   142d3:	89 55 e8             	mov    %edx,0xffffffe8(%ebp)
   142d6:	8b 45 f4             	mov    0xfffffff4(%ebp),%eax
   142d9:	66 8b 40 0c          	mov    0xc(%eax),%ax
   142dd:	25 ff ff 00 00       	and    $0xffff,%eax
   142e2:	89 45 e4             	mov    %eax,0xffffffe4(%ebp)
   142e5:	8b 45 0c             	mov    0xc(%ebp),%eax
   142e8:	c1 f8 1e             	sar    $0x1e,%eax
   142eb:	83 e0 03             	and    $0x3,%eax
   142ee:	83 f8 02             	cmp    $0x2,%eax
   142f1:	74 07                	je     142fa <_usb_hub_tt_clear_buffer+0xa7>
   142f3:	81 4d e4 00 10 00 00 	orl    $0x1000,0xffffffe4(%ebp)
   142fa:	8b 55 e4             	mov    0xffffffe4(%ebp),%edx
   142fd:	8b 45 e8             	mov    0xffffffe8(%ebp),%eax
   14300:	66 89 50 0c          	mov    %dx,0xc(%eax)
   14304:	8b 45 0c             	mov    0xc(%ebp),%eax
   14307:	c1 e8 07             	shr    $0x7,%eax
   1430a:	83 e0 01             	and    $0x1,%eax
   1430d:	85 c0                	test   %eax,%eax
   1430f:	74 14                	je     14325 <_usb_hub_tt_clear_buffer+0xd2>
   14311:	8b 45 f4             	mov    0xfffffff4(%ebp),%eax
   14314:	8b 55 f4             	mov    0xfffffff4(%ebp),%edx
   14317:	66 8b 52 0c          	mov    0xc(%edx),%dx
   1431b:	81 ca 00 80 ff ff    	or     $0xffff8000,%edx
   14321:	66 89 50 0c          	mov    %dx,0xc(%eax)
   14325:	c7 45 f8 00 00 00 00 	movl   $0x0,0xfffffff8(%ebp)
   1432c:	83 ec 08             	sub    $0x8,%esp
   1432f:	8b 45 fc             	mov    0xfffffffc(%ebp),%eax
   14332:	83 c0 0c             	add    $0xc,%eax
   14335:	50                   	push   %eax
   14336:	ff 75 f4             	pushl  0xfffffff4(%ebp)
   14339:	e8 1c 00 00 00       	call   1435a <_list_add_tail>
   1433e:	83 c4 10             	add    $0x10,%esp
   14341:	83 ec 0c             	sub    $0xc,%esp
   14344:	8b 45 fc             	mov    0xfffffffc(%ebp),%eax
   14347:	83 c0 14             	add    $0x14,%eax
   1434a:	50                   	push   %eax
   1434b:	e8 05 00 00 00       	call   14355 <_schedule_work>
   14350:	83 c4 10             	add    $0x10,%esp
   14353:	c9                   	leave  
   14354:	c3                   	ret    

00014355 <_schedule_work>:
   14355:	55                   	push   %ebp
   14356:	89 e5                	mov    %esp,%ebp
   14358:	5d                   	pop    %ebp
   14359:	c3                   	ret    

0001435a <_list_add_tail>:
   1435a:	55                   	push   %ebp
   1435b:	89 e5                	mov    %esp,%ebp
   1435d:	ff 75 0c             	pushl  0xc(%ebp)
   14360:	8b 45 0c             	mov    0xc(%ebp),%eax
   14363:	ff 70 04             	pushl  0x4(%eax)
   14366:	ff 75 08             	pushl  0x8(%ebp)
   14369:	e8 69 fd ff ff       	call   140d7 <___list_add>
   1436e:	83 c4 0c             	add    $0xc,%esp
   14371:	c9                   	leave  
   14372:	c3                   	ret    

00014373 <_hub_power_on>:
   14373:	55                   	push   %ebp
   14374:	89 e5                	mov    %esp,%ebp
   14376:	83 ec 18             	sub    $0x18,%esp
   14379:	8b 45 08             	mov    0x8(%ebp),%eax
   1437c:	8b 00                	mov    (%eax),%eax
   1437e:	8b 80 b8 00 00 00    	mov    0xb8(%eax),%eax
   14384:	89 45 f4             	mov    %eax,0xfffffff4(%ebp)
   14387:	8b 45 f4             	mov    0xfffffff4(%ebp),%eax
   1438a:	2d c0 00 00 00       	sub    $0xc0,%eax
   1438f:	89 45 fc             	mov    %eax,0xfffffffc(%ebp)
   14392:	c7 45 f8 00 00 00 00 	movl   $0x0,0xfffffff8(%ebp)
   14399:	8b 45 08             	mov    0x8(%ebp),%eax
   1439c:	8b 40 2c             	mov    0x2c(%eax),%eax
   1439f:	8a 40 02             	mov    0x2(%eax),%al
   143a2:	25 ff 00 00 00       	and    $0xff,%eax
   143a7:	3b 45 f8             	cmp    0xfffffff8(%ebp),%eax
   143aa:	7e 1c                	jle    143c8 <_hub_power_on+0x55>
   143ac:	83 ec 04             	sub    $0x4,%esp
   143af:	6a 08                	push   $0x8
   143b1:	8b 45 f8             	mov    0xfffffff8(%ebp),%eax
   143b4:	40                   	inc    %eax
   143b5:	50                   	push   %eax
   143b6:	ff 75 fc             	pushl  0xfffffffc(%ebp)
   143b9:	e8 62 fb ff ff       	call   13f20 <_set_port_feature>
   143be:	83 c4 10             	add    $0x10,%esp
   143c1:	8d 45 f8             	lea    0xfffffff8(%ebp),%eax
   143c4:	ff 00                	incl   (%eax)
   143c6:	eb d1                	jmp    14399 <_hub_power_on+0x26>
   143c8:	83 ec 0c             	sub    $0xc,%esp
   143cb:	8b 45 08             	mov    0x8(%ebp),%eax
   143ce:	8b 40 2c             	mov    0x2c(%eax),%eax
   143d1:	8a 40 05             	mov    0x5(%eax),%al
   143d4:	25 ff 00 00 00       	and    $0xff,%eax
   143d9:	01 c0                	add    %eax,%eax
   143db:	50                   	push   %eax
   143dc:	e8 cf 50 00 00       	call   194b0 <_wait_ms>
   143e1:	83 c4 10             	add    $0x10,%esp
   143e4:	c9                   	leave  
   143e5:	c3                   	ret    

000143e6 <_hub_hub_status>:
   143e6:	55                   	push   %ebp
   143e7:	89 e5                	mov    %esp,%ebp
   143e9:	83 ec 08             	sub    $0x8,%esp
   143ec:	8b 45 08             	mov    0x8(%ebp),%eax
   143ef:	8b 00                	mov    (%eax),%eax
   143f1:	8b 80 b8 00 00 00    	mov    0xb8(%eax),%eax
   143f7:	89 45 f8             	mov    %eax,0xfffffff8(%ebp)
   143fa:	8b 45 f8             	mov    0xfffffff8(%ebp),%eax
   143fd:	2d c0 00 00 00       	sub    $0xc0,%eax
   14402:	89 45 fc             	mov    %eax,0xfffffffc(%ebp)
   14405:	83 ec 08             	sub    $0x8,%esp
   14408:	8b 45 08             	mov    0x8(%ebp),%eax
   1440b:	ff 70 10             	pushl  0x10(%eax)
   1440e:	ff 75 fc             	pushl  0xfffffffc(%ebp)
   14411:	e8 4f fb ff ff       	call   13f65 <_get_hub_status>
   14416:	83 c4 10             	add    $0x10,%esp
   14419:	89 45 f8             	mov    %eax,0xfffffff8(%ebp)
   1441c:	83 7d f8 00          	cmpl   $0x0,0xfffffff8(%ebp)
   14420:	79 02                	jns    14424 <_hub_hub_status+0x3e>
   14422:	eb 26                	jmp    1444a <_hub_hub_status+0x64>
   14424:	8b 55 0c             	mov    0xc(%ebp),%edx
   14427:	8b 45 08             	mov    0x8(%ebp),%eax
   1442a:	8b 40 10             	mov    0x10(%eax),%eax
   1442d:	66 8b 00             	mov    (%eax),%ax
   14430:	66 89 02             	mov    %ax,(%edx)
   14433:	8b 55 10             	mov    0x10(%ebp),%edx
   14436:	8b 45 08             	mov    0x8(%ebp),%eax
   14439:	8b 40 10             	mov    0x10(%eax),%eax
   1443c:	66 8b 40 02          	mov    0x2(%eax),%ax
   14440:	66 89 02             	mov    %ax,(%edx)
   14443:	c7 45 f8 00 00 00 00 	movl   $0x0,0xfffffff8(%ebp)
   1444a:	8b 45 f8             	mov    0xfffffff8(%ebp),%eax
   1444d:	c9                   	leave  
   1444e:	c3                   	ret    

0001444f <_hub_configure>:
   1444f:	55                   	push   %ebp
   14450:	89 e5                	mov    %esp,%ebp
   14452:	53                   	push   %ebx
   14453:	83 ec 74             	sub    $0x74,%esp
   14456:	8b 45 08             	mov    0x8(%ebp),%eax
   14459:	8b 00                	mov    (%eax),%eax
   1445b:	8b 80 b8 00 00 00    	mov    0xb8(%eax),%eax
   14461:	89 45 f0             	mov    %eax,0xfffffff0(%ebp)
   14464:	8b 45 f0             	mov    0xfffffff0(%ebp),%eax
   14467:	2d c0 00 00 00       	sub    $0xc0,%eax
   1446c:	89 45 f4             	mov    %eax,0xfffffff4(%ebp)
   1446f:	8b 5d 08             	mov    0x8(%ebp),%ebx
   14472:	8b 45 08             	mov    0x8(%ebp),%eax
   14475:	83 c0 0c             	add    $0xc,%eax
   14478:	50                   	push   %eax
   14479:	6a 00                	push   $0x0
   1447b:	6a 03                	push   $0x3
   1447d:	ff 75 f4             	pushl  0xfffffff4(%ebp)
   14480:	e8 dd 2b 00 00       	call   17062 <_usb_buffer_alloc>
   14485:	83 c4 10             	add    $0x10,%esp
   14488:	89 43 08             	mov    %eax,0x8(%ebx)
   1448b:	8b 45 08             	mov    0x8(%ebp),%eax
   1448e:	83 78 08 00          	cmpl   $0x0,0x8(%eax)
   14492:	75 13                	jne    144a7 <_hub_configure+0x58>
   14494:	c7 45 dc 58 b1 01 00 	movl   $0x1b158,0xffffffdc(%ebp)
   1449b:	c7 45 e0 f4 ff ff ff 	movl   $0xfffffff4,0xffffffe0(%ebp)
   144a2:	e9 88 03 00 00       	jmp    1482f <_hub_configure+0x3e0>
   144a7:	8b 5d 08             	mov    0x8(%ebp),%ebx
   144aa:	83 ec 08             	sub    $0x8,%esp
   144ad:	6a 04                	push   $0x4
   144af:	6a 01                	push   $0x1
   144b1:	e8 7a 55 00 00       	call   19a30 <_ExAllocatePool@8>
   144b6:	83 c4 08             	add    $0x8,%esp
   144b9:	89 43 10             	mov    %eax,0x10(%ebx)
   144bc:	8b 45 08             	mov    0x8(%ebp),%eax
   144bf:	83 78 10 00          	cmpl   $0x0,0x10(%eax)
   144c3:	75 13                	jne    144d8 <_hub_configure+0x89>
   144c5:	c7 45 dc 78 b1 01 00 	movl   $0x1b178,0xffffffdc(%ebp)
   144cc:	c7 45 e0 f4 ff ff ff 	movl   $0xfffffff4,0xffffffe0(%ebp)
   144d3:	e9 57 03 00 00       	jmp    1482f <_hub_configure+0x3e0>
   144d8:	8b 5d 08             	mov    0x8(%ebp),%ebx
   144db:	83 ec 08             	sub    $0x8,%esp
   144de:	6a 0d                	push   $0xd
   144e0:	6a 01                	push   $0x1
   144e2:	e8 49 55 00 00       	call   19a30 <_ExAllocatePool@8>
   144e7:	83 c4 08             	add    $0x8,%esp
   144ea:	89 43 2c             	mov    %eax,0x2c(%ebx)
   144ed:	8b 45 08             	mov    0x8(%ebp),%eax
   144f0:	83 78 2c 00          	cmpl   $0x0,0x2c(%eax)
   144f4:	75 13                	jne    14509 <_hub_configure+0xba>
   144f6:	c7 45 dc 98 b1 01 00 	movl   $0x1b198,0xffffffdc(%ebp)
   144fd:	c7 45 e0 f4 ff ff ff 	movl   $0xfffffff4,0xffffffe0(%ebp)
   14504:	e9 26 03 00 00       	jmp    1482f <_hub_configure+0x3e0>
   14509:	83 ec 04             	sub    $0x4,%esp
   1450c:	6a 0d                	push   $0xd
   1450e:	8b 45 08             	mov    0x8(%ebp),%eax
   14511:	ff 70 2c             	pushl  0x2c(%eax)
   14514:	ff 75 f4             	pushl  0xfffffff4(%ebp)
   14517:	e8 24 f9 ff ff       	call   13e40 <_get_hub_descriptor>
   1451c:	83 c4 10             	add    $0x10,%esp
   1451f:	89 45 e0             	mov    %eax,0xffffffe0(%ebp)
   14522:	83 7d e0 00          	cmpl   $0x0,0xffffffe0(%ebp)
   14526:	79 0c                	jns    14534 <_hub_configure+0xe5>
   14528:	c7 45 dc b5 b1 01 00 	movl   $0x1b1b5,0xffffffdc(%ebp)
   1452f:	e9 fb 02 00 00       	jmp    1482f <_hub_configure+0x3e0>
   14534:	8b 45 08             	mov    0x8(%ebp),%eax
   14537:	8b 40 2c             	mov    0x2c(%eax),%eax
   1453a:	80 78 02 10          	cmpb   $0x10,0x2(%eax)
   1453e:	76 13                	jbe    14553 <_hub_configure+0x104>
   14540:	c7 45 dc cf b1 01 00 	movl   $0x1b1cf,0xffffffdc(%ebp)
   14547:	c7 45 e0 ed ff ff ff 	movl   $0xffffffed,0xffffffe0(%ebp)
   1454e:	e9 dc 02 00 00       	jmp    1482f <_hub_configure+0x3e0>
   14553:	83 ec 0c             	sub    $0xc,%esp
   14556:	ff 75 f4             	pushl  0xfffffff4(%ebp)
   14559:	e8 49 03 00 00       	call   148a7 <_hubdev>
   1455e:	83 c4 10             	add    $0x10,%esp
   14561:	89 45 f0             	mov    %eax,0xfffffff0(%ebp)
   14564:	8b 55 f4             	mov    0xfffffff4(%ebp),%edx
   14567:	8b 45 08             	mov    0x8(%ebp),%eax
   1456a:	8b 40 2c             	mov    0x2c(%eax),%eax
   1456d:	8a 40 02             	mov    0x2(%eax),%al
   14570:	25 ff 00 00 00       	and    $0xff,%eax
   14575:	89 82 ac 01 00 00    	mov    %eax,0x1ac(%edx)
   1457b:	8b 45 08             	mov    0x8(%ebp),%eax
   1457e:	8b 40 2c             	mov    0x2c(%eax),%eax
   14581:	66 8b 40 03          	mov    0x3(%eax),%ax
   14585:	25 ff ff 00 00       	and    $0xffff,%eax
   1458a:	c1 e8 02             	shr    $0x2,%eax
   1458d:	83 e0 01             	and    $0x1,%eax
   14590:	85 c0                	test   %eax,%eax
   14592:	0f 84 b5 00 00 00    	je     1464d <_hub_configure+0x1fe>
   14598:	c7 45 d8 00 00 00 00 	movl   $0x0,0xffffffd8(%ebp)
   1459f:	8b 45 f4             	mov    0xfffffff4(%ebp),%eax
   145a2:	8b 80 ac 01 00 00    	mov    0x1ac(%eax),%eax
   145a8:	3b 45 d8             	cmp    0xffffffd8(%ebp),%eax
   145ab:	0f 8e 88 00 00 00    	jle    14639 <_hub_configure+0x1ea>
   145b1:	8d 45 f8             	lea    0xfffffff8(%ebp),%eax
   145b4:	03 45 d8             	add    0xffffffd8(%ebp),%eax
   145b7:	83 e8 40             	sub    $0x40,%eax
   145ba:	89 45 b0             	mov    %eax,0xffffffb0(%ebp)
   145bd:	8b 45 08             	mov    0x8(%ebp),%eax
   145c0:	8b 40 2c             	mov    0x2c(%eax),%eax
   145c3:	89 45 a8             	mov    %eax,0xffffffa8(%ebp)
   145c6:	8b 45 d8             	mov    0xffffffd8(%ebp),%eax
   145c9:	40                   	inc    %eax
   145ca:	89 45 a4             	mov    %eax,0xffffffa4(%ebp)
   145cd:	83 7d a4 00          	cmpl   $0x0,0xffffffa4(%ebp)
   145d1:	79 04                	jns    145d7 <_hub_configure+0x188>
   145d3:	83 45 a4 07          	addl   $0x7,0xffffffa4(%ebp)
   145d7:	8b 45 a4             	mov    0xffffffa4(%ebp),%eax
   145da:	c1 f8 03             	sar    $0x3,%eax
   145dd:	8b 4d a8             	mov    0xffffffa8(%ebp),%ecx
   145e0:	ba 00 00 00 00       	mov    $0x0,%edx
   145e5:	8a 54 08 07          	mov    0x7(%eax,%ecx,1),%dl
   145e9:	89 55 a0             	mov    %edx,0xffffffa0(%ebp)
   145ec:	8b 45 d8             	mov    0xffffffd8(%ebp),%eax
   145ef:	40                   	inc    %eax
   145f0:	89 45 9c             	mov    %eax,0xffffff9c(%ebp)
   145f3:	8b 55 9c             	mov    0xffffff9c(%ebp),%edx
   145f6:	89 55 98             	mov    %edx,0xffffff98(%ebp)
   145f9:	83 7d 98 00          	cmpl   $0x0,0xffffff98(%ebp)
   145fd:	79 04                	jns    14603 <_hub_configure+0x1b4>
   145ff:	83 45 98 07          	addl   $0x7,0xffffff98(%ebp)
   14603:	8b 45 98             	mov    0xffffff98(%ebp),%eax
   14606:	c1 f8 03             	sar    $0x3,%eax
   14609:	c1 e0 03             	shl    $0x3,%eax
   1460c:	8b 4d 9c             	mov    0xffffff9c(%ebp),%ecx
   1460f:	29 c1                	sub    %eax,%ecx
   14611:	8b 45 a0             	mov    0xffffffa0(%ebp),%eax
   14614:	d3 f8                	sar    %cl,%eax
   14616:	83 e0 01             	and    $0x1,%eax
   14619:	85 c0                	test   %eax,%eax
   1461b:	74 06                	je     14623 <_hub_configure+0x1d4>
   1461d:	c6 45 af 46          	movb   $0x46,0xffffffaf(%ebp)
   14621:	eb 04                	jmp    14627 <_hub_configure+0x1d8>
   14623:	c6 45 af 52          	movb   $0x52,0xffffffaf(%ebp)
   14627:	8a 4d af             	mov    0xffffffaf(%ebp),%cl
   1462a:	8b 45 b0             	mov    0xffffffb0(%ebp),%eax
   1462d:	88 08                	mov    %cl,(%eax)
   1462f:	8d 45 d8             	lea    0xffffffd8(%ebp),%eax
   14632:	ff 00                	incl   (%eax)
   14634:	e9 66 ff ff ff       	jmp    1459f <_hub_configure+0x150>
   14639:	8b 45 f4             	mov    0xfffffff4(%ebp),%eax
   1463c:	8d 55 f8             	lea    0xfffffff8(%ebp),%edx
   1463f:	03 90 ac 01 00 00    	add    0x1ac(%eax),%edx
   14645:	89 d0                	mov    %edx,%eax
   14647:	83 e8 40             	sub    $0x40,%eax
   1464a:	c6 00 00             	movb   $0x0,(%eax)
   1464d:	8b 55 08             	mov    0x8(%ebp),%edx
   14650:	83 c2 40             	add    $0x40,%edx
   14653:	8b 45 08             	mov    0x8(%ebp),%eax
   14656:	83 c0 40             	add    $0x40,%eax
   14659:	89 02                	mov    %eax,(%edx)
   1465b:	8b 55 08             	mov    0x8(%ebp),%edx
