
usbcore.nostrip.sys:     file format pei-i386

Disassembly of section .text:

00011000 <__end__>:
   11000:	55                   	push   %ebp
   11001:	89 e5                	mov    %esp,%ebp
   11003:	83 ec 08             	sub    $0x8,%esp
   11006:	8b 45 08             	mov    0x8(%ebp),%eax
   11009:	8b 40 54             	mov    0x54(%eax),%eax
   1100c:	89 45 fc             	mov    %eax,0xfffffffc(%ebp)
   1100f:	8b 45 fc             	mov    0xfffffffc(%ebp),%eax
   11012:	c7 40 04 01 00 00 00 	movl   $0x1,0x4(%eax)
   11019:	83 ec 0c             	sub    $0xc,%esp
   1101c:	ff 75 fc             	pushl  0xfffffffc(%ebp)
   1101f:	e8 41 88 00 00       	call   19865 <_my_wake_up>
   11024:	83 c4 10             	add    $0x10,%esp
   11027:	c9                   	leave  
   11028:	c3                   	ret    

00011029 <_usb_start_wait_urb>:
   11029:	55                   	push   %ebp
   1102a:	89 e5                	mov    %esp,%ebp
   1102c:	83 ec 18             	sub    $0x18,%esp
   1102f:	c7 45 fc 00 00 00 00 	movl   $0x0,0xfffffffc(%ebp)
   11036:	8b 45 08             	mov    0x8(%ebp),%eax
   11039:	8d 55 f8             	lea    0xfffffff8(%ebp),%edx
   1103c:	89 50 54             	mov    %edx,0x54(%eax)
   1103f:	83 ec 08             	sub    $0x8,%esp
   11042:	6a 00                	push   $0x0
   11044:	ff 75 08             	pushl  0x8(%ebp)
   11047:	e8 57 71 00 00       	call   181a3 <_usb_submit_urb@8>
   1104c:	83 c4 08             	add    $0x8,%esp
   1104f:	89 45 f4             	mov    %eax,0xfffffff4(%ebp)
   11052:	83 7d f4 00          	cmpl   $0x0,0xfffffff4(%ebp)
   11056:	74 19                	je     11071 <_usb_start_wait_urb+0x48>
   11058:	83 ec 0c             	sub    $0xc,%esp
   1105b:	ff 75 08             	pushl  0x8(%ebp)
   1105e:	e8 d3 70 00 00       	call   18136 <_usb_free_urb@4>
   11063:	83 c4 0c             	add    $0xc,%esp
   11066:	8b 45 f4             	mov    0xfffffff4(%ebp),%eax
   11069:	89 45 f0             	mov    %eax,0xfffffff0(%ebp)
   1106c:	e9 bd 00 00 00       	jmp    1112e <_usb_start_wait_urb+0x105>
   11071:	83 7d 0c 00          	cmpl   $0x0,0xc(%ebp)
   11075:	74 1f                	je     11096 <_usb_start_wait_urb+0x6d>
   11077:	83 7d fc 00          	cmpl   $0x0,0xfffffffc(%ebp)
   1107b:	75 19                	jne    11096 <_usb_start_wait_urb+0x6d>
   1107d:	83 ec 0c             	sub    $0xc,%esp
   11080:	ff 75 0c             	pushl  0xc(%ebp)
   11083:	e8 ec 87 00 00       	call   19874 <_my_schedule_timeout>
   11088:	83 c4 10             	add    $0x10,%esp
   1108b:	89 45 0c             	mov    %eax,0xc(%ebp)
   1108e:	f0 83 44 24 00 00    	lock addl $0x0,0x0(%esp,1)
   11094:	eb db                	jmp    11071 <_usb_start_wait_urb+0x48>
   11096:	83 7d 0c 00          	cmpl   $0x0,0xc(%ebp)
   1109a:	75 64                	jne    11100 <_usb_start_wait_urb+0xd7>
   1109c:	83 7d fc 00          	cmpl   $0x0,0xfffffffc(%ebp)
   110a0:	75 5e                	jne    11100 <_usb_start_wait_urb+0xd7>
   110a2:	8b 45 08             	mov    0x8(%ebp),%eax
   110a5:	83 78 1c 8d          	cmpl   $0xffffff8d,0x1c(%eax)
   110a9:	74 3e                	je     110e9 <_usb_start_wait_urb+0xc0>
   110ab:	83 ec 04             	sub    $0x4,%esp
   110ae:	6a 45                	push   $0x45
   110b0:	68 00 b0 01 00       	push   $0x1b000
   110b5:	68 0a b0 01 00       	push   $0x1b00a
   110ba:	e8 a1 89 00 00       	call   19a60 <_DbgPrint>
   110bf:	83 c4 10             	add    $0x10,%esp
   110c2:	ff 75 0c             	pushl  0xc(%ebp)
   110c5:	8b 45 08             	mov    0x8(%ebp),%eax
   110c8:	ff 70 1c             	pushl  0x1c(%eax)
   110cb:	8b 45 08             	mov    0x8(%ebp),%eax
   110ce:	ff 70 18             	pushl  0x18(%eax)
   110d1:	68 14 b0 01 00       	push   $0x1b014
   110d6:	e8 85 89 00 00       	call   19a60 <_DbgPrint>
   110db:	83 c4 10             	add    $0x10,%esp
   110de:	8b 45 08             	mov    0x8(%ebp),%eax
   110e1:	8b 40 1c             	mov    0x1c(%eax),%eax
   110e4:	89 45 f4             	mov    %eax,0xfffffff4(%ebp)
   110e7:	eb 20                	jmp    11109 <_usb_start_wait_urb+0xe0>
   110e9:	83 ec 0c             	sub    $0xc,%esp
   110ec:	ff 75 08             	pushl  0x8(%ebp)
   110ef:	e8 c6 73 00 00       	call   184ba <_usb_unlink_urb@4>
   110f4:	83 c4 0c             	add    $0xc,%esp
   110f7:	c7 45 f4 92 ff ff ff 	movl   $0xffffff92,0xfffffff4(%ebp)
   110fe:	eb 09                	jmp    11109 <_usb_start_wait_urb+0xe0>
   11100:	8b 45 08             	mov    0x8(%ebp),%eax
   11103:	8b 40 1c             	mov    0x1c(%eax),%eax
   11106:	89 45 f4             	mov    %eax,0xfffffff4(%ebp)
   11109:	83 7d 10 00          	cmpl   $0x0,0x10(%ebp)
   1110d:	74 0b                	je     1111a <_usb_start_wait_urb+0xf1>
   1110f:	8b 45 10             	mov    0x10(%ebp),%eax
   11112:	8b 55 08             	mov    0x8(%ebp),%edx
   11115:	8b 52 30             	mov    0x30(%edx),%edx
   11118:	89 10                	mov    %edx,(%eax)
   1111a:	83 ec 0c             	sub    $0xc,%esp
   1111d:	ff 75 08             	pushl  0x8(%ebp)
   11120:	e8 11 70 00 00       	call   18136 <_usb_free_urb@4>
   11125:	83 c4 0c             	add    $0xc,%esp
   11128:	8b 45 f4             	mov    0xfffffff4(%ebp),%eax
   1112b:	89 45 f0             	mov    %eax,0xfffffff0(%ebp)
   1112e:	8b 45 f0             	mov    0xfffffff0(%ebp),%eax
   11131:	c9                   	leave  
   11132:	c3                   	ret    

00011133 <_usb_internal_control_msg>:
   11133:	55                   	push   %ebp
   11134:	89 e5                	mov    %esp,%ebp
   11136:	83 ec 18             	sub    $0x18,%esp
   11139:	83 ec 08             	sub    $0x8,%esp
   1113c:	6a 00                	push   $0x0
   1113e:	6a 00                	push   $0x0
   11140:	e8 a7 6f 00 00       	call   180ec <_usb_alloc_urb@8>
   11145:	83 c4 08             	add    $0x8,%esp
   11148:	89 45 fc             	mov    %eax,0xfffffffc(%ebp)
   1114b:	83 7d fc 00          	cmpl   $0x0,0xfffffffc(%ebp)
   1114f:	75 09                	jne    1115a <_usb_internal_control_msg+0x27>
   11151:	c7 45 f0 f4 ff ff ff 	movl   $0xfffffff4,0xfffffff0(%ebp)
   11158:	eb 4d                	jmp    111a7 <_usb_internal_control_msg+0x74>
   1115a:	6a 00                	push   $0x0
   1115c:	68 00 10 01 00       	push   $0x11000
   11161:	ff 75 18             	pushl  0x18(%ebp)
   11164:	ff 75 14             	pushl  0x14(%ebp)
   11167:	ff 75 10             	pushl  0x10(%ebp)
   1116a:	ff 75 0c             	pushl  0xc(%ebp)
   1116d:	ff 75 08             	pushl  0x8(%ebp)
   11170:	ff 75 fc             	pushl  0xfffffffc(%ebp)
   11173:	e8 34 00 00 00       	call   111ac <_usb_fill_control_urb>
   11178:	83 c4 20             	add    $0x20,%esp
   1117b:	83 ec 04             	sub    $0x4,%esp
   1117e:	8d 45 f4             	lea    0xfffffff4(%ebp),%eax
   11181:	50                   	push   %eax
   11182:	ff 75 1c             	pushl  0x1c(%ebp)
   11185:	ff 75 fc             	pushl  0xfffffffc(%ebp)
   11188:	e8 9c fe ff ff       	call   11029 <_usb_start_wait_urb>
   1118d:	83 c4 10             	add    $0x10,%esp
   11190:	89 45 f8             	mov    %eax,0xfffffff8(%ebp)
   11193:	83 7d f8 00          	cmpl   $0x0,0xfffffff8(%ebp)
   11197:	79 08                	jns    111a1 <_usb_internal_control_msg+0x6e>
   11199:	8b 45 f8             	mov    0xfffffff8(%ebp),%eax
   1119c:	89 45 f0             	mov    %eax,0xfffffff0(%ebp)
   1119f:	eb 06                	jmp    111a7 <_usb_internal_control_msg+0x74>
   111a1:	8b 45 f4             	mov    0xfffffff4(%ebp),%eax
   111a4:	89 45 f0             	mov    %eax,0xfffffff0(%ebp)
   111a7:	8b 45 f0             	mov    0xfffffff0(%ebp),%eax
   111aa:	c9                   	leave  
   111ab:	c3                   	ret    

000111ac <_usb_fill_control_urb>:
   111ac:	55                   	push   %ebp
   111ad:	89 e5                	mov    %esp,%ebp
   111af:	8b 55 08             	mov    0x8(%ebp),%edx
   111b2:	8b 45 0c             	mov    0xc(%ebp),%eax
   111b5:	89 42 14             	mov    %eax,0x14(%edx)
   111b8:	8b 55 08             	mov    0x8(%ebp),%edx
   111bb:	8b 45 10             	mov    0x10(%ebp),%eax
   111be:	89 42 18             	mov    %eax,0x18(%edx)
   111c1:	8b 55 08             	mov    0x8(%ebp),%edx
   111c4:	8b 45 14             	mov    0x14(%ebp),%eax
   111c7:	89 42 38             	mov    %eax,0x38(%edx)
   111ca:	8b 55 08             	mov    0x8(%ebp),%edx
   111cd:	8b 45 18             	mov    0x18(%ebp),%eax
   111d0:	89 42 24             	mov    %eax,0x24(%edx)
   111d3:	8b 55 08             	mov    0x8(%ebp),%edx
   111d6:	8b 45 1c             	mov    0x1c(%ebp),%eax
   111d9:	89 42 2c             	mov    %eax,0x2c(%edx)
   111dc:	8b 55 08             	mov    0x8(%ebp),%edx
   111df:	8b 45 20             	mov    0x20(%ebp),%eax
   111e2:	89 42 58             	mov    %eax,0x58(%edx)
   111e5:	8b 55 08             	mov    0x8(%ebp),%edx
   111e8:	8b 45 24             	mov    0x24(%ebp),%eax
   111eb:	89 42 54             	mov    %eax,0x54(%edx)
   111ee:	5d                   	pop    %ebp
   111ef:	c3                   	ret    

000111f0 <_usb_control_msg>:
   111f0:	55                   	push   %ebp
   111f1:	89 e5                	mov    %esp,%ebp
   111f3:	56                   	push   %esi
   111f4:	53                   	push   %ebx
   111f5:	83 ec 20             	sub    $0x20,%esp
   111f8:	8b 45 10             	mov    0x10(%ebp),%eax
   111fb:	8b 55 14             	mov    0x14(%ebp),%edx
   111fe:	8b 4d 18             	mov    0x18(%ebp),%ecx
   11201:	8b 5d 1c             	mov    0x1c(%ebp),%ebx
   11204:	8b 75 24             	mov    0x24(%ebp),%esi
   11207:	88 45 f7             	mov    %al,0xfffffff7(%ebp)
   1120a:	88 55 f6             	mov    %dl,0xfffffff6(%ebp)
   1120d:	66 89 4d f4          	mov    %cx,0xfffffff4(%ebp)
   11211:	66 89 5d f2          	mov    %bx,0xfffffff2(%ebp)
   11215:	66 89 75 f0          	mov    %si,0xfffffff0(%ebp)
   11219:	83 ec 08             	sub    $0x8,%esp
   1121c:	6a 08                	push   $0x8
   1121e:	6a 01                	push   $0x1
   11220:	e8 0b 88 00 00       	call   19a30 <_ExAllocatePool@8>
   11225:	83 c4 08             	add    $0x8,%esp
   11228:	89 45 ec             	mov    %eax,0xffffffec(%ebp)
   1122b:	83 7d ec 00          	cmpl   $0x0,0xffffffec(%ebp)
   1122f:	75 09                	jne    1123a <_usb_control_msg+0x4a>
   11231:	c7 45 e4 f4 ff ff ff 	movl   $0xfffffff4,0xffffffe4(%ebp)
   11238:	eb 6a                	jmp    112a4 <_usb_control_msg+0xb4>
   1123a:	8b 55 ec             	mov    0xffffffec(%ebp),%edx
   1123d:	8a 45 f6             	mov    0xfffffff6(%ebp),%al
   11240:	88 02                	mov    %al,(%edx)
   11242:	8b 55 ec             	mov    0xffffffec(%ebp),%edx
   11245:	8a 45 f7             	mov    0xfffffff7(%ebp),%al
   11248:	88 42 01             	mov    %al,0x1(%edx)
   1124b:	8b 55 ec             	mov    0xffffffec(%ebp),%edx
   1124e:	8b 45 f4             	mov    0xfffffff4(%ebp),%eax
   11251:	66 89 42 02          	mov    %ax,0x2(%edx)
   11255:	8b 55 ec             	mov    0xffffffec(%ebp),%edx
   11258:	66 8b 45 f2          	mov    0xfffffff2(%ebp),%ax
   1125c:	66 89 42 04          	mov    %ax,0x4(%edx)
   11260:	8b 55 ec             	mov    0xffffffec(%ebp),%edx
   11263:	8b 45 f0             	mov    0xfffffff0(%ebp),%eax
   11266:	66 89 42 06          	mov    %ax,0x6(%edx)
   1126a:	83 ec 08             	sub    $0x8,%esp
   1126d:	ff 75 28             	pushl  0x28(%ebp)
   11270:	8b 45 f0             	mov    0xfffffff0(%ebp),%eax
   11273:	25 ff ff 00 00       	and    $0xffff,%eax
   11278:	50                   	push   %eax
   11279:	ff 75 20             	pushl  0x20(%ebp)
   1127c:	ff 75 ec             	pushl  0xffffffec(%ebp)
   1127f:	ff 75 0c             	pushl  0xc(%ebp)
   11282:	ff 75 08             	pushl  0x8(%ebp)
   11285:	e8 a9 fe ff ff       	call   11133 <_usb_internal_control_msg>
   1128a:	83 c4 20             	add    $0x20,%esp
   1128d:	89 45 e8             	mov    %eax,0xffffffe8(%ebp)
   11290:	83 ec 0c             	sub    $0xc,%esp
   11293:	ff 75 ec             	pushl  0xffffffec(%ebp)
   11296:	e8 a5 87 00 00       	call   19a40 <_ExFreePool@4>
   1129b:	83 c4 0c             	add    $0xc,%esp
   1129e:	8b 45 e8             	mov    0xffffffe8(%ebp),%eax
   112a1:	89 45 e4             	mov    %eax,0xffffffe4(%ebp)
   112a4:	8b 45 e4             	mov    0xffffffe4(%ebp),%eax
   112a7:	8d 65 f8             	lea    0xfffffff8(%ebp),%esp
   112aa:	5b                   	pop    %ebx
   112ab:	5e                   	pop    %esi
   112ac:	5d                   	pop    %ebp
   112ad:	c3                   	ret    

000112ae <_usb_bulk_msg>:
   112ae:	55                   	push   %ebp
   112af:	89 e5                	mov    %esp,%ebp
   112b1:	83 ec 08             	sub    $0x8,%esp
   112b4:	83 7d 14 00          	cmpl   $0x0,0x14(%ebp)
   112b8:	79 09                	jns    112c3 <_usb_bulk_msg+0x15>
   112ba:	c7 45 f8 ea ff ff ff 	movl   $0xffffffea,0xfffffff8(%ebp)
   112c1:	eb 59                	jmp    1131c <_usb_bulk_msg+0x6e>
   112c3:	83 ec 08             	sub    $0x8,%esp
   112c6:	6a 00                	push   $0x0
   112c8:	6a 00                	push   $0x0
   112ca:	e8 1d 6e 00 00       	call   180ec <_usb_alloc_urb@8>
   112cf:	83 c4 08             	add    $0x8,%esp
   112d2:	89 45 fc             	mov    %eax,0xfffffffc(%ebp)
   112d5:	83 7d fc 00          	cmpl   $0x0,0xfffffffc(%ebp)
   112d9:	75 09                	jne    112e4 <_usb_bulk_msg+0x36>
   112db:	c7 45 f8 f4 ff ff ff 	movl   $0xfffffff4,0xfffffff8(%ebp)
   112e2:	eb 38                	jmp    1131c <_usb_bulk_msg+0x6e>
   112e4:	83 ec 04             	sub    $0x4,%esp
   112e7:	6a 00                	push   $0x0
   112e9:	68 00 10 01 00       	push   $0x11000
   112ee:	ff 75 14             	pushl  0x14(%ebp)
   112f1:	ff 75 10             	pushl  0x10(%ebp)
   112f4:	ff 75 0c             	pushl  0xc(%ebp)
   112f7:	ff 75 08             	pushl  0x8(%ebp)
   112fa:	ff 75 fc             	pushl  0xfffffffc(%ebp)
   112fd:	e8 1f 00 00 00       	call   11321 <_usb_fill_bulk_urb>
   11302:	83 c4 20             	add    $0x20,%esp
   11305:	83 ec 04             	sub    $0x4,%esp
   11308:	ff 75 18             	pushl  0x18(%ebp)
   1130b:	ff 75 1c             	pushl  0x1c(%ebp)
   1130e:	ff 75 fc             	pushl  0xfffffffc(%ebp)
   11311:	e8 13 fd ff ff       	call   11029 <_usb_start_wait_urb>
   11316:	83 c4 10             	add    $0x10,%esp
   11319:	89 45 f8             	mov    %eax,0xfffffff8(%ebp)
   1131c:	8b 45 f8             	mov    0xfffffff8(%ebp),%eax
   1131f:	c9                   	leave  
   11320:	c3                   	ret    

00011321 <_usb_fill_bulk_urb>:
   11321:	55                   	push   %ebp
   11322:	89 e5                	mov    %esp,%ebp
   11324:	8b 55 08             	mov    0x8(%ebp),%edx
   11327:	8b 45 0c             	mov    0xc(%ebp),%eax
   1132a:	89 42 14             	mov    %eax,0x14(%edx)
   1132d:	8b 55 08             	mov    0x8(%ebp),%edx
   11330:	8b 45 10             	mov    0x10(%ebp),%eax
   11333:	89 42 18             	mov    %eax,0x18(%edx)
   11336:	8b 55 08             	mov    0x8(%ebp),%edx
   11339:	8b 45 14             	mov    0x14(%ebp),%eax
   1133c:	89 42 24             	mov    %eax,0x24(%edx)
   1133f:	8b 55 08             	mov    0x8(%ebp),%edx
   11342:	8b 45 18             	mov    0x18(%ebp),%eax
   11345:	89 42 2c             	mov    %eax,0x2c(%edx)
   11348:	8b 55 08             	mov    0x8(%ebp),%edx
   1134b:	8b 45 1c             	mov    0x1c(%ebp),%eax
   1134e:	89 42 58             	mov    %eax,0x58(%edx)
   11351:	8b 55 08             	mov    0x8(%ebp),%edx
   11354:	8b 45 20             	mov    0x20(%ebp),%eax
   11357:	89 42 54             	mov    %eax,0x54(%edx)
   1135a:	5d                   	pop    %ebp
   1135b:	c3                   	ret    

0001135c <_usb_get_descriptor>:
   1135c:	55                   	push   %ebp
   1135d:	89 e5                	mov    %esp,%ebp
   1135f:	83 ec 18             	sub    $0x18,%esp
   11362:	8b 45 0c             	mov    0xc(%ebp),%eax
   11365:	8b 55 10             	mov    0x10(%ebp),%edx
   11368:	88 45 ff             	mov    %al,0xffffffff(%ebp)
   1136b:	88 55 fe             	mov    %dl,0xfffffffe(%ebp)
   1136e:	c7 45 f8 05 00 00 00 	movl   $0x5,0xfffffff8(%ebp)
   11375:	83 ec 04             	sub    $0x4,%esp
   11378:	ff 75 18             	pushl  0x18(%ebp)
   1137b:	6a 00                	push   $0x0
   1137d:	ff 75 14             	pushl  0x14(%ebp)
   11380:	e8 cb 86 00 00       	call   19a50 <_memset>
   11385:	83 c4 10             	add    $0x10,%esp
   11388:	8d 45 f8             	lea    0xfffffff8(%ebp),%eax
   1138b:	ff 08                	decl   (%eax)
   1138d:	83 7d f8 ff          	cmpl   $0xffffffff,0xfffffff8(%ebp)
   11391:	74 69                	je     113fc <_usb_get_descriptor+0xa0>
   11393:	83 ec 0c             	sub    $0xc,%esp
   11396:	68 f4 01 00 00       	push   $0x1f4
   1139b:	8b 45 18             	mov    0x18(%ebp),%eax
   1139e:	25 ff ff 00 00       	and    $0xffff,%eax
   113a3:	50                   	push   %eax
   113a4:	ff 75 14             	pushl  0x14(%ebp)
   113a7:	6a 00                	push   $0x0
   113a9:	b8 00 00 00 00       	mov    $0x0,%eax
   113ae:	8a 45 ff             	mov    0xffffffff(%ebp),%al
   113b1:	89 c2                	mov    %eax,%edx
   113b3:	c1 e2 08             	shl    $0x8,%edx
   113b6:	b8 00 00 00 00       	mov    $0x0,%eax
   113bb:	8a 45 fe             	mov    0xfffffffe(%ebp),%al
   113be:	01 d0                	add    %edx,%eax
   113c0:	25 ff ff 00 00       	and    $0xffff,%eax
   113c5:	50                   	push   %eax
   113c6:	68 80 00 00 00       	push   $0x80
   113cb:	6a 06                	push   $0x6
   113cd:	6a 00                	push   $0x0
   113cf:	ff 75 08             	pushl  0x8(%ebp)
   113d2:	e8 2a 00 00 00       	call   11401 <___create_pipe>
   113d7:	83 c4 08             	add    $0x8,%esp
   113da:	0d 80 00 00 80       	or     $0x80000080,%eax
   113df:	50                   	push   %eax
   113e0:	ff 75 08             	pushl  0x8(%ebp)
   113e3:	e8 08 fe ff ff       	call   111f0 <_usb_control_msg>
   113e8:	83 c4 30             	add    $0x30,%esp
   113eb:	89 45 f4             	mov    %eax,0xfffffff4(%ebp)
   113ee:	83 7d f4 00          	cmpl   $0x0,0xfffffff4(%ebp)
   113f2:	7f 08                	jg     113fc <_usb_get_descriptor+0xa0>
   113f4:	83 7d f4 e0          	cmpl   $0xffffffe0,0xfffffff4(%ebp)
   113f8:	74 02                	je     113fc <_usb_get_descriptor+0xa0>
   113fa:	eb 8c                	jmp    11388 <_usb_get_descriptor+0x2c>
   113fc:	8b 45 f4             	mov    0xfffffff4(%ebp),%eax
   113ff:	c9                   	leave  
   11400:	c3                   	ret    

00011401 <___create_pipe>:
   11401:	55                   	push   %ebp
   11402:	89 e5                	mov    %esp,%ebp
   11404:	8b 45 08             	mov    0x8(%ebp),%eax
   11407:	8b 00                	mov    (%eax),%eax
   11409:	c1 e0 08             	shl    $0x8,%eax
   1140c:	8b 55 0c             	mov    0xc(%ebp),%edx
   1140f:	c1 e2 0f             	shl    $0xf,%edx
   11412:	09 d0                	or     %edx,%eax
   11414:	5d                   	pop    %ebp
   11415:	c3                   	ret    

00011416 <_usb_get_string>:
   11416:	55                   	push   %ebp
   11417:	89 e5                	mov    %esp,%ebp
   11419:	83 ec 08             	sub    $0x8,%esp
   1141c:	8b 45 0c             	mov    0xc(%ebp),%eax
   1141f:	8b 55 10             	mov    0x10(%ebp),%edx
   11422:	66 89 45 fe          	mov    %ax,0xfffffffe(%ebp)
   11426:	88 55 fd             	mov    %dl,0xfffffffd(%ebp)
   11429:	83 ec 0c             	sub    $0xc,%esp
   1142c:	68 f4 01 00 00       	push   $0x1f4
   11431:	8b 45 18             	mov    0x18(%ebp),%eax
   11434:	25 ff ff 00 00       	and    $0xffff,%eax
   11439:	50                   	push   %eax
   1143a:	ff 75 14             	pushl  0x14(%ebp)
   1143d:	66 8b 45 fe          	mov    0xfffffffe(%ebp),%ax
   11441:	25 ff ff 00 00       	and    $0xffff,%eax
   11446:	50                   	push   %eax
   11447:	b8 00 00 00 00       	mov    $0x0,%eax
   1144c:	8a 45 fd             	mov    0xfffffffd(%ebp),%al
   1144f:	05 00 03 00 00       	add    $0x300,%eax
   11454:	25 ff ff 00 00       	and    $0xffff,%eax
   11459:	50                   	push   %eax
   1145a:	68 80 00 00 00       	push   $0x80
   1145f:	6a 06                	push   $0x6
   11461:	6a 00                	push   $0x0
   11463:	ff 75 08             	pushl  0x8(%ebp)
   11466:	e8 96 ff ff ff       	call   11401 <___create_pipe>
   1146b:	83 c4 08             	add    $0x8,%esp
   1146e:	0d 80 00 00 80       	or     $0x80000080,%eax
   11473:	50                   	push   %eax
   11474:	ff 75 08             	pushl  0x8(%ebp)
   11477:	e8 74 fd ff ff       	call   111f0 <_usb_control_msg>
   1147c:	83 c4 30             	add    $0x30,%esp
   1147f:	c9                   	leave  
   11480:	c3                   	ret    

00011481 <_usb_get_device_descriptor>:
   11481:	55                   	push   %ebp
   11482:	89 e5                	mov    %esp,%ebp
   11484:	83 ec 08             	sub    $0x8,%esp
   11487:	83 ec 0c             	sub    $0xc,%esp
   1148a:	6a 12                	push   $0x12
   1148c:	8b 45 08             	mov    0x8(%ebp),%eax
   1148f:	05 70 01 00 00       	add    $0x170,%eax
   11494:	50                   	push   %eax
   11495:	6a 00                	push   $0x0
   11497:	6a 01                	push   $0x1
   11499:	ff 75 08             	pushl  0x8(%ebp)
   1149c:	e8 bb fe ff ff       	call   1135c <_usb_get_descriptor>
   114a1:	83 c4 20             	add    $0x20,%esp
   114a4:	89 45 fc             	mov    %eax,0xfffffffc(%ebp)
   114a7:	8b 45 fc             	mov    0xfffffffc(%ebp),%eax
   114aa:	c9                   	leave  
   114ab:	c3                   	ret    

000114ac <_usb_get_status>:
   114ac:	55                   	push   %ebp
   114ad:	89 e5                	mov    %esp,%ebp
   114af:	83 ec 08             	sub    $0x8,%esp
   114b2:	83 ec 0c             	sub    $0xc,%esp
   114b5:	68 f4 01 00 00       	push   $0x1f4
   114ba:	6a 02                	push   $0x2
   114bc:	ff 75 14             	pushl  0x14(%ebp)
   114bf:	8b 45 10             	mov    0x10(%ebp),%eax
   114c2:	25 ff ff 00 00       	and    $0xffff,%eax
   114c7:	50                   	push   %eax
   114c8:	6a 00                	push   $0x0
   114ca:	8b 55 0c             	mov    0xc(%ebp),%edx
   114cd:	b0 80                	mov    $0x80,%al
   114cf:	09 d0                	or     %edx,%eax
   114d1:	25 ff 00 00 00       	and    $0xff,%eax
   114d6:	50                   	push   %eax
   114d7:	6a 00                	push   $0x0
   114d9:	6a 00                	push   $0x0
   114db:	ff 75 08             	pushl  0x8(%ebp)
   114de:	e8 1e ff ff ff       	call   11401 <___create_pipe>
   114e3:	83 c4 08             	add    $0x8,%esp
   114e6:	0d 80 00 00 80       	or     $0x80000080,%eax
   114eb:	50                   	push   %eax
   114ec:	ff 75 08             	pushl  0x8(%ebp)
   114ef:	e8 fc fc ff ff       	call   111f0 <_usb_control_msg>
   114f4:	83 c4 30             	add    $0x30,%esp
   114f7:	c9                   	leave  
   114f8:	c3                   	ret    

000114f9 <_usb_set_maxpacket>:
   114f9:	55                   	push   %ebp
   114fa:	89 e5                	mov    %esp,%ebp
   114fc:	53                   	push   %ebx
   114fd:	83 ec 1c             	sub    $0x1c,%esp
   11500:	c7 45 f8 00 00 00 00 	movl   $0x0,0xfffffff8(%ebp)
   11507:	8b 45 08             	mov    0x8(%ebp),%eax
   1150a:	8b 80 88 01 00 00    	mov    0x188(%eax),%eax
   11510:	8a 40 04             	mov    0x4(%eax),%al
   11513:	25 ff 00 00 00       	and    $0xff,%eax
   11518:	3b 45 f8             	cmp    0xfffffff8(%ebp),%eax
   1151b:	0f 8e 49 01 00 00    	jle    1166a <_usb_set_maxpacket+0x171>
   11521:	8b 45 08             	mov    0x8(%ebp),%eax
   11524:	8b 98 88 01 00 00    	mov    0x188(%eax),%ebx
   1152a:	8b 4d f8             	mov    0xfffffff8(%ebp),%ecx
   1152d:	89 c8                	mov    %ecx,%eax
   1152f:	c1 e0 02             	shl    $0x2,%eax
   11532:	01 c8                	add    %ecx,%eax
   11534:	8d 14 85 00 00 00 00 	lea    0x0(,%eax,4),%edx
   1153b:	01 d0                	add    %edx,%eax
   1153d:	01 c0                	add    %eax,%eax
   1153f:	01 c8                	add    %ecx,%eax
   11541:	c1 e0 02             	shl    $0x2,%eax
   11544:	03 43 0c             	add    0xc(%ebx),%eax
   11547:	89 45 f0             	mov    %eax,0xfffffff0(%ebp)
   1154a:	8b 4d f0             	mov    0xfffffff0(%ebp),%ecx
   1154d:	8b 45 f0             	mov    0xfffffff0(%ebp),%eax
   11550:	8b 50 04             	mov    0x4(%eax),%edx
   11553:	89 d0                	mov    %edx,%eax
   11555:	01 c0                	add    %eax,%eax
   11557:	01 d0                	add    %edx,%eax
   11559:	c1 e0 03             	shl    $0x3,%eax
   1155c:	03 01                	add    (%ecx),%eax
   1155e:	89 45 ec             	mov    %eax,0xffffffec(%ebp)
   11561:	8b 45 ec             	mov    0xffffffec(%ebp),%eax
   11564:	8b 40 0c             	mov    0xc(%eax),%eax
   11567:	89 45 e8             	mov    %eax,0xffffffe8(%ebp)
   1156a:	c7 45 e4 00 00 00 00 	movl   $0x0,0xffffffe4(%ebp)
   11571:	8b 45 ec             	mov    0xffffffec(%ebp),%eax
   11574:	8a 40 04             	mov    0x4(%eax),%al
   11577:	25 ff 00 00 00       	and    $0xff,%eax
   1157c:	3b 45 e4             	cmp    0xffffffe4(%ebp),%eax
   1157f:	0f 8e db 00 00 00    	jle    11660 <_usb_set_maxpacket+0x167>
   11585:	8b 55 e4             	mov    0xffffffe4(%ebp),%edx
   11588:	89 d0                	mov    %edx,%eax
   1158a:	c1 e0 02             	shl    $0x2,%eax
   1158d:	01 d0                	add    %edx,%eax
   1158f:	c1 e0 02             	shl    $0x2,%eax
   11592:	03 45 e8             	add    0xffffffe8(%ebp),%eax
   11595:	89 45 e0             	mov    %eax,0xffffffe0(%ebp)
   11598:	8b 45 e0             	mov    0xffffffe0(%ebp),%eax
   1159b:	8a 40 02             	mov    0x2(%eax),%al
   1159e:	25 ff 00 00 00       	and    $0xff,%eax
   115a3:	83 e0 0f             	and    $0xf,%eax
   115a6:	89 45 f4             	mov    %eax,0xfffffff4(%ebp)
   115a9:	8b 45 e0             	mov    0xffffffe0(%ebp),%eax
   115ac:	8a 40 03             	mov    0x3(%eax),%al
   115af:	25 ff 00 00 00       	and    $0xff,%eax
   115b4:	83 e0 03             	and    $0x3,%eax
   115b7:	85 c0                	test   %eax,%eax
   115b9:	75 2e                	jne    115e9 <_usb_set_maxpacket+0xf0>
   115bb:	8b 55 08             	mov    0x8(%ebp),%edx
   115be:	8b 4d f4             	mov    0xfffffff4(%ebp),%ecx
   115c1:	8b 45 e0             	mov    0xffffffe0(%ebp),%eax
   115c4:	66 8b 40 04          	mov    0x4(%eax),%ax
   115c8:	25 ff ff 00 00       	and    $0xffff,%eax
   115cd:	89 44 8a 78          	mov    %eax,0x78(%edx,%ecx,4)
   115d1:	8b 55 08             	mov    0x8(%ebp),%edx
   115d4:	8b 4d f4             	mov    0xfffffff4(%ebp),%ecx
   115d7:	8b 45 e0             	mov    0xffffffe0(%ebp),%eax
   115da:	66 8b 40 04          	mov    0x4(%eax),%ax
   115de:	25 ff ff 00 00       	and    $0xffff,%eax
   115e3:	89 44 8a 38          	mov    %eax,0x38(%edx,%ecx,4)
   115e7:	eb 6d                	jmp    11656 <_usb_set_maxpacket+0x15d>
   115e9:	8b 45 e0             	mov    0xffffffe0(%ebp),%eax
   115ec:	80 78 02 00          	cmpb   $0x0,0x2(%eax)
   115f0:	78 33                	js     11625 <_usb_set_maxpacket+0x12c>
   115f2:	8b 45 e0             	mov    0xffffffe0(%ebp),%eax
   115f5:	66 8b 40 04          	mov    0x4(%eax),%ax
   115f9:	89 c1                	mov    %eax,%ecx
   115fb:	81 e1 ff ff 00 00    	and    $0xffff,%ecx
   11601:	8b 55 08             	mov    0x8(%ebp),%edx
   11604:	8b 45 f4             	mov    0xfffffff4(%ebp),%eax
   11607:	3b 4c 82 78          	cmp    0x78(%edx,%eax,4),%ecx
   1160b:	7e 49                	jle    11656 <_usb_set_maxpacket+0x15d>
   1160d:	8b 55 08             	mov    0x8(%ebp),%edx
   11610:	8b 4d f4             	mov    0xfffffff4(%ebp),%ecx
   11613:	8b 45 e0             	mov    0xffffffe0(%ebp),%eax
   11616:	66 8b 40 04          	mov    0x4(%eax),%ax
   1161a:	25 ff ff 00 00       	and    $0xffff,%eax
   1161f:	89 44 8a 78          	mov    %eax,0x78(%edx,%ecx,4)
   11623:	eb 31                	jmp    11656 <_usb_set_maxpacket+0x15d>
   11625:	8b 45 e0             	mov    0xffffffe0(%ebp),%eax
   11628:	66 8b 40 04          	mov    0x4(%eax),%ax
   1162c:	89 c1                	mov    %eax,%ecx
   1162e:	81 e1 ff ff 00 00    	and    $0xffff,%ecx
   11634:	8b 55 08             	mov    0x8(%ebp),%edx
   11637:	8b 45 f4             	mov    0xfffffff4(%ebp),%eax
   1163a:	3b 4c 82 38          	cmp    0x38(%edx,%eax,4),%ecx
   1163e:	7e 16                	jle    11656 <_usb_set_maxpacket+0x15d>
   11640:	8b 55 08             	mov    0x8(%ebp),%edx
   11643:	8b 4d f4             	mov    0xfffffff4(%ebp),%ecx
   11646:	8b 45 e0             	mov    0xffffffe0(%ebp),%eax
   11649:	66 8b 40 04          	mov    0x4(%eax),%ax
   1164d:	25 ff ff 00 00       	and    $0xffff,%eax
   11652:	89 44 8a 38          	mov    %eax,0x38(%edx,%ecx,4)
   11656:	8d 45 e4             	lea    0xffffffe4(%ebp),%eax
   11659:	ff 00                	incl   (%eax)
   1165b:	e9 11 ff ff ff       	jmp    11571 <_usb_set_maxpacket+0x78>
   11660:	8d 45 f8             	lea    0xfffffff8(%ebp),%eax
   11663:	ff 00                	incl   (%eax)
   11665:	e9 9d fe ff ff       	jmp    11507 <_usb_set_maxpacket+0xe>
   1166a:	83 c4 1c             	add    $0x1c,%esp
   1166d:	5b                   	pop    %ebx
   1166e:	5d                   	pop    %ebp
   1166f:	c3                   	ret    

00011670 <_usb_clear_halt>:
   11670:	55                   	push   %ebp
   11671:	89 e5                	mov    %esp,%ebp
   11673:	57                   	push   %edi
   11674:	56                   	push   %esi
   11675:	53                   	push   %ebx
   11676:	83 ec 0c             	sub    $0xc,%esp
   11679:	8b 45 0c             	mov    0xc(%ebp),%eax
   1167c:	c1 f8 0f             	sar    $0xf,%eax
   1167f:	83 e0 0f             	and    $0xf,%eax
   11682:	89 45 ec             	mov    %eax,0xffffffec(%ebp)
   11685:	8b 45 0c             	mov    0xc(%ebp),%eax
   11688:	c1 e8 07             	shr    $0x7,%eax
   1168b:	83 e0 01             	and    $0x1,%eax
   1168e:	85 c0                	test   %eax,%eax
   11690:	74 09                	je     1169b <_usb_clear_halt+0x2b>
   11692:	8d 45 ec             	lea    0xffffffec(%ebp),%eax
   11695:	81 08 80 00 00 00    	orl    $0x80,(%eax)
   1169b:	83 ec 0c             	sub    $0xc,%esp
   1169e:	68 f4 01 00 00       	push   $0x1f4
   116a3:	6a 00                	push   $0x0
   116a5:	6a 00                	push   $0x0
   116a7:	8b 45 ec             	mov    0xffffffec(%ebp),%eax
   116aa:	25 ff ff 00 00       	and    $0xffff,%eax
   116af:	50                   	push   %eax
   116b0:	6a 00                	push   $0x0
   116b2:	6a 02                	push   $0x2
   116b4:	6a 01                	push   $0x1
   116b6:	6a 00                	push   $0x0
   116b8:	ff 75 08             	pushl  0x8(%ebp)
   116bb:	e8 41 fd ff ff       	call   11401 <___create_pipe>
   116c0:	83 c4 08             	add    $0x8,%esp
   116c3:	0d 00 00 00 80       	or     $0x80000000,%eax
   116c8:	50                   	push   %eax
   116c9:	ff 75 08             	pushl  0x8(%ebp)
   116cc:	e8 1f fb ff ff       	call   111f0 <_usb_control_msg>
   116d1:	83 c4 30             	add    $0x30,%esp
   116d4:	89 45 f0             	mov    %eax,0xfffffff0(%ebp)
   116d7:	83 7d f0 00          	cmpl   $0x0,0xfffffff0(%ebp)
   116db:	79 0b                	jns    116e8 <_usb_clear_halt+0x78>
   116dd:	8b 45 f0             	mov    0xfffffff0(%ebp),%eax
   116e0:	89 45 e8             	mov    %eax,0xffffffe8(%ebp)
   116e3:	e9 83 00 00 00       	jmp    1176b <_usb_clear_halt+0xfb>
   116e8:	8b 5d 08             	mov    0x8(%ebp),%ebx
   116eb:	8b 45 0c             	mov    0xc(%ebp),%eax
   116ee:	c1 e8 07             	shr    $0x7,%eax
   116f1:	83 f0 01             	xor    $0x1,%eax
   116f4:	89 c6                	mov    %eax,%esi
   116f6:	83 e6 01             	and    $0x1,%esi
   116f9:	8b 7d 08             	mov    0x8(%ebp),%edi
   116fc:	8b 45 0c             	mov    0xc(%ebp),%eax
   116ff:	c1 e8 07             	shr    $0x7,%eax
   11702:	83 f0 01             	xor    $0x1,%eax
   11705:	89 c2                	mov    %eax,%edx
   11707:	83 e2 01             	and    $0x1,%edx
   1170a:	8b 45 0c             	mov    0xc(%ebp),%eax
   1170d:	c1 f8 0f             	sar    $0xf,%eax
   11710:	89 c1                	mov    %eax,%ecx
   11712:	83 e1 0f             	and    $0xf,%ecx
   11715:	b8 01 00 00 00       	mov    $0x1,%eax
   1171a:	d3 e0                	shl    %cl,%eax
   1171c:	f7 d0                	not    %eax
   1171e:	23 44 97 28          	and    0x28(%edi,%edx,4),%eax
   11722:	89 44 b3 28          	mov    %eax,0x28(%ebx,%esi,4)
   11726:	8b 5d 08             	mov    0x8(%ebp),%ebx
   11729:	8b 45 0c             	mov    0xc(%ebp),%eax
   1172c:	c1 e8 07             	shr    $0x7,%eax
   1172f:	83 f0 01             	xor    $0x1,%eax
   11732:	89 c6                	mov    %eax,%esi
   11734:	83 e6 01             	and    $0x1,%esi
   11737:	8b 7d 08             	mov    0x8(%ebp),%edi
   1173a:	8b 45 0c             	mov    0xc(%ebp),%eax
   1173d:	c1 e8 07             	shr    $0x7,%eax
   11740:	83 f0 01             	xor    $0x1,%eax
   11743:	89 c2                	mov    %eax,%edx
   11745:	83 e2 01             	and    $0x1,%edx
   11748:	8b 45 0c             	mov    0xc(%ebp),%eax
   1174b:	c1 f8 0f             	sar    $0xf,%eax
   1174e:	89 c1                	mov    %eax,%ecx
   11750:	83 e1 0f             	and    $0xf,%ecx
   11753:	b8 01 00 00 00       	mov    $0x1,%eax
   11758:	d3 e0                	shl    %cl,%eax
   1175a:	f7 d0                	not    %eax
   1175c:	23 44 97 30          	and    0x30(%edi,%edx,4),%eax
   11760:	89 44 b3 30          	mov    %eax,0x30(%ebx,%esi,4)
   11764:	c7 45 e8 00 00 00 00 	movl   $0x0,0xffffffe8(%ebp)
   1176b:	8b 45 e8             	mov    0xffffffe8(%ebp),%eax
   1176e:	8d 65 f4             	lea    0xfffffff4(%ebp),%esp
   11771:	5b                   	pop    %ebx
   11772:	5e                   	pop    %esi
   11773:	5f                   	pop    %edi
   11774:	5d                   	pop    %ebp
   11775:	c3                   	ret    

00011776 <_usb_set_interface>:
   11776:	55                   	push   %ebp
   11777:	89 e5                	mov    %esp,%ebp
   11779:	57                   	push   %edi
   1177a:	56                   	push   %esi
   1177b:	53                   	push   %ebx
   1177c:	83 ec 3c             	sub    $0x3c,%esp
   1177f:	8b 45 08             	mov    0x8(%ebp),%eax
   11782:	8b 80 bc 00 00 00    	mov    0xbc(%eax),%eax
   11788:	8b 40 20             	mov    0x20(%eax),%eax
   1178b:	8b 40 1c             	mov    0x1c(%eax),%eax
   1178e:	89 45 e0             	mov    %eax,0xffffffe0(%ebp)
   11791:	83 ec 08             	sub    $0x8,%esp
   11794:	ff 75 0c             	pushl  0xc(%ebp)
   11797:	ff 75 08             	pushl  0x8(%ebp)
   1179a:	e8 d6 44 00 00       	call   15c75 <_usb_ifnum_to_if>
   1179f:	83 c4 10             	add    $0x10,%esp
   117a2:	89 45 f0             	mov    %eax,0xfffffff0(%ebp)
   117a5:	83 7d f0 00          	cmpl   $0x0,0xfffffff0(%ebp)
   117a9:	75 0c                	jne    117b7 <_usb_set_interface+0x41>
   117ab:	c7 45 d4 ea ff ff ff 	movl   $0xffffffea,0xffffffd4(%ebp)
   117b2:	e9 85 02 00 00       	jmp    11a3c <_usb_set_interface+0x2c6>
   117b7:	8b 45 f0             	mov    0xfffffff0(%ebp),%eax
   117ba:	83 78 08 01          	cmpl   $0x1,0x8(%eax)
   117be:	75 0c                	jne    117cc <_usb_set_interface+0x56>
   117c0:	c7 45 d4 00 00 00 00 	movl   $0x0,0xffffffd4(%ebp)
   117c7:	e9 70 02 00 00       	jmp    11a3c <_usb_set_interface+0x2c6>
   117cc:	83 7d 10 00          	cmpl   $0x0,0x10(%ebp)
   117d0:	78 0d                	js     117df <_usb_set_interface+0x69>
   117d2:	8b 55 f0             	mov    0xfffffff0(%ebp),%edx
   117d5:	8b 45 10             	mov    0x10(%ebp),%eax
   117d8:	3b 42 08             	cmp    0x8(%edx),%eax
   117db:	73 02                	jae    117df <_usb_set_interface+0x69>
   117dd:	eb 0c                	jmp    117eb <_usb_set_interface+0x75>
   117df:	c7 45 d4 ea ff ff ff 	movl   $0xffffffea,0xffffffd4(%ebp)
   117e6:	e9 51 02 00 00       	jmp    11a3c <_usb_set_interface+0x2c6>
   117eb:	83 ec 0c             	sub    $0xc,%esp
   117ee:	68 f4 01 00 00       	push   $0x1f4
   117f3:	6a 00                	push   $0x0
   117f5:	6a 00                	push   $0x0
   117f7:	8b 45 0c             	mov    0xc(%ebp),%eax
   117fa:	25 ff ff 00 00       	and    $0xffff,%eax
   117ff:	50                   	push   %eax
   11800:	8b 4d f0             	mov    0xfffffff0(%ebp),%ecx
   11803:	8b 55 10             	mov    0x10(%ebp),%edx
   11806:	89 d0                	mov    %edx,%eax
   11808:	01 c0                	add    %eax,%eax
   1180a:	01 d0                	add    %edx,%eax
   1180c:	8d 14 c5 00 00 00 00 	lea    0x0(,%eax,8),%edx
   11813:	8b 01                	mov    (%ecx),%eax
   11815:	8a 44 02 03          	mov    0x3(%edx,%eax,1),%al
   11819:	25 ff 00 00 00       	and    $0xff,%eax
   1181e:	50                   	push   %eax
   1181f:	6a 01                	push   $0x1
   11821:	6a 0b                	push   $0xb
   11823:	6a 00                	push   $0x0
   11825:	ff 75 08             	pushl  0x8(%ebp)
   11828:	e8 d4 fb ff ff       	call   11401 <___create_pipe>
   1182d:	83 c4 08             	add    $0x8,%esp
   11830:	0d 00 00 00 80       	or     $0x80000000,%eax
   11835:	50                   	push   %eax
   11836:	ff 75 08             	pushl  0x8(%ebp)
   11839:	e8 b2 f9 ff ff       	call   111f0 <_usb_control_msg>
   1183e:	83 c4 30             	add    $0x30,%esp
   11841:	89 45 e4             	mov    %eax,0xffffffe4(%ebp)
   11844:	83 7d e4 00          	cmpl   $0x0,0xffffffe4(%ebp)
   11848:	79 0b                	jns    11855 <_usb_set_interface+0xdf>
   1184a:	8b 45 e4             	mov    0xffffffe4(%ebp),%eax
   1184d:	89 45 d4             	mov    %eax,0xffffffd4(%ebp)
   11850:	e9 e7 01 00 00       	jmp    11a3c <_usb_set_interface+0x2c6>
   11855:	8b 4d f0             	mov    0xfffffff0(%ebp),%ecx
   11858:	8b 45 f0             	mov    0xfffffff0(%ebp),%eax
   1185b:	8b 50 04             	mov    0x4(%eax),%edx
   1185e:	89 d0                	mov    %edx,%eax
   11860:	01 c0                	add    %eax,%eax
   11862:	01 d0                	add    %edx,%eax
   11864:	c1 e0 03             	shl    $0x3,%eax
   11867:	03 01                	add    (%ecx),%eax
   11869:	89 45 ec             	mov    %eax,0xffffffec(%ebp)
   1186c:	c7 45 e8 00 00 00 00 	movl   $0x0,0xffffffe8(%ebp)
   11873:	8b 45 ec             	mov    0xffffffec(%ebp),%eax
   11876:	8a 40 04             	mov    0x4(%eax),%al
   11879:	25 ff 00 00 00       	and    $0xff,%eax
   1187e:	3b 45 e8             	cmp    0xffffffe8(%ebp),%eax
   11881:	0f 8e 96 00 00 00    	jle    1191d <_usb_set_interface+0x1a7>
   11887:	8b 4d ec             	mov    0xffffffec(%ebp),%ecx
   1188a:	8b 55 e8             	mov    0xffffffe8(%ebp),%edx
   1188d:	89 d0                	mov    %edx,%eax
   1188f:	c1 e0 02             	shl    $0x2,%eax
   11892:	01 d0                	add    %edx,%eax
   11894:	8d 14 85 00 00 00 00 	lea    0x0(,%eax,4),%edx
   1189b:	8b 41 0c             	mov    0xc(%ecx),%eax
   1189e:	8a 44 02 02          	mov    0x2(%edx,%eax,1),%al
   118a2:	88 45 df             	mov    %al,0xffffffdf(%ebp)
   118a5:	0f be 45 df          	movsbl 0xffffffdf(%ebp),%eax
   118a9:	f7 d0                	not    %eax
   118ab:	c1 e8 1f             	shr    $0x1f,%eax
   118ae:	89 45 d8             	mov    %eax,0xffffffd8(%ebp)
   118b1:	83 7d e0 00          	cmpl   $0x0,0xffffffe0(%ebp)
   118b5:	74 17                	je     118ce <_usb_set_interface+0x158>
   118b7:	83 ec 08             	sub    $0x8,%esp
   118ba:	b8 00 00 00 00       	mov    $0x0,%eax
   118bf:	8a 45 df             	mov    0xffffffdf(%ebp),%al
   118c2:	50                   	push   %eax
   118c3:	ff 75 08             	pushl  0x8(%ebp)
   118c6:	8b 45 e0             	mov    0xffffffe0(%ebp),%eax
   118c9:	ff d0                	call   *%eax
   118cb:	83 c4 10             	add    $0x10,%esp
   118ce:	8d 45 df             	lea    0xffffffdf(%ebp),%eax
   118d1:	80 20 0f             	andb   $0xf,(%eax)
   118d4:	b8 00 00 00 00       	mov    $0x0,%eax
   118d9:	8a 45 df             	mov    0xffffffdf(%ebp),%al
   118dc:	89 45 d0             	mov    %eax,0xffffffd0(%ebp)
   118df:	8b 45 d0             	mov    0xffffffd0(%ebp),%eax
   118e2:	c1 e0 02             	shl    $0x2,%eax
   118e5:	89 45 d0             	mov    %eax,0xffffffd0(%ebp)
   118e8:	83 7d d8 00          	cmpl   $0x0,0xffffffd8(%ebp)
   118ec:	74 0f                	je     118fd <_usb_set_interface+0x187>
   118ee:	8b 55 d0             	mov    0xffffffd0(%ebp),%edx
   118f1:	03 55 08             	add    0x8(%ebp),%edx
   118f4:	89 55 cc             	mov    %edx,0xffffffcc(%ebp)
   118f7:	83 45 cc 78          	addl   $0x78,0xffffffcc(%ebp)
   118fb:	eb 0d                	jmp    1190a <_usb_set_interface+0x194>
   118fd:	8b 45 d0             	mov    0xffffffd0(%ebp),%eax
   11900:	03 45 08             	add    0x8(%ebp),%eax
   11903:	89 45 cc             	mov    %eax,0xffffffcc(%ebp)
   11906:	83 45 cc 38          	addl   $0x38,0xffffffcc(%ebp)
   1190a:	8b 55 cc             	mov    0xffffffcc(%ebp),%edx
   1190d:	c7 02 00 00 00 00    	movl   $0x0,(%edx)
   11913:	8d 45 e8             	lea    0xffffffe8(%ebp),%eax
   11916:	ff 00                	incl   (%eax)
   11918:	e9 56 ff ff ff       	jmp    11873 <_usb_set_interface+0xfd>
   1191d:	8b 55 f0             	mov    0xfffffff0(%ebp),%edx
   11920:	8b 45 10             	mov    0x10(%ebp),%eax
   11923:	89 42 04             	mov    %eax,0x4(%edx)
   11926:	8b 4d f0             	mov    0xfffffff0(%ebp),%ecx
   11929:	8b 55 10             	mov    0x10(%ebp),%edx
   1192c:	89 d0                	mov    %edx,%eax
   1192e:	01 c0                	add    %eax,%eax
   11930:	01 d0                	add    %edx,%eax
   11932:	c1 e0 03             	shl    $0x3,%eax
   11935:	03 01                	add    (%ecx),%eax
   11937:	89 45 ec             	mov    %eax,0xffffffec(%ebp)
   1193a:	c7 45 e8 00 00 00 00 	movl   $0x0,0xffffffe8(%ebp)
   11941:	8b 45 ec             	mov    0xffffffec(%ebp),%eax
   11944:	8a 40 04             	mov    0x4(%eax),%al
   11947:	25 ff 00 00 00       	and    $0xff,%eax
   1194c:	3b 45 e8             	cmp    0xffffffe8(%ebp),%eax
   1194f:	0f 8e e0 00 00 00    	jle    11a35 <_usb_set_interface+0x2bf>
   11955:	8b 4d ec             	mov    0xffffffec(%ebp),%ecx
   11958:	8b 55 e8             	mov    0xffffffe8(%ebp),%edx
   1195b:	89 d0                	mov    %edx,%eax
   1195d:	c1 e0 02             	shl    $0x2,%eax
   11960:	01 d0                	add    %edx,%eax
   11962:	8d 14 85 00 00 00 00 	lea    0x0(,%eax,4),%edx
   11969:	8b 41 0c             	mov    0xc(%ecx),%eax
   1196c:	8a 44 02 02          	mov    0x2(%edx,%eax,1),%al
   11970:	88 45 df             	mov    %al,0xffffffdf(%ebp)
   11973:	0f be 45 df          	movsbl 0xffffffdf(%ebp),%eax
   11977:	f7 d0                	not    %eax
   11979:	c1 e8 1f             	shr    $0x1f,%eax
   1197c:	89 45 d8             	mov    %eax,0xffffffd8(%ebp)
   1197f:	8d 45 df             	lea    0xffffffdf(%ebp),%eax
   11982:	80 20 0f             	andb   $0xf,(%eax)
   11985:	8b 5d 08             	mov    0x8(%ebp),%ebx
   11988:	8b 75 d8             	mov    0xffffffd8(%ebp),%esi
   1198b:	8b 7d 08             	mov    0x8(%ebp),%edi
   1198e:	8b 55 d8             	mov    0xffffffd8(%ebp),%edx
   11991:	b9 00 00 00 00       	mov    $0x0,%ecx
   11996:	8a 4d df             	mov    0xffffffdf(%ebp),%cl
   11999:	b8 01 00 00 00       	mov    $0x1,%eax
   1199e:	d3 e0                	shl    %cl,%eax
   119a0:	f7 d0                	not    %eax
   119a2:	23 44 97 28          	and    0x28(%edi,%edx,4),%eax
   119a6:	89 44 b3 28          	mov    %eax,0x28(%ebx,%esi,4)
   119aa:	b8 00 00 00 00       	mov    $0x0,%eax
   119af:	8a 45 df             	mov    0xffffffdf(%ebp),%al
   119b2:	89 45 c8             	mov    %eax,0xffffffc8(%ebp)
   119b5:	8b 45 c8             	mov    0xffffffc8(%ebp),%eax
   119b8:	c1 e0 02             	shl    $0x2,%eax
   119bb:	89 45 c8             	mov    %eax,0xffffffc8(%ebp)
   119be:	83 7d d8 00          	cmpl   $0x0,0xffffffd8(%ebp)
   119c2:	74 0f                	je     119d3 <_usb_set_interface+0x25d>
   119c4:	8b 55 c8             	mov    0xffffffc8(%ebp),%edx
   119c7:	03 55 08             	add    0x8(%ebp),%edx
   119ca:	89 55 c4             	mov    %edx,0xffffffc4(%ebp)
   119cd:	83 45 c4 78          	addl   $0x78,0xffffffc4(%ebp)
   119d1:	eb 0d                	jmp    119e0 <_usb_set_interface+0x26a>
   119d3:	8b 45 c8             	mov    0xffffffc8(%ebp),%eax
   119d6:	03 45 08             	add    0x8(%ebp),%eax
   119d9:	89 45 c4             	mov    %eax,0xffffffc4(%ebp)
   119dc:	83 45 c4 38          	addl   $0x38,0xffffffc4(%ebp)
   119e0:	8b 4d ec             	mov    0xffffffec(%ebp),%ecx
   119e3:	8b 55 e8             	mov    0xffffffe8(%ebp),%edx
   119e6:	89 d0                	mov    %edx,%eax
   119e8:	c1 e0 02             	shl    $0x2,%eax
   119eb:	01 d0                	add    %edx,%eax
   119ed:	8d 14 85 00 00 00 00 	lea    0x0(,%eax,4),%edx
   119f4:	8b 41 0c             	mov    0xc(%ecx),%eax
   119f7:	66 8b 44 02 04       	mov    0x4(%edx,%eax,1),%ax
   119fc:	25 ff ff 00 00       	and    $0xffff,%eax
   11a01:	8b 55 c4             	mov    0xffffffc4(%ebp),%edx
   11a04:	89 02                	mov    %eax,(%edx)
   11a06:	8b 5d 08             	mov    0x8(%ebp),%ebx
   11a09:	8b 75 d8             	mov    0xffffffd8(%ebp),%esi
   11a0c:	8b 7d 08             	mov    0x8(%ebp),%edi
   11a0f:	8b 55 d8             	mov    0xffffffd8(%ebp),%edx
   11a12:	b9 00 00 00 00       	mov    $0x0,%ecx
   11a17:	8a 4d df             	mov    0xffffffdf(%ebp),%cl
   11a1a:	b8 01 00 00 00       	mov    $0x1,%eax
   11a1f:	d3 e0                	shl    %cl,%eax
   11a21:	f7 d0                	not    %eax
   11a23:	23 44 97 30          	and    0x30(%edi,%edx,4),%eax
   11a27:	89 44 b3 30          	mov    %eax,0x30(%ebx,%esi,4)
   11a2b:	8d 45 e8             	lea    0xffffffe8(%ebp),%eax
   11a2e:	ff 00                	incl   (%eax)
   11a30:	e9 0c ff ff ff       	jmp    11941 <_usb_set_interface+0x1cb>
   11a35:	c7 45 d4 00 00 00 00 	movl   $0x0,0xffffffd4(%ebp)
   11a3c:	8b 45 d4             	mov    0xffffffd4(%ebp),%eax
   11a3f:	8d 65 f4             	lea    0xfffffff4(%ebp),%esp
   11a42:	5b                   	pop    %ebx
   11a43:	5e                   	pop    %esi
   11a44:	5f                   	pop    %edi
   11a45:	5d                   	pop    %ebp
   11a46:	c3                   	ret    

00011a47 <_usb_set_configuration>:
   11a47:	55                   	push   %ebp
   11a48:	89 e5                	mov    %esp,%ebp
   11a4a:	83 ec 18             	sub    $0x18,%esp
   11a4d:	c7 45 f4 00 00 00 00 	movl   $0x0,0xfffffff4(%ebp)
   11a54:	8b 45 08             	mov    0x8(%ebp),%eax
   11a57:	8b 80 bc 00 00 00    	mov    0xbc(%eax),%eax
   11a5d:	8b 40 20             	mov    0x20(%eax),%eax
   11a60:	8b 40 1c             	mov    0x1c(%eax),%eax
   11a63:	89 45 f0             	mov    %eax,0xfffffff0(%ebp)
   11a66:	c7 45 fc 00 00 00 00 	movl   $0x0,0xfffffffc(%ebp)
   11a6d:	8b 45 08             	mov    0x8(%ebp),%eax
   11a70:	8a 80 81 01 00 00    	mov    0x181(%eax),%al
   11a76:	25 ff 00 00 00       	and    $0xff,%eax
   11a7b:	3b 45 fc             	cmp    0xfffffffc(%ebp),%eax
   11a7e:	7e 48                	jle    11ac8 <_usb_set_configuration+0x81>
   11a80:	8b 4d 08             	mov    0x8(%ebp),%ecx
   11a83:	8b 55 fc             	mov    0xfffffffc(%ebp),%edx
   11a86:	89 d0                	mov    %edx,%eax
   11a88:	01 c0                	add    %eax,%eax
   11a8a:	01 d0                	add    %edx,%eax
   11a8c:	8d 14 c5 00 00 00 00 	lea    0x0(,%eax,8),%edx
   11a93:	8b 81 84 01 00 00    	mov    0x184(%ecx),%eax
   11a99:	8a 44 02 05          	mov    0x5(%edx,%eax,1),%al
   11a9d:	25 ff 00 00 00       	and    $0xff,%eax
   11aa2:	3b 45 0c             	cmp    0xc(%ebp),%eax
   11aa5:	75 1a                	jne    11ac1 <_usb_set_configuration+0x7a>
   11aa7:	8b 4d 08             	mov    0x8(%ebp),%ecx
   11aaa:	8b 55 fc             	mov    0xfffffffc(%ebp),%edx
   11aad:	89 d0                	mov    %edx,%eax
   11aaf:	01 c0                	add    %eax,%eax
   11ab1:	01 d0                	add    %edx,%eax
   11ab3:	c1 e0 03             	shl    $0x3,%eax
   11ab6:	03 81 84 01 00 00    	add    0x184(%ecx),%eax
   11abc:	89 45 f4             	mov    %eax,0xfffffff4(%ebp)
   11abf:	eb 07                	jmp    11ac8 <_usb_set_configuration+0x81>
   11ac1:	8d 45 fc             	lea    0xfffffffc(%ebp),%eax
   11ac4:	ff 00                	incl   (%eax)
   11ac6:	eb a5                	jmp    11a6d <_usb_set_configuration+0x26>
   11ac8:	83 7d f4 00          	cmpl   $0x0,0xfffffff4(%ebp)
   11acc:	75 06                	jne    11ad4 <_usb_set_configuration+0x8d>
   11ace:	83 7d 0c 00          	cmpl   $0x0,0xc(%ebp)
   11ad2:	75 0c                	jne    11ae0 <_usb_set_configuration+0x99>
   11ad4:	83 7d f4 00          	cmpl   $0x0,0xfffffff4(%ebp)
   11ad8:	74 12                	je     11aec <_usb_set_configuration+0xa5>
   11ada:	83 7d 0c 00          	cmpl   $0x0,0xc(%ebp)
   11ade:	75 0c                	jne    11aec <_usb_set_configuration+0xa5>
   11ae0:	c7 45 ec ea ff ff ff 	movl   $0xffffffea,0xffffffec(%ebp)
   11ae7:	e9 f2 00 00 00       	jmp    11bde <_usb_set_configuration+0x197>
   11aec:	8b 45 08             	mov    0x8(%ebp),%eax
   11aef:	83 78 14 04          	cmpl   $0x4,0x14(%eax)
   11af3:	74 3f                	je     11b34 <_usb_set_configuration+0xed>
   11af5:	83 7d f0 00          	cmpl   $0x0,0xfffffff0(%ebp)
   11af9:	74 39                	je     11b34 <_usb_set_configuration+0xed>
   11afb:	c7 45 fc 01 00 00 00 	movl   $0x1,0xfffffffc(%ebp)
   11b02:	83 7d fc 0e          	cmpl   $0xe,0xfffffffc(%ebp)
   11b06:	7f 2c                	jg     11b34 <_usb_set_configuration+0xed>
   11b08:	83 ec 08             	sub    $0x8,%esp
   11b0b:	ff 75 fc             	pushl  0xfffffffc(%ebp)
   11b0e:	ff 75 08             	pushl  0x8(%ebp)
   11b11:	8b 45 f0             	mov    0xfffffff0(%ebp),%eax
   11b14:	ff d0                	call   *%eax
   11b16:	83 c4 10             	add    $0x10,%esp
   11b19:	83 ec 08             	sub    $0x8,%esp
   11b1c:	8b 45 fc             	mov    0xfffffffc(%ebp),%eax
   11b1f:	0c 80                	or     $0x80,%al
   11b21:	50                   	push   %eax
   11b22:	ff 75 08             	pushl  0x8(%ebp)
   11b25:	8b 45 f0             	mov    0xfffffff0(%ebp),%eax
   11b28:	ff d0                	call   *%eax
   11b2a:	83 c4 10             	add    $0x10,%esp
   11b2d:	8d 45 fc             	lea    0xfffffffc(%ebp),%eax
   11b30:	ff 00                	incl   (%eax)
   11b32:	eb ce                	jmp    11b02 <_usb_set_configuration+0xbb>
   11b34:	8b 55 08             	mov    0x8(%ebp),%edx
   11b37:	8b 45 08             	mov    0x8(%ebp),%eax
   11b3a:	c7 40 2c 00 00 00 00 	movl   $0x0,0x2c(%eax)
   11b41:	c7 42 28 00 00 00 00 	movl   $0x0,0x28(%edx)
   11b48:	8b 55 08             	mov    0x8(%ebp),%edx
   11b4b:	8b 45 08             	mov    0x8(%ebp),%eax
   11b4e:	c7 40 34 00 00 00 00 	movl   $0x0,0x34(%eax)
   11b55:	c7 42 30 00 00 00 00 	movl   $0x0,0x30(%edx)
   11b5c:	8b 45 08             	mov    0x8(%ebp),%eax
   11b5f:	c7 40 14 04 00 00 00 	movl   $0x4,0x14(%eax)
   11b66:	83 ec 0c             	sub    $0xc,%esp
   11b69:	68 f4 01 00 00       	push   $0x1f4
   11b6e:	6a 00                	push   $0x0
   11b70:	6a 00                	push   $0x0
   11b72:	6a 00                	push   $0x0
   11b74:	8b 45 0c             	mov    0xc(%ebp),%eax
   11b77:	25 ff ff 00 00       	and    $0xffff,%eax
   11b7c:	50                   	push   %eax
   11b7d:	6a 00                	push   $0x0
   11b7f:	6a 09                	push   $0x9
   11b81:	6a 00                	push   $0x0
   11b83:	ff 75 08             	pushl  0x8(%ebp)
   11b86:	e8 76 f8 ff ff       	call   11401 <___create_pipe>
   11b8b:	83 c4 08             	add    $0x8,%esp
   11b8e:	0d 00 00 00 80       	or     $0x80000000,%eax
   11b93:	50                   	push   %eax
   11b94:	ff 75 08             	pushl  0x8(%ebp)
   11b97:	e8 54 f6 ff ff       	call   111f0 <_usb_control_msg>
   11b9c:	83 c4 30             	add    $0x30,%esp
   11b9f:	89 45 f8             	mov    %eax,0xfffffff8(%ebp)
   11ba2:	83 7d f8 00          	cmpl   $0x0,0xfffffff8(%ebp)
   11ba6:	79 08                	jns    11bb0 <_usb_set_configuration+0x169>
   11ba8:	8b 45 f8             	mov    0xfffffff8(%ebp),%eax
   11bab:	89 45 ec             	mov    %eax,0xffffffec(%ebp)
   11bae:	eb 2e                	jmp    11bde <_usb_set_configuration+0x197>
   11bb0:	83 7d 0c 00          	cmpl   $0x0,0xc(%ebp)
   11bb4:	74 0a                	je     11bc0 <_usb_set_configuration+0x179>
   11bb6:	8b 45 08             	mov    0x8(%ebp),%eax
   11bb9:	c7 40 14 05 00 00 00 	movl   $0x5,0x14(%eax)
   11bc0:	8b 55 08             	mov    0x8(%ebp),%edx
   11bc3:	8b 45 f4             	mov    0xfffffff4(%ebp),%eax
   11bc6:	89 82 88 01 00 00    	mov    %eax,0x188(%edx)
   11bcc:	ff 75 08             	pushl  0x8(%ebp)
   11bcf:	e8 25 f9 ff ff       	call   114f9 <_usb_set_maxpacket>
   11bd4:	83 c4 04             	add    $0x4,%esp
   11bd7:	c7 45 ec 00 00 00 00 	movl   $0x0,0xffffffec(%ebp)
   11bde:	8b 45 ec             	mov    0xffffffec(%ebp),%eax
   11be1:	c9                   	leave  
   11be2:	c3                   	ret    

00011be3 <_usb_string>:
   11be3:	55                   	push   %ebp
   11be4:	89 e5                	mov    %esp,%ebp
   11be6:	83 ec 18             	sub    $0x18,%esp
   11be9:	83 7d 14 00          	cmpl   $0x0,0x14(%ebp)
   11bed:	74 0c                	je     11bfb <_usb_string+0x18>
   11bef:	83 7d 10 00          	cmpl   $0x0,0x10(%ebp)
   11bf3:	74 06                	je     11bfb <_usb_string+0x18>
   11bf5:	83 7d 0c 00          	cmpl   $0x0,0xc(%ebp)
   11bf9:	75 0c                	jne    11c07 <_usb_string+0x24>
   11bfb:	c7 45 e8 ea ff ff ff 	movl   $0xffffffea,0xffffffe8(%ebp)
   11c02:	e9 a7 01 00 00       	jmp    11dae <_usb_string+0x1cb>
   11c07:	8b 45 10             	mov    0x10(%ebp),%eax
   11c0a:	c6 00 00             	movb   $0x0,(%eax)
   11c0d:	83 ec 08             	sub    $0x8,%esp
   11c10:	68 00 01 00 00       	push   $0x100
   11c15:	6a 01                	push   $0x1
   11c17:	e8 14 7e 00 00       	call   19a30 <_ExAllocatePool@8>
   11c1c:	83 c4 08             	add    $0x8,%esp
   11c1f:	89 45 fc             	mov    %eax,0xfffffffc(%ebp)
   11c22:	83 7d fc 00          	cmpl   $0x0,0xfffffffc(%ebp)
   11c26:	75 0c                	jne    11c34 <_usb_string+0x51>
   11c28:	c7 45 e8 f4 ff ff ff 	movl   $0xfffffff4,0xffffffe8(%ebp)
   11c2f:	e9 7a 01 00 00       	jmp    11dae <_usb_string+0x1cb>
   11c34:	8b 45 08             	mov    0x8(%ebp),%eax
   11c37:	83 b8 90 01 00 00 00 	cmpl   $0x0,0x190(%eax)
   11c3e:	75 6e                	jne    11cae <_usb_string+0xcb>
   11c40:	83 ec 0c             	sub    $0xc,%esp
   11c43:	6a 04                	push   $0x4
   11c45:	ff 75 fc             	pushl  0xfffffffc(%ebp)
   11c48:	6a 00                	push   $0x0
   11c4a:	6a 00                	push   $0x0
   11c4c:	ff 75 08             	pushl  0x8(%ebp)
   11c4f:	e8 c2 f7 ff ff       	call   11416 <_usb_get_string>
   11c54:	83 c4 20             	add    $0x20,%esp
   11c57:	89 45 f8             	mov    %eax,0xfffffff8(%ebp)
   11c5a:	83 7d f8 00          	cmpl   $0x0,0xfffffff8(%ebp)
   11c5e:	79 05                	jns    11c65 <_usb_string+0x82>
   11c60:	e9 35 01 00 00       	jmp    11d9a <_usb_string+0x1b7>
   11c65:	8b 45 fc             	mov    0xfffffffc(%ebp),%eax
   11c68:	80 38 03             	cmpb   $0x3,(%eax)
   11c6b:	77 0c                	ja     11c79 <_usb_string+0x96>
   11c6d:	c7 45 f8 ea ff ff ff 	movl   $0xffffffea,0xfffffff8(%ebp)
   11c74:	e9 21 01 00 00       	jmp    11d9a <_usb_string+0x1b7>
   11c79:	8b 45 08             	mov    0x8(%ebp),%eax
   11c7c:	c7 80 90 01 00 00 ff 	movl   $0xffffffff,0x190(%eax)
   11c83:	ff ff ff 
   11c86:	8b 4d 08             	mov    0x8(%ebp),%ecx
   11c89:	8b 45 fc             	mov    0xfffffffc(%ebp),%eax
   11c8c:	83 c0 02             	add    $0x2,%eax
   11c8f:	ba 00 00 00 00       	mov    $0x0,%edx
   11c94:	8a 10                	mov    (%eax),%dl
   11c96:	8b 45 fc             	mov    0xfffffffc(%ebp),%eax
   11c99:	83 c0 03             	add    $0x3,%eax
   11c9c:	8a 00                	mov    (%eax),%al
   11c9e:	25 ff 00 00 00       	and    $0xff,%eax
   11ca3:	c1 e0 08             	shl    $0x8,%eax
   11ca6:	09 d0                	or     %edx,%eax
   11ca8:	89 81 94 01 00 00    	mov    %eax,0x194(%ecx)
   11cae:	83 ec 0c             	sub    $0xc,%esp
   11cb1:	6a 02                	push   $0x2
   11cb3:	ff 75 fc             	pushl  0xfffffffc(%ebp)
   11cb6:	8b 45 0c             	mov    0xc(%ebp),%eax
   11cb9:	25 ff 00 00 00       	and    $0xff,%eax
   11cbe:	50                   	push   %eax
   11cbf:	8b 45 08             	mov    0x8(%ebp),%eax
   11cc2:	8b 80 94 01 00 00    	mov    0x194(%eax),%eax
   11cc8:	25 ff ff 00 00       	and    $0xffff,%eax
   11ccd:	50                   	push   %eax
   11cce:	ff 75 08             	pushl  0x8(%ebp)
   11cd1:	e8 40 f7 ff ff       	call   11416 <_usb_get_string>
   11cd6:	83 c4 20             	add    $0x20,%esp
   11cd9:	89 45 f8             	mov    %eax,0xfffffff8(%ebp)
   11cdc:	83 7d f8 01          	cmpl   $0x1,0xfffffff8(%ebp)
   11ce0:	7f 05                	jg     11ce7 <_usb_string+0x104>
   11ce2:	e9 b3 00 00 00       	jmp    11d9a <_usb_string+0x1b7>
   11ce7:	8b 45 fc             	mov    0xfffffffc(%ebp),%eax
   11cea:	8a 00                	mov    (%eax),%al
   11cec:	25 ff 00 00 00       	and    $0xff,%eax
   11cf1:	89 45 f4             	mov    %eax,0xfffffff4(%ebp)
   11cf4:	83 ec 0c             	sub    $0xc,%esp
   11cf7:	ff 75 f4             	pushl  0xfffffff4(%ebp)
   11cfa:	ff 75 fc             	pushl  0xfffffffc(%ebp)
   11cfd:	8b 45 0c             	mov    0xc(%ebp),%eax
   11d00:	25 ff 00 00 00       	and    $0xff,%eax
   11d05:	50                   	push   %eax
   11d06:	8b 45 08             	mov    0x8(%ebp),%eax
   11d09:	8b 80 94 01 00 00    	mov    0x194(%eax),%eax
   11d0f:	25 ff ff 00 00       	and    $0xffff,%eax
   11d14:	50                   	push   %eax
   11d15:	ff 75 08             	pushl  0x8(%ebp)
   11d18:	e8 f9 f6 ff ff       	call   11416 <_usb_get_string>
   11d1d:	83 c4 20             	add    $0x20,%esp
   11d20:	89 45 f8             	mov    %eax,0xfffffff8(%ebp)
   11d23:	83 7d f8 00          	cmpl   $0x0,0xfffffff8(%ebp)
   11d27:	79 02                	jns    11d2b <_usb_string+0x148>
   11d29:	eb 6f                	jmp    11d9a <_usb_string+0x1b7>
   11d2b:	8d 45 14             	lea    0x14(%ebp),%eax
   11d2e:	ff 08                	decl   (%eax)
   11d30:	c7 45 ec 00 00 00 00 	movl   $0x0,0xffffffec(%ebp)
   11d37:	c7 45 f0 02 00 00 00 	movl   $0x2,0xfffffff0(%ebp)
   11d3e:	8b 45 f8             	mov    0xfffffff8(%ebp),%eax
   11d41:	3b 45 f0             	cmp    0xfffffff0(%ebp),%eax
   11d44:	76 45                	jbe    11d8b <_usb_string+0x1a8>
   11d46:	8b 45 ec             	mov    0xffffffec(%ebp),%eax
   11d49:	3b 45 14             	cmp    0x14(%ebp),%eax
   11d4c:	72 02                	jb     11d50 <_usb_string+0x16d>
   11d4e:	eb 3b                	jmp    11d8b <_usb_string+0x1a8>
   11d50:	8b 45 f0             	mov    0xfffffff0(%ebp),%eax
   11d53:	03 45 fc             	add    0xfffffffc(%ebp),%eax
   11d56:	40                   	inc    %eax
   11d57:	80 38 00             	cmpb   $0x0,(%eax)
   11d5a:	74 10                	je     11d6c <_usb_string+0x189>
   11d5c:	8b 45 ec             	mov    0xffffffec(%ebp),%eax
   11d5f:	03 45 10             	add    0x10(%ebp),%eax
   11d62:	c6 00 3f             	movb   $0x3f,(%eax)
   11d65:	8d 45 ec             	lea    0xffffffec(%ebp),%eax
   11d68:	ff 00                	incl   (%eax)
   11d6a:	eb 17                	jmp    11d83 <_usb_string+0x1a0>
   11d6c:	8b 45 ec             	mov    0xffffffec(%ebp),%eax
   11d6f:	89 c2                	mov    %eax,%edx
   11d71:	03 55 10             	add    0x10(%ebp),%edx
   11d74:	8b 45 fc             	mov    0xfffffffc(%ebp),%eax
   11d77:	03 45 f0             	add    0xfffffff0(%ebp),%eax
   11d7a:	8a 00                	mov    (%eax),%al
   11d7c:	88 02                	mov    %al,(%edx)
   11d7e:	8d 45 ec             	lea    0xffffffec(%ebp),%eax
   11d81:	ff 00                	incl   (%eax)
   11d83:	8d 45 f0             	lea    0xfffffff0(%ebp),%eax
   11d86:	83 00 02             	addl   $0x2,(%eax)
   11d89:	eb b3                	jmp    11d3e <_usb_string+0x15b>
   11d8b:	8b 45 10             	mov    0x10(%ebp),%eax
   11d8e:	03 45 ec             	add    0xffffffec(%ebp),%eax
   11d91:	c6 00 00             	movb   $0x0,(%eax)
   11d94:	8b 45 ec             	mov    0xffffffec(%ebp),%eax
   11d97:	89 45 f8             	mov    %eax,0xfffffff8(%ebp)
   11d9a:	83 ec 0c             	sub    $0xc,%esp
   11d9d:	ff 75 fc             	pushl  0xfffffffc(%ebp)
   11da0:	e8 9b 7c 00 00       	call   19a40 <_ExFreePool@4>
   11da5:	83 c4 0c             	add    $0xc,%esp
   11da8:	8b 45 f8             	mov    0xfffffff8(%ebp),%eax
   11dab:	89 45 e8             	mov    %eax,0xffffffe8(%ebp)
   11dae:	8b 45 e8             	mov    0xffffffe8(%ebp),%eax
   11db1:	c9                   	leave  
   11db2:	c3                   	ret    
   11db3:	90                   	nop    
   11db4:	90                   	nop    
   11db5:	90                   	nop    
   11db6:	90                   	nop    
   11db7:	90                   	nop    
   11db8:	90                   	nop    
   11db9:	90                   	nop    
   11dba:	90                   	nop    
   11dbb:	90                   	nop    
   11dbc:	90                   	nop    
   11dbd:	90                   	nop    
   11dbe:	90                   	nop    
   11dbf:	90                   	nop    

00011dc0 <_ascii2utf>:
   11dc0:	55                   	push   %ebp
   11dc1:	89 e5                	mov    %esp,%ebp
   11dc3:	83 ec 04             	sub    $0x4,%esp
   11dc6:	c7 45 fc 00 00 00 00 	movl   $0x0,0xfffffffc(%ebp)
   11dcd:	8b 45 08             	mov    0x8(%ebp),%eax
   11dd0:	80 38 00             	cmpb   $0x0,(%eax)
   11dd3:	74 33                	je     11e08 <_ascii2utf+0x48>
   11dd5:	83 7d 10 01          	cmpl   $0x1,0x10(%ebp)
   11dd9:	7e 2d                	jle    11e08 <_ascii2utf+0x48>
   11ddb:	8b 45 0c             	mov    0xc(%ebp),%eax
   11dde:	89 c2                	mov    %eax,%edx
   11de0:	8b 45 08             	mov    0x8(%ebp),%eax
   11de3:	ff 45 08             	incl   0x8(%ebp)
   11de6:	8a 00                	mov    (%eax),%al
   11de8:	88 02                	mov    %al,(%edx)
   11dea:	8d 45 0c             	lea    0xc(%ebp),%eax
   11ded:	ff 00                	incl   (%eax)
   11def:	8b 45 0c             	mov    0xc(%ebp),%eax
   11df2:	c6 00 00             	movb   $0x0,(%eax)
   11df5:	8d 45 0c             	lea    0xc(%ebp),%eax
   11df8:	ff 00                	incl   (%eax)
   11dfa:	8d 45 10             	lea    0x10(%ebp),%eax
   11dfd:	83 28 02             	subl   $0x2,(%eax)
   11e00:	8d 45 fc             	lea    0xfffffffc(%ebp),%eax
   11e03:	83 00 02             	addl   $0x2,(%eax)
   11e06:	eb c5                	jmp    11dcd <_ascii2utf+0xd>
   11e08:	8b 45 fc             	mov    0xfffffffc(%ebp),%eax
   11e0b:	c9                   	leave  
   11e0c:	c3                   	ret    

00011e0d <_rh_string>:
   11e0d:	55                   	push   %ebp
   11e0e:	89 e5                	mov    %esp,%ebp
   11e10:	53                   	push   %ebx
   11e11:	81 ec 84 00 00 00    	sub    $0x84,%esp
   11e17:	83 7d 08 00          	cmpl   $0x0,0x8(%ebp)
   11e1b:	75 38                	jne    11e55 <_rh_string+0x48>
   11e1d:	8b 45 10             	mov    0x10(%ebp),%eax
   11e20:	c6 00 04             	movb   $0x4,(%eax)
   11e23:	8d 45 10             	lea    0x10(%ebp),%eax
   11e26:	ff 00                	incl   (%eax)
   11e28:	8b 45 10             	mov    0x10(%ebp),%eax
   11e2b:	c6 00 03             	movb   $0x3,(%eax)
   11e2e:	8d 45 10             	lea    0x10(%ebp),%eax
   11e31:	ff 00                	incl   (%eax)
   11e33:	8b 45 10             	mov    0x10(%ebp),%eax
   11e36:	c6 00 09             	movb   $0x9,(%eax)
   11e39:	8d 45 10             	lea    0x10(%ebp),%eax
   11e3c:	ff 00                	incl   (%eax)
   11e3e:	8b 45 10             	mov    0x10(%ebp),%eax
   11e41:	c6 00 04             	movb   $0x4,(%eax)
   11e44:	8d 45 10             	lea    0x10(%ebp),%eax
   11e47:	ff 00                	incl   (%eax)
   11e49:	c7 45 84 04 00 00 00 	movl   $0x4,0xffffff84(%ebp)
   11e50:	e9 af 00 00 00       	jmp    11f04 <_rh_string+0xf7>
   11e55:	83 7d 08 01          	cmpl   $0x1,0x8(%ebp)
   11e59:	75 17                	jne    11e72 <_rh_string+0x65>
   11e5b:	83 ec 08             	sub    $0x8,%esp
   11e5e:	8b 45 0c             	mov    0xc(%ebp),%eax
   11e61:	ff 70 08             	pushl  0x8(%eax)
   11e64:	8d 45 88             	lea    0xffffff88(%ebp),%eax
   11e67:	50                   	push   %eax
   11e68:	e8 33 7c 00 00       	call   19aa0 <_strcpy>
   11e6d:	83 c4 10             	add    $0x10,%esp
   11e70:	eb 52                	jmp    11ec4 <_rh_string+0xb7>
   11e72:	83 7d 08 02          	cmpl   $0x2,0x8(%ebp)
   11e76:	75 17                	jne    11e8f <_rh_string+0x82>
   11e78:	83 ec 08             	sub    $0x8,%esp
   11e7b:	8b 45 0c             	mov    0xc(%ebp),%eax
   11e7e:	ff 70 4c             	pushl  0x4c(%eax)
   11e81:	8d 45 88             	lea    0xffffff88(%ebp),%eax
   11e84:	50                   	push   %eax
   11e85:	e8 16 7c 00 00       	call   19aa0 <_strcpy>
   11e8a:	83 c4 10             	add    $0x10,%esp
   11e8d:	eb 35                	jmp    11ec4 <_rh_string+0xb7>
   11e8f:	83 7d 08 03          	cmpl   $0x3,0x8(%ebp)
   11e93:	75 26                	jne    11ebb <_rh_string+0xae>
   11e95:	83 ec 0c             	sub    $0xc,%esp
   11e98:	8b 45 0c             	mov    0xc(%ebp),%eax
   11e9b:	ff 70 50             	pushl  0x50(%eax)
   11e9e:	68 a6 b0 01 00       	push   $0x1b0a6
   11ea3:	68 ab b0 01 00       	push   $0x1b0ab
   11ea8:	68 b0 b0 01 00       	push   $0x1b0b0
   11ead:	8d 45 88             	lea    0xffffff88(%ebp),%eax
   11eb0:	50                   	push   %eax
   11eb1:	e8 da 7b 00 00       	call   19a90 <_sprintf>
   11eb6:	83 c4 20             	add    $0x20,%esp
   11eb9:	eb 09                	jmp    11ec4 <_rh_string+0xb7>
   11ebb:	c7 45 84 00 00 00 00 	movl   $0x0,0xffffff84(%ebp)
   11ec2:	eb 40                	jmp    11f04 <_rh_string+0xf7>
   11ec4:	8b 5d 10             	mov    0x10(%ebp),%ebx
   11ec7:	8d 45 88             	lea    0xffffff88(%ebp),%eax
   11eca:	83 ec 0c             	sub    $0xc,%esp
   11ecd:	50                   	push   %eax
   11ece:	e8 ad 7b 00 00       	call   19a80 <_strlen>
   11ed3:	83 c4 10             	add    $0x10,%esp
   11ed6:	01 c0                	add    %eax,%eax
   11ed8:	83 c0 02             	add    $0x2,%eax
   11edb:	88 03                	mov    %al,(%ebx)
   11edd:	8b 45 10             	mov    0x10(%ebp),%eax
   11ee0:	40                   	inc    %eax
   11ee1:	c6 00 03             	movb   $0x3,(%eax)
   11ee4:	8b 45 14             	mov    0x14(%ebp),%eax
   11ee7:	83 e8 02             	sub    $0x2,%eax
   11eea:	50                   	push   %eax
   11eeb:	8b 45 10             	mov    0x10(%ebp),%eax
   11eee:	83 c0 02             	add    $0x2,%eax
   11ef1:	50                   	push   %eax
   11ef2:	8d 45 88             	lea    0xffffff88(%ebp),%eax
   11ef5:	50                   	push   %eax
   11ef6:	e8 c5 fe ff ff       	call   11dc0 <_ascii2utf>
   11efb:	83 c4 0c             	add    $0xc,%esp
   11efe:	83 c0 02             	add    $0x2,%eax
   11f01:	89 45 84             	mov    %eax,0xffffff84(%ebp)
   11f04:	8b 45 84             	mov    0xffffff84(%ebp),%eax
   11f07:	8b 5d fc             	mov    0xfffffffc(%ebp),%ebx
   11f0a:	c9                   	leave  
   11f0b:	c3                   	ret    

00011f0c <_rh_call_control>:
   11f0c:	55                   	push   %ebp
   11f0d:	89 e5                	mov    %esp,%ebp
   11f0f:	53                   	push   %ebx
   11f10:	83 ec 24             	sub    $0x24,%esp
   11f13:	8b 45 0c             	mov    0xc(%ebp),%eax
   11f16:	8b 40 38             	mov    0x38(%eax),%eax
   11f19:	89 45 f8             	mov    %eax,0xfffffff8(%ebp)
   11f1c:	c7 45 ec 00 00 00 00 	movl   $0x0,0xffffffec(%ebp)
   11f23:	8b 45 0c             	mov    0xc(%ebp),%eax
   11f26:	8b 40 24             	mov    0x24(%eax),%eax
   11f29:	89 45 e8             	mov    %eax,0xffffffe8(%ebp)
   11f2c:	c7 45 e4 00 00 00 00 	movl   $0x0,0xffffffe4(%ebp)
   11f33:	8b 45 f8             	mov    0xfffffff8(%ebp),%eax
   11f36:	8a 00                	mov    (%eax),%al
   11f38:	25 ff 00 00 00       	and    $0xff,%eax
   11f3d:	89 c2                	mov    %eax,%edx
   11f3f:	c1 e2 08             	shl    $0x8,%edx
   11f42:	8b 45 f8             	mov    0xfffffff8(%ebp),%eax
   11f45:	8a 40 01             	mov    0x1(%eax),%al
   11f48:	25 ff 00 00 00       	and    $0xff,%eax
   11f4d:	09 d0                	or     %edx,%eax
   11f4f:	66 89 45 f6          	mov    %ax,0xfffffff6(%ebp)
   11f53:	8b 45 f8             	mov    0xfffffff8(%ebp),%eax
   11f56:	66 8b 40 02          	mov    0x2(%eax),%ax
   11f5a:	66 89 45 f4          	mov    %ax,0xfffffff4(%ebp)
   11f5e:	8b 45 f8             	mov    0xfffffff8(%ebp),%eax
   11f61:	66 8b 40 04          	mov    0x4(%eax),%ax
   11f65:	66 89 45 f2          	mov    %ax,0xfffffff2(%ebp)
   11f69:	8b 45 f8             	mov    0xfffffff8(%ebp),%eax
   11f6c:	66 8b 40 06          	mov    0x6(%eax),%ax
   11f70:	66 89 45 f0          	mov    %ax,0xfffffff0(%ebp)
   11f74:	8b 45 f0             	mov    0xfffffff0(%ebp),%eax
   11f77:	89 c2                	mov    %eax,%edx
   11f79:	81 e2 ff ff 00 00    	and    $0xffff,%edx
   11f7f:	8b 45 0c             	mov    0xc(%ebp),%eax
   11f82:	3b 50 2c             	cmp    0x2c(%eax),%edx
   11f85:	7e 05                	jle    11f8c <_rh_call_control+0x80>
   11f87:	e9 49 02 00 00       	jmp    121d5 <_rh_call_control+0x2c9>
   11f8c:	8b 45 0c             	mov    0xc(%ebp),%eax
   11f8f:	c7 40 1c 00 00 00 00 	movl   $0x0,0x1c(%eax)
   11f96:	8b 55 0c             	mov    0xc(%ebp),%edx
   11f99:	8b 45 f0             	mov    0xfffffff0(%ebp),%eax
   11f9c:	25 ff ff 00 00       	and    $0xffff,%eax
   11fa1:	89 42 30             	mov    %eax,0x30(%edx)
   11fa4:	66 8b 45 f6          	mov    0xfffffff6(%ebp),%ax
   11fa8:	89 c2                	mov    %eax,%edx
   11faa:	81 e2 ff ff 00 00    	and    $0xffff,%edx
   11fb0:	89 55 dc             	mov    %edx,0xffffffdc(%ebp)
   11fb3:	81 7d dc 01 01 00 00 	cmpl   $0x101,0xffffffdc(%ebp)
   11fba:	0f 84 1f 02 00 00    	je     121df <_rh_call_control+0x2d3>
   11fc0:	81 7d dc 01 01 00 00 	cmpl   $0x101,0xffffffdc(%ebp)
   11fc7:	7f 42                	jg     1200b <_rh_call_control+0xff>
   11fc9:	83 7d dc 05          	cmpl   $0x5,0xffffffdc(%ebp)
   11fcd:	0f 84 0c 02 00 00    	je     121df <_rh_call_control+0x2d3>
   11fd3:	83 7d dc 05          	cmpl   $0x5,0xffffffdc(%ebp)
   11fd7:	7f 19                	jg     11ff2 <_rh_call_control+0xe6>
   11fd9:	83 7d dc 01          	cmpl   $0x1,0xffffffdc(%ebp)
   11fdd:	0f 84 fc 01 00 00    	je     121df <_rh_call_control+0x2d3>
   11fe3:	83 7d dc 03          	cmpl   $0x3,0xffffffdc(%ebp)
   11fe7:	0f 84 f2 01 00 00    	je     121df <_rh_call_control+0x2d3>
   11fed:	e9 9e 01 00 00       	jmp    12190 <_rh_call_control+0x284>
   11ff2:	83 7d dc 09          	cmpl   $0x9,0xffffffdc(%ebp)
   11ff6:	0f 84 e3 01 00 00    	je     121df <_rh_call_control+0x2d3>
   11ffc:	83 7d dc 0b          	cmpl   $0xb,0xffffffdc(%ebp)
   12000:	0f 84 d9 01 00 00    	je     121df <_rh_call_control+0x2d3>
   12006:	e9 85 01 00 00       	jmp    12190 <_rh_call_control+0x284>
   1200b:	81 7d dc 06 80 00 00 	cmpl   $0x8006,0xffffffdc(%ebp)
   12012:	74 77                	je     1208b <_rh_call_control+0x17f>
   12014:	81 7d dc 06 80 00 00 	cmpl   $0x8006,0xffffffdc(%ebp)
   1201b:	7f 1b                	jg     12038 <_rh_call_control+0x12c>
   1201d:	81 7d dc 03 01 00 00 	cmpl   $0x103,0xffffffdc(%ebp)
   12024:	0f 84 b5 01 00 00    	je     121df <_rh_call_control+0x2d3>
   1202a:	81 7d dc 00 80 00 00 	cmpl   $0x8000,0xffffffdc(%ebp)
   12031:	74 3b                	je     1206e <_rh_call_control+0x162>
   12033:	e9 58 01 00 00       	jmp    12190 <_rh_call_control+0x284>
   12038:	81 7d dc 0a 80 00 00 	cmpl   $0x800a,0xffffffdc(%ebp)
   1203f:	0f 84 34 01 00 00    	je     12179 <_rh_call_control+0x26d>
   12045:	81 7d dc 0a 80 00 00 	cmpl   $0x800a,0xffffffdc(%ebp)
   1204c:	7f 0e                	jg     1205c <_rh_call_control+0x150>
   1204e:	81 7d dc 08 80 00 00 	cmpl   $0x8008,0xffffffdc(%ebp)
   12055:	74 29                	je     12080 <_rh_call_control+0x174>
   12057:	e9 34 01 00 00       	jmp    12190 <_rh_call_control+0x284>
   1205c:	81 7d dc 00 81 00 00 	cmpl   $0x8100,0xffffffdc(%ebp)
   12063:	0f 84 18 01 00 00    	je     12181 <_rh_call_control+0x275>
   12069:	e9 22 01 00 00       	jmp    12190 <_rh_call_control+0x284>
   1206e:	8b 45 e8             	mov    0xffffffe8(%ebp),%eax
   12071:	c6 00 01             	movb   $0x1,(%eax)
   12074:	8b 45 e8             	mov    0xffffffe8(%ebp),%eax
   12077:	40                   	inc    %eax
   12078:	c6 00 00             	movb   $0x0,(%eax)
   1207b:	e9 5f 01 00 00       	jmp    121df <_rh_call_control+0x2d3>
   12080:	8b 45 e8             	mov    0xffffffe8(%ebp),%eax
   12083:	c6 00 01             	movb   $0x1,(%eax)
   12086:	e9 54 01 00 00       	jmp    121df <_rh_call_control+0x2d3>
   1208b:	8b 45 f4             	mov    0xfffffff4(%ebp),%eax
   1208e:	25 ff ff 00 00       	and    $0xffff,%eax
   12093:	25 00 ff 00 00       	and    $0xff00,%eax
   12098:	89 45 e0             	mov    %eax,0xffffffe0(%ebp)
   1209b:	81 7d e0 00 02 00 00 	cmpl   $0x200,0xffffffe0(%ebp)
   120a2:	74 6f                	je     12113 <_rh_call_control+0x207>
   120a4:	81 7d e0 00 02 00 00 	cmpl   $0x200,0xffffffe0(%ebp)
   120ab:	7f 0e                	jg     120bb <_rh_call_control+0x1af>
   120ad:	81 7d e0 00 01 00 00 	cmpl   $0x100,0xffffffe0(%ebp)
   120b4:	74 17                	je     120cd <_rh_call_control+0x1c1>
   120b6:	e9 1a 01 00 00       	jmp    121d5 <_rh_call_control+0x2c9>
   120bb:	81 7d e0 00 03 00 00 	cmpl   $0x300,0xffffffe0(%ebp)
   120c2:	0f 84 84 00 00 00    	je     1214c <_rh_call_control+0x240>
   120c8:	e9 08 01 00 00       	jmp    121d5 <_rh_call_control+0x2c9>
   120cd:	8b 45 08             	mov    0x8(%ebp),%eax
   120d0:	8b 40 74             	mov    0x74(%eax),%eax
   120d3:	8b 40 08             	mov    0x8(%eax),%eax
   120d6:	c1 e8 05             	shr    $0x5,%eax
   120d9:	83 e0 01             	and    $0x1,%eax
   120dc:	85 c0                	test   %eax,%eax
   120de:	74 09                	je     120e9 <_rh_call_control+0x1dd>
   120e0:	c7 45 ec 50 b0 01 00 	movl   $0x1b050,0xffffffec(%ebp)
   120e7:	eb 1e                	jmp    12107 <_rh_call_control+0x1fb>
   120e9:	8b 45 08             	mov    0x8(%ebp),%eax
   120ec:	8b 40 74             	mov    0x74(%eax),%eax
   120ef:	8b 40 08             	mov    0x8(%eax),%eax
   120f2:	c1 e8 04             	shr    $0x4,%eax
   120f5:	83 e0 01             	and    $0x1,%eax
   120f8:	85 c0                	test   %eax,%eax
   120fa:	0f 84 d5 00 00 00    	je     121d5 <_rh_call_control+0x2c9>
   12100:	c7 45 ec 62 b0 01 00 	movl   $0x1b062,0xffffffec(%ebp)
   12107:	c7 45 e4 12 00 00 00 	movl   $0x12,0xffffffe4(%ebp)
   1210e:	e9 cc 00 00 00       	jmp    121df <_rh_call_control+0x2d3>
   12113:	8b 45 08             	mov    0x8(%ebp),%eax
   12116:	8b 40 74             	mov    0x74(%eax),%eax
   12119:	8b 40 08             	mov    0x8(%eax),%eax
   1211c:	c1 e8 05             	shr    $0x5,%eax
   1211f:	83 e0 01             	and    $0x1,%eax
   12122:	85 c0                	test   %eax,%eax
   12124:	74 13                	je     12139 <_rh_call_control+0x22d>
   12126:	c7 45 ec 8d b0 01 00 	movl   $0x1b08d,0xffffffec(%ebp)
   1212d:	c7 45 e4 19 00 00 00 	movl   $0x19,0xffffffe4(%ebp)
   12134:	e9 a6 00 00 00       	jmp    121df <_rh_call_control+0x2d3>
   12139:	c7 45 ec 74 b0 01 00 	movl   $0x1b074,0xffffffec(%ebp)
   12140:	c7 45 e4 19 00 00 00 	movl   $0x19,0xffffffe4(%ebp)
   12147:	e9 93 00 00 00       	jmp    121df <_rh_call_control+0x2d3>
   1214c:	8b 5d 0c             	mov    0xc(%ebp),%ebx
   1214f:	8b 45 f0             	mov    0xfffffff0(%ebp),%eax
   12152:	25 ff ff 00 00       	and    $0xffff,%eax
   12157:	50                   	push   %eax
   12158:	ff 75 e8             	pushl  0xffffffe8(%ebp)
   1215b:	ff 75 08             	pushl  0x8(%ebp)
   1215e:	8b 45 f4             	mov    0xfffffff4(%ebp),%eax
   12161:	25 ff ff 00 00       	and    $0xffff,%eax
   12166:	25 ff 00 00 00       	and    $0xff,%eax
   1216b:	50                   	push   %eax
   1216c:	e8 9c fc ff ff       	call   11e0d <_rh_string>
   12171:	83 c4 10             	add    $0x10,%esp
   12174:	89 43 30             	mov    %eax,0x30(%ebx)
   12177:	eb 66                	jmp    121df <_rh_call_control+0x2d3>
   12179:	8b 45 e8             	mov    0xffffffe8(%ebp),%eax
   1217c:	c6 00 00             	movb   $0x0,(%eax)
   1217f:	eb 5e                	jmp    121df <_rh_call_control+0x2d3>
   12181:	8b 45 e8             	mov    0xffffffe8(%ebp),%eax
   12184:	c6 00 00             	movb   $0x0,(%eax)
   12187:	8b 45 e8             	mov    0xffffffe8(%ebp),%eax
   1218a:	40                   	inc    %eax
   1218b:	c6 00 00             	movb   $0x0,(%eax)
   1218e:	eb 4f                	jmp    121df <_rh_call_control+0x2d3>
   12190:	8b 5d 0c             	mov    0xc(%ebp),%ebx
   12193:	83 ec 08             	sub    $0x8,%esp
   12196:	8b 45 08             	mov    0x8(%ebp),%eax
   12199:	8b 50 74             	mov    0x74(%eax),%edx
   1219c:	8b 45 f0             	mov    0xfffffff0(%ebp),%eax
   1219f:	25 ff ff 00 00       	and    $0xffff,%eax
   121a4:	50                   	push   %eax
   121a5:	ff 75 e8             	pushl  0xffffffe8(%ebp)
   121a8:	66 8b 45 f2          	mov    0xfffffff2(%ebp),%ax
   121ac:	25 ff ff 00 00       	and    $0xffff,%eax
   121b1:	50                   	push   %eax
   121b2:	8b 45 f4             	mov    0xfffffff4(%ebp),%eax
   121b5:	25 ff ff 00 00       	and    $0xffff,%eax
   121ba:	50                   	push   %eax
   121bb:	66 8b 45 f6          	mov    0xfffffff6(%ebp),%ax
   121bf:	25 ff ff 00 00       	and    $0xffff,%eax
   121c4:	50                   	push   %eax
   121c5:	ff 75 08             	pushl  0x8(%ebp)
   121c8:	8b 42 38             	mov    0x38(%edx),%eax
   121cb:	ff d0                	call   *%eax
   121cd:	83 c4 20             	add    $0x20,%esp
   121d0:	89 43 1c             	mov    %eax,0x1c(%ebx)
   121d3:	eb 0a                	jmp    121df <_rh_call_control+0x2d3>
   121d5:	8b 45 0c             	mov    0xc(%ebp),%eax
   121d8:	c7 40 1c e0 ff ff ff 	movl   $0xffffffe0,0x1c(%eax)
   121df:	8b 45 0c             	mov    0xc(%ebp),%eax
   121e2:	83 78 1c 00          	cmpl   $0x0,0x1c(%eax)
   121e6:	74 0a                	je     121f2 <_rh_call_control+0x2e6>
   121e8:	8b 45 0c             	mov    0xc(%ebp),%eax
   121eb:	c7 40 30 00 00 00 00 	movl   $0x0,0x30(%eax)
   121f2:	83 7d ec 00          	cmpl   $0x0,0xffffffec(%ebp)
   121f6:	74 31                	je     12229 <_rh_call_control+0x31d>
   121f8:	8b 45 0c             	mov    0xc(%ebp),%eax
   121fb:	8b 40 2c             	mov    0x2c(%eax),%eax
   121fe:	3b 45 e4             	cmp    0xffffffe4(%ebp),%eax
   12201:	7d 09                	jge    1220c <_rh_call_control+0x300>
   12203:	8b 45 0c             	mov    0xc(%ebp),%eax
   12206:	8b 40 2c             	mov    0x2c(%eax),%eax
   12209:	89 45 e4             	mov    %eax,0xffffffe4(%ebp)
   1220c:	8b 55 0c             	mov    0xc(%ebp),%edx
   1220f:	8b 45 e4             	mov    0xffffffe4(%ebp),%eax
   12212:	89 42 30             	mov    %eax,0x30(%edx)
   12215:	83 ec 04             	sub    $0x4,%esp
   12218:	ff 75 e4             	pushl  0xffffffe4(%ebp)
   1221b:	ff 75 ec             	pushl  0xffffffec(%ebp)
   1221e:	ff 75 e8             	pushl  0xffffffe8(%ebp)
   12221:	e8 4a 78 00 00       	call   19a70 <_memcpy>
   12226:	83 c4 10             	add    $0x10,%esp
   12229:	83 ec 04             	sub    $0x4,%esp
   1222c:	6a 00                	push   $0x0
   1222e:	ff 75 0c             	pushl  0xc(%ebp)
   12231:	ff 75 08             	pushl  0x8(%ebp)
   12234:	e8 5d 14 00 00       	call   13696 <_usb_hcd_giveback_urb@12>
   12239:	83 c4 04             	add    $0x4,%esp
   1223c:	b8 00 00 00 00       	mov    $0x0,%eax
   12241:	8b 5d fc             	mov    0xfffffffc(%ebp),%ebx
   12244:	c9                   	leave  
   12245:	c3                   	ret    

00012246 <_rh_status_urb>:
   12246:	55                   	push   %ebp
   12247:	89 e5                	mov    %esp,%ebp
   12249:	83 ec 18             	sub    $0x18,%esp
   1224c:	8b 45 0c             	mov    0xc(%ebp),%eax
   1224f:	8b 40 14             	mov    0x14(%eax),%eax
   12252:	8b 80 ac 01 00 00    	mov    0x1ac(%eax),%eax
   12258:	89 45 f4             	mov    %eax,0xfffffff4(%ebp)
   1225b:	83 7d f4 00          	cmpl   $0x0,0xfffffff4(%ebp)
   1225f:	79 04                	jns    12265 <_rh_status_urb+0x1f>
   12261:	83 45 f4 07          	addl   $0x7,0xfffffff4(%ebp)
   12265:	8b 45 f4             	mov    0xfffffff4(%ebp),%eax
   12268:	c1 f8 03             	sar    $0x3,%eax
   1226b:	40                   	inc    %eax
   1226c:	89 45 fc             	mov    %eax,0xfffffffc(%ebp)
   1226f:	8b 45 08             	mov    0x8(%ebp),%eax
   12272:	83 78 58 00          	cmpl   $0x0,0x58(%eax)
   12276:	75 16                	jne    1228e <_rh_status_urb+0x48>
   12278:	8b 45 0c             	mov    0xc(%ebp),%eax
   1227b:	83 78 1c 8d          	cmpl   $0xffffff8d,0x1c(%eax)
   1227f:	75 0d                	jne    1228e <_rh_status_urb+0x48>
   12281:	8b 45 0c             	mov    0xc(%ebp),%eax
   12284:	8b 40 2c             	mov    0x2c(%eax),%eax
   12287:	3b 45 fc             	cmp    0xfffffffc(%ebp),%eax
   1228a:	7c 02                	jl     1228e <_rh_status_urb+0x48>
   1228c:	eb 09                	jmp    12297 <_rh_status_urb+0x51>
   1228e:	c7 45 f8 ea ff ff ff 	movl   $0xffffffea,0xfffffff8(%ebp)
   12295:	eb 55                	jmp    122ec <_rh_status_urb+0xa6>
   12297:	83 ec 0c             	sub    $0xc,%esp
   1229a:	8b 45 08             	mov    0x8(%ebp),%eax
   1229d:	83 c0 54             	add    $0x54,%eax
   122a0:	50                   	push   %eax
   122a1:	e8 83 00 00 00       	call   12329 <_init_timer>
   122a6:	83 c4 10             	add    $0x10,%esp
   122a9:	8b 45 08             	mov    0x8(%ebp),%eax
   122ac:	c7 40 54 5e 23 01 00 	movl   $0x1235e,0x54(%eax)
   122b3:	8b 55 08             	mov    0x8(%ebp),%edx
   122b6:	8b 45 0c             	mov    0xc(%ebp),%eax
   122b9:	89 42 58             	mov    %eax,0x58(%edx)
   122bc:	8b 55 08             	mov    0x8(%ebp),%edx
   122bf:	a1 40 c2 01 00       	mov    0x1c240,%eax
   122c4:	83 c0 19             	add    $0x19,%eax
   122c7:	89 42 5c             	mov    %eax,0x5c(%edx)
   122ca:	83 ec 0c             	sub    $0xc,%esp
   122cd:	8b 45 08             	mov    0x8(%ebp),%eax
   122d0:	83 c0 54             	add    $0x54,%eax
   122d3:	50                   	push   %eax
   122d4:	e8 18 00 00 00       	call   122f1 <_add_timer>
   122d9:	83 c4 10             	add    $0x10,%esp
   122dc:	8b 55 0c             	mov    0xc(%ebp),%edx
   122df:	8b 45 08             	mov    0x8(%ebp),%eax
   122e2:	89 42 08             	mov    %eax,0x8(%edx)
   122e5:	c7 45 f8 00 00 00 00 	movl   $0x0,0xfffffff8(%ebp)
   122ec:	8b 45 f8             	mov    0xfffffff8(%ebp),%eax
   122ef:	c9                   	leave  
   122f0:	c3                   	ret    

000122f1 <_add_timer>:
   122f1:	55                   	push   %ebp
   122f2:	89 e5                	mov    %esp,%ebp
   122f4:	83 ec 04             	sub    $0x4,%esp
   122f7:	c7 45 fc 00 00 00 00 	movl   $0x0,0xfffffffc(%ebp)
   122fe:	83 7d fc 13          	cmpl   $0x13,0xfffffffc(%ebp)
   12302:	7f 23                	jg     12327 <_add_timer+0x36>
   12304:	8b 45 fc             	mov    0xfffffffc(%ebp),%eax
   12307:	83 3c 85 60 c1 01 00 	cmpl   $0x0,0x1c160(,%eax,4)
   1230e:	00 
   1230f:	75 0f                	jne    12320 <_add_timer+0x2f>
   12311:	8b 55 fc             	mov    0xfffffffc(%ebp),%edx
   12314:	8b 45 08             	mov    0x8(%ebp),%eax
   12317:	89 04 95 60 c1 01 00 	mov    %eax,0x1c160(,%edx,4)
   1231e:	eb 07                	jmp    12327 <_add_timer+0x36>
   12320:	8d 45 fc             	lea    0xfffffffc(%ebp),%eax
   12323:	ff 00                	incl   (%eax)
   12325:	eb d7                	jmp    122fe <_add_timer+0xd>
   12327:	c9                   	leave  
   12328:	c3                   	ret    

00012329 <_init_timer>:
   12329:	55                   	push   %ebp
   1232a:	89 e5                	mov    %esp,%ebp
   1232c:	8b 55 08             	mov    0x8(%ebp),%edx
   1232f:	83 c2 0c             	add    $0xc,%edx
   12332:	8b 45 08             	mov    0x8(%ebp),%eax
   12335:	83 c0 0c             	add    $0xc,%eax
   12338:	89 02                	mov    %eax,(%edx)
   1233a:	8b 55 08             	mov    0x8(%ebp),%edx
   1233d:	83 c2 0c             	add    $0xc,%edx
   12340:	8b 45 08             	mov    0x8(%ebp),%eax
   12343:	83 c0 0c             	add    $0xc,%eax
   12346:	89 42 04             	mov    %eax,0x4(%edx)
   12349:	8b 45 08             	mov    0x8(%ebp),%eax
   1234c:	c7 00 00 00 00 00    	movl   $0x0,(%eax)
   12352:	8b 45 08             	mov    0x8(%ebp),%eax
   12355:	c7 40 08 00 00 00 00 	movl   $0x0,0x8(%eax)
   1235c:	5d                   	pop    %ebp
   1235d:	c3                   	ret    

0001235e <_rh_report_status>:
   1235e:	55                   	push   %ebp
   1235f:	89 e5                	mov    %esp,%ebp
   12361:	83 ec 18             	sub    $0x18,%esp
   12364:	8b 45 08             	mov    0x8(%ebp),%eax
   12367:	89 45 fc             	mov    %eax,0xfffffffc(%ebp)
   1236a:	8b 45 fc             	mov    0xfffffffc(%ebp),%eax
   1236d:	c7 00 01 00 00 00    	movl   $0x1,(%eax)
   12373:	8b 45 fc             	mov    0xfffffffc(%ebp),%eax
   12376:	83 78 14 00          	cmpl   $0x0,0x14(%eax)
   1237a:	0f 84 c6 00 00 00    	je     12446 <_rh_report_status+0xe8>
   12380:	8b 45 fc             	mov    0xfffffffc(%ebp),%eax
   12383:	83 78 1c 8d          	cmpl   $0xffffff8d,0x1c(%eax)
   12387:	0f 85 b9 00 00 00    	jne    12446 <_rh_report_status+0xe8>
   1238d:	8b 45 fc             	mov    0xfffffffc(%ebp),%eax
   12390:	8b 40 14             	mov    0x14(%eax),%eax
   12393:	8b 80 bc 00 00 00    	mov    0xbc(%eax),%eax
   12399:	8b 40 30             	mov    0x30(%eax),%eax
   1239c:	89 45 f8             	mov    %eax,0xfffffff8(%ebp)
   1239f:	85 c0                	test   %eax,%eax
   123a1:	0f 84 9f 00 00 00    	je     12446 <_rh_report_status+0xe8>
   123a7:	8b 45 f8             	mov    0xfffffff8(%ebp),%eax
   123aa:	8b 80 e0 00 00 00    	mov    0xe0(%eax),%eax
   123b0:	83 e0 01             	and    $0x1,%eax
   123b3:	85 c0                	test   %eax,%eax
   123b5:	75 05                	jne    123bc <_rh_report_status+0x5e>
   123b7:	e9 8a 00 00 00       	jmp    12446 <_rh_report_status+0xe8>
   123bc:	83 ec 08             	sub    $0x8,%esp
   123bf:	8b 45 f8             	mov    0xfffffff8(%ebp),%eax
   123c2:	8b 50 74             	mov    0x74(%eax),%edx
   123c5:	8b 45 fc             	mov    0xfffffffc(%ebp),%eax
   123c8:	ff 70 24             	pushl  0x24(%eax)
   123cb:	ff 75 f8             	pushl  0xfffffff8(%ebp)
   123ce:	8b 42 34             	mov    0x34(%edx),%eax
   123d1:	ff d0                	call   *%eax
   123d3:	83 c4 10             	add    $0x10,%esp
   123d6:	89 45 f4             	mov    %eax,0xfffffff4(%ebp)
   123d9:	c7 05 00 c0 01 00 01 	movl   $0x1,0x1c000
   123e0:	00 00 00 
   123e3:	83 7d f4 00          	cmpl   $0x0,0xfffffff4(%ebp)
   123e7:	7e 29                	jle    12412 <_rh_report_status+0xb4>
   123e9:	8b 45 f8             	mov    0xfffffff8(%ebp),%eax
   123ec:	c7 40 58 00 00 00 00 	movl   $0x0,0x58(%eax)
   123f3:	8b 55 fc             	mov    0xfffffffc(%ebp),%edx
   123f6:	8b 45 f4             	mov    0xfffffff4(%ebp),%eax
   123f9:	89 42 30             	mov    %eax,0x30(%edx)
   123fc:	8b 45 fc             	mov    0xfffffffc(%ebp),%eax
   123ff:	c7 40 1c 00 00 00 00 	movl   $0x0,0x1c(%eax)
   12406:	8b 45 fc             	mov    0xfffffffc(%ebp),%eax
   12409:	c7 40 08 00 00 00 00 	movl   $0x0,0x8(%eax)
   12410:	eb 1b                	jmp    1242d <_rh_report_status+0xcf>
   12412:	83 ec 08             	sub    $0x8,%esp
   12415:	a1 40 c2 01 00       	mov    0x1c240,%eax
   1241a:	83 c0 19             	add    $0x19,%eax
   1241d:	50                   	push   %eax
   1241e:	8b 45 f8             	mov    0xfffffff8(%ebp),%eax
   12421:	83 c0 54             	add    $0x54,%eax
   12424:	50                   	push   %eax
   12425:	e8 1e 00 00 00       	call   12448 <_mod_timer>
   1242a:	83 c4 10             	add    $0x10,%esp
   1242d:	83 7d f4 00          	cmpl   $0x0,0xfffffff4(%ebp)
   12431:	7e 13                	jle    12446 <_rh_report_status+0xe8>
   12433:	83 ec 04             	sub    $0x4,%esp
   12436:	6a 00                	push   $0x0
   12438:	ff 75 fc             	pushl  0xfffffffc(%ebp)
   1243b:	ff 75 f8             	pushl  0xfffffff8(%ebp)
   1243e:	e8 53 12 00 00       	call   13696 <_usb_hcd_giveback_urb@12>
   12443:	83 c4 04             	add    $0x4,%esp
   12446:	c9                   	leave  
   12447:	c3                   	ret    

00012448 <_mod_timer>:
   12448:	55                   	push   %ebp
   12449:	89 e5                	mov    %esp,%ebp
   1244b:	83 ec 08             	sub    $0x8,%esp
   1244e:	83 ec 0c             	sub    $0xc,%esp
   12451:	ff 75 08             	pushl  0x8(%ebp)
   12454:	e8 19 00 00 00       	call   12472 <_del_timer>
   12459:	83 c4 10             	add    $0x10,%esp
   1245c:	8b 55 08             	mov    0x8(%ebp),%edx
   1245f:	8b 45 0c             	mov    0xc(%ebp),%eax
   12462:	89 42 08             	mov    %eax,0x8(%edx)
   12465:	ff 75 08             	pushl  0x8(%ebp)
   12468:	e8 84 fe ff ff       	call   122f1 <_add_timer>
   1246d:	83 c4 04             	add    $0x4,%esp
   12470:	c9                   	leave  
   12471:	c3                   	ret    

00012472 <_del_timer>:
   12472:	55                   	push   %ebp
   12473:	89 e5                	mov    %esp,%ebp
   12475:	83 ec 04             	sub    $0x4,%esp
   12478:	c7 45 fc 00 00 00 00 	movl   $0x0,0xfffffffc(%ebp)
   1247f:	83 7d fc 13          	cmpl   $0x13,0xfffffffc(%ebp)
   12483:	7f 26                	jg     124ab <_del_timer+0x39>
   12485:	8b 45 fc             	mov    0xfffffffc(%ebp),%eax
   12488:	8b 04 85 60 c1 01 00 	mov    0x1c160(,%eax,4),%eax
   1248f:	3b 45 08             	cmp    0x8(%ebp),%eax
   12492:	75 10                	jne    124a4 <_del_timer+0x32>
   12494:	8b 45 fc             	mov    0xfffffffc(%ebp),%eax
   12497:	c7 04 85 60 c1 01 00 	movl   $0x0,0x1c160(,%eax,4)
   1249e:	00 00 00 00 
   124a2:	eb 07                	jmp    124ab <_del_timer+0x39>
   124a4:	8d 45 fc             	lea    0xfffffffc(%ebp),%eax
   124a7:	ff 00                	incl   (%eax)
   124a9:	eb d4                	jmp    1247f <_del_timer+0xd>
   124ab:	c9                   	leave  
   124ac:	c3                   	ret    

000124ad <_rh_urb_enqueue>:
   124ad:	55                   	push   %ebp
   124ae:	89 e5                	mov    %esp,%ebp
   124b0:	83 ec 18             	sub    $0x18,%esp
   124b3:	8b 45 0c             	mov    0xc(%ebp),%eax
   124b6:	8b 40 18             	mov    0x18(%eax),%eax
   124b9:	c1 e8 1e             	shr    $0x1e,%eax
   124bc:	83 e0 03             	and    $0x3,%eax
   124bf:	83 f8 01             	cmp    $0x1,%eax
   124c2:	75 23                	jne    124e7 <_rh_urb_enqueue+0x3a>
   124c4:	c7 45 f8 00 00 00 00 	movl   $0x0,0xfffffff8(%ebp)
   124cb:	83 ec 08             	sub    $0x8,%esp
   124ce:	ff 75 0c             	pushl  0xc(%ebp)
   124d1:	ff 75 08             	pushl  0x8(%ebp)
   124d4:	e8 6d fd ff ff       	call   12246 <_rh_status_urb>
   124d9:	83 c4 10             	add    $0x10,%esp
   124dc:	89 45 fc             	mov    %eax,0xfffffffc(%ebp)
   124df:	8b 45 fc             	mov    0xfffffffc(%ebp),%eax
   124e2:	89 45 f4             	mov    %eax,0xfffffff4(%ebp)
   124e5:	eb 2e                	jmp    12515 <_rh_urb_enqueue+0x68>
   124e7:	8b 45 0c             	mov    0xc(%ebp),%eax
   124ea:	8b 40 18             	mov    0x18(%eax),%eax
   124ed:	c1 e8 1e             	shr    $0x1e,%eax
   124f0:	83 e0 03             	and    $0x3,%eax
   124f3:	83 f8 02             	cmp    $0x2,%eax
   124f6:	75 16                	jne    1250e <_rh_urb_enqueue+0x61>
   124f8:	83 ec 08             	sub    $0x8,%esp
   124fb:	ff 75 0c             	pushl  0xc(%ebp)
   124fe:	ff 75 08             	pushl  0x8(%ebp)
   12501:	e8 06 fa ff ff       	call   11f0c <_rh_call_control>
   12506:	83 c4 10             	add    $0x10,%esp
   12509:	89 45 f4             	mov    %eax,0xfffffff4(%ebp)
   1250c:	eb 07                	jmp    12515 <_rh_urb_enqueue+0x68>
   1250e:	c7 45 f4 ea ff ff ff 	movl   $0xffffffea,0xfffffff4(%ebp)
   12515:	8b 45 f4             	mov    0xfffffff4(%ebp),%eax
   12518:	c9                   	leave  
   12519:	c3                   	ret    

0001251a <_usb_rh_status_dequeue>:
   1251a:	55                   	push   %ebp
   1251b:	89 e5                	mov    %esp,%ebp
   1251d:	83 ec 08             	sub    $0x8,%esp
   12520:	83 ec 0c             	sub    $0xc,%esp
   12523:	8b 45 08             	mov    0x8(%ebp),%eax
   12526:	83 c0 54             	add    $0x54,%eax
   12529:	50                   	push   %eax
   1252a:	e8 2c 00 00 00       	call   1255b <_del_timer_sync>
   1252f:	83 c4 10             	add    $0x10,%esp
   12532:	8b 45 08             	mov    0x8(%ebp),%eax
   12535:	c7 40 58 00 00 00 00 	movl   $0x0,0x58(%eax)
   1253c:	8b 45 0c             	mov    0xc(%ebp),%eax
   1253f:	c7 40 08 00 00 00 00 	movl   $0x0,0x8(%eax)
   12546:	83 ec 04             	sub    $0x4,%esp
   12549:	6a 00                	push   $0x0
   1254b:	ff 75 0c             	pushl  0xc(%ebp)
   1254e:	ff 75 08             	pushl  0x8(%ebp)
   12551:	e8 40 11 00 00       	call   13696 <_usb_hcd_giveback_urb@12>
   12556:	83 c4 04             	add    $0x4,%esp
   12559:	c9                   	leave  
   1255a:	c3                   	ret    

0001255b <_del_timer_sync>:
   1255b:	55                   	push   %ebp
   1255c:	89 e5                	mov    %esp,%ebp
   1255e:	83 ec 04             	sub    $0x4,%esp
   12561:	c7 45 fc 00 00 00 00 	movl   $0x0,0xfffffffc(%ebp)
   12568:	83 7d fc 13          	cmpl   $0x13,0xfffffffc(%ebp)
   1256c:	7f 26                	jg     12594 <_del_timer_sync+0x39>
   1256e:	8b 45 fc             	mov    0xfffffffc(%ebp),%eax
   12571:	8b 04 85 60 c1 01 00 	mov    0x1c160(,%eax,4),%eax
   12578:	3b 45 08             	cmp    0x8(%ebp),%eax
   1257b:	75 10                	jne    1258d <_del_timer_sync+0x32>
   1257d:	8b 45 fc             	mov    0xfffffffc(%ebp),%eax
   12580:	c7 04 85 60 c1 01 00 	movl   $0x0,0x1c160(,%eax,4)
   12587:	00 00 00 00 
   1258b:	eb 07                	jmp    12594 <_del_timer_sync+0x39>
   1258d:	8d 45 fc             	lea    0xfffffffc(%ebp),%eax
   12590:	ff 00                	incl   (%eax)
   12592:	eb d4                	jmp    12568 <_del_timer_sync+0xd>
   12594:	c9                   	leave  
   12595:	c3                   	ret    

00012596 <_usb_bus_get>:
   12596:	55                   	push   %ebp
   12597:	89 e5                	mov    %esp,%ebp
   12599:	8b 45 08             	mov    0x8(%ebp),%eax
   1259c:	83 c0 48             	add    $0x48,%eax
   1259f:	8b 55 08             	mov    0x8(%ebp),%edx
   125a2:	83 c2 48             	add    $0x48,%edx
   125a5:	8b 12                	mov    (%edx),%edx
   125a7:	42                   	inc    %edx
   125a8:	89 10                	mov    %edx,(%eax)
   125aa:	5d                   	pop    %ebp
   125ab:	c3                   	ret    

000125ac <_usb_bus_put>:
   125ac:	55                   	push   %ebp
   125ad:	89 e5                	mov    %esp,%ebp
   125af:	83 ec 08             	sub    $0x8,%esp
   125b2:	8b 55 08             	mov    0x8(%ebp),%edx
   125b5:	83 c2 48             	add    $0x48,%edx
   125b8:	8b 45 08             	mov    0x8(%ebp),%eax
   125bb:	83 c0 48             	add    $0x48,%eax
   125be:	8b 00                	mov    (%eax),%eax
   125c0:	48                   	dec    %eax
   125c1:	89 02                	mov    %eax,(%edx)
   125c3:	8b 45 08             	mov    0x8(%ebp),%eax
   125c6:	83 c0 48             	add    $0x48,%eax
   125c9:	83 38 00             	cmpl   $0x0,(%eax)
   125cc:	75 0e                	jne    125dc <_usb_bus_put+0x30>
   125ce:	83 ec 0c             	sub    $0xc,%esp
   125d1:	ff 75 08             	pushl  0x8(%ebp)
   125d4:	e8 67 74 00 00       	call   19a40 <_ExFreePool@4>
   125d9:	83 c4 0c             	add    $0xc,%esp
   125dc:	c9                   	leave  
   125dd:	c3                   	ret    

000125de <_usb_bus_init@4>:
   125de:	55                   	push   %ebp
   125df:	89 e5                	mov    %esp,%ebp
   125e1:	83 ec 08             	sub    $0x8,%esp
   125e4:	83 ec 04             	sub    $0x4,%esp
   125e7:	6a 10                	push   $0x10
   125e9:	6a 00                	push   $0x0
   125eb:	8b 45 08             	mov    0x8(%ebp),%eax
   125ee:	83 c0 10             	add    $0x10,%eax
   125f1:	50                   	push   %eax
   125f2:	e8 59 74 00 00       	call   19a50 <_memset>
   125f7:	83 c4 10             	add    $0x10,%esp
   125fa:	8b 45 08             	mov    0x8(%ebp),%eax
   125fd:	c7 40 0c 01 00 00 00 	movl   $0x1,0xc(%eax)
   12604:	8b 45 08             	mov    0x8(%ebp),%eax
   12607:	c7 40 24 00 00 00 00 	movl   $0x0,0x24(%eax)
   1260e:	8b 45 08             	mov    0x8(%ebp),%eax
   12611:	c7 40 30 00 00 00 00 	movl   $0x0,0x30(%eax)
   12618:	8b 45 08             	mov    0x8(%ebp),%eax
   1261b:	c7 40 04 ff ff ff ff 	movl   $0xffffffff,0x4(%eax)
   12622:	8b 45 08             	mov    0x8(%ebp),%eax
   12625:	c7 40 34 00 00 00 00 	movl   $0x0,0x34(%eax)
   1262c:	8b 45 08             	mov    0x8(%ebp),%eax
   1262f:	c7 40 38 00 00 00 00 	movl   $0x0,0x38(%eax)
   12636:	8b 45 08             	mov    0x8(%ebp),%eax
   12639:	c7 40 3c 00 00 00 00 	movl   $0x0,0x3c(%eax)
   12640:	8b 55 08             	mov    0x8(%ebp),%edx
   12643:	83 c2 28             	add    $0x28,%edx
   12646:	8b 45 08             	mov    0x8(%ebp),%eax
   12649:	83 c0 28             	add    $0x28,%eax
   1264c:	89 02                	mov    %eax,(%edx)
   1264e:	8b 55 08             	mov    0x8(%ebp),%edx
   12651:	83 c2 28             	add    $0x28,%edx
   12654:	8b 45 08             	mov    0x8(%ebp),%eax
   12657:	83 c0 28             	add    $0x28,%eax
   1265a:	89 42 04             	mov    %eax,0x4(%edx)
   1265d:	8b 45 08             	mov    0x8(%ebp),%eax
   12660:	83 c0 48             	add    $0x48,%eax
   12663:	c7 00 01 00 00 00    	movl   $0x1,(%eax)
   12669:	c9                   	leave  
   1266a:	c2 04 00             	ret    $0x4

0001266d <_usb_alloc_bus@4>:
   1266d:	55                   	push   %ebp
   1266e:	89 e5                	mov    %esp,%ebp
   12670:	83 ec 08             	sub    $0x8,%esp
   12673:	83 ec 08             	sub    $0x8,%esp
   12676:	6a 4c                	push   $0x4c
   12678:	6a 01                	push   $0x1
   1267a:	e8 b1 73 00 00       	call   19a30 <_ExAllocatePool@8>
   1267f:	83 c4 08             	add    $0x8,%esp
   12682:	89 45 fc             	mov    %eax,0xfffffffc(%ebp)
   12685:	83 7d fc 00          	cmpl   $0x0,0xfffffffc(%ebp)
   12689:	75 09                	jne    12694 <_usb_alloc_bus@4+0x27>
   1268b:	c7 45 f8 00 00 00 00 	movl   $0x0,0xfffffff8(%ebp)
   12692:	eb 1d                	jmp    126b1 <_usb_alloc_bus@4+0x44>
   12694:	83 ec 0c             	sub    $0xc,%esp
   12697:	ff 75 fc             	pushl  0xfffffffc(%ebp)
   1269a:	e8 3f ff ff ff       	call   125de <_usb_bus_init@4>
   1269f:	83 c4 0c             	add    $0xc,%esp
   126a2:	8b 45 fc             	mov    0xfffffffc(%ebp),%eax
   126a5:	8b 55 08             	mov    0x8(%ebp),%edx
   126a8:	89 50 20             	mov    %edx,0x20(%eax)
   126ab:	8b 45 fc             	mov    0xfffffffc(%ebp),%eax
   126ae:	89 45 f8             	mov    %eax,0xfffffff8(%ebp)
   126b1:	8b 45 f8             	mov    0xfffffff8(%ebp),%eax
   126b4:	c9                   	leave  
   126b5:	c2 04 00             	ret    $0x4

000126b8 <_usb_free_bus@4>:
   126b8:	55                   	push   %ebp
   126b9:	89 e5                	mov    %esp,%ebp
   126bb:	83 ec 08             	sub    $0x8,%esp
   126be:	83 7d 08 00          	cmpl   $0x0,0x8(%ebp)
   126c2:	75 02                	jne    126c6 <_usb_free_bus@4+0xe>
   126c4:	eb 0e                	jmp    126d4 <_usb_free_bus@4+0x1c>
   126c6:	83 ec 0c             	sub    $0xc,%esp
   126c9:	ff 75 08             	pushl  0x8(%ebp)
   126cc:	e8 db fe ff ff       	call   125ac <_usb_bus_put>
   126d1:	83 c4 10             	add    $0x10,%esp
   126d4:	c9                   	leave  
   126d5:	c2 04 00             	ret    $0x4

000126d8 <_usb_register_bus@4>:
   126d8:	55                   	push   %ebp
   126d9:	89 e5                	mov    %esp,%ebp
   126db:	83 ec 08             	sub    $0x8,%esp
   126de:	83 ec 04             	sub    $0x4,%esp
   126e1:	6a 01                	push   $0x1
   126e3:	6a 40                	push   $0x40
   126e5:	68 10 c0 01 00       	push   $0x1c010
   126ea:	e8 b4 00 00 00       	call   127a3 <_find_next_zero_bit>
   126ef:	83 c4 10             	add    $0x10,%esp
   126f2:	89 45 fc             	mov    %eax,0xfffffffc(%ebp)
   126f5:	83 7d fc 3f          	cmpl   $0x3f,0xfffffffc(%ebp)
   126f9:	7f 1c                	jg     12717 <_usb_register_bus@4+0x3f>
   126fb:	83 ec 08             	sub    $0x8,%esp
   126fe:	68 10 c0 01 00       	push   $0x1c010
   12703:	ff 75 fc             	pushl  0xfffffffc(%ebp)
   12706:	e8 8a 00 00 00       	call   12795 <_set_bit>
   1270b:	83 c4 10             	add    $0x10,%esp
   1270e:	8b 55 08             	mov    0x8(%ebp),%edx
   12711:	8b 45 fc             	mov    0xfffffffc(%ebp),%eax
   12714:	89 42 04             	mov    %eax,0x4(%edx)
   12717:	ff 75 08             	pushl  0x8(%ebp)
   1271a:	e8 77 fe ff ff       	call   12596 <_usb_bus_get>
   1271f:	83 c4 04             	add    $0x4,%esp
   12722:	83 ec 08             	sub    $0x8,%esp
   12725:	68 00 a0 01 00       	push   $0x1a000
   1272a:	8b 45 08             	mov    0x8(%ebp),%eax
   1272d:	83 c0 28             	add    $0x28,%eax
   12730:	50                   	push   %eax
   12731:	e8 1a 00 00 00       	call   12750 <_list_add>
   12736:	83 c4 10             	add    $0x10,%esp
   12739:	83 ec 0c             	sub    $0xc,%esp
   1273c:	ff 75 08             	pushl  0x8(%ebp)
   1273f:	e8 07 00 00 00       	call   1274b <_usbfs_add_bus>
   12744:	83 c4 10             	add    $0x10,%esp
   12747:	c9                   	leave  
   12748:	c2 04 00             	ret    $0x4

0001274b <_usbfs_add_bus>:
   1274b:	55                   	push   %ebp
   1274c:	89 e5                	mov    %esp,%ebp
   1274e:	5d                   	pop    %ebp
   1274f:	c3                   	ret    

00012750 <_list_add>:
   12750:	55                   	push   %ebp
   12751:	89 e5                	mov    %esp,%ebp
   12753:	83 ec 08             	sub    $0x8,%esp
   12756:	83 ec 04             	sub    $0x4,%esp
   12759:	8b 45 0c             	mov    0xc(%ebp),%eax
   1275c:	ff 30                	pushl  (%eax)
   1275e:	ff 75 0c             	pushl  0xc(%ebp)
   12761:	ff 75 08             	pushl  0x8(%ebp)
   12764:	e8 05 00 00 00       	call   1276e <___list_add>
   12769:	83 c4 10             	add    $0x10,%esp
   1276c:	c9                   	leave  
   1276d:	c3                   	ret    

0001276e <___list_add>:
   1276e:	55                   	push   %ebp
   1276f:	89 e5                	mov    %esp,%ebp
   12771:	8b 55 10             	mov    0x10(%ebp),%edx
   12774:	8b 45 08             	mov    0x8(%ebp),%eax
   12777:	89 42 04             	mov    %eax,0x4(%edx)
   1277a:	8b 55 08             	mov    0x8(%ebp),%edx
   1277d:	8b 45 10             	mov    0x10(%ebp),%eax
   12780:	89 02                	mov    %eax,(%edx)
   12782:	8b 55 08             	mov    0x8(%ebp),%edx
   12785:	8b 45 0c             	mov    0xc(%ebp),%eax
   12788:	89 42 04             	mov    %eax,0x4(%edx)
   1278b:	8b 55 0c             	mov    0xc(%ebp),%edx
   1278e:	8b 45 08             	mov    0x8(%ebp),%eax
   12791:	89 02                	mov    %eax,(%edx)
   12793:	5d                   	pop    %ebp
   12794:	c3                   	ret    

00012795 <_set_bit>:
   12795:	55                   	push   %ebp
   12796:	89 e5                	mov    %esp,%ebp
   12798:	8b 55 0c             	mov    0xc(%ebp),%edx
   1279b:	8b 45 08             	mov    0x8(%ebp),%eax
   1279e:	0f ab 02             	bts    %eax,(%edx)
   127a1:	5d                   	pop    %ebp
   127a2:	c3                   	ret    

000127a3 <_find_next_zero_bit>:
   127a3:	55                   	push   %ebp
   127a4:	89 e5                	mov    %esp,%ebp
   127a6:	83 ec 18             	sub    $0x18,%esp
   127a9:	8b 45 10             	mov    0x10(%ebp),%eax
   127ac:	c1 f8 05             	sar    $0x5,%eax
   127af:	c1 e0 02             	shl    $0x2,%eax
   127b2:	03 45 08             	add    0x8(%ebp),%eax
   127b5:	89 45 fc             	mov    %eax,0xfffffffc(%ebp)
   127b8:	c7 45 f8 00 00 00 00 	movl   $0x0,0xfffffff8(%ebp)
   127bf:	8b 45 10             	mov    0x10(%ebp),%eax
   127c2:	83 e0 1f             	and    $0x1f,%eax
   127c5:	89 45 f4             	mov    %eax,0xfffffff4(%ebp)
   127c8:	83 7d f4 00          	cmpl   $0x0,0xfffffff4(%ebp)
   127cc:	74 42                	je     12810 <_find_next_zero_bit+0x6d>
   127ce:	8b 45 fc             	mov    0xfffffffc(%ebp),%eax
   127d1:	8b 4d f4             	mov    0xfffffff4(%ebp),%ecx
   127d4:	8b 00                	mov    (%eax),%eax
   127d6:	d3 e8                	shr    %cl,%eax
   127d8:	f7 d0                	not    %eax
   127da:	0f bc c0             	bsf    %eax,%eax
   127dd:	75 05                	jne    127e4 <_find_next_zero_bit+0x41>
   127df:	b8 20 00 00 00       	mov    $0x20,%eax
   127e4:	89 45 f8             	mov    %eax,0xfffffff8(%ebp)
   127e7:	b8 20 00 00 00       	mov    $0x20,%eax
   127ec:	2b 45 f4             	sub    0xfffffff4(%ebp),%eax
   127ef:	3b 45 f8             	cmp    0xfffffff8(%ebp),%eax
   127f2:	7e 0b                	jle    127ff <_find_next_zero_bit+0x5c>
   127f4:	8b 45 10             	mov    0x10(%ebp),%eax
   127f7:	03 45 f8             	add    0xfffffff8(%ebp),%eax
   127fa:	89 45 ec             	mov    %eax,0xffffffec(%ebp)
   127fd:	eb 43                	jmp    12842 <_find_next_zero_bit+0x9f>
   127ff:	b8 20 00 00 00       	mov    $0x20,%eax
   12804:	2b 45 f4             	sub    0xfffffff4(%ebp),%eax
   12807:	89 45 f8             	mov    %eax,0xfffffff8(%ebp)
   1280a:	8d 45 fc             	lea    0xfffffffc(%ebp),%eax
   1280d:	83 00 04             	addl   $0x4,(%eax)
   12810:	83 ec 08             	sub    $0x8,%esp
   12813:	8b 55 08             	mov    0x8(%ebp),%edx
   12816:	8b 45 fc             	mov    0xfffffffc(%ebp),%eax
   12819:	29 d0                	sub    %edx,%eax
   1281b:	8d 14 c5 00 00 00 00 	lea    0x0(,%eax,8),%edx
   12822:	8b 45 0c             	mov    0xc(%ebp),%eax
   12825:	29 d0                	sub    %edx,%eax
   12827:	50                   	push   %eax
   12828:	ff 75 fc             	pushl  0xfffffffc(%ebp)
   1282b:	e8 17 00 00 00       	call   12847 <_find_first_zero_bit>
   12830:	83 c4 10             	add    $0x10,%esp
   12833:	89 45 f0             	mov    %eax,0xfffffff0(%ebp)
   12836:	8b 45 f8             	mov    0xfffffff8(%ebp),%eax
   12839:	03 45 10             	add    0x10(%ebp),%eax
   1283c:	03 45 f0             	add    0xfffffff0(%ebp),%eax
   1283f:	89 45 ec             	mov    %eax,0xffffffec(%ebp)
   12842:	8b 45 ec             	mov    0xffffffec(%ebp),%eax
   12845:	c9                   	leave  
   12846:	c3                   	ret    

00012847 <_find_first_zero_bit>:
   12847:	55                   	push   %ebp
   12848:	89 e5                	mov    %esp,%ebp
   1284a:	57                   	push   %edi
   1284b:	53                   	push   %ebx
   1284c:	83 ec 14             	sub    $0x14,%esp
   1284f:	83 7d 0c 00          	cmpl   $0x0,0xc(%ebp)
   12853:	75 09                	jne    1285e <_find_first_zero_bit+0x17>
   12855:	c7 45 e4 00 00 00 00 	movl   $0x0,0xffffffe4(%ebp)
   1285c:	eb 48                	jmp    128a6 <_find_first_zero_bit+0x5f>
   1285e:	8b 45 0c             	mov    0xc(%ebp),%eax
   12861:	83 c0 1f             	add    $0x1f,%eax
   12864:	89 c1                	mov    %eax,%ecx
   12866:	c1 e9 05             	shr    $0x5,%ecx
   12869:	8b 7d 08             	mov    0x8(%ebp),%edi
   1286c:	8b 5d 08             	mov    0x8(%ebp),%ebx
   1286f:	b8 ff ff ff ff       	mov    $0xffffffff,%eax
   12874:	31 d2                	xor    %edx,%edx
   12876:	f3 af                	repz scas %es:(%edi),%eax
   12878:	74 09                	je     12883 <_find_first_zero_bit+0x3c>
   1287a:	33 47 fc             	xor    0xfffffffc(%edi),%eax
   1287d:	83 ef 04             	sub    $0x4,%edi
   12880:	0f bc d0             	bsf    %eax,%edx
   12883:	29 df                	sub    %ebx,%edi
   12885:	c1 e7 03             	shl    $0x3,%edi
   12888:	01 fa                	add    %edi,%edx
   1288a:	89 c3                	mov    %eax,%ebx
   1288c:	89 d0                	mov    %edx,%eax
   1288e:	89 45 e8             	mov    %eax,0xffffffe8(%ebp)
   12891:	89 c8                	mov    %ecx,%eax
   12893:	89 45 f4             	mov    %eax,0xfffffff4(%ebp)
   12896:	89 f8                	mov    %edi,%eax
   12898:	89 45 f0             	mov    %eax,0xfffffff0(%ebp)
   1289b:	89 d8                	mov    %ebx,%eax
   1289d:	89 45 ec             	mov    %eax,0xffffffec(%ebp)
   128a0:	8b 45 e8             	mov    0xffffffe8(%ebp),%eax
   128a3:	89 45 e4             	mov    %eax,0xffffffe4(%ebp)
   128a6:	8b 45 e4             	mov    0xffffffe4(%ebp),%eax
   128a9:	83 c4 14             	add    $0x14,%esp
   128ac:	5b                   	pop    %ebx
   128ad:	5f                   	pop    %edi
   128ae:	5d                   	pop    %ebp
   128af:	c3                   	ret    

000128b0 <_usb_deregister_bus@4>:
   128b0:	55                   	push   %ebp
   128b1:	89 e5                	mov    %esp,%ebp
   128b3:	83 ec 08             	sub    $0x8,%esp
   128b6:	83 ec 0c             	sub    $0xc,%esp
   128b9:	8b 45 08             	mov    0x8(%ebp),%eax
   128bc:	83 c0 28             	add    $0x28,%eax
   128bf:	50                   	push   %eax
   128c0:	e8 4c 00 00 00       	call   12911 <_list_del>
   128c5:	83 c4 10             	add    $0x10,%esp
   128c8:	83 ec 0c             	sub    $0xc,%esp
   128cb:	ff 75 08             	pushl  0x8(%ebp)
   128ce:	e8 39 00 00 00       	call   1290c <_usbfs_remove_bus>
   128d3:	83 c4 10             	add    $0x10,%esp
   128d6:	83 ec 08             	sub    $0x8,%esp
   128d9:	68 10 c0 01 00       	push   $0x1c010
   128de:	8b 45 08             	mov    0x8(%ebp),%eax
   128e1:	ff 70 04             	pushl  0x4(%eax)
   128e4:	e8 15 00 00 00       	call   128fe <_clear_bit>
   128e9:	83 c4 10             	add    $0x10,%esp
   128ec:	83 ec 0c             	sub    $0xc,%esp
   128ef:	ff 75 08             	pushl  0x8(%ebp)
   128f2:	e8 b5 fc ff ff       	call   125ac <_usb_bus_put>
   128f7:	83 c4 10             	add    $0x10,%esp
   128fa:	c9                   	leave  
   128fb:	c2 04 00             	ret    $0x4

000128fe <_clear_bit>:
   128fe:	55                   	push   %ebp
   128ff:	89 e5                	mov    %esp,%ebp
   12901:	8b 55 0c             	mov    0xc(%ebp),%edx
   12904:	8b 45 08             	mov    0x8(%ebp),%eax
   12907:	0f b3 02             	btr    %eax,(%edx)
   1290a:	5d                   	pop    %ebp
   1290b:	c3                   	ret    

0001290c <_usbfs_remove_bus>:
   1290c:	55                   	push   %ebp
   1290d:	89 e5                	mov    %esp,%ebp
   1290f:	5d                   	pop    %ebp
   12910:	c3                   	ret    

00012911 <_list_del>:
   12911:	55                   	push   %ebp
   12912:	89 e5                	mov    %esp,%ebp
   12914:	83 ec 08             	sub    $0x8,%esp
   12917:	83 ec 08             	sub    $0x8,%esp
   1291a:	8b 45 08             	mov    0x8(%ebp),%eax
   1291d:	ff 30                	pushl  (%eax)
   1291f:	8b 45 08             	mov    0x8(%ebp),%eax
   12922:	ff 70 04             	pushl  0x4(%eax)
   12925:	e8 18 00 00 00       	call   12942 <___list_del>
   1292a:	83 c4 10             	add    $0x10,%esp
   1292d:	8b 45 08             	mov    0x8(%ebp),%eax
   12930:	c7 00 00 00 00 00    	movl   $0x0,(%eax)
   12936:	8b 45 08             	mov    0x8(%ebp),%eax
   12939:	c7 40 04 00 00 00 00 	movl   $0x0,0x4(%eax)
   12940:	c9                   	leave  
   12941:	c3                   	ret    

00012942 <___list_del>:
   12942:	55                   	push   %ebp
   12943:	89 e5                	mov    %esp,%ebp
   12945:	8b 55 0c             	mov    0xc(%ebp),%edx
   12948:	8b 45 08             	mov    0x8(%ebp),%eax
   1294b:	89 42 04             	mov    %eax,0x4(%edx)
   1294e:	8b 55 08             	mov    0x8(%ebp),%edx
   12951:	8b 45 0c             	mov    0xc(%ebp),%eax
   12954:	89 02                	mov    %eax,(%edx)
   12956:	5d                   	pop    %ebp
   12957:	c3                   	ret    

00012958 <_usb_register_root_hub@8>:
   12958:	55                   	push   %ebp
   12959:	89 e5                	mov    %esp,%ebp
   1295b:	83 ec 08             	sub    $0x8,%esp
   1295e:	83 ec 04             	sub    $0x4,%esp
   12961:	8b 45 08             	mov    0x8(%ebp),%eax
   12964:	8b 80 bc 00 00 00    	mov    0xbc(%eax),%eax
   1296a:	ff 70 04             	pushl  0x4(%eax)
   1296d:	68 b9 b0 01 00       	push   $0x1b0b9
   12972:	8b 45 08             	mov    0x8(%ebp),%eax
   12975:	05 48 01 00 00       	add    $0x148,%eax
   1297a:	50                   	push   %eax
   1297b:	e8 10 71 00 00       	call   19a90 <_sprintf>
   12980:	83 c4 10             	add    $0x10,%esp
   12983:	8b 45 08             	mov    0x8(%ebp),%eax
   12986:	c7 40 14 03 00 00 00 	movl   $0x3,0x14(%eax)
   1298d:	83 ec 08             	sub    $0x8,%esp
   12990:	ff 75 0c             	pushl  0xc(%ebp)
   12993:	ff 75 08             	pushl  0x8(%ebp)
   12996:	e8 f8 41 00 00       	call   16b93 <_usb_new_device>
   1299b:	83 c4 10             	add    $0x10,%esp
   1299e:	89 45 fc             	mov    %eax,0xfffffffc(%ebp)
   129a1:	8b 45 fc             	mov    0xfffffffc(%ebp),%eax
   129a4:	c9                   	leave  
   129a5:	c2 08 00             	ret    $0x8

000129a8 <_usb_calc_bus_time@16>:
   129a8:	55                   	push   %ebp
   129a9:	89 e5                	mov    %esp,%ebp
   129ab:	83 ec 14             	sub    $0x14,%esp
   129ae:	8b 45 08             	mov    0x8(%ebp),%eax
   129b1:	89 45 f0             	mov    %eax,0xfffffff0(%ebp)
   129b4:	83 7d f0 02          	cmpl   $0x2,0xfffffff0(%ebp)
   129b8:	0f 84 21 01 00 00    	je     12adf <_usb_calc_bus_time@16+0x137>
   129be:	83 7d f0 02          	cmpl   $0x2,0xfffffff0(%ebp)
   129c2:	7f 0b                	jg     129cf <_usb_calc_bus_time@16+0x27>
   129c4:	83 7d f0 01          	cmpl   $0x1,0xfffffff0(%ebp)
   129c8:	74 14                	je     129de <_usb_calc_bus_time@16+0x36>
   129ca:	e9 e4 02 00 00       	jmp    12cb3 <_usb_calc_bus_time@16+0x30b>
   129cf:	83 7d f0 03          	cmpl   $0x3,0xfffffff0(%ebp)
   129d3:	0f 84 12 02 00 00    	je     12beb <_usb_calc_bus_time@16+0x243>
   129d9:	e9 d5 02 00 00       	jmp    12cb3 <_usb_calc_bus_time@16+0x30b>
   129de:	83 7d 0c 00          	cmpl   $0x0,0xc(%ebp)
   129e2:	74 76                	je     12a5a <_usb_calc_bus_time@16+0xb2>
   129e4:	8b 55 14             	mov    0x14(%ebp),%edx
   129e7:	89 d0                	mov    %edx,%eax
   129e9:	c1 e0 03             	shl    $0x3,%eax
   129ec:	29 d0                	sub    %edx,%eax
   129ee:	c1 e0 03             	shl    $0x3,%eax
   129f1:	89 45 ec             	mov    %eax,0xffffffec(%ebp)
   129f4:	b8 ab aa aa 2a       	mov    $0x2aaaaaab,%eax
   129f9:	f7 6d ec             	imull  0xffffffec(%ebp)
   129fc:	89 d1                	mov    %edx,%ecx
   129fe:	8b 45 ec             	mov    0xffffffec(%ebp),%eax
   12a01:	c1 f8 1f             	sar    $0x1f,%eax
   12a04:	89 ca                	mov    %ecx,%edx
   12a06:	29 c2                	sub    %eax,%edx
   12a08:	89 d0                	mov    %edx,%eax
   12a0a:	c1 e0 02             	shl    $0x2,%eax
   12a0d:	01 d0                	add    %edx,%eax
   12a0f:	c1 e0 03             	shl    $0x3,%eax
   12a12:	01 d0                	add    %edx,%eax
   12a14:	c1 e0 02             	shl    $0x2,%eax
   12a17:	01 d0                	add    %edx,%eax
   12a19:	c1 e0 03             	shl    $0x3,%eax
   12a1c:	01 d0                	add    %edx,%eax
   12a1e:	01 c0                	add    %eax,%eax
   12a20:	01 d0                	add    %edx,%eax
   12a22:	c1 e0 02             	shl    $0x2,%eax
   12a25:	01 d0                	add    %edx,%eax
   12a27:	c1 e0 05             	shl    $0x5,%eax
   12a2a:	29 d0                	sub    %edx,%eax
   12a2c:	01 c0                	add    %eax,%eax
   12a2e:	8d 88 0d 02 20 00    	lea    0x20020d(%eax),%ecx
   12a34:	b8 d3 4d 62 10       	mov    $0x10624dd3,%eax
   12a39:	f7 e9                	imul   %ecx
   12a3b:	c1 fa 06             	sar    $0x6,%edx
   12a3e:	89 c8                	mov    %ecx,%eax
   12a40:	c1 f8 1f             	sar    $0x1f,%eax
   12a43:	29 c2                	sub    %eax,%edx
   12a45:	89 d0                	mov    %edx,%eax
   12a47:	89 45 fc             	mov    %eax,0xfffffffc(%ebp)
   12a4a:	8b 45 fc             	mov    0xfffffffc(%ebp),%eax
   12a4d:	05 be 00 01 00       	add    $0x100be,%eax
   12a52:	89 45 f8             	mov    %eax,0xfffffff8(%ebp)
   12a55:	e9 60 02 00 00       	jmp    12cba <_usb_calc_bus_time@16+0x312>
   12a5a:	8b 55 14             	mov    0x14(%ebp),%edx
   12a5d:	89 d0                	mov    %edx,%eax
   12a5f:	c1 e0 03             	shl    $0x3,%eax
   12a62:	29 d0                	sub    %edx,%eax
   12a64:	c1 e0 03             	shl    $0x3,%eax
   12a67:	89 45 ec             	mov    %eax,0xffffffec(%ebp)
   12a6a:	b8 ab aa aa 2a       	mov    $0x2aaaaaab,%eax
   12a6f:	f7 6d ec             	imull  0xffffffec(%ebp)
   12a72:	89 d1                	mov    %edx,%ecx
   12a74:	8b 45 ec             	mov    0xffffffec(%ebp),%eax
   12a77:	c1 f8 1f             	sar    $0x1f,%eax
   12a7a:	29 c1                	sub    %eax,%ecx
   12a7c:	89 c8                	mov    %ecx,%eax
   12a7e:	c1 e0 03             	shl    $0x3,%eax
   12a81:	01 c8                	add    %ecx,%eax
   12a83:	c1 e0 02             	shl    $0x2,%eax
   12a86:	01 c8                	add    %ecx,%eax
   12a88:	8d 14 c5 00 00 00 00 	lea    0x0(,%eax,8),%edx
   12a8f:	01 d0                	add    %edx,%eax
   12a91:	01 c0                	add    %eax,%eax
   12a93:	01 c8                	add    %ecx,%eax
   12a95:	8d 14 85 00 00 00 00 	lea    0x0(,%eax,4),%edx
   12a9c:	01 d0                	add    %edx,%eax
   12a9e:	8d 14 85 00 00 00 00 	lea    0x0(,%eax,4),%edx
   12aa5:	01 d0                	add    %edx,%eax
   12aa7:	8d 14 85 00 00 00 00 	lea    0x0(,%eax,4),%edx
   12aae:	01 d0                	add    %edx,%eax
   12ab0:	c1 e0 03             	shl    $0x3,%eax
   12ab3:	8d 88 f4 8c 1f 00    	lea    0x1f8cf4(%eax),%ecx
   12ab9:	b8 d3 4d 62 10       	mov    $0x10624dd3,%eax
   12abe:	f7 e9                	imul   %ecx
   12ac0:	c1 fa 06             	sar    $0x6,%edx
   12ac3:	89 c8                	mov    %ecx,%eax
   12ac5:	c1 f8 1f             	sar    $0x1f,%eax
   12ac8:	29 c2                	sub    %eax,%edx
   12aca:	89 d0                	mov    %edx,%eax
   12acc:	89 45 fc             	mov    %eax,0xfffffffc(%ebp)
   12acf:	8b 45 fc             	mov    0xfffffffc(%ebp),%eax
   12ad2:	05 ed 00 01 00       	add    $0x100ed,%eax
   12ad7:	89 45 f8             	mov    %eax,0xfffffff8(%ebp)
   12ada:	e9 db 01 00 00       	jmp    12cba <_usb_calc_bus_time@16+0x312>
   12adf:	83 7d 10 00          	cmpl   $0x0,0x10(%ebp)
   12ae3:	0f 84 8e 00 00 00    	je     12b77 <_usb_calc_bus_time@16+0x1cf>
   12ae9:	8b 55 14             	mov    0x14(%ebp),%edx
   12aec:	89 d0                	mov    %edx,%eax
   12aee:	c1 e0 03             	shl    $0x3,%eax
   12af1:	29 d0                	sub    %edx,%eax
   12af3:	c1 e0 03             	shl    $0x3,%eax
   12af6:	89 45 ec             	mov    %eax,0xffffffec(%ebp)
   12af9:	b8 ab aa aa 2a       	mov    $0x2aaaaaab,%eax
   12afe:	f7 6d ec             	imull  0xffffffec(%ebp)
   12b01:	89 d1                	mov    %edx,%ecx
   12b03:	8b 45 ec             	mov    0xffffffec(%ebp),%eax
   12b06:	c1 f8 1f             	sar    $0x1f,%eax
   12b09:	29 c1                	sub    %eax,%ecx
   12b0b:	89 c8                	mov    %ecx,%eax
   12b0d:	c1 e0 03             	shl    $0x3,%eax
   12b10:	01 c8                	add    %ecx,%eax
   12b12:	8d 14 c5 00 00 00 00 	lea    0x0(,%eax,8),%edx
   12b19:	01 d0                	add    %edx,%eax
   12b1b:	01 c0                	add    %eax,%eax
   12b1d:	01 c8                	add    %ecx,%eax
   12b1f:	c1 e0 03             	shl    $0x3,%eax
   12b22:	01 c8                	add    %ecx,%eax
   12b24:	c1 e0 02             	shl    $0x2,%eax
   12b27:	01 c8                	add    %ecx,%eax
   12b29:	c1 e0 02             	shl    $0x2,%eax
   12b2c:	01 c8                	add    %ecx,%eax
   12b2e:	c1 e0 02             	shl    $0x2,%eax
   12b31:	8d 88 9e f3 03 00    	lea    0x3f39e(%eax),%ecx
   12b37:	b8 d3 4d 62 10       	mov    $0x10624dd3,%eax
   12b3c:	f7 e9                	imul   %ecx
   12b3e:	c1 fa 06             	sar    $0x6,%edx
   12b41:	89 c8                	mov    %ecx,%eax
   12b43:	c1 f8 1f             	sar    $0x1f,%eax
   12b46:	29 c2                	sub    %eax,%edx
   12b48:	89 d0                	mov    %edx,%eax
   12b4a:	89 45 fc             	mov    %eax,0xfffffffc(%ebp)
   12b4d:	83 7d 0c 00          	cmpl   $0x0,0xc(%ebp)
   12b51:	74 0d                	je     12b60 <_usb_calc_bus_time@16+0x1b8>
   12b53:	8b 45 fc             	mov    0xfffffffc(%ebp),%eax
   12b56:	05 4c 20 00 00       	add    $0x204c,%eax
   12b5b:	89 45 f4             	mov    %eax,0xfffffff4(%ebp)
   12b5e:	eb 0c                	jmp    12b6c <_usb_calc_bus_time@16+0x1c4>
   12b60:	8b 55 fc             	mov    0xfffffffc(%ebp),%edx
   12b63:	81 c2 61 1c 00 00    	add    $0x1c61,%edx
   12b69:	89 55 f4             	mov    %edx,0xfffffff4(%ebp)
   12b6c:	8b 45 f4             	mov    0xfffffff4(%ebp),%eax
   12b6f:	89 45 f8             	mov    %eax,0xfffffff8(%ebp)
   12b72:	e9 43 01 00 00       	jmp    12cba <_usb_calc_bus_time@16+0x312>
   12b77:	8b 55 14             	mov    0x14(%ebp),%edx
   12b7a:	89 d0                	mov    %edx,%eax
   12b7c:	c1 e0 03             	shl    $0x3,%eax
   12b7f:	29 d0                	sub    %edx,%eax
   12b81:	c1 e0 03             	shl    $0x3,%eax
   12b84:	89 45 ec             	mov    %eax,0xffffffec(%ebp)
   12b87:	b8 ab aa aa 2a       	mov    $0x2aaaaaab,%eax
   12b8c:	f7 6d ec             	imull  0xffffffec(%ebp)
   12b8f:	89 d1                	mov    %edx,%ecx
   12b91:	8b 45 ec             	mov    0xffffffec(%ebp),%eax
   12b94:	c1 f8 1f             	sar    $0x1f,%eax
   12b97:	29 c1                	sub    %eax,%ecx
   12b99:	89 c8                	mov    %ecx,%eax
   12b9b:	c1 e0 03             	shl    $0x3,%eax
   12b9e:	01 c8                	add    %ecx,%eax
   12ba0:	8d 14 c5 00 00 00 00 	lea    0x0(,%eax,8),%edx
   12ba7:	01 d0                	add    %edx,%eax
   12ba9:	01 c0                	add    %eax,%eax
   12bab:	01 c8                	add    %ecx,%eax
   12bad:	c1 e0 03             	shl    $0x3,%eax
   12bb0:	01 c8                	add    %ecx,%eax
   12bb2:	c1 e0 02             	shl    $0x2,%eax
   12bb5:	01 c8                	add    %ecx,%eax
   12bb7:	c1 e0 02             	shl    $0x2,%eax
   12bba:	01 c8                	add    %ecx,%eax
   12bbc:	c1 e0 02             	shl    $0x2,%eax
   12bbf:	8d 88 9e f3 03 00    	lea    0x3f39e(%eax),%ecx
   12bc5:	b8 d3 4d 62 10       	mov    $0x10624dd3,%eax
   12bca:	f7 e9                	imul   %ecx
   12bcc:	c1 fa 06             	sar    $0x6,%edx
   12bcf:	89 c8                	mov    %ecx,%eax
   12bd1:	c1 f8 1f             	sar    $0x1f,%eax
   12bd4:	29 c2                	sub    %eax,%edx
   12bd6:	89 d0                	mov    %edx,%eax
   12bd8:	89 45 fc             	mov    %eax,0xfffffffc(%ebp)
   12bdb:	8b 45 fc             	mov    0xfffffffc(%ebp),%eax
   12bde:	05 7b 27 00 00       	add    $0x277b,%eax
   12be3:	89 45 f8             	mov    %eax,0xfffffff8(%ebp)
   12be6:	e9 cf 00 00 00       	jmp    12cba <_usb_calc_bus_time@16+0x312>
   12beb:	83 7d 10 00          	cmpl   $0x0,0x10(%ebp)
   12bef:	74 5e                	je     12c4f <_usb_calc_bus_time@16+0x2a7>
   12bf1:	8b 55 14             	mov    0x14(%ebp),%edx
   12bf4:	89 d0                	mov    %edx,%eax
   12bf6:	c1 e0 03             	shl    $0x3,%eax
   12bf9:	29 d0                	sub    %edx,%eax
   12bfb:	c1 e0 03             	shl    $0x3,%eax
   12bfe:	89 45 ec             	mov    %eax,0xffffffec(%ebp)
   12c01:	b8 ab aa aa 2a       	mov    $0x2aaaaaab,%eax
   12c06:	f7 6d ec             	imull  0xffffffec(%ebp)
   12c09:	89 d1                	mov    %edx,%ecx
   12c0b:	8b 45 ec             	mov    0xffffffec(%ebp),%eax
   12c0e:	c1 f8 1f             	sar    $0x1f,%eax
   12c11:	89 ca                	mov    %ecx,%edx
   12c13:	29 c2                	sub    %eax,%edx
   12c15:	89 d0                	mov    %edx,%eax
   12c17:	c1 e0 06             	shl    $0x6,%eax
   12c1a:	01 d0                	add    %edx,%eax
   12c1c:	c1 e0 03             	shl    $0x3,%eax
   12c1f:	01 d0                	add    %edx,%eax
   12c21:	c1 e0 02             	shl    $0x2,%eax
   12c24:	29 d0                	sub    %edx,%eax
   12c26:	8d 90 fd a8 64 00    	lea    0x64a8fd(%eax),%edx
   12c2c:	b8 d3 4d 62 10       	mov    $0x10624dd3,%eax
   12c31:	f7 e2                	mul    %edx
   12c33:	89 d0                	mov    %edx,%eax
   12c35:	c1 e8 06             	shr    $0x6,%eax
   12c38:	8d 90 8d 05 00 00    	lea    0x58d(%eax),%edx
   12c3e:	b8 d3 4d 62 10       	mov    $0x10624dd3,%eax
   12c43:	f7 e2                	mul    %edx
   12c45:	89 d0                	mov    %edx,%eax
   12c47:	c1 e8 06             	shr    $0x6,%eax
   12c4a:	89 45 fc             	mov    %eax,0xfffffffc(%ebp)
   12c4d:	eb 5c                	jmp    12cab <_usb_calc_bus_time@16+0x303>
   12c4f:	8b 55 14             	mov    0x14(%ebp),%edx
   12c52:	89 d0                	mov    %edx,%eax
   12c54:	c1 e0 03             	shl    $0x3,%eax
   12c57:	29 d0                	sub    %edx,%eax
   12c59:	c1 e0 03             	shl    $0x3,%eax
   12c5c:	89 45 ec             	mov    %eax,0xffffffec(%ebp)
   12c5f:	b8 ab aa aa 2a       	mov    $0x2aaaaaab,%eax
   12c64:	f7 6d ec             	imull  0xffffffec(%ebp)
   12c67:	89 d1                	mov    %edx,%ecx
   12c69:	8b 45 ec             	mov    0xffffffec(%ebp),%eax
   12c6c:	c1 f8 1f             	sar    $0x1f,%eax
   12c6f:	89 ca                	mov    %ecx,%edx
   12c71:	29 c2                	sub    %eax,%edx
   12c73:	89 d0                	mov    %edx,%eax
   12c75:	c1 e0 06             	shl    $0x6,%eax
   12c78:	01 d0                	add    %edx,%eax
   12c7a:	c1 e0 03             	shl    $0x3,%eax
   12c7d:	01 d0                	add    %edx,%eax
   12c7f:	c1 e0 02             	shl    $0x2,%eax
   12c82:	29 d0                	sub    %edx,%eax
   12c84:	8d 90 fd a8 64 00    	lea    0x64a8fd(%eax),%edx
   12c8a:	b8 d3 4d 62 10       	mov    $0x10624dd3,%eax
   12c8f:	f7 e2                	mul    %edx
   12c91:	89 d0                	mov    %edx,%eax
   12c93:	c1 e8 06             	shr    $0x6,%eax
   12c96:	8d 90 72 04 00 00    	lea    0x472(%eax),%edx
   12c9c:	b8 d3 4d 62 10       	mov    $0x10624dd3,%eax
   12ca1:	f7 e2                	mul    %edx
   12ca3:	89 d0                	mov    %edx,%eax
   12ca5:	c1 e8 06             	shr    $0x6,%eax
   12ca8:	89 45 fc             	mov    %eax,0xfffffffc(%ebp)
   12cab:	8b 45 fc             	mov    0xfffffffc(%ebp),%eax
   12cae:	89 45 f8             	mov    %eax,0xfffffff8(%ebp)
   12cb1:	eb 07                	jmp    12cba <_usb_calc_bus_time@16+0x312>
   12cb3:	c7 45 f8 ff ff ff ff 	movl   $0xffffffff,0xfffffff8(%ebp)
   12cba:	8b 45 f8             	mov    0xfffffff8(%ebp),%eax
   12cbd:	c9                   	leave  
   12cbe:	c2 10 00             	ret    $0x10

00012cc1 <_usb_check_bandwidth@8>:
   12cc1:	55                   	push   %ebp
   12cc2:	89 e5                	mov    %esp,%ebp
   12cc4:	83 ec 20             	sub    $0x20,%esp
   12cc7:	8b 45 0c             	mov    0xc(%ebp),%eax
   12cca:	8b 40 18             	mov    0x18(%eax),%eax
   12ccd:	89 45 fc             	mov    %eax,0xfffffffc(%ebp)
   12cd0:	8b 45 fc             	mov    0xfffffffc(%ebp),%eax
   12cd3:	25 80 00 00 00       	and    $0x80,%eax
   12cd8:	89 45 f4             	mov    %eax,0xfffffff4(%ebp)
   12cdb:	8b 45 fc             	mov    0xfffffffc(%ebp),%eax
   12cde:	c1 e8 1e             	shr    $0x1e,%eax
   12ce1:	83 e0 03             	and    $0x3,%eax
   12ce4:	85 c0                	test   %eax,%eax
   12ce6:	0f 94 c0             	sete   %al
   12ce9:	25 ff 00 00 00       	and    $0xff,%eax
   12cee:	89 45 f0             	mov    %eax,0xfffffff0(%ebp)
   12cf1:	8b 45 08             	mov    0x8(%ebp),%eax
   12cf4:	8b 80 bc 00 00 00    	mov    0xbc(%eax),%eax
   12cfa:	8b 40 34             	mov    0x34(%eax),%eax
   12cfd:	89 45 ec             	mov    %eax,0xffffffec(%ebp)
   12d00:	83 7d f4 00          	cmpl   $0x0,0xfffffff4(%ebp)
   12d04:	75 15                	jne    12d1b <_usb_check_bandwidth@8+0x5a>
   12d06:	8b 55 08             	mov    0x8(%ebp),%edx
   12d09:	8b 45 fc             	mov    0xfffffffc(%ebp),%eax
   12d0c:	c1 e8 0f             	shr    $0xf,%eax
   12d0f:	83 e0 0f             	and    $0xf,%eax
   12d12:	8b 44 82 78          	mov    0x78(%edx,%eax,4),%eax
   12d16:	89 45 e4             	mov    %eax,0xffffffe4(%ebp)
   12d19:	eb 13                	jmp    12d2e <_usb_check_bandwidth@8+0x6d>
   12d1b:	8b 55 08             	mov    0x8(%ebp),%edx
   12d1e:	8b 45 fc             	mov    0xfffffffc(%ebp),%eax
   12d21:	c1 e8 0f             	shr    $0xf,%eax
   12d24:	83 e0 0f             	and    $0xf,%eax
   12d27:	8b 44 82 38          	mov    0x38(%edx,%eax,4),%eax
   12d2b:	89 45 e4             	mov    %eax,0xffffffe4(%ebp)
   12d2e:	ff 75 e4             	pushl  0xffffffe4(%ebp)
   12d31:	ff 75 f0             	pushl  0xfffffff0(%ebp)
   12d34:	ff 75 f4             	pushl  0xfffffff4(%ebp)
   12d37:	8b 45 08             	mov    0x8(%ebp),%eax
   12d3a:	ff 70 18             	pushl  0x18(%eax)
   12d3d:	e8 66 fc ff ff       	call   129a8 <_usb_calc_bus_time@16>
   12d42:	8d 88 f4 01 00 00    	lea    0x1f4(%eax),%ecx
   12d48:	b8 d3 4d 62 10       	mov    $0x10624dd3,%eax
   12d4d:	f7 e9                	imul   %ecx
   12d4f:	c1 fa 06             	sar    $0x6,%edx
   12d52:	89 c8                	mov    %ecx,%eax
   12d54:	c1 f8 1f             	sar    $0x1f,%eax
   12d57:	29 c2                	sub    %eax,%edx
   12d59:	89 d0                	mov    %edx,%eax
   12d5b:	89 45 f8             	mov    %eax,0xfffffff8(%ebp)
   12d5e:	83 7d f0 00          	cmpl   $0x0,0xfffffff0(%ebp)
   12d62:	74 13                	je     12d77 <_usb_check_bandwidth@8+0xb6>
   12d64:	8b 45 0c             	mov    0xc(%ebp),%eax
   12d67:	89 45 e0             	mov    %eax,0xffffffe0(%ebp)
   12d6a:	8b 45 f8             	mov    0xfffffff8(%ebp),%eax
   12d6d:	8b 4d e0             	mov    0xffffffe0(%ebp),%ecx
   12d70:	99                   	cltd   
   12d71:	f7 79 44             	idivl  0x44(%ecx)
   12d74:	89 45 f8             	mov    %eax,0xfffffff8(%ebp)
   12d77:	8b 45 f8             	mov    0xfffffff8(%ebp),%eax
   12d7a:	03 45 ec             	add    0xffffffec(%ebp),%eax
   12d7d:	89 45 e8             	mov    %eax,0xffffffe8(%ebp)
   12d80:	8b 45 f8             	mov    0xfffffff8(%ebp),%eax
   12d83:	c9                   	leave  
   12d84:	c2 08 00             	ret    $0x8

00012d87 <_usb_claim_bandwidth@16>:
   12d87:	55                   	push   %ebp
   12d88:	89 e5                	mov    %esp,%ebp
   12d8a:	8b 45 08             	mov    0x8(%ebp),%eax
   12d8d:	8b 88 bc 00 00 00    	mov    0xbc(%eax),%ecx
   12d93:	8b 45 08             	mov    0x8(%ebp),%eax
   12d96:	8b 90 bc 00 00 00    	mov    0xbc(%eax),%edx
   12d9c:	8b 45 10             	mov    0x10(%ebp),%eax
   12d9f:	03 42 34             	add    0x34(%edx),%eax
   12da2:	89 41 34             	mov    %eax,0x34(%ecx)
   12da5:	83 7d 14 00          	cmpl   $0x0,0x14(%ebp)
   12da9:	74 0e                	je     12db9 <_usb_claim_bandwidth@16+0x32>
   12dab:	8b 45 08             	mov    0x8(%ebp),%eax
   12dae:	8b 80 bc 00 00 00    	mov    0xbc(%eax),%eax
   12db4:	ff 40 3c             	incl   0x3c(%eax)
   12db7:	eb 0c                	jmp    12dc5 <_usb_claim_bandwidth@16+0x3e>
   12db9:	8b 45 08             	mov    0x8(%ebp),%eax
   12dbc:	8b 80 bc 00 00 00    	mov    0xbc(%eax),%eax
   12dc2:	ff 40 38             	incl   0x38(%eax)
   12dc5:	8b 55 0c             	mov    0xc(%ebp),%edx
   12dc8:	8b 45 10             	mov    0x10(%ebp),%eax
   12dcb:	89 42 34             	mov    %eax,0x34(%edx)
   12dce:	5d                   	pop    %ebp
   12dcf:	c2 10 00             	ret    $0x10

00012dd2 <_usb_release_bandwidth@12>:
   12dd2:	55                   	push   %ebp
   12dd3:	89 e5                	mov    %esp,%ebp
   12dd5:	53                   	push   %ebx
   12dd6:	8b 45 08             	mov    0x8(%ebp),%eax
   12dd9:	8b 98 bc 00 00 00    	mov    0xbc(%eax),%ebx
   12ddf:	8b 45 08             	mov    0x8(%ebp),%eax
   12de2:	8b 88 bc 00 00 00    	mov    0xbc(%eax),%ecx
   12de8:	8b 45 0c             	mov    0xc(%ebp),%eax
   12deb:	8b 50 34             	mov    0x34(%eax),%edx
   12dee:	8b 41 34             	mov    0x34(%ecx),%eax
   12df1:	29 d0                	sub    %edx,%eax
   12df3:	89 43 34             	mov    %eax,0x34(%ebx)
   12df6:	83 7d 10 00          	cmpl   $0x0,0x10(%ebp)
   12dfa:	74 0e                	je     12e0a <_usb_release_bandwidth@12+0x38>
   12dfc:	8b 45 08             	mov    0x8(%ebp),%eax
   12dff:	8b 80 bc 00 00 00    	mov    0xbc(%eax),%eax
   12e05:	ff 48 3c             	decl   0x3c(%eax)
   12e08:	eb 0c                	jmp    12e16 <_usb_release_bandwidth@12+0x44>
   12e0a:	8b 45 08             	mov    0x8(%ebp),%eax
   12e0d:	8b 80 bc 00 00 00    	mov    0xbc(%eax),%eax
   12e13:	ff 48 38             	decl   0x38(%eax)
   12e16:	8b 45 0c             	mov    0xc(%ebp),%eax
   12e19:	c7 40 34 00 00 00 00 	movl   $0x0,0x34(%eax)
   12e20:	5b                   	pop    %ebx
   12e21:	5d                   	pop    %ebp
   12e22:	c2 0c 00             	ret    $0xc

00012e25 <_hcd_alloc_dev>:
   12e25:	55                   	push   %ebp
   12e26:	89 e5                	mov    %esp,%ebp
   12e28:	83 ec 18             	sub    $0x18,%esp
   12e2b:	83 7d 08 00          	cmpl   $0x0,0x8(%ebp)
   12e2f:	74 0e                	je     12e3f <_hcd_alloc_dev+0x1a>
   12e31:	8b 45 08             	mov    0x8(%ebp),%eax
   12e34:	83 b8 98 01 00 00 00 	cmpl   $0x0,0x198(%eax)
   12e3b:	75 02                	jne    12e3f <_hcd_alloc_dev+0x1a>
   12e3d:	eb 0c                	jmp    12e4b <_hcd_alloc_dev+0x26>
   12e3f:	c7 45 f0 ea ff ff ff 	movl   $0xffffffea,0xfffffff0(%ebp)
   12e46:	e9 e7 00 00 00       	jmp    12f32 <_hcd_alloc_dev+0x10d>
   12e4b:	8b 45 08             	mov    0x8(%ebp),%eax
   12e4e:	83 b8 bc 00 00 00 00 	cmpl   $0x0,0xbc(%eax)
   12e55:	74 0f                	je     12e66 <_hcd_alloc_dev+0x41>
   12e57:	8b 45 08             	mov    0x8(%ebp),%eax
   12e5a:	8b 80 bc 00 00 00    	mov    0xbc(%eax),%eax
   12e60:	83 78 30 00          	cmpl   $0x0,0x30(%eax)
   12e64:	75 0c                	jne    12e72 <_hcd_alloc_dev+0x4d>
   12e66:	c7 45 f0 ed ff ff ff 	movl   $0xffffffed,0xfffffff0(%ebp)
   12e6d:	e9 c0 00 00 00       	jmp    12f32 <_hcd_alloc_dev+0x10d>
   12e72:	8b 45 08             	mov    0x8(%ebp),%eax
   12e75:	8b 80 bc 00 00 00    	mov    0xbc(%eax),%eax
   12e7b:	8b 40 30             	mov    0x30(%eax),%eax
   12e7e:	89 45 f8             	mov    %eax,0xfffffff8(%ebp)
   12e81:	8b 45 f8             	mov    0xfffffff8(%ebp),%eax
   12e84:	81 b8 e0 00 00 00 85 	cmpl   $0x85,0xe0(%eax)
   12e8b:	00 00 00 
   12e8e:	75 0c                	jne    12e9c <_hcd_alloc_dev+0x77>
   12e90:	c7 45 f0 bd ff ff ff 	movl   $0xffffffbd,0xfffffff0(%ebp)
   12e97:	e9 96 00 00 00       	jmp    12f32 <_hcd_alloc_dev+0x10d>
   12e9c:	83 ec 08             	sub    $0x8,%esp
   12e9f:	68 90 00 00 00       	push   $0x90
   12ea4:	6a 01                	push   $0x1
   12ea6:	e8 85 6b 00 00       	call   19a30 <_ExAllocatePool@8>
   12eab:	83 c4 08             	add    $0x8,%esp
   12eae:	89 45 fc             	mov    %eax,0xfffffffc(%ebp)
   12eb1:	83 7d fc 00          	cmpl   $0x0,0xfffffffc(%ebp)
   12eb5:	75 09                	jne    12ec0 <_hcd_alloc_dev+0x9b>
   12eb7:	c7 45 f0 f4 ff ff ff 	movl   $0xfffffff4,0xfffffff0(%ebp)
   12ebe:	eb 72                	jmp    12f32 <_hcd_alloc_dev+0x10d>
   12ec0:	83 ec 04             	sub    $0x4,%esp
   12ec3:	68 90 00 00 00       	push   $0x90
   12ec8:	6a 00                	push   $0x0
   12eca:	ff 75 fc             	pushl  0xfffffffc(%ebp)
   12ecd:	e8 7e 6b 00 00       	call   19a50 <_memset>
   12ed2:	83 c4 10             	add    $0x10,%esp
   12ed5:	8b 55 fc             	mov    0xfffffffc(%ebp),%edx
   12ed8:	8b 45 fc             	mov    0xfffffffc(%ebp),%eax
   12edb:	89 02                	mov    %eax,(%edx)
   12edd:	8b 55 fc             	mov    0xfffffffc(%ebp),%edx
   12ee0:	8b 45 fc             	mov    0xfffffffc(%ebp),%eax
   12ee3:	89 42 04             	mov    %eax,0x4(%edx)
   12ee6:	8b 55 fc             	mov    0xfffffffc(%ebp),%edx
   12ee9:	83 c2 08             	add    $0x8,%edx
   12eec:	8b 45 fc             	mov    0xfffffffc(%ebp),%eax
   12eef:	83 c0 08             	add    $0x8,%eax
   12ef2:	89 02                	mov    %eax,(%edx)
   12ef4:	8b 55 fc             	mov    0xfffffffc(%ebp),%edx
   12ef7:	83 c2 08             	add    $0x8,%edx
   12efa:	8b 45 fc             	mov    0xfffffffc(%ebp),%eax
   12efd:	83 c0 08             	add    $0x8,%eax
   12f00:	89 42 04             	mov    %eax,0x4(%edx)
   12f03:	c7 45 f4 00 00 00 00 	movl   $0x0,0xfffffff4(%ebp)
   12f0a:	83 ec 08             	sub    $0x8,%esp
   12f0d:	8b 45 f8             	mov    0xfffffff8(%ebp),%eax
   12f10:	83 c0 68             	add    $0x68,%eax
   12f13:	50                   	push   %eax
   12f14:	ff 75 fc             	pushl  0xfffffffc(%ebp)
   12f17:	e8 34 f8 ff ff       	call   12750 <_list_add>
   12f1c:	83 c4 10             	add    $0x10,%esp
   12f1f:	8b 55 08             	mov    0x8(%ebp),%edx
   12f22:	8b 45 fc             	mov    0xfffffffc(%ebp),%eax
   12f25:	89 82 98 01 00 00    	mov    %eax,0x198(%edx)
   12f2b:	c7 45 f0 00 00 00 00 	movl   $0x0,0xfffffff0(%ebp)
   12f32:	8b 45 f0             	mov    0xfffffff0(%ebp),%eax
   12f35:	c9                   	leave  
   12f36:	c3                   	ret    

00012f37 <_urb_unlink>:
   12f37:	55                   	push   %ebp
   12f38:	89 e5                	mov    %esp,%ebp
   12f3a:	83 ec 08             	sub    $0x8,%esp
   12f3d:	8b 45 08             	mov    0x8(%ebp),%eax
   12f40:	83 78 34 00          	cmpl   $0x0,0x34(%eax)
   12f44:	74 25                	je     12f6b <_urb_unlink+0x34>
   12f46:	8b 45 08             	mov    0x8(%ebp),%eax
   12f49:	8b 40 18             	mov    0x18(%eax),%eax
   12f4c:	c1 e8 1e             	shr    $0x1e,%eax
   12f4f:	83 e0 03             	and    $0x3,%eax
   12f52:	85 c0                	test   %eax,%eax
   12f54:	0f 94 c0             	sete   %al
   12f57:	25 ff 00 00 00       	and    $0xff,%eax
   12f5c:	50                   	push   %eax
   12f5d:	ff 75 08             	pushl  0x8(%ebp)
   12f60:	8b 45 08             	mov    0x8(%ebp),%eax
   12f63:	ff 70 14             	pushl  0x14(%eax)
   12f66:	e8 67 fe ff ff       	call   12dd2 <_usb_release_bandwidth@12>
   12f6b:	c7 45 fc 00 00 00 00 	movl   $0x0,0xfffffffc(%ebp)
   12f72:	83 ec 0c             	sub    $0xc,%esp
   12f75:	8b 45 08             	mov    0x8(%ebp),%eax
   12f78:	83 c0 0c             	add    $0xc,%eax
   12f7b:	50                   	push   %eax
   12f7c:	e8 1c 00 00 00       	call   12f9d <_list_del_init>
   12f81:	83 c4 10             	add    $0x10,%esp
   12f84:	8b 45 08             	mov    0x8(%ebp),%eax
   12f87:	8b 40 14             	mov    0x14(%eax),%eax
   12f8a:	89 45 f8             	mov    %eax,0xfffffff8(%ebp)
   12f8d:	83 ec 0c             	sub    $0xc,%esp
   12f90:	ff 75 f8             	pushl  0xfffffff8(%ebp)
   12f93:	e8 23 34 00 00       	call   163bb <_usb_put_dev@4>
   12f98:	83 c4 0c             	add    $0xc,%esp
   12f9b:	c9                   	leave  
   12f9c:	c3                   	ret    

00012f9d <_list_del_init>:
   12f9d:	55                   	push   %ebp
   12f9e:	89 e5                	mov    %esp,%ebp
   12fa0:	8b 45 08             	mov    0x8(%ebp),%eax
   12fa3:	ff 30                	pushl  (%eax)
   12fa5:	8b 45 08             	mov    0x8(%ebp),%eax
   12fa8:	ff 70 04             	pushl  0x4(%eax)
   12fab:	e8 92 f9 ff ff       	call   12942 <___list_del>
   12fb0:	83 c4 08             	add    $0x8,%esp
   12fb3:	8b 55 08             	mov    0x8(%ebp),%edx
   12fb6:	8b 45 08             	mov    0x8(%ebp),%eax
   12fb9:	89 02                	mov    %eax,(%edx)
   12fbb:	8b 55 08             	mov    0x8(%ebp),%edx
   12fbe:	8b 45 08             	mov    0x8(%ebp),%eax
   12fc1:	89 42 04             	mov    %eax,0x4(%edx)
   12fc4:	c9                   	leave  
   12fc5:	c3                   	ret    

00012fc6 <_hcd_submit_urb>:
   12fc6:	55                   	push   %ebp
   12fc7:	89 e5                	mov    %esp,%ebp
   12fc9:	83 ec 18             	sub    $0x18,%esp
   12fcc:	8b 45 08             	mov    0x8(%ebp),%eax
   12fcf:	8b 40 14             	mov    0x14(%eax),%eax
   12fd2:	8b 80 bc 00 00 00    	mov    0xbc(%eax),%eax
   12fd8:	8b 40 30             	mov    0x30(%eax),%eax
   12fdb:	89 45 f8             	mov    %eax,0xfffffff8(%ebp)
   12fde:	8b 45 08             	mov    0x8(%ebp),%eax
   12fe1:	8b 40 14             	mov    0x14(%eax),%eax
   12fe4:	8b 80 98 01 00 00    	mov    0x198(%eax),%eax
   12fea:	89 45 f4             	mov    %eax,0xfffffff4(%ebp)
   12fed:	83 7d f8 00          	cmpl   $0x0,0xfffffff8(%ebp)
   12ff1:	74 06                	je     12ff9 <_hcd_submit_urb+0x33>
   12ff3:	83 7d f4 00          	cmpl   $0x0,0xfffffff4(%ebp)
   12ff7:	75 0c                	jne    13005 <_hcd_submit_urb+0x3f>
   12ff9:	c7 45 ec ed ff ff ff 	movl   $0xffffffed,0xffffffec(%ebp)
   13000:	e9 77 01 00 00       	jmp    1317c <_hcd_submit_urb+0x1b6>
   13005:	c7 45 f0 00 00 00 00 	movl   $0x0,0xfffffff0(%ebp)
   1300c:	8b 45 f8             	mov    0xfffffff8(%ebp),%eax
   1300f:	8b 80 e0 00 00 00    	mov    0xe0(%eax),%eax
   13015:	83 e0 01             	and    $0x1,%eax
   13018:	85 c0                	test   %eax,%eax
   1301a:	74 42                	je     1305e <_hcd_submit_urb+0x98>
   1301c:	8b 45 f8             	mov    0xfffffff8(%ebp),%eax
   1301f:	81 b8 e0 00 00 00 85 	cmpl   $0x85,0xe0(%eax)
   13026:	00 00 00 
   13029:	74 33                	je     1305e <_hcd_submit_urb+0x98>
   1302b:	83 ec 0c             	sub    $0xc,%esp
   1302e:	8b 45 08             	mov    0x8(%ebp),%eax
   13031:	ff 70 14             	pushl  0x14(%eax)
   13034:	e8 31 33 00 00       	call   1636a <_usb_get_dev>
   13039:	83 c4 10             	add    $0x10,%esp
   1303c:	83 ec 08             	sub    $0x8,%esp
   1303f:	8b 45 f4             	mov    0xfffffff4(%ebp),%eax
   13042:	83 c0 08             	add    $0x8,%eax
   13045:	50                   	push   %eax
   13046:	8b 45 08             	mov    0x8(%ebp),%eax
   13049:	83 c0 0c             	add    $0xc,%eax
   1304c:	50                   	push   %eax
   1304d:	e8 2f 01 00 00       	call   13181 <_list_add_tail>
   13052:	83 c4 10             	add    $0x10,%esp
   13055:	c7 45 fc 00 00 00 00 	movl   $0x0,0xfffffffc(%ebp)
   1305c:	eb 24                	jmp    13082 <_hcd_submit_urb+0xbc>
   1305e:	8b 55 08             	mov    0x8(%ebp),%edx
   13061:	83 c2 0c             	add    $0xc,%edx
   13064:	8b 45 08             	mov    0x8(%ebp),%eax
   13067:	83 c0 0c             	add    $0xc,%eax
   1306a:	89 02                	mov    %eax,(%edx)
   1306c:	8b 55 08             	mov    0x8(%ebp),%edx
   1306f:	83 c2 0c             	add    $0xc,%edx
   13072:	8b 45 08             	mov    0x8(%ebp),%eax
   13075:	83 c0 0c             	add    $0xc,%eax
   13078:	89 42 04             	mov    %eax,0x4(%edx)
   1307b:	c7 45 fc 94 ff ff ff 	movl   $0xffffff94,0xfffffffc(%ebp)
   13082:	83 7d fc 00          	cmpl   $0x0,0xfffffffc(%ebp)
   13086:	74 0b                	je     13093 <_hcd_submit_urb+0xcd>
   13088:	8b 45 fc             	mov    0xfffffffc(%ebp),%eax
   1308b:	89 45 ec             	mov    %eax,0xffffffec(%ebp)
   1308e:	e9 e9 00 00 00       	jmp    1317c <_hcd_submit_urb+0x1b6>
   13093:	83 ec 0c             	sub    $0xc,%esp
   13096:	ff 75 08             	pushl  0x8(%ebp)
   13099:	e8 d2 50 00 00       	call   18170 <_usb_get_urb@4>
   1309e:	83 c4 0c             	add    $0xc,%esp
   130a1:	89 45 08             	mov    %eax,0x8(%ebp)
   130a4:	8b 45 08             	mov    0x8(%ebp),%eax
   130a7:	8b 55 f8             	mov    0xfffffff8(%ebp),%edx
   130aa:	8b 40 14             	mov    0x14(%eax),%eax
   130ad:	3b 42 24             	cmp    0x24(%edx),%eax
   130b0:	75 25                	jne    130d7 <_hcd_submit_urb+0x111>
   130b2:	8b 55 08             	mov    0x8(%ebp),%edx
   130b5:	8b 45 08             	mov    0x8(%ebp),%eax
   130b8:	8b 40 20             	mov    0x20(%eax),%eax
   130bb:	83 c8 04             	or     $0x4,%eax
   130be:	89 42 20             	mov    %eax,0x20(%edx)
   130c1:	83 ec 08             	sub    $0x8,%esp
   130c4:	ff 75 08             	pushl  0x8(%ebp)
   130c7:	ff 75 f8             	pushl  0xfffffff8(%ebp)
   130ca:	e8 de f3 ff ff       	call   124ad <_rh_urb_enqueue>
   130cf:	83 c4 10             	add    $0x10,%esp
   130d2:	89 45 fc             	mov    %eax,0xfffffffc(%ebp)
   130d5:	eb 7d                	jmp    13154 <_hcd_submit_urb+0x18e>
   130d7:	8b 45 08             	mov    0x8(%ebp),%eax
   130da:	8b 40 20             	mov    0x20(%eax),%eax
   130dd:	c1 e8 02             	shr    $0x2,%eax
   130e0:	83 e0 01             	and    $0x1,%eax
   130e3:	85 c0                	test   %eax,%eax
   130e5:	75 50                	jne    13137 <_hcd_submit_urb+0x171>
   130e7:	8b 45 f8             	mov    0xfffffff8(%ebp),%eax
   130ea:	8b 80 80 00 00 00    	mov    0x80(%eax),%eax
   130f0:	83 b8 84 00 00 00 00 	cmpl   $0x0,0x84(%eax)
   130f7:	74 3e                	je     13137 <_hcd_submit_urb+0x171>
   130f9:	8b 45 08             	mov    0x8(%ebp),%eax
   130fc:	8b 40 18             	mov    0x18(%eax),%eax
   130ff:	c1 e8 1e             	shr    $0x1e,%eax
   13102:	83 e0 03             	and    $0x3,%eax
   13105:	83 f8 02             	cmp    $0x2,%eax
   13108:	75 12                	jne    1311c <_hcd_submit_urb+0x156>
   1310a:	8b 45 08             	mov    0x8(%ebp),%eax
   1310d:	8b 55 08             	mov    0x8(%ebp),%edx
   13110:	8b 52 38             	mov    0x38(%edx),%edx
   13113:	81 e2 ff ff ff 0f    	and    $0xfffffff,%edx
   13119:	89 50 3c             	mov    %edx,0x3c(%eax)
   1311c:	8b 45 08             	mov    0x8(%ebp),%eax
   1311f:	83 78 2c 00          	cmpl   $0x0,0x2c(%eax)
   13123:	74 12                	je     13137 <_hcd_submit_urb+0x171>
   13125:	8b 45 08             	mov    0x8(%ebp),%eax
   13128:	8b 55 08             	mov    0x8(%ebp),%edx
   1312b:	8b 52 24             	mov    0x24(%edx),%edx
   1312e:	81 e2 ff ff ff 0f    	and    $0xfffffff,%edx
   13134:	89 50 28             	mov    %edx,0x28(%eax)
   13137:	83 ec 04             	sub    $0x4,%esp
   1313a:	8b 45 f8             	mov    0xfffffff8(%ebp),%eax
   1313d:	8b 40 74             	mov    0x74(%eax),%eax
   13140:	ff 75 0c             	pushl  0xc(%ebp)
   13143:	ff 75 08             	pushl  0x8(%ebp)
   13146:	ff 75 f8             	pushl  0xfffffff8(%ebp)
   13149:	8b 40 28             	mov    0x28(%eax),%eax
   1314c:	ff d0                	call   *%eax
   1314e:	83 c4 10             	add    $0x10,%esp
   13151:	89 45 fc             	mov    %eax,0xfffffffc(%ebp)
   13154:	83 7d fc 00          	cmpl   $0x0,0xfffffffc(%ebp)
   13158:	74 1c                	je     13176 <_hcd_submit_urb+0x1b0>
   1315a:	83 ec 0c             	sub    $0xc,%esp
   1315d:	ff 75 08             	pushl  0x8(%ebp)
   13160:	e8 d1 4f 00 00       	call   18136 <_usb_free_urb@4>
   13165:	83 c4 0c             	add    $0xc,%esp
   13168:	83 ec 0c             	sub    $0xc,%esp
   1316b:	ff 75 08             	pushl  0x8(%ebp)
   1316e:	e8 c4 fd ff ff       	call   12f37 <_urb_unlink>
   13173:	83 c4 10             	add    $0x10,%esp
   13176:	8b 45 fc             	mov    0xfffffffc(%ebp),%eax
   13179:	89 45 ec             	mov    %eax,0xffffffec(%ebp)
   1317c:	8b 45 ec             	mov    0xffffffec(%ebp),%eax
   1317f:	c9                   	leave  
   13180:	c3                   	ret    

00013181 <_list_add_tail>:
   13181:	55                   	push   %ebp
   13182:	89 e5                	mov    %esp,%ebp
   13184:	ff 75 0c             	pushl  0xc(%ebp)
   13187:	8b 45 0c             	mov    0xc(%ebp),%eax
   1318a:	ff 70 04             	pushl  0x4(%eax)
   1318d:	ff 75 08             	pushl  0x8(%ebp)
   13190:	e8 d9 f5 ff ff       	call   1276e <___list_add>
   13195:	83 c4 0c             	add    $0xc,%esp
   13198:	c9                   	leave  
   13199:	c3                   	ret    

0001319a <_hcd_get_frame_number>:
   1319a:	55                   	push   %ebp
   1319b:	89 e5                	mov    %esp,%ebp
   1319d:	83 ec 08             	sub    $0x8,%esp
   131a0:	8b 45 08             	mov    0x8(%ebp),%eax
   131a3:	8b 80 bc 00 00 00    	mov    0xbc(%eax),%eax
   131a9:	8b 40 30             	mov    0x30(%eax),%eax
   131ac:	89 45 fc             	mov    %eax,0xfffffffc(%ebp)
   131af:	83 ec 0c             	sub    $0xc,%esp
   131b2:	8b 45 fc             	mov    0xfffffffc(%ebp),%eax
   131b5:	8b 40 74             	mov    0x74(%eax),%eax
   131b8:	ff 75 fc             	pushl  0xfffffffc(%ebp)
   131bb:	8b 40 1c             	mov    0x1c(%eax),%eax
   131be:	ff d0                	call   *%eax
   131c0:	83 c4 10             	add    $0x10,%esp
   131c3:	c9                   	leave  
   131c4:	c3                   	ret    

000131c5 <_unlink1>:
   131c5:	55                   	push   %ebp
   131c6:	89 e5                	mov    %esp,%ebp
   131c8:	83 ec 08             	sub    $0x8,%esp
   131cb:	8b 45 08             	mov    0x8(%ebp),%eax
   131ce:	8b 40 58             	mov    0x58(%eax),%eax
   131d1:	3b 45 0c             	cmp    0xc(%ebp),%eax
   131d4:	75 13                	jne    131e9 <_unlink1+0x24>
   131d6:	83 ec 08             	sub    $0x8,%esp
   131d9:	ff 75 0c             	pushl  0xc(%ebp)
   131dc:	ff 75 08             	pushl  0x8(%ebp)
   131df:	e8 36 f3 ff ff       	call   1251a <_usb_rh_status_dequeue>
   131e4:	83 c4 10             	add    $0x10,%esp
   131e7:	eb 1a                	jmp    13203 <_unlink1+0x3e>
   131e9:	83 ec 08             	sub    $0x8,%esp
   131ec:	8b 45 08             	mov    0x8(%ebp),%eax
   131ef:	8b 40 74             	mov    0x74(%eax),%eax
   131f2:	ff 75 0c             	pushl  0xc(%ebp)
   131f5:	ff 75 08             	pushl  0x8(%ebp)
   131f8:	8b 40 2c             	mov    0x2c(%eax),%eax
   131fb:	ff d0                	call   *%eax
   131fd:	83 c4 10             	add    $0x10,%esp
   13200:	89 45 fc             	mov    %eax,0xfffffffc(%ebp)
   13203:	c9                   	leave  
   13204:	c3                   	ret    

00013205 <_unlink_complete>:
   13205:	55                   	push   %ebp
   13206:	89 e5                	mov    %esp,%ebp
   13208:	83 ec 08             	sub    $0x8,%esp
   1320b:	8b 45 08             	mov    0x8(%ebp),%eax
   1320e:	8b 40 54             	mov    0x54(%eax),%eax
   13211:	89 45 fc             	mov    %eax,0xfffffffc(%ebp)
   13214:	8b 55 08             	mov    0x8(%ebp),%edx
   13217:	8b 45 fc             	mov    0xfffffffc(%ebp),%eax
   1321a:	8b 40 08             	mov    0x8(%eax),%eax
   1321d:	89 42 58             	mov    %eax,0x58(%edx)
   13220:	8b 55 08             	mov    0x8(%ebp),%edx
   13223:	8b 45 fc             	mov    0xfffffffc(%ebp),%eax
   13226:	8b 40 0c             	mov    0xc(%eax),%eax
   13229:	89 42 54             	mov    %eax,0x54(%edx)
   1322c:	83 ec 08             	sub    $0x8,%esp
   1322f:	8b 45 08             	mov    0x8(%ebp),%eax
   13232:	ff 75 0c             	pushl  0xc(%ebp)
   13235:	ff 75 08             	pushl  0x8(%ebp)
   13238:	8b 40 58             	mov    0x58(%eax),%eax
   1323b:	ff d0                	call   *%eax
   1323d:	83 c4 10             	add    $0x10,%esp
   13240:	83 ec 0c             	sub    $0xc,%esp
   13243:	ff 75 fc             	pushl  0xfffffffc(%ebp)
   13246:	e8 05 00 00 00       	call   13250 <_complete>
   1324b:	83 c4 10             	add    $0x10,%esp
   1324e:	c9                   	leave  
   1324f:	c3                   	ret    

00013250 <_complete>:
   13250:	55                   	push   %ebp
   13251:	89 e5                	mov    %esp,%ebp
   13253:	83 ec 08             	sub    $0x8,%esp
   13256:	8b 45 08             	mov    0x8(%ebp),%eax
   13259:	ff 00                	incl   (%eax)
   1325b:	83 ec 0c             	sub    $0xc,%esp
   1325e:	8b 45 08             	mov    0x8(%ebp),%eax
   13261:	83 c0 04             	add    $0x4,%eax
   13264:	50                   	push   %eax
   13265:	e8 fb 65 00 00       	call   19865 <_my_wake_up>
   1326a:	83 c4 10             	add    $0x10,%esp
   1326d:	c9                   	leave  
   1326e:	c3                   	ret    

0001326f <_hcd_unlink_urb>:
   1326f:	55                   	push   %ebp
   13270:	89 e5                	mov    %esp,%ebp
   13272:	83 ec 38             	sub    $0x38,%esp
   13275:	c7 45 f0 00 00 00 00 	movl   $0x0,0xfffffff0(%ebp)
   1327c:	c7 45 ec 00 00 00 00 	movl   $0x0,0xffffffec(%ebp)
   13283:	83 7d 08 00          	cmpl   $0x0,0x8(%ebp)
   13287:	75 0c                	jne    13295 <_hcd_unlink_urb+0x26>
   13289:	c7 45 d0 ea ff ff ff 	movl   $0xffffffea,0xffffffd0(%ebp)
   13290:	e9 ab 01 00 00       	jmp    13440 <_hcd_unlink_urb+0x1d1>
   13295:	c7 45 e8 00 00 00 00 	movl   $0x0,0xffffffe8(%ebp)
   1329c:	c7 05 00 c0 01 00 01 	movl   $0x1,0x1c000
   132a3:	00 00 00 
   132a6:	8b 45 08             	mov    0x8(%ebp),%eax
   132a9:	83 78 14 00          	cmpl   $0x0,0x14(%eax)
   132ad:	74 0f                	je     132be <_hcd_unlink_urb+0x4f>
   132af:	8b 45 08             	mov    0x8(%ebp),%eax
   132b2:	8b 40 14             	mov    0x14(%eax),%eax
   132b5:	83 b8 bc 00 00 00 00 	cmpl   $0x0,0xbc(%eax)
   132bc:	75 0c                	jne    132ca <_hcd_unlink_urb+0x5b>
   132be:	c7 45 d4 ed ff ff ff 	movl   $0xffffffed,0xffffffd4(%ebp)
   132c5:	e9 64 01 00 00       	jmp    1342e <_hcd_unlink_urb+0x1bf>
   132ca:	8b 45 08             	mov    0x8(%ebp),%eax
   132cd:	8b 40 14             	mov    0x14(%eax),%eax
   132d0:	8b 80 98 01 00 00    	mov    0x198(%eax),%eax
   132d6:	89 45 f4             	mov    %eax,0xfffffff4(%ebp)
   132d9:	8b 45 08             	mov    0x8(%ebp),%eax
   132dc:	8b 40 14             	mov    0x14(%eax),%eax
   132df:	05 c0 00 00 00       	add    $0xc0,%eax
   132e4:	89 45 ec             	mov    %eax,0xffffffec(%ebp)
   132e7:	8b 45 08             	mov    0x8(%ebp),%eax
   132ea:	8b 40 14             	mov    0x14(%eax),%eax
   132ed:	8b 80 bc 00 00 00    	mov    0xbc(%eax),%eax
   132f3:	8b 40 30             	mov    0x30(%eax),%eax
   132f6:	89 45 f0             	mov    %eax,0xfffffff0(%ebp)
   132f9:	83 7d f4 00          	cmpl   $0x0,0xfffffff4(%ebp)
   132fd:	74 06                	je     13305 <_hcd_unlink_urb+0x96>
   132ff:	83 7d f0 00          	cmpl   $0x0,0xfffffff0(%ebp)
   13303:	75 0c                	jne    13311 <_hcd_unlink_urb+0xa2>
   13305:	c7 45 d4 ed ff ff ff 	movl   $0xffffffed,0xffffffd4(%ebp)
   1330c:	e9 1d 01 00 00       	jmp    1342e <_hcd_unlink_urb+0x1bf>
   13311:	8b 45 08             	mov    0x8(%ebp),%eax
   13314:	83 78 08 00          	cmpl   $0x0,0x8(%eax)
   13318:	75 0c                	jne    13326 <_hcd_unlink_urb+0xb7>
   1331a:	c7 45 d4 ea ff ff ff 	movl   $0xffffffea,0xffffffd4(%ebp)
   13321:	e9 08 01 00 00       	jmp    1342e <_hcd_unlink_urb+0x1bf>
   13326:	8b 45 08             	mov    0x8(%ebp),%eax
   13329:	83 78 1c 8d          	cmpl   $0xffffff8d,0x1c(%eax)
   1332d:	74 0c                	je     1333b <_hcd_unlink_urb+0xcc>
   1332f:	c7 45 d4 f0 ff ff ff 	movl   $0xfffffff0,0xffffffd4(%ebp)
   13336:	e9 f3 00 00 00       	jmp    1342e <_hcd_unlink_urb+0x1bf>
   1333b:	8b 45 08             	mov    0x8(%ebp),%eax
   1333e:	8b 40 20             	mov    0x20(%eax),%eax
   13341:	c1 e8 03             	shr    $0x3,%eax
   13344:	83 e0 01             	and    $0x1,%eax
   13347:	85 c0                	test   %eax,%eax
   13349:	75 38                	jne    13383 <_hcd_unlink_urb+0x114>
   1334b:	c7 45 d8 00 00 00 00 	movl   $0x0,0xffffffd8(%ebp)
   13352:	8b 45 08             	mov    0x8(%ebp),%eax
   13355:	8b 40 58             	mov    0x58(%eax),%eax
   13358:	89 45 e0             	mov    %eax,0xffffffe0(%ebp)
   1335b:	8b 45 08             	mov    0x8(%ebp),%eax
   1335e:	8b 40 54             	mov    0x54(%eax),%eax
   13361:	89 45 e4             	mov    %eax,0xffffffe4(%ebp)
   13364:	8b 45 08             	mov    0x8(%ebp),%eax
   13367:	c7 40 58 05 32 01 00 	movl   $0x13205,0x58(%eax)
   1336e:	8b 55 08             	mov    0x8(%ebp),%edx
   13371:	8d 45 d8             	lea    0xffffffd8(%ebp),%eax
   13374:	89 42 54             	mov    %eax,0x54(%edx)
   13377:	8b 45 08             	mov    0x8(%ebp),%eax
   1337a:	c7 40 1c fe ff ff ff 	movl   $0xfffffffe,0x1c(%eax)
   13381:	eb 0a                	jmp    1338d <_hcd_unlink_urb+0x11e>
   13383:	8b 45 08             	mov    0x8(%ebp),%eax
   13386:	c7 40 1c 98 ff ff ff 	movl   $0xffffff98,0x1c(%eax)
   1338d:	8b 45 f0             	mov    0xfffffff0(%ebp),%eax
   13390:	8b 40 58             	mov    0x58(%eax),%eax
   13393:	3b 45 08             	cmp    0x8(%ebp),%eax
   13396:	75 1a                	jne    133b2 <_hcd_unlink_urb+0x143>
   13398:	83 ec 08             	sub    $0x8,%esp
   1339b:	ff 75 08             	pushl  0x8(%ebp)
   1339e:	ff 75 f0             	pushl  0xfffffff0(%ebp)
   133a1:	e8 74 f1 ff ff       	call   1251a <_usb_rh_status_dequeue>
   133a6:	83 c4 10             	add    $0x10,%esp
   133a9:	c7 45 d4 00 00 00 00 	movl   $0x0,0xffffffd4(%ebp)
   133b0:	eb 4b                	jmp    133fd <_hcd_unlink_urb+0x18e>
   133b2:	83 ec 08             	sub    $0x8,%esp
   133b5:	8b 45 f0             	mov    0xfffffff0(%ebp),%eax
   133b8:	8b 40 74             	mov    0x74(%eax),%eax
   133bb:	ff 75 08             	pushl  0x8(%ebp)
   133be:	ff 75 f0             	pushl  0xfffffff0(%ebp)
   133c1:	8b 40 2c             	mov    0x2c(%eax),%eax
   133c4:	ff d0                	call   *%eax
   133c6:	83 c4 10             	add    $0x10,%esp
   133c9:	89 45 d4             	mov    %eax,0xffffffd4(%ebp)
   133cc:	83 7d d4 00          	cmpl   $0x0,0xffffffd4(%ebp)
   133d0:	74 2b                	je     133fd <_hcd_unlink_urb+0x18e>
   133d2:	8b 45 08             	mov    0x8(%ebp),%eax
   133d5:	8b 40 20             	mov    0x20(%eax),%eax
   133d8:	c1 e8 03             	shr    $0x3,%eax
   133db:	83 e0 01             	and    $0x1,%eax
   133de:	85 c0                	test   %eax,%eax
   133e0:	75 4c                	jne    1342e <_hcd_unlink_urb+0x1bf>
   133e2:	c7 45 e8 00 00 00 00 	movl   $0x0,0xffffffe8(%ebp)
   133e9:	8b 55 08             	mov    0x8(%ebp),%edx
   133ec:	8b 45 e0             	mov    0xffffffe0(%ebp),%eax
   133ef:	89 42 58             	mov    %eax,0x58(%edx)
   133f2:	8b 55 08             	mov    0x8(%ebp),%edx
   133f5:	8b 45 e4             	mov    0xffffffe4(%ebp),%eax
   133f8:	89 42 54             	mov    %eax,0x54(%edx)
   133fb:	eb 31                	jmp    1342e <_hcd_unlink_urb+0x1bf>
   133fd:	8b 45 08             	mov    0x8(%ebp),%eax
   13400:	8b 40 20             	mov    0x20(%eax),%eax
   13403:	c1 e8 03             	shr    $0x3,%eax
   13406:	83 e0 01             	and    $0x1,%eax
   13409:	85 c0                	test   %eax,%eax
   1340b:	74 09                	je     13416 <_hcd_unlink_urb+0x1a7>
   1340d:	c7 45 d0 8d ff ff ff 	movl   $0xffffff8d,0xffffffd0(%ebp)
   13414:	eb 2a                	jmp    13440 <_hcd_unlink_urb+0x1d1>
   13416:	83 ec 0c             	sub    $0xc,%esp
   13419:	8d 45 d8             	lea    0xffffffd8(%ebp),%eax
   1341c:	50                   	push   %eax
   1341d:	e8 b6 64 00 00       	call   198d8 <_my_wait_for_completion>
   13422:	83 c4 10             	add    $0x10,%esp
   13425:	c7 45 d0 00 00 00 00 	movl   $0x0,0xffffffd0(%ebp)
   1342c:	eb 12                	jmp    13440 <_hcd_unlink_urb+0x1d1>
   1342e:	83 7d d4 00          	cmpl   $0x0,0xffffffd4(%ebp)
   13432:	74 06                	je     1343a <_hcd_unlink_urb+0x1cb>
   13434:	83 7d ec 00          	cmpl   $0x0,0xffffffec(%ebp)
   13438:	74 00                	je     1343a <_hcd_unlink_urb+0x1cb>
   1343a:	8b 45 d4             	mov    0xffffffd4(%ebp),%eax
   1343d:	89 45 d0             	mov    %eax,0xffffffd0(%ebp)
   13440:	8b 45 d0             	mov    0xffffffd0(%ebp),%eax
   13443:	c9                   	leave  
   13444:	c3                   	ret    

00013445 <_hcd_endpoint_disable>:
   13445:	55                   	push   %ebp
   13446:	89 e5                	mov    %esp,%ebp
   13448:	53                   	push   %ebx
   13449:	83 ec 24             	sub    $0x24,%esp
   1344c:	8b 45 0c             	mov    0xc(%ebp),%eax
   1344f:	83 e0 0f             	and    $0xf,%eax
   13452:	89 45 e8             	mov    %eax,0xffffffe8(%ebp)
   13455:	8b 45 08             	mov    0x8(%ebp),%eax
   13458:	8b 80 98 01 00 00    	mov    0x198(%eax),%eax
   1345e:	89 45 f4             	mov    %eax,0xfffffff4(%ebp)
   13461:	8b 45 08             	mov    0x8(%ebp),%eax
   13464:	8b 80 bc 00 00 00    	mov    0xbc(%eax),%eax
   1346a:	8b 40 30             	mov    0x30(%eax),%eax
   1346d:	89 45 f0             	mov    %eax,0xfffffff0(%ebp)
   13470:	8b 45 0c             	mov    0xc(%ebp),%eax
   13473:	c1 e8 07             	shr    $0x7,%eax
   13476:	83 e0 01             	and    $0x1,%eax
   13479:	85 c0                	test   %eax,%eax
   1347b:	74 26                	je     134a3 <_hcd_endpoint_disable+0x5e>
   1347d:	8b 5d 08             	mov    0x8(%ebp),%ebx
   13480:	8b 55 08             	mov    0x8(%ebp),%edx
   13483:	8b 4d e8             	mov    0xffffffe8(%ebp),%ecx
   13486:	b8 01 00 00 00       	mov    $0x1,%eax
   1348b:	d3 e0                	shl    %cl,%eax
   1348d:	0b 42 30             	or     0x30(%edx),%eax
   13490:	89 43 30             	mov    %eax,0x30(%ebx)
   13493:	8b 55 08             	mov    0x8(%ebp),%edx
   13496:	8b 45 e8             	mov    0xffffffe8(%ebp),%eax
   13499:	c7 44 82 38 00 00 00 	movl   $0x0,0x38(%edx,%eax,4)
   134a0:	00 
   134a1:	eb 24                	jmp    134c7 <_hcd_endpoint_disable+0x82>
   134a3:	8b 5d 08             	mov    0x8(%ebp),%ebx
   134a6:	8b 55 08             	mov    0x8(%ebp),%edx
   134a9:	8b 4d e8             	mov    0xffffffe8(%ebp),%ecx
   134ac:	b8 01 00 00 00       	mov    $0x1,%eax
   134b1:	d3 e0                	shl    %cl,%eax
   134b3:	0b 42 34             	or     0x34(%edx),%eax
   134b6:	89 43 34             	mov    %eax,0x34(%ebx)
   134b9:	8b 55 08             	mov    0x8(%ebp),%edx
   134bc:	8b 45 e8             	mov    0xffffffe8(%ebp),%eax
   134bf:	c7 44 82 78 00 00 00 	movl   $0x0,0x78(%edx,%eax,4)
   134c6:	00 
   134c7:	c7 45 f8 00 00 00 00 	movl   $0x0,0xfffffff8(%ebp)
   134ce:	8b 45 f4             	mov    0xfffffff4(%ebp),%eax
   134d1:	83 c0 08             	add    $0x8,%eax
   134d4:	8b 00                	mov    (%eax),%eax
   134d6:	83 e8 0c             	sub    $0xc,%eax
   134d9:	89 45 ec             	mov    %eax,0xffffffec(%ebp)
   134dc:	8b 55 ec             	mov    0xffffffec(%ebp),%edx
   134df:	83 c2 0c             	add    $0xc,%edx
   134e2:	8b 45 f4             	mov    0xfffffff4(%ebp),%eax
   134e5:	83 c0 08             	add    $0x8,%eax
   134e8:	39 c2                	cmp    %eax,%edx
   134ea:	0f 84 a8 00 00 00    	je     13598 <_hcd_endpoint_disable+0x153>
   134f0:	8b 45 ec             	mov    0xffffffec(%ebp),%eax
   134f3:	8b 40 18             	mov    0x18(%eax),%eax
   134f6:	89 45 e4             	mov    %eax,0xffffffe4(%ebp)
   134f9:	8b 45 e4             	mov    0xffffffe4(%ebp),%eax
   134fc:	c1 f8 0f             	sar    $0xf,%eax
   134ff:	83 e0 0f             	and    $0xf,%eax
   13502:	3b 45 e8             	cmp    0xffffffe8(%ebp),%eax
   13505:	74 02                	je     13509 <_hcd_endpoint_disable+0xc4>
   13507:	eb 7e                	jmp    13587 <_hcd_endpoint_disable+0x142>
   13509:	8b 45 0c             	mov    0xc(%ebp),%eax
   1350c:	33 45 e4             	xor    0xffffffe4(%ebp),%eax
   1350f:	c1 e8 07             	shr    $0x7,%eax
   13512:	83 e0 01             	and    $0x1,%eax
   13515:	85 c0                	test   %eax,%eax
   13517:	74 02                	je     1351b <_hcd_endpoint_disable+0xd6>
   13519:	eb 6c                	jmp    13587 <_hcd_endpoint_disable+0x142>
   1351b:	8b 45 ec             	mov    0xffffffec(%ebp),%eax
   1351e:	83 78 1c 8d          	cmpl   $0xffffff8d,0x1c(%eax)
   13522:	74 02                	je     13526 <_hcd_endpoint_disable+0xe1>
   13524:	eb 61                	jmp    13587 <_hcd_endpoint_disable+0x142>
   13526:	83 ec 0c             	sub    $0xc,%esp
   13529:	ff 75 ec             	pushl  0xffffffec(%ebp)
   1352c:	e8 3f 4c 00 00       	call   18170 <_usb_get_urb@4>
   13531:	83 c4 0c             	add    $0xc,%esp
   13534:	c7 45 f8 00 00 00 00 	movl   $0x0,0xfffffff8(%ebp)
   1353b:	8b 45 ec             	mov    0xffffffec(%ebp),%eax
   1353e:	8b 40 1c             	mov    0x1c(%eax),%eax
   13541:	89 45 e4             	mov    %eax,0xffffffe4(%ebp)
   13544:	83 7d e4 8d          	cmpl   $0xffffff8d,0xffffffe4(%ebp)
   13548:	75 0a                	jne    13554 <_hcd_endpoint_disable+0x10f>
   1354a:	8b 45 ec             	mov    0xffffffec(%ebp),%eax
   1354d:	c7 40 1c 94 ff ff ff 	movl   $0xffffff94,0x1c(%eax)
   13554:	83 7d e4 8d          	cmpl   $0xffffff8d,0xffffffe4(%ebp)
   13558:	75 1a                	jne    13574 <_hcd_endpoint_disable+0x12f>
   1355a:	8b 45 ec             	mov    0xffffffec(%ebp),%eax
   1355d:	8b 40 18             	mov    0x18(%eax),%eax
   13560:	89 45 e4             	mov    %eax,0xffffffe4(%ebp)
   13563:	83 ec 08             	sub    $0x8,%esp
   13566:	ff 75 ec             	pushl  0xffffffec(%ebp)
   13569:	ff 75 f0             	pushl  0xfffffff0(%ebp)
   1356c:	e8 54 fc ff ff       	call   131c5 <_unlink1>
   13571:	83 c4 10             	add    $0x10,%esp
   13574:	83 ec 0c             	sub    $0xc,%esp
   13577:	ff 75 ec             	pushl  0xffffffec(%ebp)
   1357a:	e8 b7 4b 00 00       	call   18136 <_usb_free_urb@4>
   1357f:	83 c4 0c             	add    $0xc,%esp
   13582:	e9 e9 fe ff ff       	jmp    13470 <_hcd_endpoint_disable+0x2b>
   13587:	8b 45 ec             	mov    0xffffffec(%ebp),%eax
   1358a:	8b 40 0c             	mov    0xc(%eax),%eax
   1358d:	83 e8 0c             	sub    $0xc,%eax
   13590:	89 45 ec             	mov    %eax,0xffffffec(%ebp)
   13593:	e9 44 ff ff ff       	jmp    134dc <_hcd_endpoint_disable+0x97>
   13598:	8b 45 f0             	mov    0xfffffff0(%ebp),%eax
   1359b:	8b 40 74             	mov    0x74(%eax),%eax
   1359e:	83 78 30 00          	cmpl   $0x0,0x30(%eax)
   135a2:	74 1a                	je     135be <_hcd_endpoint_disable+0x179>
   135a4:	83 ec 04             	sub    $0x4,%esp
   135a7:	8b 45 f0             	mov    0xfffffff0(%ebp),%eax
   135aa:	8b 40 74             	mov    0x74(%eax),%eax
   135ad:	ff 75 0c             	pushl  0xc(%ebp)
   135b0:	ff 75 f4             	pushl  0xfffffff4(%ebp)
   135b3:	ff 75 f0             	pushl  0xfffffff0(%ebp)
   135b6:	8b 40 30             	mov    0x30(%eax),%eax
   135b9:	ff d0                	call   *%eax
   135bb:	83 c4 10             	add    $0x10,%esp
   135be:	8b 5d fc             	mov    0xfffffffc(%ebp),%ebx
   135c1:	c9                   	leave  
   135c2:	c3                   	ret    

000135c3 <_hcd_free_dev>:
   135c3:	55                   	push   %ebp
   135c4:	89 e5                	mov    %esp,%ebp
   135c6:	83 ec 18             	sub    $0x18,%esp
   135c9:	83 7d 08 00          	cmpl   $0x0,0x8(%ebp)
   135cd:	74 0c                	je     135db <_hcd_free_dev+0x18>
   135cf:	8b 45 08             	mov    0x8(%ebp),%eax
   135d2:	83 b8 98 01 00 00 00 	cmpl   $0x0,0x198(%eax)
   135d9:	75 0c                	jne    135e7 <_hcd_free_dev+0x24>
   135db:	c7 45 f0 ea ff ff ff 	movl   $0xffffffea,0xfffffff0(%ebp)
   135e2:	e9 95 00 00 00       	jmp    1367c <_hcd_free_dev+0xb9>
   135e7:	8b 45 08             	mov    0x8(%ebp),%eax
   135ea:	83 b8 bc 00 00 00 00 	cmpl   $0x0,0xbc(%eax)
   135f1:	74 0f                	je     13602 <_hcd_free_dev+0x3f>
   135f3:	8b 45 08             	mov    0x8(%ebp),%eax
   135f6:	8b 80 bc 00 00 00    	mov    0xbc(%eax),%eax
   135fc:	83 78 30 00          	cmpl   $0x0,0x30(%eax)
   13600:	75 09                	jne    1360b <_hcd_free_dev+0x48>
   13602:	c7 45 f0 ed ff ff ff 	movl   $0xffffffed,0xfffffff0(%ebp)
   13609:	eb 71                	jmp    1367c <_hcd_free_dev+0xb9>
   1360b:	8b 45 08             	mov    0x8(%ebp),%eax
   1360e:	8b 80 98 01 00 00    	mov    0x198(%eax),%eax
   13614:	89 45 fc             	mov    %eax,0xfffffffc(%ebp)
   13617:	8b 45 08             	mov    0x8(%ebp),%eax
   1361a:	8b 80 bc 00 00 00    	mov    0xbc(%eax),%eax
   13620:	8b 40 30             	mov    0x30(%eax),%eax
   13623:	89 45 f8             	mov    %eax,0xfffffff8(%ebp)
   13626:	83 ec 0c             	sub    $0xc,%esp
   13629:	8b 45 fc             	mov    0xfffffffc(%ebp),%eax
   1362c:	83 c0 08             	add    $0x8,%eax
   1362f:	50                   	push   %eax
   13630:	e8 4c 00 00 00       	call   13681 <_list_empty>
   13635:	83 c4 10             	add    $0x10,%esp
   13638:	85 c0                	test   %eax,%eax
   1363a:	75 09                	jne    13645 <_hcd_free_dev+0x82>
   1363c:	c7 45 f0 ea ff ff ff 	movl   $0xffffffea,0xfffffff0(%ebp)
   13643:	eb 37                	jmp    1367c <_hcd_free_dev+0xb9>
   13645:	c7 45 f4 00 00 00 00 	movl   $0x0,0xfffffff4(%ebp)
   1364c:	83 ec 0c             	sub    $0xc,%esp
   1364f:	ff 75 fc             	pushl  0xfffffffc(%ebp)
   13652:	e8 ba f2 ff ff       	call   12911 <_list_del>
   13657:	83 c4 10             	add    $0x10,%esp
   1365a:	8b 45 08             	mov    0x8(%ebp),%eax
   1365d:	c7 80 98 01 00 00 00 	movl   $0x0,0x198(%eax)
   13664:	00 00 00 
   13667:	83 ec 0c             	sub    $0xc,%esp
   1366a:	ff 75 fc             	pushl  0xfffffffc(%ebp)
   1366d:	e8 ce 63 00 00       	call   19a40 <_ExFreePool@4>
   13672:	83 c4 0c             	add    $0xc,%esp
   13675:	c7 45 f0 00 00 00 00 	movl   $0x0,0xfffffff0(%ebp)
   1367c:	8b 45 f0             	mov    0xfffffff0(%ebp),%eax
   1367f:	c9                   	leave  
   13680:	c3                   	ret    

00013681 <_list_empty>:
   13681:	55                   	push   %ebp
   13682:	89 e5                	mov    %esp,%ebp
   13684:	8b 45 08             	mov    0x8(%ebp),%eax
   13687:	8b 00                	mov    (%eax),%eax
   13689:	3b 45 08             	cmp    0x8(%ebp),%eax
   1368c:	0f 94 c0             	sete   %al
   1368f:	25 ff 00 00 00       	and    $0xff,%eax
   13694:	5d                   	pop    %ebp
   13695:	c3                   	ret    

00013696 <_usb_hcd_giveback_urb@12>:
   13696:	55                   	push   %ebp
   13697:	89 e5                	mov    %esp,%ebp
   13699:	83 ec 08             	sub    $0x8,%esp
   1369c:	83 ec 0c             	sub    $0xc,%esp
   1369f:	ff 75 0c             	pushl  0xc(%ebp)
   136a2:	e8 90 f8 ff ff       	call   12f37 <_urb_unlink>
   136a7:	83 c4 10             	add    $0x10,%esp
   136aa:	8b 45 0c             	mov    0xc(%ebp),%eax
   136ad:	8b 40 20             	mov    0x20(%eax),%eax
   136b0:	c1 e8 02             	shr    $0x2,%eax
   136b3:	83 e0 01             	and    $0x1,%eax
   136b6:	85 c0                	test   %eax,%eax
   136b8:	75 00                	jne    136ba <_usb_hcd_giveback_urb@12+0x24>
   136ba:	83 ec 08             	sub    $0x8,%esp
   136bd:	8b 45 0c             	mov    0xc(%ebp),%eax
   136c0:	ff 75 10             	pushl  0x10(%ebp)
   136c3:	ff 75 0c             	pushl  0xc(%ebp)
   136c6:	8b 40 58             	mov    0x58(%eax),%eax
   136c9:	ff d0                	call   *%eax
   136cb:	83 c4 10             	add    $0x10,%esp
   136ce:	83 ec 0c             	sub    $0xc,%esp
   136d1:	ff 75 0c             	pushl  0xc(%ebp)
   136d4:	e8 5d 4a 00 00       	call   18136 <_usb_free_urb@4>
   136d9:	83 c4 0c             	add    $0xc,%esp
   136dc:	c9                   	leave  
   136dd:	c2 0c 00             	ret    $0xc

000136e0 <_usb_hcd_irq>:
   136e0:	55                   	push   %ebp
   136e1:	89 e5                	mov    %esp,%ebp
   136e3:	83 ec 18             	sub    $0x18,%esp
   136e6:	8b 45 0c             	mov    0xc(%ebp),%eax
   136e9:	89 45 fc             	mov    %eax,0xfffffffc(%ebp)
   136ec:	8b 45 fc             	mov    0xfffffffc(%ebp),%eax
   136ef:	8b 80 e0 00 00 00    	mov    0xe0(%eax),%eax
   136f5:	89 45 f8             	mov    %eax,0xfffffff8(%ebp)
   136f8:	8b 45 fc             	mov    0xfffffffc(%ebp),%eax
   136fb:	83 b8 e0 00 00 00 00 	cmpl   $0x0,0xe0(%eax)
   13702:	75 09                	jne    1370d <_usb_hcd_irq+0x2d>
   13704:	c7 45 f4 00 00 00 00 	movl   $0x0,0xfffffff4(%ebp)
   1370b:	eb 46                	jmp    13753 <_usb_hcd_irq+0x73>
   1370d:	83 ec 08             	sub    $0x8,%esp
   13710:	8b 45 fc             	mov    0xfffffffc(%ebp),%eax
   13713:	8b 40 74             	mov    0x74(%eax),%eax
   13716:	ff 75 10             	pushl  0x10(%ebp)
   13719:	ff 75 fc             	pushl  0xfffffffc(%ebp)
   1371c:	8b 40 04             	mov    0x4(%eax),%eax
   1371f:	ff d0                	call   *%eax
   13721:	83 c4 10             	add    $0x10,%esp
   13724:	8b 45 fc             	mov    0xfffffffc(%ebp),%eax
   13727:	8b 80 e0 00 00 00    	mov    0xe0(%eax),%eax
   1372d:	3b 45 f8             	cmp    0xfffffff8(%ebp),%eax
   13730:	74 1a                	je     1374c <_usb_hcd_irq+0x6c>
   13732:	8b 45 fc             	mov    0xfffffffc(%ebp),%eax
   13735:	83 b8 e0 00 00 00 00 	cmpl   $0x0,0xe0(%eax)
   1373c:	75 0e                	jne    1374c <_usb_hcd_irq+0x6c>
   1373e:	83 ec 0c             	sub    $0xc,%esp
   13741:	ff 75 fc             	pushl  0xfffffffc(%ebp)
   13744:	e8 31 00 00 00       	call   1377a <_usb_hc_died@4>
   13749:	83 c4 0c             	add    $0xc,%esp
   1374c:	c7 45 f4 01 00 00 00 	movl   $0x1,0xfffffff4(%ebp)
   13753:	8b 45 f4             	mov    0xfffffff4(%ebp),%eax
   13756:	c9                   	leave  
   13757:	c3                   	ret    

00013758 <_hcd_panic>:
   13758:	55                   	push   %ebp
   13759:	89 e5                	mov    %esp,%ebp
   1375b:	83 ec 08             	sub    $0x8,%esp
   1375e:	8b 45 08             	mov    0x8(%ebp),%eax
   13761:	89 45 fc             	mov    %eax,0xfffffffc(%ebp)
   13764:	83 ec 0c             	sub    $0xc,%esp
   13767:	8b 45 fc             	mov    0xfffffffc(%ebp),%eax
   1376a:	8b 40 74             	mov    0x74(%eax),%eax
   1376d:	ff 75 fc             	pushl  0xfffffffc(%ebp)
   13770:	8b 40 18             	mov    0x18(%eax),%eax
   13773:	ff d0                	call   *%eax
   13775:	83 c4 10             	add    $0x10,%esp
   13778:	c9                   	leave  
   13779:	c3                   	ret    

0001377a <_usb_hc_died@4>:
   1377a:	55                   	push   %ebp
   1377b:	89 e5                	mov    %esp,%ebp
   1377d:	83 ec 18             	sub    $0x18,%esp
   13780:	c7 45 ec 00 00 00 00 	movl   $0x0,0xffffffec(%ebp)
   13787:	8b 45 08             	mov    0x8(%ebp),%eax
   1378a:	83 c0 68             	add    $0x68,%eax
   1378d:	8b 00                	mov    (%eax),%eax
   1378f:	89 45 fc             	mov    %eax,0xfffffffc(%ebp)
   13792:	8b 45 08             	mov    0x8(%ebp),%eax
   13795:	83 c0 68             	add    $0x68,%eax
   13798:	3b 45 fc             	cmp    0xfffffffc(%ebp),%eax
   1379b:	74 4c                	je     137e9 <_usb_hc_died@4+0x6f>
   1379d:	8b 45 fc             	mov    0xfffffffc(%ebp),%eax
   137a0:	89 45 f4             	mov    %eax,0xfffffff4(%ebp)
   137a3:	8b 45 f4             	mov    0xfffffff4(%ebp),%eax
   137a6:	83 c0 08             	add    $0x8,%eax
   137a9:	8b 00                	mov    (%eax),%eax
   137ab:	89 45 f8             	mov    %eax,0xfffffff8(%ebp)
   137ae:	8b 45 f4             	mov    0xfffffff4(%ebp),%eax
   137b1:	83 c0 08             	add    $0x8,%eax
   137b4:	3b 45 f8             	cmp    0xfffffff8(%ebp),%eax
   137b7:	74 26                	je     137df <_usb_hc_died@4+0x65>
   137b9:	8b 45 f8             	mov    0xfffffff8(%ebp),%eax
   137bc:	83 e8 0c             	sub    $0xc,%eax
   137bf:	89 45 f0             	mov    %eax,0xfffffff0(%ebp)
   137c2:	8b 45 f0             	mov    0xfffffff0(%ebp),%eax
   137c5:	83 78 1c 8d          	cmpl   $0xffffff8d,0x1c(%eax)
   137c9:	75 0a                	jne    137d5 <_usb_hc_died@4+0x5b>
   137cb:	8b 45 f0             	mov    0xfffffff0(%ebp),%eax
   137ce:	c7 40 1c 94 ff ff ff 	movl   $0xffffff94,0x1c(%eax)
   137d5:	8b 45 f8             	mov    0xfffffff8(%ebp),%eax
   137d8:	8b 00                	mov    (%eax),%eax
   137da:	89 45 f8             	mov    %eax,0xfffffff8(%ebp)
   137dd:	eb cf                	jmp    137ae <_usb_hc_died@4+0x34>
   137df:	8b 45 fc             	mov    0xfffffffc(%ebp),%eax
   137e2:	8b 00                	mov    (%eax),%eax
   137e4:	89 45 fc             	mov    %eax,0xfffffffc(%ebp)
   137e7:	eb a9                	jmp    13792 <_usb_hc_died@4+0x18>
   137e9:	8b 45 08             	mov    0x8(%ebp),%eax
   137ec:	8b 40 58             	mov    0x58(%eax),%eax
   137ef:	89 45 f0             	mov    %eax,0xfffffff0(%ebp)
   137f2:	83 7d f0 00          	cmpl   $0x0,0xfffffff0(%ebp)
   137f6:	74 0a                	je     13802 <_usb_hc_died@4+0x88>
   137f8:	8b 45 f0             	mov    0xfffffff0(%ebp),%eax
   137fb:	c7 40 1c 94 ff ff ff 	movl   $0xffffff94,0x1c(%eax)
   13802:	8b 45 08             	mov    0x8(%ebp),%eax
   13805:	83 c0 70             	add    $0x70,%eax
   13808:	c7 00 58 37 01 00    	movl   $0x13758,(%eax)
   1380e:	83 ec 0c             	sub    $0xc,%esp
   13811:	8b 45 08             	mov    0x8(%ebp),%eax
   13814:	83 c0 70             	add    $0x70,%eax
   13817:	50                   	push   %eax
   13818:	e8 07 00 00 00       	call   13824 <_schedule_work>
   1381d:	83 c4 10             	add    $0x10,%esp
   13820:	c9                   	leave  
   13821:	c2 04 00             	ret    $0x4

00013824 <_schedule_work>:
   13824:	55                   	push   %ebp
   13825:	89 e5                	mov    %esp,%ebp
   13827:	5d                   	pop    %ebp
   13828:	c3                   	ret    
   13829:	90                   	nop    
   1382a:	90                   	nop    
   1382b:	90                   	nop    
   1382c:	90                   	nop    
   1382d:	90                   	nop    
   1382e:	90                   	nop    
   1382f:	90                   	nop    

00013830 <_usb_hcd_pci_probe@8>:
   13830:	55                   	push   %ebp
   13831:	89 e5                	mov    %esp,%ebp
   13833:	83 ec 38             	sub    $0x38,%esp
   13836:	e8 ea 3a 00 00       	call   17325 <_usb_disabled@0>
   1383b:	85 c0                	test   %eax,%eax
   1383d:	74 0c                	je     1384b <_usb_hcd_pci_probe@8+0x1b>
   1383f:	c7 45 d4 ed ff ff ff 	movl   $0xffffffed,0xffffffd4(%ebp)
   13846:	e9 16 04 00 00       	jmp    13c61 <_usb_hcd_pci_probe@8+0x431>
   1384b:	83 7d 0c 00          	cmpl   $0x0,0xc(%ebp)
   1384f:	74 0d                	je     1385e <_usb_hcd_pci_probe@8+0x2e>
   13851:	8b 45 0c             	mov    0xc(%ebp),%eax
   13854:	8b 40 18             	mov    0x18(%eax),%eax
   13857:	89 45 fc             	mov    %eax,0xfffffffc(%ebp)
   1385a:	85 c0                	test   %eax,%eax
   1385c:	75 0c                	jne    1386a <_usb_hcd_pci_probe@8+0x3a>
   1385e:	c7 45 d4 ea ff ff ff 	movl   $0xffffffea,0xffffffd4(%ebp)
   13865:	e9 f7 03 00 00       	jmp    13c61 <_usb_hcd_pci_probe@8+0x431>
   1386a:	83 ec 0c             	sub    $0xc,%esp
   1386d:	ff 75 08             	pushl  0x8(%ebp)
   13870:	e8 7b 04 00 00       	call   13cf0 <_pci_enable_device>
   13875:	83 c4 10             	add    $0x10,%esp
   13878:	85 c0                	test   %eax,%eax
   1387a:	79 0c                	jns    13888 <_usb_hcd_pci_probe@8+0x58>
   1387c:	c7 45 d4 ed ff ff ff 	movl   $0xffffffed,0xffffffd4(%ebp)
   13883:	e9 d9 03 00 00       	jmp    13c61 <_usb_hcd_pci_probe@8+0x431>
   13888:	8b 45 08             	mov    0x8(%ebp),%eax
   1388b:	83 78 0c 00          	cmpl   $0x0,0xc(%eax)
   1388f:	75 0c                	jne    1389d <_usb_hcd_pci_probe@8+0x6d>
   13891:	c7 45 d4 ed ff ff ff 	movl   $0xffffffed,0xffffffd4(%ebp)
   13898:	e9 c4 03 00 00       	jmp    13c61 <_usb_hcd_pci_probe@8+0x431>
   1389d:	8b 45 fc             	mov    0xfffffffc(%ebp),%eax
   138a0:	8b 40 08             	mov    0x8(%eax),%eax
   138a3:	83 e0 01             	and    $0x1,%eax
   138a6:	85 c0                	test   %eax,%eax
   138a8:	0f 84 ec 00 00 00    	je     1399a <_usb_hcd_pci_probe@8+0x16a>
   138ae:	c7 45 e4 00 00 00 00 	movl   $0x0,0xffffffe4(%ebp)
   138b5:	83 ec 08             	sub    $0x8,%esp
   138b8:	6a 00                	push   $0x0
   138ba:	ff 75 08             	pushl  0x8(%ebp)
   138bd:	e8 1c 04 00 00       	call   13cde <_pci_resource_start>
   138c2:	83 c4 10             	add    $0x10,%esp
   138c5:	89 45 f8             	mov    %eax,0xfffffff8(%ebp)
   138c8:	83 ec 08             	sub    $0x8,%esp
   138cb:	6a 00                	push   $0x0
   138cd:	ff 75 08             	pushl  0x8(%ebp)
   138d0:	e8 ff 03 00 00       	call   13cd4 <_pci_resource_len>
   138d5:	83 c4 10             	add    $0x10,%esp
   138d8:	89 45 f4             	mov    %eax,0xfffffff4(%ebp)
   138db:	83 ec 04             	sub    $0x4,%esp
   138de:	8b 45 fc             	mov    0xfffffffc(%ebp),%eax
   138e1:	ff 30                	pushl  (%eax)
   138e3:	ff 75 f4             	pushl  0xfffffff4(%ebp)
   138e6:	ff 75 f8             	pushl  0xfffffff8(%ebp)
   138e9:	e8 dc 03 00 00       	call   13cca <_request_mem_region>
   138ee:	83 c4 10             	add    $0x10,%esp
   138f1:	85 c0                	test   %eax,%eax
   138f3:	75 38                	jne    1392d <_usb_hcd_pci_probe@8+0xfd>
   138f5:	83 ec 04             	sub    $0x4,%esp
   138f8:	6a 5c                	push   $0x5c
   138fa:	68 c0 b0 01 00       	push   $0x1b0c0
   138ff:	68 ca b0 01 00       	push   $0x1b0ca
   13904:	e8 57 61 00 00       	call   19a60 <_DbgPrint>
   13909:	83 c4 10             	add    $0x10,%esp
   1390c:	83 ec 08             	sub    $0x8,%esp
   1390f:	68 c0 b0 01 00       	push   $0x1b0c0
   13914:	68 d4 b0 01 00       	push   $0x1b0d4
   13919:	e8 42 61 00 00       	call   19a60 <_DbgPrint>
   1391e:	83 c4 10             	add    $0x10,%esp
   13921:	c7 45 d4 f0 ff ff ff 	movl   $0xfffffff0,0xffffffd4(%ebp)
   13928:	e9 34 03 00 00       	jmp    13c61 <_usb_hcd_pci_probe@8+0x431>
   1392d:	83 ec 08             	sub    $0x8,%esp
   13930:	ff 75 f4             	pushl  0xfffffff4(%ebp)
   13933:	ff 75 f8             	pushl  0xfffffff8(%ebp)
   13936:	e8 87 03 00 00       	call   13cc2 <_ioremap_nocache>
   1393b:	83 c4 10             	add    $0x10,%esp
   1393e:	89 45 f0             	mov    %eax,0xfffffff0(%ebp)
   13941:	83 7d f0 00          	cmpl   $0x0,0xfffffff0(%ebp)
   13945:	0f 85 13 01 00 00    	jne    13a5e <_usb_hcd_pci_probe@8+0x22e>
   1394b:	83 ec 04             	sub    $0x4,%esp
   1394e:	6a 61                	push   $0x61
   13950:	68 c0 b0 01 00       	push   $0x1b0c0
   13955:	68 ca b0 01 00       	push   $0x1b0ca
   1395a:	e8 01 61 00 00       	call   19a60 <_DbgPrint>
   1395f:	83 c4 10             	add    $0x10,%esp
   13962:	83 ec 08             	sub    $0x8,%esp
   13965:	68 c0 b0 01 00       	push   $0x1b0c0
   1396a:	68 f8 b0 01 00       	push   $0x1b0f8
   1396f:	e8 ec 60 00 00       	call   19a60 <_DbgPrint>
   13974:	83 c4 10             	add    $0x10,%esp
   13977:	c7 45 e8 f2 ff ff ff 	movl   $0xfffffff2,0xffffffe8(%ebp)
   1397e:	83 ec 08             	sub    $0x8,%esp
   13981:	ff 75 f4             	pushl  0xfffffff4(%ebp)
   13984:	ff 75 f8             	pushl  0xfffffff8(%ebp)
   13987:	e8 2c 03 00 00       	call   13cb8 <_release_mem_region>
   1398c:	83 c4 10             	add    $0x10,%esp
   1398f:	8b 45 e8             	mov    0xffffffe8(%ebp),%eax
   13992:	89 45 d4             	mov    %eax,0xffffffd4(%ebp)
   13995:	e9 c7 02 00 00       	jmp    13c61 <_usb_hcd_pci_probe@8+0x431>
   1399a:	c7 45 f4 00 00 00 00 	movl   $0x0,0xfffffff4(%ebp)
   139a1:	c7 45 f8 00 00 00 00 	movl   $0x0,0xfffffff8(%ebp)
   139a8:	c7 45 e4 00 00 00 00 	movl   $0x0,0xffffffe4(%ebp)
   139af:	83 7d e4 00          	cmpl   $0x0,0xffffffe4(%ebp)
   139b3:	79 65                	jns    13a1a <_usb_hcd_pci_probe@8+0x1ea>
   139b5:	83 ec 08             	sub    $0x8,%esp
   139b8:	ff 75 e4             	pushl  0xffffffe4(%ebp)
   139bb:	ff 75 08             	pushl  0x8(%ebp)
   139be:	e8 e3 02 00 00       	call   13ca6 <_pci_resource_flags>
   139c3:	83 c4 10             	add    $0x10,%esp
   139c6:	83 e0 01             	and    $0x1,%eax
   139c9:	85 c0                	test   %eax,%eax
   139cb:	75 02                	jne    139cf <_usb_hcd_pci_probe@8+0x19f>
   139cd:	eb 44                	jmp    13a13 <_usb_hcd_pci_probe@8+0x1e3>
   139cf:	83 ec 08             	sub    $0x8,%esp
   139d2:	ff 75 e4             	pushl  0xffffffe4(%ebp)
   139d5:	ff 75 08             	pushl  0x8(%ebp)
   139d8:	e8 01 03 00 00       	call   13cde <_pci_resource_start>
   139dd:	83 c4 10             	add    $0x10,%esp
   139e0:	89 45 f8             	mov    %eax,0xfffffff8(%ebp)
   139e3:	83 ec 08             	sub    $0x8,%esp
   139e6:	ff 75 e4             	pushl  0xffffffe4(%ebp)
   139e9:	ff 75 08             	pushl  0x8(%ebp)
   139ec:	e8 e3 02 00 00       	call   13cd4 <_pci_resource_len>
   139f1:	83 c4 10             	add    $0x10,%esp
   139f4:	89 45 f4             	mov    %eax,0xfffffff4(%ebp)
   139f7:	83 ec 04             	sub    $0x4,%esp
   139fa:	8b 45 fc             	mov    0xfffffffc(%ebp),%eax
   139fd:	ff 30                	pushl  (%eax)
   139ff:	ff 75 f4             	pushl  0xfffffff4(%ebp)
   13a02:	ff 75 f8             	pushl  0xfffffff8(%ebp)
   13a05:	e8 92 02 00 00       	call   13c9c <_request_region>
   13a0a:	83 c4 10             	add    $0x10,%esp
   13a0d:	85 c0                	test   %eax,%eax
   13a0f:	74 02                	je     13a13 <_usb_hcd_pci_probe@8+0x1e3>
   13a11:	eb 07                	jmp    13a1a <_usb_hcd_pci_probe@8+0x1ea>
   13a13:	8d 45 e4             	lea    0xffffffe4(%ebp),%eax
   13a16:	ff 00                	incl   (%eax)
   13a18:	eb 95                	jmp    139af <_usb_hcd_pci_probe@8+0x17f>
   13a1a:	83 7d e4 00          	cmpl   $0x0,0xffffffe4(%ebp)
   13a1e:	75 38                	jne    13a58 <_usb_hcd_pci_probe@8+0x228>
   13a20:	83 ec 04             	sub    $0x4,%esp
   13a23:	6a 76                	push   $0x76
   13a25:	68 c0 b0 01 00       	push   $0x1b0c0
   13a2a:	68 ca b0 01 00       	push   $0x1b0ca
   13a2f:	e8 2c 60 00 00       	call   19a60 <_DbgPrint>
   13a34:	83 c4 10             	add    $0x10,%esp
   13a37:	83 ec 08             	sub    $0x8,%esp
   13a3a:	68 c0 b0 01 00       	push   $0x1b0c0
   13a3f:	68 18 b1 01 00       	push   $0x1b118
   13a44:	e8 17 60 00 00       	call   19a60 <_DbgPrint>
   13a49:	83 c4 10             	add    $0x10,%esp
   13a4c:	c7 45 d4 f0 ff ff ff 	movl   $0xfffffff0,0xffffffd4(%ebp)
   13a53:	e9 09 02 00 00       	jmp    13c61 <_usb_hcd_pci_probe@8+0x431>
   13a58:	8b 45 f8             	mov    0xfffffff8(%ebp),%eax
   13a5b:	89 45 f0             	mov    %eax,0xfffffff0(%ebp)
   13a5e:	83 ec 0c             	sub    $0xc,%esp
   13a61:	ff 75 08             	pushl  0x8(%ebp)
   13a64:	e8 29 02 00 00       	call   13c92 <_pci_set_master>
   13a69:	83 c4 10             	add    $0x10,%esp
   13a6c:	8b 45 fc             	mov    0xfffffffc(%ebp),%eax
   13a6f:	8b 40 20             	mov    0x20(%eax),%eax
   13a72:	ff d0                	call   *%eax
   13a74:	89 45 ec             	mov    %eax,0xffffffec(%ebp)
   13a77:	83 7d ec 00          	cmpl   $0x0,0xffffffec(%ebp)
   13a7b:	75 72                	jne    13aef <_usb_hcd_pci_probe@8+0x2bf>
   13a7d:	83 ec 04             	sub    $0x4,%esp
   13a80:	68 83 00 00 00       	push   $0x83
   13a85:	68 c0 b0 01 00       	push   $0x1b0c0
   13a8a:	68 ca b0 01 00       	push   $0x1b0ca
   13a8f:	e8 cc 5f 00 00       	call   19a60 <_DbgPrint>
   13a94:	83 c4 10             	add    $0x10,%esp
   13a97:	83 ec 08             	sub    $0x8,%esp
   13a9a:	68 c0 b0 01 00       	push   $0x1b0c0
   13a9f:	68 3b b1 01 00       	push   $0x1b13b
   13aa4:	e8 b7 5f 00 00       	call   19a60 <_DbgPrint>
   13aa9:	83 c4 10             	add    $0x10,%esp
   13aac:	c7 45 e8 f4 ff ff ff 	movl   $0xfffffff4,0xffffffe8(%ebp)
   13ab3:	8b 45 fc             	mov    0xfffffffc(%ebp),%eax
   13ab6:	8b 40 08             	mov    0x8(%eax),%eax
   13ab9:	83 e0 01             	and    $0x1,%eax
   13abc:	85 c0                	test   %eax,%eax
   13abe:	74 13                	je     13ad3 <_usb_hcd_pci_probe@8+0x2a3>
   13ac0:	83 ec 0c             	sub    $0xc,%esp
   13ac3:	ff 75 f0             	pushl  0xfffffff0(%ebp)
   13ac6:	e8 bd 01 00 00       	call   13c88 <_iounmap>
   13acb:	83 c4 10             	add    $0x10,%esp
   13ace:	e9 ab fe ff ff       	jmp    1397e <_usb_hcd_pci_probe@8+0x14e>
   13ad3:	83 ec 08             	sub    $0x8,%esp
   13ad6:	ff 75 f4             	pushl  0xfffffff4(%ebp)
   13ad9:	ff 75 f8             	pushl  0xfffffff8(%ebp)
   13adc:	e8 9d 01 00 00       	call   13c7e <_release_region>
   13ae1:	83 c4 10             	add    $0x10,%esp
   13ae4:	8b 45 e8             	mov    0xffffffe8(%ebp),%eax
   13ae7:	89 45 d4             	mov    %eax,0xffffffd4(%ebp)
   13aea:	e9 72 01 00 00       	jmp    13c61 <_usb_hcd_pci_probe@8+0x431>
   13aef:	83 ec 08             	sub    $0x8,%esp
   13af2:	ff 75 ec             	pushl  0xffffffec(%ebp)
   13af5:	ff 75 08             	pushl  0x8(%ebp)
   13af8:	e8 6b 01 00 00       	call   13c68 <_pci_set_drvdata>
   13afd:	83 c4 10             	add    $0x10,%esp
   13b00:	8b 55 ec             	mov    0xffffffec(%ebp),%edx
   13b03:	8b 45 fc             	mov    0xfffffffc(%ebp),%eax
   13b06:	89 42 74             	mov    %eax,0x74(%edx)
   13b09:	8b 55 ec             	mov    0xffffffec(%ebp),%edx
   13b0c:	8b 45 fc             	mov    0xfffffffc(%ebp),%eax
   13b0f:	8b 00                	mov    (%eax),%eax
   13b11:	89 42 50             	mov    %eax,0x50(%edx)
   13b14:	8b 55 ec             	mov    0xffffffec(%ebp),%edx
   13b17:	8b 45 08             	mov    0x8(%ebp),%eax
   13b1a:	89 82 84 00 00 00    	mov    %eax,0x84(%edx)
   13b20:	8b 55 ec             	mov    0xffffffec(%ebp),%edx
   13b23:	8b 45 08             	mov    0x8(%ebp),%eax
   13b26:	8b 40 10             	mov    0x10(%eax),%eax
   13b29:	89 42 08             	mov    %eax,0x8(%edx)
   13b2c:	8b 55 ec             	mov    0xffffffec(%ebp),%edx
   13b2f:	8b 45 08             	mov    0x8(%ebp),%eax
   13b32:	83 c0 14             	add    $0x14,%eax
   13b35:	89 42 4c             	mov    %eax,0x4c(%edx)
   13b38:	8b 55 ec             	mov    0xffffffec(%ebp),%edx
   13b3b:	8b 45 08             	mov    0x8(%ebp),%eax
   13b3e:	83 c0 14             	add    $0x14,%eax
   13b41:	89 02                	mov    %eax,(%edx)
   13b43:	8b 55 ec             	mov    0xffffffec(%ebp),%edx
   13b46:	8b 45 ec             	mov    0xffffffec(%ebp),%eax
   13b49:	8b 00                	mov    (%eax),%eax
   13b4b:	89 82 80 00 00 00    	mov    %eax,0x80(%edx)
   13b51:	83 ec 0c             	sub    $0xc,%esp
   13b54:	ff 75 ec             	pushl  0xffffffec(%ebp)
   13b57:	e8 c4 49 00 00       	call   18520 <_hcd_buffer_create>
   13b5c:	83 c4 10             	add    $0x10,%esp
   13b5f:	89 45 e8             	mov    %eax,0xffffffe8(%ebp)
   13b62:	83 7d e8 00          	cmpl   $0x0,0xffffffe8(%ebp)
   13b66:	74 16                	je     13b7e <_usb_hcd_pci_probe@8+0x34e>
   13b68:	83 ec 0c             	sub    $0xc,%esp
   13b6b:	8b 45 fc             	mov    0xfffffffc(%ebp),%eax
   13b6e:	ff 75 ec             	pushl  0xffffffec(%ebp)
   13b71:	8b 40 24             	mov    0x24(%eax),%eax
   13b74:	ff d0                	call   *%eax
   13b76:	83 c4 10             	add    $0x10,%esp
   13b79:	e9 35 ff ff ff       	jmp    13ab3 <_usb_hcd_pci_probe@8+0x283>
   13b7e:	83 ec 04             	sub    $0x4,%esp
   13b81:	8b 45 08             	mov    0x8(%ebp),%eax
   13b84:	ff 70 0c             	pushl  0xc(%eax)
   13b87:	68 54 b1 01 00       	push   $0x1b154
   13b8c:	8d 45 d8             	lea    0xffffffd8(%ebp),%eax
   13b8f:	50                   	push   %eax
   13b90:	e8 fb 5e 00 00       	call   19a90 <_sprintf>
   13b95:	83 c4 10             	add    $0x10,%esp
   13b98:	83 ec 0c             	sub    $0xc,%esp
   13b9b:	ff 75 ec             	pushl  0xffffffec(%ebp)
   13b9e:	8b 45 ec             	mov    0xffffffec(%ebp),%eax
   13ba1:	ff 70 50             	pushl  0x50(%eax)
   13ba4:	6a 00                	push   $0x0
   13ba6:	68 e0 36 01 00       	push   $0x136e0
   13bab:	8b 45 08             	mov    0x8(%ebp),%eax
   13bae:	ff 70 0c             	pushl  0xc(%eax)
   13bb1:	e8 e0 5d 00 00       	call   19996 <_my_request_irq>
   13bb6:	83 c4 20             	add    $0x20,%esp
   13bb9:	85 c0                	test   %eax,%eax
   13bbb:	74 09                	je     13bc6 <_usb_hcd_pci_probe@8+0x396>
   13bbd:	c7 45 e8 f0 ff ff ff 	movl   $0xfffffff0,0xffffffe8(%ebp)
   13bc4:	eb a2                	jmp    13b68 <_usb_hcd_pci_probe@8+0x338>
   13bc6:	8b 55 ec             	mov    0xffffffec(%ebp),%edx
   13bc9:	8b 45 08             	mov    0x8(%ebp),%eax
   13bcc:	8b 40 0c             	mov    0xc(%eax),%eax
   13bcf:	89 42 78             	mov    %eax,0x78(%edx)
   13bd2:	8b 55 ec             	mov    0xffffffec(%ebp),%edx
   13bd5:	8b 45 f0             	mov    0xfffffff0(%ebp),%eax
   13bd8:	89 42 7c             	mov    %eax,0x7c(%edx)
   13bdb:	8b 55 ec             	mov    0xffffffec(%ebp),%edx
   13bde:	8b 45 e4             	mov    0xffffffe4(%ebp),%eax
   13be1:	89 82 88 00 00 00    	mov    %eax,0x88(%edx)
   13be7:	83 ec 0c             	sub    $0xc,%esp
   13bea:	ff 75 ec             	pushl  0xffffffec(%ebp)
   13bed:	e8 ec e9 ff ff       	call   125de <_usb_bus_init@4>
   13bf2:	83 c4 0c             	add    $0xc,%esp
   13bf5:	8b 45 ec             	mov    0xffffffec(%ebp),%eax
   13bf8:	c7 40 20 20 a0 01 00 	movl   $0x1a020,0x20(%eax)
   13bff:	8b 55 ec             	mov    0xffffffec(%ebp),%edx
   13c02:	8b 45 ec             	mov    0xffffffec(%ebp),%eax
   13c05:	89 42 30             	mov    %eax,0x30(%edx)
   13c08:	8b 55 ec             	mov    0xffffffec(%ebp),%edx
   13c0b:	83 c2 68             	add    $0x68,%edx
   13c0e:	8b 45 ec             	mov    0xffffffec(%ebp),%eax
   13c11:	83 c0 68             	add    $0x68,%eax
   13c14:	89 02                	mov    %eax,(%edx)
   13c16:	8b 55 ec             	mov    0xffffffec(%ebp),%edx
   13c19:	83 c2 68             	add    $0x68,%edx
   13c1c:	8b 45 ec             	mov    0xffffffec(%ebp),%eax
   13c1f:	83 c0 68             	add    $0x68,%eax
   13c22:	89 42 04             	mov    %eax,0x4(%edx)
   13c25:	83 ec 0c             	sub    $0xc,%esp
   13c28:	ff 75 ec             	pushl  0xffffffec(%ebp)
   13c2b:	e8 a8 ea ff ff       	call   126d8 <_usb_register_bus@4>
   13c30:	83 c4 0c             	add    $0xc,%esp
   13c33:	83 ec 0c             	sub    $0xc,%esp
   13c36:	8b 45 fc             	mov    0xfffffffc(%ebp),%eax
   13c39:	ff 75 ec             	pushl  0xffffffec(%ebp)
   13c3c:	8b 40 0c             	mov    0xc(%eax),%eax
   13c3f:	ff d0                	call   *%eax
   13c41:	83 c4 10             	add    $0x10,%esp
   13c44:	89 45 e8             	mov    %eax,0xffffffe8(%ebp)
   13c47:	83 7d e8 00          	cmpl   $0x0,0xffffffe8(%ebp)
   13c4b:	79 0e                	jns    13c5b <_usb_hcd_pci_probe@8+0x42b>
   13c4d:	83 ec 0c             	sub    $0xc,%esp
   13c50:	ff 75 08             	pushl  0x8(%ebp)
   13c53:	e8 a2 00 00 00       	call   13cfa <_usb_hcd_pci_remove@4>
   13c58:	83 c4 0c             	add    $0xc,%esp
   13c5b:	8b 45 e8             	mov    0xffffffe8(%ebp),%eax
   13c5e:	89 45 d4             	mov    %eax,0xffffffd4(%ebp)
   13c61:	8b 45 d4             	mov    0xffffffd4(%ebp),%eax
   13c64:	c9                   	leave  
   13c65:	c2 08 00             	ret    $0x8

00013c68 <_pci_set_drvdata>:
   13c68:	55                   	push   %ebp
   13c69:	89 e5                	mov    %esp,%ebp
   13c6b:	8b 45 08             	mov    0x8(%ebp),%eax
   13c6e:	8b 55 0c             	mov    0xc(%ebp),%edx
   13c71:	89 90 e4 00 00 00    	mov    %edx,0xe4(%eax)
   13c77:	b8 00 00 00 00       	mov    $0x0,%eax
   13c7c:	5d                   	pop    %ebp
   13c7d:	c3                   	ret    

00013c7e <_release_region>:
   13c7e:	55                   	push   %ebp
   13c7f:	89 e5                	mov    %esp,%ebp
   13c81:	b8 00 00 00 00       	mov    $0x0,%eax
   13c86:	5d                   	pop    %ebp
   13c87:	c3                   	ret    

00013c88 <_iounmap>:
   13c88:	55                   	push   %ebp
   13c89:	89 e5                	mov    %esp,%ebp
   13c8b:	b8 00 00 00 00       	mov    $0x0,%eax
   13c90:	5d                   	pop    %ebp
   13c91:	c3                   	ret    

00013c92 <_pci_set_master>:
   13c92:	55                   	push   %ebp
   13c93:	89 e5                	mov    %esp,%ebp
   13c95:	b8 00 00 00 00       	mov    $0x0,%eax
   13c9a:	5d                   	pop    %ebp
   13c9b:	c3                   	ret    

00013c9c <_request_region>:
   13c9c:	55                   	push   %ebp
   13c9d:	89 e5                	mov    %esp,%ebp
   13c9f:	b8 00 00 00 00       	mov    $0x0,%eax
   13ca4:	5d                   	pop    %ebp
   13ca5:	c3                   	ret    

00013ca6 <_pci_resource_flags>:
   13ca6:	55                   	push   %ebp
   13ca7:	89 e5                	mov    %esp,%ebp
   13ca9:	8b 55 08             	mov    0x8(%ebp),%edx
   13cac:	8b 45 0c             	mov    0xc(%ebp),%eax
   13caf:	8b 84 82 d4 00 00 00 	mov    0xd4(%edx,%eax,4),%eax
   13cb6:	5d                   	pop    %ebp
   13cb7:	c3                   	ret    

00013cb8 <_release_mem_region>:
   13cb8:	55                   	push   %ebp
   13cb9:	89 e5                	mov    %esp,%ebp
   13cbb:	b8 00 00 00 00       	mov    $0x0,%eax
   13cc0:	5d                   	pop    %ebp
   13cc1:	c3                   	ret    

00013cc2 <_ioremap_nocache>:
   13cc2:	55                   	push   %ebp
   13cc3:	89 e5                	mov    %esp,%ebp
   13cc5:	8b 45 08             	mov    0x8(%ebp),%eax
   13cc8:	5d                   	pop    %ebp
   13cc9:	c3                   	ret    

00013cca <_request_mem_region>:
   13cca:	55                   	push   %ebp
   13ccb:	89 e5                	mov    %esp,%ebp
   13ccd:	b8 01 00 00 00       	mov    $0x1,%eax
   13cd2:	5d                   	pop    %ebp
   13cd3:	c3                   	ret    

00013cd4 <_pci_resource_len>:
   13cd4:	55                   	push   %ebp
   13cd5:	89 e5                	mov    %esp,%ebp
   13cd7:	b8 00 00 00 00       	mov    $0x0,%eax
   13cdc:	5d                   	pop    %ebp
   13cdd:	c3                   	ret    

00013cde <_pci_resource_start>:
   13cde:	55                   	push   %ebp
   13cdf:	89 e5                	mov    %esp,%ebp
   13ce1:	8b 55 08             	mov    0x8(%ebp),%edx
   13ce4:	8b 45 0c             	mov    0xc(%ebp),%eax
   13ce7:	8b 84 82 c4 00 00 00 	mov    0xc4(%edx,%eax,4),%eax
   13cee:	5d                   	pop    %ebp
   13cef:	c3                   	ret    

00013cf0 <_pci_enable_device>:
   13cf0:	55                   	push   %ebp
   13cf1:	89 e5                	mov    %esp,%ebp
   13cf3:	b8 00 00 00 00       	mov    $0x0,%eax
   13cf8:	5d                   	pop    %ebp
   13cf9:	c3                   	ret    

00013cfa <_usb_hcd_pci_remove@4>:
   13cfa:	55                   	push   %ebp
   13cfb:	89 e5                	mov    %esp,%ebp
   13cfd:	83 ec 08             	sub    $0x8,%esp
   13d00:	83 ec 0c             	sub    $0xc,%esp
   13d03:	ff 75 08             	pushl  0x8(%ebp)
   13d06:	e8 22 01 00 00       	call   13e2d <_pci_get_drvdata>
   13d0b:	83 c4 10             	add    $0x10,%esp
   13d0e:	89 45 fc             	mov    %eax,0xfffffffc(%ebp)
   13d11:	83 7d fc 00          	cmpl   $0x0,0xfffffffc(%ebp)
   13d15:	75 05                	jne    13d1c <_usb_hcd_pci_remove@4+0x22>
   13d17:	e9 0d 01 00 00       	jmp    13e29 <_usb_hcd_pci_remove@4+0x12f>
   13d1c:	8b 45 fc             	mov    0xfffffffc(%ebp),%eax
   13d1f:	8b 40 24             	mov    0x24(%eax),%eax
   13d22:	89 45 f8             	mov    %eax,0xfffffff8(%ebp)
   13d25:	8b 45 fc             	mov    0xfffffffc(%ebp),%eax
   13d28:	c7 80 e0 00 00 00 85 	movl   $0x85,0xe0(%eax)
   13d2f:	00 00 00 
   13d32:	83 ec 0c             	sub    $0xc,%esp
   13d35:	8d 45 f8             	lea    0xfffffff8(%ebp),%eax
   13d38:	50                   	push   %eax
   13d39:	e8 d3 28 00 00       	call   16611 <_usb_disconnect>
   13d3e:	83 c4 10             	add    $0x10,%esp
   13d41:	83 ec 0c             	sub    $0xc,%esp
   13d44:	8b 45 fc             	mov    0xfffffffc(%ebp),%eax
   13d47:	8b 40 74             	mov    0x74(%eax),%eax
   13d4a:	ff 75 fc             	pushl  0xfffffffc(%ebp)
   13d4d:	8b 40 18             	mov    0x18(%eax),%eax
   13d50:	ff d0                	call   *%eax
   13d52:	83 c4 10             	add    $0x10,%esp
   13d55:	83 ec 0c             	sub    $0xc,%esp
   13d58:	ff 75 fc             	pushl  0xfffffffc(%ebp)
   13d5b:	e8 ca 47 00 00       	call   1852a <_hcd_buffer_destroy>
   13d60:	83 c4 10             	add    $0x10,%esp
   13d63:	8b 45 fc             	mov    0xfffffffc(%ebp),%eax
   13d66:	c7 80 e0 00 00 00 00 	movl   $0x0,0xe0(%eax)
   13d6d:	00 00 00 
   13d70:	6a 00                	push   $0x0
   13d72:	ff 75 08             	pushl  0x8(%ebp)
   13d75:	e8 ee fe ff ff       	call   13c68 <_pci_set_drvdata>
   13d7a:	83 c4 08             	add    $0x8,%esp
   13d7d:	83 ec 08             	sub    $0x8,%esp
   13d80:	ff 75 fc             	pushl  0xfffffffc(%ebp)
   13d83:	8b 45 fc             	mov    0xfffffffc(%ebp),%eax
   13d86:	ff 70 78             	pushl  0x78(%eax)
   13d89:	e8 86 5c 00 00       	call   19a14 <_my_free_irq>
   13d8e:	83 c4 10             	add    $0x10,%esp
   13d91:	8b 45 fc             	mov    0xfffffffc(%ebp),%eax
   13d94:	8b 40 74             	mov    0x74(%eax),%eax
   13d97:	8b 40 08             	mov    0x8(%eax),%eax
   13d9a:	83 e0 01             	and    $0x1,%eax
   13d9d:	85 c0                	test   %eax,%eax
   13d9f:	74 34                	je     13dd5 <_usb_hcd_pci_remove@4+0xdb>
   13da1:	8b 45 fc             	mov    0xfffffffc(%ebp),%eax
   13da4:	ff 70 7c             	pushl  0x7c(%eax)
   13da7:	e8 dc fe ff ff       	call   13c88 <_iounmap>
   13dac:	83 c4 04             	add    $0x4,%esp
   13daf:	6a 00                	push   $0x0
   13db1:	ff 75 08             	pushl  0x8(%ebp)
   13db4:	e8 1b ff ff ff       	call   13cd4 <_pci_resource_len>
   13db9:	83 c4 08             	add    $0x8,%esp
   13dbc:	50                   	push   %eax
   13dbd:	6a 00                	push   $0x0
   13dbf:	ff 75 08             	pushl  0x8(%ebp)
   13dc2:	e8 17 ff ff ff       	call   13cde <_pci_resource_start>
   13dc7:	83 c4 08             	add    $0x8,%esp
   13dca:	50                   	push   %eax
   13dcb:	e8 e8 fe ff ff       	call   13cb8 <_release_mem_region>
   13dd0:	83 c4 08             	add    $0x8,%esp
   13dd3:	eb 32                	jmp    13e07 <_usb_hcd_pci_remove@4+0x10d>
   13dd5:	8b 45 fc             	mov    0xfffffffc(%ebp),%eax
   13dd8:	ff b0 88 00 00 00    	pushl  0x88(%eax)
   13dde:	ff 75 08             	pushl  0x8(%ebp)
   13de1:	e8 ee fe ff ff       	call   13cd4 <_pci_resource_len>
   13de6:	83 c4 08             	add    $0x8,%esp
   13de9:	50                   	push   %eax
   13dea:	8b 45 fc             	mov    0xfffffffc(%ebp),%eax
   13ded:	ff b0 88 00 00 00    	pushl  0x88(%eax)
   13df3:	ff 75 08             	pushl  0x8(%ebp)
   13df6:	e8 e3 fe ff ff       	call   13cde <_pci_resource_start>
   13dfb:	83 c4 08             	add    $0x8,%esp
   13dfe:	50                   	push   %eax
   13dff:	e8 7a fe ff ff       	call   13c7e <_release_region>
   13e04:	83 c4 08             	add    $0x8,%esp
   13e07:	83 ec 0c             	sub    $0xc,%esp
   13e0a:	ff 75 fc             	pushl  0xfffffffc(%ebp)
   13e0d:	e8 9e ea ff ff       	call   128b0 <_usb_deregister_bus@4>
   13e12:	83 c4 0c             	add    $0xc,%esp
   13e15:	83 ec 0c             	sub    $0xc,%esp
   13e18:	8b 45 fc             	mov    0xfffffffc(%ebp),%eax
   13e1b:	8b 40 74             	mov    0x74(%eax),%eax
   13e1e:	ff 75 fc             	pushl  0xfffffffc(%ebp)
   13e21:	8b 40 24             	mov    0x24(%eax),%eax
   13e24:	ff d0                	call   *%eax
   13e26:	83 c4 10             	add    $0x10,%esp
   13e29:	c9                   	leave  
   13e2a:	c2 04 00             	ret    $0x4

00013e2d <_pci_get_drvdata>:
   13e2d:	55                   	push   %ebp
   13e2e:	89 e5                	mov    %esp,%ebp
   13e30:	8b 45 08             	mov    0x8(%ebp),%eax
   13e33:	8b 80 e4 00 00 00    	mov    0xe4(%eax),%eax
   13e39:	5d                   	pop    %ebp
   13e3a:	c3                   	ret    
   13e3b:	90                   	nop    
   13e3c:	90                   	nop    
   13e3d:	90                   	nop    
   13e3e:	90                   	nop    
   13e3f:	90                   	nop    

00013e40 <_get_hub_descriptor>:
   13e40:	55                   	push   %ebp
   13e41:	89 e5                	mov    %esp,%ebp
   13e43:	83 ec 08             	sub    $0x8,%esp
   13e46:	83 ec 0c             	sub    $0xc,%esp
   13e49:	68 f4 01 00 00       	push   $0x1f4
   13e4e:	8b 45 10             	mov    0x10(%ebp),%eax
   13e51:	25 ff ff 00 00       	and    $0xffff,%eax
   13e56:	50                   	push   %eax
   13e57:	ff 75 0c             	pushl  0xc(%ebp)
   13e5a:	6a 00                	push   $0x0
   13e5c:	68 00 29 00 00       	push   $0x2900
   13e61:	68 a0 00 00 00       	push   $0xa0
   13e66:	6a 06                	push   $0x6
   13e68:	6a 00                	push   $0x0
   13e6a:	ff 75 08             	pushl  0x8(%ebp)
   13e6d:	e8 16 00 00 00       	call   13e88 <___create_pipe>
   13e72:	83 c4 08             	add    $0x8,%esp
   13e75:	0d 80 00 00 80       	or     $0x80000080,%eax
   13e7a:	50                   	push   %eax
   13e7b:	ff 75 08             	pushl  0x8(%ebp)
   13e7e:	e8 6d d3 ff ff       	call   111f0 <_usb_control_msg>
   13e83:	83 c4 30             	add    $0x30,%esp
   13e86:	c9                   	leave  
   13e87:	c3                   	ret    

00013e88 <___create_pipe>:
   13e88:	55                   	push   %ebp
   13e89:	89 e5                	mov    %esp,%ebp
   13e8b:	8b 45 08             	mov    0x8(%ebp),%eax
   13e8e:	8b 00                	mov    (%eax),%eax
   13e90:	c1 e0 08             	shl    $0x8,%eax
   13e93:	8b 55 0c             	mov    0xc(%ebp),%edx
   13e96:	c1 e2 0f             	shl    $0xf,%edx
   13e99:	09 d0                	or     %edx,%eax
   13e9b:	5d                   	pop    %ebp
   13e9c:	c3                   	ret    

00013e9d <_clear_hub_feature>:
   13e9d:	55                   	push   %ebp
   13e9e:	89 e5                	mov    %esp,%ebp
   13ea0:	83 ec 08             	sub    $0x8,%esp
   13ea3:	83 ec 0c             	sub    $0xc,%esp
   13ea6:	6a 64                	push   $0x64
   13ea8:	6a 00                	push   $0x0
   13eaa:	6a 00                	push   $0x0
   13eac:	6a 00                	push   $0x0
   13eae:	8b 45 0c             	mov    0xc(%ebp),%eax
   13eb1:	25 ff ff 00 00       	and    $0xffff,%eax
   13eb6:	50                   	push   %eax
   13eb7:	6a 20                	push   $0x20
   13eb9:	6a 01                	push   $0x1
   13ebb:	6a 00                	push   $0x0
   13ebd:	ff 75 08             	pushl  0x8(%ebp)
   13ec0:	e8 c3 ff ff ff       	call   13e88 <___create_pipe>
   13ec5:	83 c4 08             	add    $0x8,%esp
   13ec8:	0d 00 00 00 80       	or     $0x80000000,%eax
   13ecd:	50                   	push   %eax
   13ece:	ff 75 08             	pushl  0x8(%ebp)
   13ed1:	e8 1a d3 ff ff       	call   111f0 <_usb_control_msg>
   13ed6:	83 c4 30             	add    $0x30,%esp
   13ed9:	c9                   	leave  
   13eda:	c3                   	ret    

00013edb <_clear_port_feature>:
   13edb:	55                   	push   %ebp
   13edc:	89 e5                	mov    %esp,%ebp
   13ede:	83 ec 08             	sub    $0x8,%esp
   13ee1:	83 ec 0c             	sub    $0xc,%esp
   13ee4:	6a 64                	push   $0x64
   13ee6:	6a 00                	push   $0x0
   13ee8:	6a 00                	push   $0x0
   13eea:	8b 45 0c             	mov    0xc(%ebp),%eax
   13eed:	25 ff ff 00 00       	and    $0xffff,%eax
   13ef2:	50                   	push   %eax
   13ef3:	8b 45 10             	mov    0x10(%ebp),%eax
   13ef6:	25 ff ff 00 00       	and    $0xffff,%eax
   13efb:	50                   	push   %eax
   13efc:	6a 23                	push   $0x23
   13efe:	6a 01                	push   $0x1
   13f00:	6a 00                	push   $0x0
   13f02:	ff 75 08             	pushl  0x8(%ebp)
   13f05:	e8 7e ff ff ff       	call   13e88 <___create_pipe>
   13f0a:	83 c4 08             	add    $0x8,%esp
   13f0d:	0d 00 00 00 80       	or     $0x80000000,%eax
   13f12:	50                   	push   %eax
   13f13:	ff 75 08             	pushl  0x8(%ebp)
   13f16:	e8 d5 d2 ff ff       	call   111f0 <_usb_control_msg>
   13f1b:	83 c4 30             	add    $0x30,%esp
   13f1e:	c9                   	leave  
   13f1f:	c3                   	ret    

00013f20 <_set_port_feature>:
   13f20:	55                   	push   %ebp
   13f21:	89 e5                	mov    %esp,%ebp
   13f23:	83 ec 08             	sub    $0x8,%esp
   13f26:	83 ec 0c             	sub    $0xc,%esp
   13f29:	6a 64                	push   $0x64
   13f2b:	6a 00                	push   $0x0
   13f2d:	6a 00                	push   $0x0
   13f2f:	8b 45 0c             	mov    0xc(%ebp),%eax
   13f32:	25 ff ff 00 00       	and    $0xffff,%eax
   13f37:	50                   	push   %eax
   13f38:	8b 45 10             	mov    0x10(%ebp),%eax
   13f3b:	25 ff ff 00 00       	and    $0xffff,%eax
   13f40:	50                   	push   %eax
   13f41:	6a 23                	push   $0x23
   13f43:	6a 03                	push   $0x3
   13f45:	6a 00                	push   $0x0
   13f47:	ff 75 08             	pushl  0x8(%ebp)
   13f4a:	e8 39 ff ff ff       	call   13e88 <___create_pipe>
   13f4f:	83 c4 08             	add    $0x8,%esp
   13f52:	0d 00 00 00 80       	or     $0x80000000,%eax
   13f57:	50                   	push   %eax
   13f58:	ff 75 08             	pushl  0x8(%ebp)
   13f5b:	e8 90 d2 ff ff       	call   111f0 <_usb_control_msg>
   13f60:	83 c4 30             	add    $0x30,%esp
   13f63:	c9                   	leave  
   13f64:	c3                   	ret    

00013f65 <_get_hub_status>:
   13f65:	55                   	push   %ebp
   13f66:	89 e5                	mov    %esp,%ebp
   13f68:	83 ec 08             	sub    $0x8,%esp
   13f6b:	83 ec 0c             	sub    $0xc,%esp
   13f6e:	68 f4 01 00 00       	push   $0x1f4
   13f73:	6a 04                	push   $0x4
   13f75:	ff 75 0c             	pushl  0xc(%ebp)
   13f78:	6a 00                	push   $0x0
   13f7a:	6a 00                	push   $0x0
   13f7c:	68 a0 00 00 00       	push   $0xa0
   13f81:	6a 00                	push   $0x0
   13f83:	6a 00                	push   $0x0
   13f85:	ff 75 08             	pushl  0x8(%ebp)
   13f88:	e8 fb fe ff ff       	call   13e88 <___create_pipe>
   13f8d:	83 c4 08             	add    $0x8,%esp
   13f90:	0d 80 00 00 80       	or     $0x80000080,%eax
   13f95:	50                   	push   %eax
   13f96:	ff 75 08             	pushl  0x8(%ebp)
   13f99:	e8 52 d2 ff ff       	call   111f0 <_usb_control_msg>
   13f9e:	83 c4 30             	add    $0x30,%esp
   13fa1:	c9                   	leave  
   13fa2:	c3                   	ret    

00013fa3 <_get_port_status>:
   13fa3:	55                   	push   %ebp
   13fa4:	89 e5                	mov    %esp,%ebp
   13fa6:	83 ec 08             	sub    $0x8,%esp
   13fa9:	83 ec 0c             	sub    $0xc,%esp
   13fac:	68 f4 01 00 00       	push   $0x1f4
   13fb1:	6a 04                	push   $0x4
   13fb3:	ff 75 10             	pushl  0x10(%ebp)
   13fb6:	8b 45 0c             	mov    0xc(%ebp),%eax
   13fb9:	25 ff ff 00 00       	and    $0xffff,%eax
   13fbe:	50                   	push   %eax
   13fbf:	6a 00                	push   $0x0
   13fc1:	68 a3 00 00 00       	push   $0xa3
   13fc6:	6a 00                	push   $0x0
   13fc8:	6a 00                	push   $0x0
   13fca:	ff 75 08             	pushl  0x8(%ebp)
   13fcd:	e8 b6 fe ff ff       	call   13e88 <___create_pipe>
   13fd2:	83 c4 08             	add    $0x8,%esp
   13fd5:	0d 80 00 00 80       	or     $0x80000080,%eax
   13fda:	50                   	push   %eax
   13fdb:	ff 75 08             	pushl  0x8(%ebp)
   13fde:	e8 0d d2 ff ff       	call   111f0 <_usb_control_msg>
   13fe3:	83 c4 30             	add    $0x30,%esp
   13fe6:	c9                   	leave  
   13fe7:	c3                   	ret    

00013fe8 <_hub_irq>:
   13fe8:	55                   	push   %ebp
   13fe9:	89 e5                	mov    %esp,%ebp
   13feb:	83 ec 18             	sub    $0x18,%esp
   13fee:	8b 45 08             	mov    0x8(%ebp),%eax
   13ff1:	8b 40 54             	mov    0x54(%eax),%eax
   13ff4:	89 45 fc             	mov    %eax,0xfffffffc(%ebp)
   13ff7:	8b 45 08             	mov    0x8(%ebp),%eax
   13ffa:	8b 40 1c             	mov    0x1c(%eax),%eax
   13ffd:	89 45 f0             	mov    %eax,0xfffffff0(%ebp)
   14000:	83 7d f0 98          	cmpl   $0xffffff98,0xfffffff0(%ebp)
   14004:	0f 84 ad 00 00 00    	je     140b7 <_hub_irq+0xcf>
   1400a:	83 7d f0 98          	cmpl   $0xffffff98,0xfffffff0(%ebp)
   1400e:	7f 0c                	jg     1401c <_hub_irq+0x34>
   14010:	83 7d f0 94          	cmpl   $0xffffff94,0xfffffff0(%ebp)
   14014:	0f 84 9d 00 00 00    	je     140b7 <_hub_irq+0xcf>
   1401a:	eb 10                	jmp    1402c <_hub_irq+0x44>
   1401c:	83 7d f0 fe          	cmpl   $0xfffffffe,0xfffffff0(%ebp)
   14020:	0f 84 91 00 00 00    	je     140b7 <_hub_irq+0xcf>
   14026:	83 7d f0 00          	cmpl   $0x0,0xfffffff0(%ebp)
   1402a:	74 21                	je     1404d <_hub_irq+0x65>
   1402c:	8b 45 fc             	mov    0xfffffffc(%ebp),%eax
   1402f:	ff 40 18             	incl   0x18(%eax)
   14032:	83 78 18 09          	cmpl   $0x9,0x18(%eax)
   14036:	7e 63                	jle    1409b <_hub_irq+0xb3>
   14038:	8b 45 fc             	mov    0xfffffffc(%ebp),%eax
   1403b:	83 78 14 00          	cmpl   $0x0,0x14(%eax)
   1403f:	75 5a                	jne    1409b <_hub_irq+0xb3>
   14041:	8b 45 fc             	mov    0xfffffffc(%ebp),%eax
   14044:	8b 55 08             	mov    0x8(%ebp),%edx
   14047:	8b 52 1c             	mov    0x1c(%edx),%edx
   1404a:	89 50 14             	mov    %edx,0x14(%eax)
   1404d:	8b 45 fc             	mov    0xfffffffc(%ebp),%eax
   14050:	c7 40 18 00 00 00 00 	movl   $0x0,0x18(%eax)
   14057:	c7 45 f8 00 00 00 00 	movl   $0x0,0xfffffff8(%ebp)
   1405e:	83 ec 0c             	sub    $0xc,%esp
   14061:	8b 45 fc             	mov    0xfffffffc(%ebp),%eax
   14064:	83 c0 24             	add    $0x24,%eax
   14067:	50                   	push   %eax
   14068:	e8 91 00 00 00       	call   140fe <_list_empty>
   1406d:	83 c4 10             	add    $0x10,%esp
   14070:	85 c0                	test   %eax,%eax
   14072:	74 27                	je     1409b <_hub_irq+0xb3>
   14074:	83 ec 08             	sub    $0x8,%esp
   14077:	68 40 a0 01 00       	push   $0x1a040
   1407c:	8b 45 fc             	mov    0xfffffffc(%ebp),%eax
   1407f:	83 c0 24             	add    $0x24,%eax
   14082:	50                   	push   %eax
   14083:	e8 31 00 00 00       	call   140b9 <_list_add>
   14088:	83 c4 10             	add    $0x10,%esp
   1408b:	83 ec 0c             	sub    $0xc,%esp
   1408e:	68 50 c0 01 00       	push   $0x1c050
   14093:	e8 cd 57 00 00       	call   19865 <_my_wake_up>
   14098:	83 c4 10             	add    $0x10,%esp
   1409b:	83 ec 08             	sub    $0x8,%esp
   1409e:	6a 00                	push   $0x0
   140a0:	8b 45 fc             	mov    0xfffffffc(%ebp),%eax
   140a3:	ff 70 04             	pushl  0x4(%eax)
   140a6:	e8 f8 40 00 00       	call   181a3 <_usb_submit_urb@8>
   140ab:	83 c4 08             	add    $0x8,%esp
   140ae:	89 45 f4             	mov    %eax,0xfffffff4(%ebp)
   140b1:	83 7d f4 00          	cmpl   $0x0,0xfffffff4(%ebp)
   140b5:	74 00                	je     140b7 <_hub_irq+0xcf>
   140b7:	c9                   	leave  
   140b8:	c3                   	ret    

000140b9 <_list_add>:
   140b9:	55                   	push   %ebp
   140ba:	89 e5                	mov    %esp,%ebp
   140bc:	83 ec 08             	sub    $0x8,%esp
   140bf:	83 ec 04             	sub    $0x4,%esp
   140c2:	8b 45 0c             	mov    0xc(%ebp),%eax
   140c5:	ff 30                	pushl  (%eax)
   140c7:	ff 75 0c             	pushl  0xc(%ebp)
   140ca:	ff 75 08             	pushl  0x8(%ebp)
   140cd:	e8 05 00 00 00       	call   140d7 <___list_add>
   140d2:	83 c4 10             	add    $0x10,%esp
   140d5:	c9                   	leave  
   140d6:	c3                   	ret    

000140d7 <___list_add>:
   140d7:	55                   	push   %ebp
   140d8:	89 e5                	mov    %esp,%ebp
   140da:	8b 55 10             	mov    0x10(%ebp),%edx
   140dd:	8b 45 08             	mov    0x8(%ebp),%eax
   140e0:	89 42 04             	mov    %eax,0x4(%edx)
   140e3:	8b 55 08             	mov    0x8(%ebp),%edx
   140e6:	8b 45 10             	mov    0x10(%ebp),%eax
   140e9:	89 02                	mov    %eax,(%edx)
   140eb:	8b 55 08             	mov    0x8(%ebp),%edx
   140ee:	8b 45 0c             	mov    0xc(%ebp),%eax
   140f1:	89 42 04             	mov    %eax,0x4(%edx)
   140f4:	8b 55 0c             	mov    0xc(%ebp),%edx
   140f7:	8b 45 08             	mov    0x8(%ebp),%eax
   140fa:	89 02                	mov    %eax,(%edx)
   140fc:	5d                   	pop    %ebp
   140fd:	c3                   	ret    

000140fe <_list_empty>:
   140fe:	55                   	push   %ebp
   140ff:	89 e5                	mov    %esp,%ebp
   14101:	8b 45 08             	mov    0x8(%ebp),%eax
   14104:	8b 00                	mov    (%eax),%eax
   14106:	3b 45 08             	cmp    0x8(%ebp),%eax
   14109:	0f 94 c0             	sete   %al
   1410c:	25 ff 00 00 00       	and    $0xff,%eax
   14111:	5d                   	pop    %ebp
   14112:	c3                   	ret    

00014113 <_hub_tt_kevent>:
   14113:	55                   	push   %ebp
   14114:	89 e5                	mov    %esp,%ebp
   14116:	83 ec 28             	sub    $0x28,%esp
   14119:	8b 45 08             	mov    0x8(%ebp),%eax
   1411c:	89 45 fc             	mov    %eax,0xfffffffc(%ebp)
   1411f:	c7 45 f8 00 00 00 00 	movl   $0x0,0xfffffff8(%ebp)
   14126:	8b 45 fc             	mov    0xfffffffc(%ebp),%eax
   14129:	83 c0 40             	add    $0x40,%eax
   1412c:	50                   	push   %eax
   1412d:	e8 cc ff ff ff       	call   140fe <_list_empty>
   14132:	83 c4 04             	add    $0x4,%esp
   14135:	85 c0                	test   %eax,%eax
   14137:	75 7a                	jne    141b3 <_hub_tt_kevent+0xa0>
   14139:	8b 45 fc             	mov    0xfffffffc(%ebp),%eax
   1413c:	8b 40 40             	mov    0x40(%eax),%eax
   1413f:	89 45 f4             	mov    %eax,0xfffffff4(%ebp)
   14142:	8b 45 f4             	mov    0xfffffff4(%ebp),%eax
   14145:	89 45 f0             	mov    %eax,0xfffffff0(%ebp)
   14148:	83 ec 0c             	sub    $0xc,%esp
   1414b:	ff 75 f0             	pushl  0xfffffff0(%ebp)
   1414e:	e8 b9 00 00 00       	call   1420c <_list_del>
   14153:	83 c4 10             	add    $0x10,%esp
   14156:	8b 45 fc             	mov    0xfffffffc(%ebp),%eax
   14159:	8b 00                	mov    (%eax),%eax
   1415b:	8b 80 b8 00 00 00    	mov    0xb8(%eax),%eax
   14161:	89 45 e4             	mov    %eax,0xffffffe4(%ebp)
   14164:	8b 45 e4             	mov    0xffffffe4(%ebp),%eax
   14167:	2d c0 00 00 00       	sub    $0xc0,%eax
   1416c:	89 45 ec             	mov    %eax,0xffffffec(%ebp)
   1416f:	83 ec 04             	sub    $0x4,%esp
   14172:	8b 45 f0             	mov    0xfffffff0(%ebp),%eax
   14175:	8b 40 08             	mov    0x8(%eax),%eax
   14178:	25 ff ff 00 00       	and    $0xffff,%eax
   1417d:	50                   	push   %eax
   1417e:	8b 45 f0             	mov    0xfffffff0(%ebp),%eax
   14181:	66 8b 40 0c          	mov    0xc(%eax),%ax
   14185:	25 ff ff 00 00       	and    $0xffff,%eax
   1418a:	50                   	push   %eax
   1418b:	ff 75 ec             	pushl  0xffffffec(%ebp)
   1418e:	e8 22 00 00 00       	call   141b5 <_hub_clear_tt_buffer>
   14193:	83 c4 10             	add    $0x10,%esp
   14196:	89 45 e8             	mov    %eax,0xffffffe8(%ebp)
   14199:	c7 45 f8 00 00 00 00 	movl   $0x0,0xfffffff8(%ebp)
   141a0:	83 ec 0c             	sub    $0xc,%esp
   141a3:	ff 75 f0             	pushl  0xfffffff0(%ebp)
   141a6:	e8 95 58 00 00       	call   19a40 <_ExFreePool@4>
   141ab:	83 c4 0c             	add    $0xc,%esp
   141ae:	e9 73 ff ff ff       	jmp    14126 <_hub_tt_kevent+0x13>
   141b3:	c9                   	leave  
   141b4:	c3                   	ret    

000141b5 <_hub_clear_tt_buffer>:
   141b5:	55                   	push   %ebp
   141b6:	89 e5                	mov    %esp,%ebp
   141b8:	83 ec 08             	sub    $0x8,%esp
   141bb:	8b 45 0c             	mov    0xc(%ebp),%eax
   141be:	8b 55 10             	mov    0x10(%ebp),%edx
   141c1:	66 89 45 fe          	mov    %ax,0xfffffffe(%ebp)
   141c5:	66 89 55 fc          	mov    %dx,0xfffffffc(%ebp)
   141c9:	83 ec 0c             	sub    $0xc,%esp
   141cc:	6a 64                	push   $0x64
   141ce:	6a 00                	push   $0x0
   141d0:	6a 00                	push   $0x0
   141d2:	8b 45 fc             	mov    0xfffffffc(%ebp),%eax
   141d5:	25 ff ff 00 00       	and    $0xffff,%eax
   141da:	50                   	push   %eax
   141db:	66 8b 45 fe          	mov    0xfffffffe(%ebp),%ax
   141df:	25 ff ff 00 00       	and    $0xffff,%eax
   141e4:	50                   	push   %eax
   141e5:	68 83 00 00 00       	push   $0x83
   141ea:	6a 08                	push   $0x8
   141ec:	6a 00                	push   $0x0
   141ee:	ff 75 08             	pushl  0x8(%ebp)
   141f1:	e8 92 fc ff ff       	call   13e88 <___create_pipe>
   141f6:	83 c4 08             	add    $0x8,%esp
   141f9:	0d 80 00 00 80       	or     $0x80000080,%eax
   141fe:	50                   	push   %eax
   141ff:	ff 75 08             	pushl  0x8(%ebp)
   14202:	e8 e9 cf ff ff       	call   111f0 <_usb_control_msg>
   14207:	83 c4 30             	add    $0x30,%esp
   1420a:	c9                   	leave  
   1420b:	c3                   	ret    

0001420c <_list_del>:
   1420c:	55                   	push   %ebp
   1420d:	89 e5                	mov    %esp,%ebp
   1420f:	83 ec 08             	sub    $0x8,%esp
   14212:	83 ec 08             	sub    $0x8,%esp
   14215:	8b 45 08             	mov    0x8(%ebp),%eax
   14218:	ff 30                	pushl  (%eax)
   1421a:	8b 45 08             	mov    0x8(%ebp),%eax
   1421d:	ff 70 04             	pushl  0x4(%eax)
   14220:	e8 18 00 00 00       	call   1423d <___list_del>
   14225:	83 c4 10             	add    $0x10,%esp
   14228:	8b 45 08             	mov    0x8(%ebp),%eax
   1422b:	c7 00 00 00 00 00    	movl   $0x0,(%eax)
   14231:	8b 45 08             	mov    0x8(%ebp),%eax
   14234:	c7 40 04 00 00 00 00 	movl   $0x0,0x4(%eax)
   1423b:	c9                   	leave  
   1423c:	c3                   	ret    

0001423d <___list_del>:
   1423d:	55                   	push   %ebp
   1423e:	89 e5                	mov    %esp,%ebp
   14240:	8b 55 0c             	mov    0xc(%ebp),%edx
   14243:	8b 45 08             	mov    0x8(%ebp),%eax
   14246:	89 42 04             	mov    %eax,0x4(%edx)
   14249:	8b 55 08             	mov    0x8(%ebp),%edx
   1424c:	8b 45 0c             	mov    0xc(%ebp),%eax
   1424f:	89 02                	mov    %eax,(%edx)
   14251:	5d                   	pop    %ebp
   14252:	c3                   	ret    

00014253 <_usb_hub_tt_clear_buffer>:
   14253:	55                   	push   %ebp
   14254:	89 e5                	mov    %esp,%ebp
   14256:	83 ec 28             	sub    $0x28,%esp
   14259:	8b 45 08             	mov    0x8(%ebp),%eax
   1425c:	8b 40 1c             	mov    0x1c(%eax),%eax
   1425f:	89 45 fc             	mov    %eax,0xfffffffc(%ebp)
   14262:	83 ec 08             	sub    $0x8,%esp
   14265:	6a 10                	push   $0x10
   14267:	6a 01                	push   $0x1
   14269:	e8 c2 57 00 00       	call   19a30 <_ExAllocatePool@8>
   1426e:	83 c4 08             	add    $0x8,%esp
   14271:	89 45 f4             	mov    %eax,0xfffffff4(%ebp)
   14274:	8b 45 f4             	mov    0xfffffff4(%ebp),%eax
   14277:	85 c0                	test   %eax,%eax
   14279:	75 05                	jne    14280 <_usb_hub_tt_clear_buffer+0x2d>
   1427b:	e9 d3 00 00 00       	jmp    14353 <_usb_hub_tt_clear_buffer+0x100>
   14280:	8b 45 f4             	mov    0xfffffff4(%ebp),%eax
   14283:	89 45 f0             	mov    %eax,0xfffffff0(%ebp)
   14286:	8b 45 fc             	mov    0xfffffffc(%ebp),%eax
   14289:	83 78 04 00          	cmpl   $0x0,0x4(%eax)
   1428d:	74 0b                	je     1429a <_usb_hub_tt_clear_buffer+0x47>
   1428f:	8b 45 08             	mov    0x8(%ebp),%eax
   14292:	8b 40 20             	mov    0x20(%eax),%eax
   14295:	89 45 ec             	mov    %eax,0xffffffec(%ebp)
   14298:	eb 07                	jmp    142a1 <_usb_hub_tt_clear_buffer+0x4e>
   1429a:	c7 45 ec 01 00 00 00 	movl   $0x1,0xffffffec(%ebp)
   142a1:	8b 45 ec             	mov    0xffffffec(%ebp),%eax
   142a4:	8b 55 f0             	mov    0xfffffff0(%ebp),%edx
   142a7:	89 42 08             	mov    %eax,0x8(%edx)
   142aa:	8b 55 f4             	mov    0xfffffff4(%ebp),%edx
   142ad:	8b 45 0c             	mov    0xc(%ebp),%eax
   142b0:	c1 f8 0f             	sar    $0xf,%eax
   142b3:	83 e0 0f             	and    $0xf,%eax
   142b6:	66 89 42 0c          	mov    %ax,0xc(%edx)
   142ba:	8b 4d f4             	mov    0xfffffff4(%ebp),%ecx
   142bd:	8b 55 f4             	mov    0xfffffff4(%ebp),%edx
   142c0:	8b 45 08             	mov    0x8(%ebp),%eax
   142c3:	8b 00                	mov    (%eax),%eax
   142c5:	c1 e0 04             	shl    $0x4,%eax
   142c8:	66 0b 42 0c          	or     0xc(%edx),%ax
   142cc:	66 89 41 0c          	mov    %ax,0xc(%ecx)
   142d0:	8b 55 f4             	mov    0xfffffff4(%ebp),%edx
   142d3:	89 55 e8             	mov    %edx,0xffffffe8(%ebp)
   142d6:	8b 45 f4             	mov    0xfffffff4(%ebp),%eax
   142d9:	66 8b 40 0c          	mov    0xc(%eax),%ax
   142dd:	25 ff ff 00 00       	and    $0xffff,%eax
   142e2:	89 45 e4             	mov    %eax,0xffffffe4(%ebp)
   142e5:	8b 45 0c             	mov    0xc(%ebp),%eax
   142e8:	c1 f8 1e             	sar    $0x1e,%eax
   142eb:	83 e0 03             	and    $0x3,%eax
   142ee:	83 f8 02             	cmp    $0x2,%eax
   142f1:	74 07                	je     142fa <_usb_hub_tt_clear_buffer+0xa7>
   142f3:	81 4d e4 00 10 00 00 	orl    $0x1000,0xffffffe4(%ebp)
   142fa:	8b 55 e4             	mov    0xffffffe4(%ebp),%edx
   142fd:	8b 45 e8             	mov    0xffffffe8(%ebp),%eax
   14300:	66 89 50 0c          	mov    %dx,0xc(%eax)
   14304:	8b 45 0c             	mov    0xc(%ebp),%eax
   14307:	c1 e8 07             	shr    $0x7,%eax
   1430a:	83 e0 01             	and    $0x1,%eax
   1430d:	85 c0                	test   %eax,%eax
   1430f:	74 14                	je     14325 <_usb_hub_tt_clear_buffer+0xd2>
   14311:	8b 45 f4             	mov    0xfffffff4(%ebp),%eax
   14314:	8b 55 f4             	mov    0xfffffff4(%ebp),%edx
   14317:	66 8b 52 0c          	mov    0xc(%edx),%dx
   1431b:	81 ca 00 80 ff ff    	or     $0xffff8000,%edx
   14321:	66 89 50 0c          	mov    %dx,0xc(%eax)
   14325:	c7 45 f8 00 00 00 00 	movl   $0x0,0xfffffff8(%ebp)
   1432c:	83 ec 08             	sub    $0x8,%esp
   1432f:	8b 45 fc             	mov    0xfffffffc(%ebp),%eax
   14332:	83 c0 0c             	add    $0xc,%eax
   14335:	50                   	push   %eax
   14336:	ff 75 f4             	pushl  0xfffffff4(%ebp)
   14339:	e8 1c 00 00 00       	call   1435a <_list_add_tail>
   1433e:	83 c4 10             	add    $0x10,%esp
   14341:	83 ec 0c             	sub    $0xc,%esp
   14344:	8b 45 fc             	mov    0xfffffffc(%ebp),%eax
   14347:	83 c0 14             	add    $0x14,%eax
   1434a:	50                   	push   %eax
   1434b:	e8 05 00 00 00       	call   14355 <_schedule_work>
   14350:	83 c4 10             	add    $0x10,%esp
   14353:	c9                   	leave  
   14354:	c3                   	ret    

00014355 <_schedule_work>:
   14355:	55                   	push   %ebp
   14356:	89 e5                	mov    %esp,%ebp
   14358:	5d                   	pop    %ebp
   14359:	c3                   	ret    

0001435a <_list_add_tail>:
   1435a:	55                   	push   %ebp
   1435b:	89 e5                	mov    %esp,%ebp
   1435d:	ff 75 0c             	pushl  0xc(%ebp)
   14360:	8b 45 0c             	mov    0xc(%ebp),%eax
   14363:	ff 70 04             	pushl  0x4(%eax)
   14366:	ff 75 08             	pushl  0x8(%ebp)
   14369:	e8 69 fd ff ff       	call   140d7 <___list_add>
   1436e:	83 c4 0c             	add    $0xc,%esp
   14371:	c9                   	leave  
   14372:	c3                   	ret    

00014373 <_hub_power_on>:
   14373:	55                   	push   %ebp
   14374:	89 e5                	mov    %esp,%ebp
   14376:	83 ec 18             	sub    $0x18,%esp
   14379:	8b 45 08             	mov    0x8(%ebp),%eax
   1437c:	8b 00                	mov    (%eax),%eax
   1437e:	8b 80 b8 00 00 00    	mov    0xb8(%eax),%eax
   14384:	89 45 f4             	mov    %eax,0xfffffff4(%ebp)
   14387:	8b 45 f4             	mov    0xfffffff4(%ebp),%eax
   1438a:	2d c0 00 00 00       	sub    $0xc0,%eax
   1438f:	89 45 fc             	mov    %eax,0xfffffffc(%ebp)
   14392:	c7 45 f8 00 00 00 00 	movl   $0x0,0xfffffff8(%ebp)
   14399:	8b 45 08             	mov    0x8(%ebp),%eax
   1439c:	8b 40 2c             	mov    0x2c(%eax),%eax
   1439f:	8a 40 02             	mov    0x2(%eax),%al
   143a2:	25 ff 00 00 00       	and    $0xff,%eax
   143a7:	3b 45 f8             	cmp    0xfffffff8(%ebp),%eax
   143aa:	7e 1c                	jle    143c8 <_hub_power_on+0x55>
   143ac:	83 ec 04             	sub    $0x4,%esp
   143af:	6a 08                	push   $0x8
   143b1:	8b 45 f8             	mov    0xfffffff8(%ebp),%eax
   143b4:	40                   	inc    %eax
   143b5:	50                   	push   %eax
   143b6:	ff 75 fc             	pushl  0xfffffffc(%ebp)
   143b9:	e8 62 fb ff ff       	call   13f20 <_set_port_feature>
   143be:	83 c4 10             	add    $0x10,%esp
   143c1:	8d 45 f8             	lea    0xfffffff8(%ebp),%eax
   143c4:	ff 00                	incl   (%eax)
   143c6:	eb d1                	jmp    14399 <_hub_power_on+0x26>
   143c8:	83 ec 0c             	sub    $0xc,%esp
   143cb:	8b 45 08             	mov    0x8(%ebp),%eax
   143ce:	8b 40 2c             	mov    0x2c(%eax),%eax
   143d1:	8a 40 05             	mov    0x5(%eax),%al
   143d4:	25 ff 00 00 00       	and    $0xff,%eax
   143d9:	01 c0                	add    %eax,%eax
   143db:	50                   	push   %eax
   143dc:	e8 cf 50 00 00       	call   194b0 <_wait_ms>
   143e1:	83 c4 10             	add    $0x10,%esp
   143e4:	c9                   	leave  
   143e5:	c3                   	ret    

000143e6 <_hub_hub_status>:
   143e6:	55                   	push   %ebp
   143e7:	89 e5                	mov    %esp,%ebp
   143e9:	83 ec 08             	sub    $0x8,%esp
   143ec:	8b 45 08             	mov    0x8(%ebp),%eax
   143ef:	8b 00                	mov    (%eax),%eax
   143f1:	8b 80 b8 00 00 00    	mov    0xb8(%eax),%eax
   143f7:	89 45 f8             	mov    %eax,0xfffffff8(%ebp)
   143fa:	8b 45 f8             	mov    0xfffffff8(%ebp),%eax
   143fd:	2d c0 00 00 00       	sub    $0xc0,%eax
   14402:	89 45 fc             	mov    %eax,0xfffffffc(%ebp)
   14405:	83 ec 08             	sub    $0x8,%esp
   14408:	8b 45 08             	mov    0x8(%ebp),%eax
   1440b:	ff 70 10             	pushl  0x10(%eax)
   1440e:	ff 75 fc             	pushl  0xfffffffc(%ebp)
   14411:	e8 4f fb ff ff       	call   13f65 <_get_hub_status>
   14416:	83 c4 10             	add    $0x10,%esp
   14419:	89 45 f8             	mov    %eax,0xfffffff8(%ebp)
   1441c:	83 7d f8 00          	cmpl   $0x0,0xfffffff8(%ebp)
   14420:	79 02                	jns    14424 <_hub_hub_status+0x3e>
   14422:	eb 26                	jmp    1444a <_hub_hub_status+0x64>
   14424:	8b 55 0c             	mov    0xc(%ebp),%edx
   14427:	8b 45 08             	mov    0x8(%ebp),%eax
   1442a:	8b 40 10             	mov    0x10(%eax),%eax
   1442d:	66 8b 00             	mov    (%eax),%ax
   14430:	66 89 02             	mov    %ax,(%edx)
   14433:	8b 55 10             	mov    0x10(%ebp),%edx
   14436:	8b 45 08             	mov    0x8(%ebp),%eax
   14439:	8b 40 10             	mov    0x10(%eax),%eax
   1443c:	66 8b 40 02          	mov    0x2(%eax),%ax
   14440:	66 89 02             	mov    %ax,(%edx)
   14443:	c7 45 f8 00 00 00 00 	movl   $0x0,0xfffffff8(%ebp)
   1444a:	8b 45 f8             	mov    0xfffffff8(%ebp),%eax
   1444d:	c9                   	leave  
   1444e:	c3                   	ret    

0001444f <_hub_configure>:
   1444f:	55                   	push   %ebp
   14450:	89 e5                	mov    %esp,%ebp
   14452:	53                   	push   %ebx
   14453:	83 ec 74             	sub    $0x74,%esp
   14456:	8b 45 08             	mov    0x8(%ebp),%eax
   14459:	8b 00                	mov    (%eax),%eax
   1445b:	8b 80 b8 00 00 00    	mov    0xb8(%eax),%eax
   14461:	89 45 f0             	mov    %eax,0xfffffff0(%ebp)
   14464:	8b 45 f0             	mov    0xfffffff0(%ebp),%eax
   14467:	2d c0 00 00 00       	sub    $0xc0,%eax
   1446c:	89 45 f4             	mov    %eax,0xfffffff4(%ebp)
   1446f:	8b 5d 08             	mov    0x8(%ebp),%ebx
   14472:	8b 45 08             	mov    0x8(%ebp),%eax
   14475:	83 c0 0c             	add    $0xc,%eax
   14478:	50                   	push   %eax
   14479:	6a 00                	push   $0x0
   1447b:	6a 03                	push   $0x3
   1447d:	ff 75 f4             	pushl  0xfffffff4(%ebp)
   14480:	e8 dd 2b 00 00       	call   17062 <_usb_buffer_alloc>
   14485:	83 c4 10             	add    $0x10,%esp
   14488:	89 43 08             	mov    %eax,0x8(%ebx)
   1448b:	8b 45 08             	mov    0x8(%ebp),%eax
   1448e:	83 78 08 00          	cmpl   $0x0,0x8(%eax)
   14492:	75 13                	jne    144a7 <_hub_configure+0x58>
   14494:	c7 45 dc 58 b1 01 00 	movl   $0x1b158,0xffffffdc(%ebp)
   1449b:	c7 45 e0 f4 ff ff ff 	movl   $0xfffffff4,0xffffffe0(%ebp)
   144a2:	e9 88 03 00 00       	jmp    1482f <_hub_configure+0x3e0>
   144a7:	8b 5d 08             	mov    0x8(%ebp),%ebx
   144aa:	83 ec 08             	sub    $0x8,%esp
   144ad:	6a 04                	push   $0x4
   144af:	6a 01                	push   $0x1
   144b1:	e8 7a 55 00 00       	call   19a30 <_ExAllocatePool@8>
   144b6:	83 c4 08             	add    $0x8,%esp
   144b9:	89 43 10             	mov    %eax,0x10(%ebx)
   144bc:	8b 45 08             	mov    0x8(%ebp),%eax
   144bf:	83 78 10 00          	cmpl   $0x0,0x10(%eax)
   144c3:	75 13                	jne    144d8 <_hub_configure+0x89>
   144c5:	c7 45 dc 78 b1 01 00 	movl   $0x1b178,0xffffffdc(%ebp)
   144cc:	c7 45 e0 f4 ff ff ff 	movl   $0xfffffff4,0xffffffe0(%ebp)
   144d3:	e9 57 03 00 00       	jmp    1482f <_hub_configure+0x3e0>
   144d8:	8b 5d 08             	mov    0x8(%ebp),%ebx
   144db:	83 ec 08             	sub    $0x8,%esp
   144de:	6a 0d                	push   $0xd
   144e0:	6a 01                	push   $0x1
   144e2:	e8 49 55 00 00       	call   19a30 <_ExAllocatePool@8>
   144e7:	83 c4 08             	add    $0x8,%esp
   144ea:	89 43 2c             	mov    %eax,0x2c(%ebx)
   144ed:	8b 45 08             	mov    0x8(%ebp),%eax
   144f0:	83 78 2c 00          	cmpl   $0x0,0x2c(%eax)
   144f4:	75 13                	jne    14509 <_hub_configure+0xba>
   144f6:	c7 45 dc 98 b1 01 00 	movl   $0x1b198,0xffffffdc(%ebp)
   144fd:	c7 45 e0 f4 ff ff ff 	movl   $0xfffffff4,0xffffffe0(%ebp)
   14504:	e9 26 03 00 00       	jmp    1482f <_hub_configure+0x3e0>
   14509:	83 ec 04             	sub    $0x4,%esp
   1450c:	6a 0d                	push   $0xd
   1450e:	8b 45 08             	mov    0x8(%ebp),%eax
   14511:	ff 70 2c             	pushl  0x2c(%eax)
   14514:	ff 75 f4             	pushl  0xfffffff4(%ebp)
   14517:	e8 24 f9 ff ff       	call   13e40 <_get_hub_descriptor>
   1451c:	83 c4 10             	add    $0x10,%esp
   1451f:	89 45 e0             	mov    %eax,0xffffffe0(%ebp)
   14522:	83 7d e0 00          	cmpl   $0x0,0xffffffe0(%ebp)
   14526:	79 0c                	jns    14534 <_hub_configure+0xe5>
   14528:	c7 45 dc b5 b1 01 00 	movl   $0x1b1b5,0xffffffdc(%ebp)
   1452f:	e9 fb 02 00 00       	jmp    1482f <_hub_configure+0x3e0>
   14534:	8b 45 08             	mov    0x8(%ebp),%eax
   14537:	8b 40 2c             	mov    0x2c(%eax),%eax
   1453a:	80 78 02 10          	cmpb   $0x10,0x2(%eax)
   1453e:	76 13                	jbe    14553 <_hub_configure+0x104>
   14540:	c7 45 dc cf b1 01 00 	movl   $0x1b1cf,0xffffffdc(%ebp)
   14547:	c7 45 e0 ed ff ff ff 	movl   $0xffffffed,0xffffffe0(%ebp)
   1454e:	e9 dc 02 00 00       	jmp    1482f <_hub_configure+0x3e0>
   14553:	83 ec 0c             	sub    $0xc,%esp
   14556:	ff 75 f4             	pushl  0xfffffff4(%ebp)
   14559:	e8 49 03 00 00       	call   148a7 <_hubdev>
   1455e:	83 c4 10             	add    $0x10,%esp
   14561:	89 45 f0             	mov    %eax,0xfffffff0(%ebp)
   14564:	8b 55 f4             	mov    0xfffffff4(%ebp),%edx
   14567:	8b 45 08             	mov    0x8(%ebp),%eax
   1456a:	8b 40 2c             	mov    0x2c(%eax),%eax
   1456d:	8a 40 02             	mov    0x2(%eax),%al
   14570:	25 ff 00 00 00       	and    $0xff,%eax
   14575:	89 82 ac 01 00 00    	mov    %eax,0x1ac(%edx)
   1457b:	8b 45 08             	mov    0x8(%ebp),%eax
   1457e:	8b 40 2c             	mov    0x2c(%eax),%eax
   14581:	66 8b 40 03          	mov    0x3(%eax),%ax
   14585:	25 ff ff 00 00       	and    $0xffff,%eax
   1458a:	c1 e8 02             	shr    $0x2,%eax
   1458d:	83 e0 01             	and    $0x1,%eax
   14590:	85 c0                	test   %eax,%eax
   14592:	0f 84 b5 00 00 00    	je     1464d <_hub_configure+0x1fe>
   14598:	c7 45 d8 00 00 00 00 	movl   $0x0,0xffffffd8(%ebp)
   1459f:	8b 45 f4             	mov    0xfffffff4(%ebp),%eax
   145a2:	8b 80 ac 01 00 00    	mov    0x1ac(%eax),%eax
   145a8:	3b 45 d8             	cmp    0xffffffd8(%ebp),%eax
   145ab:	0f 8e 88 00 00 00    	jle    14639 <_hub_configure+0x1ea>
   145b1:	8d 45 f8             	lea    0xfffffff8(%ebp),%eax
   145b4:	03 45 d8             	add    0xffffffd8(%ebp),%eax
   145b7:	83 e8 40             	sub    $0x40,%eax
   145ba:	89 45 b0             	mov    %eax,0xffffffb0(%ebp)
   145bd:	8b 45 08             	mov    0x8(%ebp),%eax
   145c0:	8b 40 2c             	mov    0x2c(%eax),%eax
   145c3:	89 45 a8             	mov    %eax,0xffffffa8(%ebp)
   145c6:	8b 45 d8             	mov    0xffffffd8(%ebp),%eax
   145c9:	40                   	inc    %eax
   145ca:	89 45 a4             	mov    %eax,0xffffffa4(%ebp)
   145cd:	83 7d a4 00          	cmpl   $0x0,0xffffffa4(%ebp)
   145d1:	79 04                	jns    145d7 <_hub_configure+0x188>
   145d3:	83 45 a4 07          	addl   $0x7,0xffffffa4(%ebp)
   145d7:	8b 45 a4             	mov    0xffffffa4(%ebp),%eax
   145da:	c1 f8 03             	sar    $0x3,%eax
   145dd:	8b 4d a8             	mov    0xffffffa8(%ebp),%ecx
   145e0:	ba 00 00 00 00       	mov    $0x0,%edx
   145e5:	8a 54 08 07          	mov    0x7(%eax,%ecx,1),%dl
   145e9:	89 55 a0             	mov    %edx,0xffffffa0(%ebp)
   145ec:	8b 45 d8             	mov    0xffffffd8(%ebp),%eax
   145ef:	40                   	inc    %eax
   145f0:	89 45 9c             	mov    %eax,0xffffff9c(%ebp)
   145f3:	8b 55 9c             	mov    0xffffff9c(%ebp),%edx
   145f6:	89 55 98             	mov    %edx,0xffffff98(%ebp)
   145f9:	83 7d 98 00          	cmpl   $0x0,0xffffff98(%ebp)
   145fd:	79 04                	jns    14603 <_hub_configure+0x1b4>
   145ff:	83 45 98 07          	addl   $0x7,0xffffff98(%ebp)
   14603:	8b 45 98             	mov    0xffffff98(%ebp),%eax
   14606:	c1 f8 03             	sar    $0x3,%eax
   14609:	c1 e0 03             	shl    $0x3,%eax
   1460c:	8b 4d 9c             	mov    0xffffff9c(%ebp),%ecx
   1460f:	29 c1                	sub    %eax,%ecx
   14611:	8b 45 a0             	mov    0xffffffa0(%ebp),%eax
   14614:	d3 f8                	sar    %cl,%eax
   14616:	83 e0 01             	and    $0x1,%eax
   14619:	85 c0                	test   %eax,%eax
   1461b:	74 06                	je     14623 <_hub_configure+0x1d4>
   1461d:	c6 45 af 46          	movb   $0x46,0xffffffaf(%ebp)
   14621:	eb 04                	jmp    14627 <_hub_configure+0x1d8>
   14623:	c6 45 af 52          	movb   $0x52,0xffffffaf(%ebp)
   14627:	8a 4d af             	mov    0xffffffaf(%ebp),%cl
   1462a:	8b 45 b0             	mov    0xffffffb0(%ebp),%eax
   1462d:	88 08                	mov    %cl,(%eax)
   1462f:	8d 45 d8             	lea    0xffffffd8(%ebp),%eax
   14632:	ff 00                	incl   (%eax)
   14634:	e9 66 ff ff ff       	jmp    1459f <_hub_configure+0x150>
   14639:	8b 45 f4             	mov    0xfffffff4(%ebp),%eax
   1463c:	8d 55 f8             	lea    0xfffffff8(%ebp),%edx
   1463f:	03 90 ac 01 00 00    	add    0x1ac(%eax),%edx
   14645:	89 d0                	mov    %edx,%eax
   14647:	83 e8 40             	sub    $0x40,%eax
   1464a:	c6 00 00             	movb   $0x0,(%eax)
   1464d:	8b 55 08             	mov    0x8(%ebp),%edx
   14650:	83 c2 40             	add    $0x40,%edx
   14653:	8b 45 08             	mov    0x8(%ebp),%eax
   14656:	83 c0 40             	add    $0x40,%eax
   14659:	89 02                	mov    %eax,(%edx)
   1465b:	8b 55 08             	mov    0x8(%ebp),%edx
   1465e:	83 c2 40             	add    $0x40,%edx
   14661:	8b 45 08             	mov    0x8(%ebp),%eax
   14664:	83 c0 40             	add    $0x40,%eax
   14667:	89 42 04             	mov    %eax,0x4(%edx)
   1466a:	8b 45 08             	mov    0x8(%ebp),%eax
   1466d:	83 c0 48             	add    $0x48,%eax
   14670:	c7 00 13 41 01 00    	movl   $0x14113,(%eax)
   14676:	8b 45 f4             	mov    0xfffffff4(%ebp),%eax
   14679:	b9 00 00 00 00       	mov    $0x0,%ecx
   1467e:	8a 88 76 01 00 00    	mov    0x176(%eax),%cl
   14684:	89 4d 94             	mov    %ecx,0xffffff94(%ebp)
   14687:	83 7d 94 01          	cmpl   $0x1,0xffffff94(%ebp)
   1468b:	74 08                	je     14695 <_hub_configure+0x246>
   1468d:	83 7d 94 02          	cmpl   $0x2,0xffffff94(%ebp)
   14691:	74 0d                	je     146a0 <_hub_configure+0x251>
   14693:	eb 1e                	jmp    146b3 <_hub_configure+0x264>
   14695:	8b 55 08             	mov    0x8(%ebp),%edx
   14698:	8b 45 f4             	mov    0xfffffff4(%ebp),%eax
   1469b:	89 42 34             	mov    %eax,0x34(%edx)
   1469e:	eb 13                	jmp    146b3 <_hub_configure+0x264>
   146a0:	8b 45 08             	mov    0x8(%ebp),%eax
   146a3:	8b 55 f4             	mov    0xfffffff4(%ebp),%edx
   146a6:	89 50 34             	mov    %edx,0x34(%eax)
   146a9:	8b 45 08             	mov    0x8(%ebp),%eax
   146ac:	c7 40 38 01 00 00 00 	movl   $0x1,0x38(%eax)
   146b3:	8b 45 08             	mov    0x8(%ebp),%eax
   146b6:	8b 40 2c             	mov    0x2c(%eax),%eax
   146b9:	66 8b 40 03          	mov    0x3(%eax),%ax
   146bd:	25 ff ff 00 00       	and    $0xffff,%eax
   146c2:	83 e0 60             	and    $0x60,%eax
   146c5:	85 c0                	test   %eax,%eax
   146c7:	74 02                	je     146cb <_hub_configure+0x27c>
   146c9:	eb 00                	jmp    146cb <_hub_configure+0x27c>
   146cb:	83 ec 04             	sub    $0x4,%esp
   146ce:	8d 45 ec             	lea    0xffffffec(%ebp),%eax
   146d1:	50                   	push   %eax
   146d2:	8d 45 ee             	lea    0xffffffee(%ebp),%eax
   146d5:	50                   	push   %eax
   146d6:	ff 75 08             	pushl  0x8(%ebp)
   146d9:	e8 08 fd ff ff       	call   143e6 <_hub_hub_status>
   146de:	83 c4 10             	add    $0x10,%esp
   146e1:	89 45 e0             	mov    %eax,0xffffffe0(%ebp)
   146e4:	83 7d e0 00          	cmpl   $0x0,0xffffffe0(%ebp)
   146e8:	79 0c                	jns    146f6 <_hub_configure+0x2a7>
   146ea:	c7 45 dc e7 b1 01 00 	movl   $0x1b1e7,0xffffffdc(%ebp)
   146f1:	e9 39 01 00 00       	jmp    1482f <_hub_configure+0x3e0>
   146f6:	8b 45 0c             	mov    0xc(%ebp),%eax
   146f9:	8a 40 02             	mov    0x2(%eax),%al
   146fc:	25 ff 00 00 00       	and    $0xff,%eax
   14701:	50                   	push   %eax
   14702:	ff 75 f4             	pushl  0xfffffff4(%ebp)
   14705:	e8 7e f7 ff ff       	call   13e88 <___create_pipe>
   1470a:	83 c4 08             	add    $0x8,%esp
   1470d:	0d 80 00 00 40       	or     $0x40000080,%eax
   14712:	89 45 e8             	mov    %eax,0xffffffe8(%ebp)
   14715:	8b 45 e8             	mov    0xffffffe8(%ebp),%eax
   14718:	c1 e8 07             	shr    $0x7,%eax
   1471b:	83 e0 01             	and    $0x1,%eax
   1471e:	85 c0                	test   %eax,%eax
   14720:	75 15                	jne    14737 <_hub_configure+0x2e8>
   14722:	8b 55 f4             	mov    0xfffffff4(%ebp),%edx
   14725:	8b 45 e8             	mov    0xffffffe8(%ebp),%eax
   14728:	c1 e8 0f             	shr    $0xf,%eax
   1472b:	83 e0 0f             	and    $0xf,%eax
   1472e:	8b 44 82 78          	mov    0x78(%edx,%eax,4),%eax
   14732:	89 45 90             	mov    %eax,0xffffff90(%ebp)
   14735:	eb 13                	jmp    1474a <_hub_configure+0x2fb>
   14737:	8b 55 f4             	mov    0xfffffff4(%ebp),%edx
   1473a:	8b 45 e8             	mov    0xffffffe8(%ebp),%eax
   1473d:	c1 e8 0f             	shr    $0xf,%eax
   14740:	83 e0 0f             	and    $0xf,%eax
   14743:	8b 44 82 38          	mov    0x38(%edx,%eax,4),%eax
   14747:	89 45 90             	mov    %eax,0xffffff90(%ebp)
   1474a:	8b 45 90             	mov    0xffffff90(%ebp),%eax
   1474d:	89 45 e4             	mov    %eax,0xffffffe4(%ebp)
   14750:	83 7d e4 03          	cmpl   $0x3,0xffffffe4(%ebp)
   14754:	76 07                	jbe    1475d <_hub_configure+0x30e>
   14756:	c7 45 e4 03 00 00 00 	movl   $0x3,0xffffffe4(%ebp)
   1475d:	8b 5d 08             	mov    0x8(%ebp),%ebx
   14760:	83 ec 08             	sub    $0x8,%esp
   14763:	6a 00                	push   $0x0
   14765:	6a 00                	push   $0x0
   14767:	e8 80 39 00 00       	call   180ec <_usb_alloc_urb@8>
   1476c:	83 c4 08             	add    $0x8,%esp
   1476f:	89 43 04             	mov    %eax,0x4(%ebx)
   14772:	8b 45 08             	mov    0x8(%ebp),%eax
   14775:	83 78 04 00          	cmpl   $0x0,0x4(%eax)
   14779:	75 13                	jne    1478e <_hub_configure+0x33f>
   1477b:	c7 45 dc fc b1 01 00 	movl   $0x1b1fc,0xffffffdc(%ebp)
   14782:	c7 45 e0 f4 ff ff ff 	movl   $0xfffffff4,0xffffffe0(%ebp)
   14789:	e9 a1 00 00 00       	jmp    1482f <_hub_configure+0x3e0>
   1478e:	8b 45 0c             	mov    0xc(%ebp),%eax
   14791:	8a 40 06             	mov    0x6(%eax),%al
   14794:	25 ff 00 00 00       	and    $0xff,%eax
   14799:	50                   	push   %eax
   1479a:	ff 75 08             	pushl  0x8(%ebp)
   1479d:	68 e8 3f 01 00       	push   $0x13fe8
   147a2:	ff 75 e4             	pushl  0xffffffe4(%ebp)
   147a5:	8b 45 08             	mov    0x8(%ebp),%eax
   147a8:	ff 70 08             	pushl  0x8(%eax)
   147ab:	ff 75 e8             	pushl  0xffffffe8(%ebp)
   147ae:	ff 75 f4             	pushl  0xfffffff4(%ebp)
   147b1:	8b 45 08             	mov    0x8(%ebp),%eax
   147b4:	ff 70 04             	pushl  0x4(%eax)
   147b7:	e8 81 00 00 00       	call   1483d <_usb_fill_int_urb>
   147bc:	83 c4 20             	add    $0x20,%esp
   147bf:	8b 45 08             	mov    0x8(%ebp),%eax
   147c2:	8b 50 04             	mov    0x4(%eax),%edx
   147c5:	8b 45 08             	mov    0x8(%ebp),%eax
   147c8:	8b 40 0c             	mov    0xc(%eax),%eax
   147cb:	89 42 28             	mov    %eax,0x28(%edx)
   147ce:	8b 45 08             	mov    0x8(%ebp),%eax
   147d1:	8b 50 04             	mov    0x4(%eax),%edx
   147d4:	8b 45 08             	mov    0x8(%ebp),%eax
   147d7:	8b 40 04             	mov    0x4(%eax),%eax
   147da:	8b 40 20             	mov    0x20(%eax),%eax
   147dd:	83 c8 04             	or     $0x4,%eax
   147e0:	89 42 20             	mov    %eax,0x20(%edx)
   147e3:	83 ec 08             	sub    $0x8,%esp
   147e6:	6a 00                	push   $0x0
   147e8:	8b 45 08             	mov    0x8(%ebp),%eax
   147eb:	ff 70 04             	pushl  0x4(%eax)
   147ee:	e8 b0 39 00 00       	call   181a3 <_usb_submit_urb@8>
   147f3:	83 c4 08             	add    $0x8,%esp
   147f6:	89 45 e0             	mov    %eax,0xffffffe0(%ebp)
   147f9:	83 7d e0 00          	cmpl   $0x0,0xffffffe0(%ebp)
   147fd:	74 09                	je     14808 <_hub_configure+0x3b9>
   147ff:	c7 45 dc 1c b2 01 00 	movl   $0x1b21c,0xffffffdc(%ebp)
   14806:	eb 27                	jmp    1482f <_hub_configure+0x3e0>
   14808:	83 ec 0c             	sub    $0xc,%esp
   1480b:	68 50 c0 01 00       	push   $0x1c050
   14810:	e8 50 50 00 00       	call   19865 <_my_wake_up>
   14815:	83 c4 10             	add    $0x10,%esp
   14818:	83 ec 0c             	sub    $0xc,%esp
   1481b:	ff 75 08             	pushl  0x8(%ebp)
   1481e:	e8 50 fb ff ff       	call   14373 <_hub_power_on>
   14823:	83 c4 10             	add    $0x10,%esp
   14826:	c7 45 b4 00 00 00 00 	movl   $0x0,0xffffffb4(%ebp)
   1482d:	eb 06                	jmp    14835 <_hub_configure+0x3e6>
   1482f:	8b 45 e0             	mov    0xffffffe0(%ebp),%eax
   14832:	89 45 b4             	mov    %eax,0xffffffb4(%ebp)
   14835:	8b 45 b4             	mov    0xffffffb4(%ebp),%eax
   14838:	8b 5d fc             	mov    0xfffffffc(%ebp),%ebx
   1483b:	c9                   	leave  
   1483c:	c3                   	ret    

0001483d <_usb_fill_int_urb>:
   1483d:	55                   	push   %ebp
   1483e:	89 e5                	mov    %esp,%ebp
   14840:	8b 55 08             	mov    0x8(%ebp),%edx
   14843:	8b 45 0c             	mov    0xc(%ebp),%eax
   14846:	89 42 14             	mov    %eax,0x14(%edx)
   14849:	8b 55 08             	mov    0x8(%ebp),%edx
   1484c:	8b 45 10             	mov    0x10(%ebp),%eax
   1484f:	89 42 18             	mov    %eax,0x18(%edx)
   14852:	8b 55 08             	mov    0x8(%ebp),%edx
   14855:	8b 45 14             	mov    0x14(%ebp),%eax
   14858:	89 42 24             	mov    %eax,0x24(%edx)
   1485b:	8b 55 08             	mov    0x8(%ebp),%edx
   1485e:	8b 45 18             	mov    0x18(%ebp),%eax
   14861:	89 42 2c             	mov    %eax,0x2c(%edx)
   14864:	8b 55 08             	mov    0x8(%ebp),%edx
   14867:	8b 45 1c             	mov    0x1c(%ebp),%eax
   1486a:	89 42 58             	mov    %eax,0x58(%edx)
   1486d:	8b 55 08             	mov    0x8(%ebp),%edx
   14870:	8b 45 20             	mov    0x20(%ebp),%eax
   14873:	89 42 54             	mov    %eax,0x54(%edx)
   14876:	8b 45 0c             	mov    0xc(%ebp),%eax
   14879:	83 78 18 03          	cmpl   $0x3,0x18(%eax)
   1487d:	75 13                	jne    14892 <_usb_fill_int_urb+0x55>
   1487f:	8b 55 08             	mov    0x8(%ebp),%edx
   14882:	8b 4d 24             	mov    0x24(%ebp),%ecx
   14885:	49                   	dec    %ecx
   14886:	b8 01 00 00 00       	mov    $0x1,%eax
   1488b:	d3 e0                	shl    %cl,%eax
   1488d:	89 42 48             	mov    %eax,0x48(%edx)
   14890:	eb 09                	jmp    1489b <_usb_fill_int_urb+0x5e>
   14892:	8b 55 08             	mov    0x8(%ebp),%edx
   14895:	8b 45 24             	mov    0x24(%ebp),%eax
   14898:	89 42 48             	mov    %eax,0x48(%edx)
   1489b:	8b 45 08             	mov    0x8(%ebp),%eax
   1489e:	c7 40 40 ff ff ff ff 	movl   $0xffffffff,0x40(%eax)
   148a5:	5d                   	pop    %ebp
   148a6:	c3                   	ret    

000148a7 <_hubdev>:
   148a7:	55                   	push   %ebp
   148a8:	89 e5                	mov    %esp,%ebp
   148aa:	8b 45 08             	mov    0x8(%ebp),%eax
   148ad:	8b 80 88 01 00 00    	mov    0x188(%eax),%eax
   148b3:	8b 40 0c             	mov    0xc(%eax),%eax
   148b6:	83 c0 18             	add    $0x18,%eax
   148b9:	5d                   	pop    %ebp
   148ba:	c3                   	ret    

000148bb <_hub_disconnect>:
   148bb:	55                   	push   %ebp
   148bc:	89 e5                	mov    %esp,%ebp
   148be:	83 ec 18             	sub    $0x18,%esp
   148c1:	83 ec 0c             	sub    $0xc,%esp
   148c4:	ff 75 08             	pushl  0x8(%ebp)
   148c7:	e8 66 01 00 00       	call   14a32 <_usb_get_intfdata>
   148cc:	83 c4 10             	add    $0x10,%esp
   148cf:	89 45 fc             	mov    %eax,0xfffffffc(%ebp)
   148d2:	83 7d fc 00          	cmpl   $0x0,0xfffffffc(%ebp)
   148d6:	75 05                	jne    148dd <_hub_disconnect+0x22>
   148d8:	e9 3f 01 00 00       	jmp    14a1c <_hub_disconnect+0x161>
   148dd:	83 ec 08             	sub    $0x8,%esp
   148e0:	6a 00                	push   $0x0
   148e2:	ff 75 08             	pushl  0x8(%ebp)
   148e5:	e8 34 01 00 00       	call   14a1e <_usb_set_intfdata>
   148ea:	83 c4 10             	add    $0x10,%esp
   148ed:	c7 45 f8 00 00 00 00 	movl   $0x0,0xfffffff8(%ebp)
   148f4:	83 ec 0c             	sub    $0xc,%esp
   148f7:	8b 45 fc             	mov    0xfffffffc(%ebp),%eax
   148fa:	83 c0 24             	add    $0x24,%eax
   148fd:	50                   	push   %eax
   148fe:	e8 09 f9 ff ff       	call   1420c <_list_del>
   14903:	83 c4 10             	add    $0x10,%esp
   14906:	8b 55 fc             	mov    0xfffffffc(%ebp),%edx
   14909:	83 c2 24             	add    $0x24,%edx
   1490c:	8b 45 fc             	mov    0xfffffffc(%ebp),%eax
   1490f:	83 c0 24             	add    $0x24,%eax
   14912:	89 02                	mov    %eax,(%edx)
   14914:	8b 55 fc             	mov    0xfffffffc(%ebp),%edx
   14917:	83 c2 24             	add    $0x24,%edx
   1491a:	8b 45 fc             	mov    0xfffffffc(%ebp),%eax
   1491d:	83 c0 24             	add    $0x24,%eax
   14920:	89 42 04             	mov    %eax,0x4(%edx)
   14923:	83 ec 0c             	sub    $0xc,%esp
   14926:	8b 45 fc             	mov    0xfffffffc(%ebp),%eax
   14929:	83 c0 1c             	add    $0x1c,%eax
   1492c:	50                   	push   %eax
   1492d:	e8 da f8 ff ff       	call   1420c <_list_del>
   14932:	83 c4 10             	add    $0x10,%esp
   14935:	8b 55 fc             	mov    0xfffffffc(%ebp),%edx
   14938:	83 c2 1c             	add    $0x1c,%edx
   1493b:	8b 45 fc             	mov    0xfffffffc(%ebp),%eax
   1493e:	83 c0 1c             	add    $0x1c,%eax
   14941:	89 02                	mov    %eax,(%edx)
   14943:	8b 55 fc             	mov    0xfffffffc(%ebp),%edx
   14946:	83 c2 1c             	add    $0x1c,%edx
   14949:	8b 45 fc             	mov    0xfffffffc(%ebp),%eax
   1494c:	83 c0 1c             	add    $0x1c,%eax
   1494f:	89 42 04             	mov    %eax,0x4(%edx)
   14952:	8b 45 fc             	mov    0xfffffffc(%ebp),%eax
   14955:	83 78 04 00          	cmpl   $0x0,0x4(%eax)
   14959:	74 2c                	je     14987 <_hub_disconnect+0xcc>
   1495b:	83 ec 0c             	sub    $0xc,%esp
   1495e:	8b 45 fc             	mov    0xfffffffc(%ebp),%eax
   14961:	ff 70 04             	pushl  0x4(%eax)
   14964:	e8 51 3b 00 00       	call   184ba <_usb_unlink_urb@4>
   14969:	83 c4 0c             	add    $0xc,%esp
   1496c:	83 ec 0c             	sub    $0xc,%esp
   1496f:	8b 45 fc             	mov    0xfffffffc(%ebp),%eax
   14972:	ff 70 04             	pushl  0x4(%eax)
   14975:	e8 bc 37 00 00       	call   18136 <_usb_free_urb@4>
   1497a:	83 c4 0c             	add    $0xc,%esp
   1497d:	8b 45 fc             	mov    0xfffffffc(%ebp),%eax
   14980:	c7 40 04 00 00 00 00 	movl   $0x0,0x4(%eax)
   14987:	8b 45 fc             	mov    0xfffffffc(%ebp),%eax
   1498a:	83 78 2c 00          	cmpl   $0x0,0x2c(%eax)
   1498e:	74 1b                	je     149ab <_hub_disconnect+0xf0>
   14990:	83 ec 0c             	sub    $0xc,%esp
   14993:	8b 45 fc             	mov    0xfffffffc(%ebp),%eax
   14996:	ff 70 2c             	pushl  0x2c(%eax)
   14999:	e8 a2 50 00 00       	call   19a40 <_ExFreePool@4>
   1499e:	83 c4 0c             	add    $0xc,%esp
   149a1:	8b 45 fc             	mov    0xfffffffc(%ebp),%eax
   149a4:	c7 40 2c 00 00 00 00 	movl   $0x0,0x2c(%eax)
   149ab:	8b 45 fc             	mov    0xfffffffc(%ebp),%eax
   149ae:	83 78 10 00          	cmpl   $0x0,0x10(%eax)
   149b2:	74 1b                	je     149cf <_hub_disconnect+0x114>
   149b4:	83 ec 0c             	sub    $0xc,%esp
   149b7:	8b 45 fc             	mov    0xfffffffc(%ebp),%eax
   149ba:	ff 70 10             	pushl  0x10(%eax)
   149bd:	e8 7e 50 00 00       	call   19a40 <_ExFreePool@4>
   149c2:	83 c4 0c             	add    $0xc,%esp
   149c5:	8b 45 fc             	mov    0xfffffffc(%ebp),%eax
   149c8:	c7 40 10 00 00 00 00 	movl   $0x0,0x10(%eax)
   149cf:	8b 45 fc             	mov    0xfffffffc(%ebp),%eax
   149d2:	83 78 08 00          	cmpl   $0x0,0x8(%eax)
   149d6:	74 36                	je     14a0e <_hub_disconnect+0x153>
   149d8:	8b 45 08             	mov    0x8(%ebp),%eax
   149db:	8b 80 b8 00 00 00    	mov    0xb8(%eax),%eax
   149e1:	89 45 f4             	mov    %eax,0xfffffff4(%ebp)
   149e4:	8b 55 f4             	mov    0xfffffff4(%ebp),%edx
   149e7:	81 ea c0 00 00 00    	sub    $0xc0,%edx
   149ed:	8b 45 fc             	mov    0xfffffffc(%ebp),%eax
   149f0:	ff 70 0c             	pushl  0xc(%eax)
   149f3:	8b 45 fc             	mov    0xfffffffc(%ebp),%eax
   149f6:	ff 70 08             	pushl  0x8(%eax)
   149f9:	6a 03                	push   $0x3
   149fb:	52                   	push   %edx
   149fc:	e8 d1 26 00 00       	call   170d2 <_usb_buffer_free>
   14a01:	83 c4 10             	add    $0x10,%esp
   14a04:	8b 45 fc             	mov    0xfffffffc(%ebp),%eax
   14a07:	c7 40 08 00 00 00 00 	movl   $0x0,0x8(%eax)
   14a0e:	83 ec 0c             	sub    $0xc,%esp
   14a11:	ff 75 fc             	pushl  0xfffffffc(%ebp)
   14a14:	e8 27 50 00 00       	call   19a40 <_ExFreePool@4>
   14a19:	83 c4 0c             	add    $0xc,%esp
   14a1c:	c9                   	leave  
   14a1d:	c3                   	ret    

00014a1e <_usb_set_intfdata>:
   14a1e:	55                   	push   %ebp
   14a1f:	89 e5                	mov    %esp,%ebp
   14a21:	8b 55 08             	mov    0x8(%ebp),%edx
   14a24:	83 c2 18             	add    $0x18,%edx
   14a27:	8b 45 0c             	mov    0xc(%ebp),%eax
   14a2a:	89 82 9c 00 00 00    	mov    %eax,0x9c(%edx)
   14a30:	5d                   	pop    %ebp
   14a31:	c3                   	ret    

00014a32 <_usb_get_intfdata>:
   14a32:	55                   	push   %ebp
   14a33:	89 e5                	mov    %esp,%ebp
   14a35:	8b 45 08             	mov    0x8(%ebp),%eax
   14a38:	83 c0 18             	add    $0x18,%eax
   14a3b:	8b 80 9c 00 00 00    	mov    0x9c(%eax),%eax
   14a41:	5d                   	pop    %ebp
   14a42:	c3                   	ret    

00014a43 <_hub_probe>:
   14a43:	55                   	push   %ebp
   14a44:	89 e5                	mov    %esp,%ebp
   14a46:	83 ec 28             	sub    $0x28,%esp
   14a49:	8b 4d 08             	mov    0x8(%ebp),%ecx
   14a4c:	8b 45 08             	mov    0x8(%ebp),%eax
   14a4f:	8b 50 04             	mov    0x4(%eax),%edx
   14a52:	89 d0                	mov    %edx,%eax
   14a54:	01 c0                	add    %eax,%eax
   14a56:	01 d0                	add    %edx,%eax
   14a58:	c1 e0 03             	shl    $0x3,%eax
   14a5b:	03 01                	add    (%ecx),%eax
   14a5d:	89 45 fc             	mov    %eax,0xfffffffc(%ebp)
   14a60:	8b 45 08             	mov    0x8(%ebp),%eax
   14a63:	8b 80 b8 00 00 00    	mov    0xb8(%eax),%eax
   14a69:	89 45 e8             	mov    %eax,0xffffffe8(%ebp)
   14a6c:	8b 45 e8             	mov    0xffffffe8(%ebp),%eax
   14a6f:	2d c0 00 00 00       	sub    $0xc0,%eax
   14a74:	89 45 f4             	mov    %eax,0xfffffff4(%ebp)
   14a77:	8b 45 fc             	mov    0xfffffffc(%ebp),%eax
   14a7a:	80 78 06 00          	cmpb   $0x0,0x6(%eax)
   14a7e:	74 15                	je     14a95 <_hub_probe+0x52>
   14a80:	8b 45 fc             	mov    0xfffffffc(%ebp),%eax
   14a83:	80 78 06 01          	cmpb   $0x1,0x6(%eax)
   14a87:	74 0c                	je     14a95 <_hub_probe+0x52>
   14a89:	c7 45 e4 fb ff ff ff 	movl   $0xfffffffb,0xffffffe4(%ebp)
   14a90:	e9 22 01 00 00       	jmp    14bb7 <_hub_probe+0x174>
   14a95:	8b 45 fc             	mov    0xfffffffc(%ebp),%eax
   14a98:	80 78 04 01          	cmpb   $0x1,0x4(%eax)
   14a9c:	74 02                	je     14aa0 <_hub_probe+0x5d>
   14a9e:	eb e9                	jmp    14a89 <_hub_probe+0x46>
   14aa0:	8b 45 fc             	mov    0xfffffffc(%ebp),%eax
   14aa3:	8b 40 0c             	mov    0xc(%eax),%eax
   14aa6:	89 45 f8             	mov    %eax,0xfffffff8(%ebp)
   14aa9:	8b 45 f8             	mov    0xfffffff8(%ebp),%eax
   14aac:	80 78 02 00          	cmpb   $0x0,0x2(%eax)
   14ab0:	78 02                	js     14ab4 <_hub_probe+0x71>
   14ab2:	eb d5                	jmp    14a89 <_hub_probe+0x46>
   14ab4:	8b 45 f8             	mov    0xfffffff8(%ebp),%eax
   14ab7:	8a 40 03             	mov    0x3(%eax),%al
   14aba:	25 ff 00 00 00       	and    $0xff,%eax
   14abf:	83 e0 03             	and    $0x3,%eax
   14ac2:	83 f8 03             	cmp    $0x3,%eax
   14ac5:	74 02                	je     14ac9 <_hub_probe+0x86>
   14ac7:	eb c0                	jmp    14a89 <_hub_probe+0x46>
   14ac9:	83 ec 08             	sub    $0x8,%esp
   14acc:	6a 4c                	push   $0x4c
   14ace:	6a 01                	push   $0x1
   14ad0:	e8 5b 4f 00 00       	call   19a30 <_ExAllocatePool@8>
   14ad5:	83 c4 08             	add    $0x8,%esp
   14ad8:	89 45 f0             	mov    %eax,0xfffffff0(%ebp)
   14adb:	83 7d f0 00          	cmpl   $0x0,0xfffffff0(%ebp)
   14adf:	75 0c                	jne    14aed <_hub_probe+0xaa>
   14ae1:	c7 45 e4 f4 ff ff ff 	movl   $0xfffffff4,0xffffffe4(%ebp)
   14ae8:	e9 ca 00 00 00       	jmp    14bb7 <_hub_probe+0x174>
   14aed:	83 ec 04             	sub    $0x4,%esp
   14af0:	6a 4c                	push   $0x4c
   14af2:	6a 00                	push   $0x0
   14af4:	ff 75 f0             	pushl  0xfffffff0(%ebp)
   14af7:	e8 54 4f 00 00       	call   19a50 <_memset>
   14afc:	83 c4 10             	add    $0x10,%esp
   14aff:	8b 55 f0             	mov    0xfffffff0(%ebp),%edx
   14b02:	83 c2 24             	add    $0x24,%edx
   14b05:	8b 45 f0             	mov    0xfffffff0(%ebp),%eax
   14b08:	83 c0 24             	add    $0x24,%eax
   14b0b:	89 02                	mov    %eax,(%edx)
   14b0d:	8b 55 f0             	mov    0xfffffff0(%ebp),%edx
   14b10:	83 c2 24             	add    $0x24,%edx
   14b13:	8b 45 f0             	mov    0xfffffff0(%ebp),%eax
   14b16:	83 c0 24             	add    $0x24,%eax
   14b19:	89 42 04             	mov    %eax,0x4(%edx)
   14b1c:	8b 55 f0             	mov    0xfffffff0(%ebp),%edx
   14b1f:	8b 45 08             	mov    0x8(%ebp),%eax
   14b22:	89 02                	mov    %eax,(%edx)
   14b24:	c7 45 ec 00 00 00 00 	movl   $0x0,0xffffffec(%ebp)
   14b2b:	8b 55 f0             	mov    0xfffffff0(%ebp),%edx
   14b2e:	83 c2 1c             	add    $0x1c,%edx
   14b31:	8b 45 f0             	mov    0xfffffff0(%ebp),%eax
   14b34:	83 c0 1c             	add    $0x1c,%eax
   14b37:	89 02                	mov    %eax,(%edx)
   14b39:	8b 55 f0             	mov    0xfffffff0(%ebp),%edx
   14b3c:	83 c2 1c             	add    $0x1c,%edx
   14b3f:	8b 45 f0             	mov    0xfffffff0(%ebp),%eax
   14b42:	83 c0 1c             	add    $0x1c,%eax
   14b45:	89 42 04             	mov    %eax,0x4(%edx)
   14b48:	83 ec 08             	sub    $0x8,%esp
   14b4b:	68 48 a0 01 00       	push   $0x1a048
   14b50:	8b 45 f0             	mov    0xfffffff0(%ebp),%eax
   14b53:	83 c0 1c             	add    $0x1c,%eax
   14b56:	50                   	push   %eax
   14b57:	e8 5d f5 ff ff       	call   140b9 <_list_add>
   14b5c:	83 c4 10             	add    $0x10,%esp
   14b5f:	ff 75 f0             	pushl  0xfffffff0(%ebp)
   14b62:	ff 75 08             	pushl  0x8(%ebp)
   14b65:	e8 b4 fe ff ff       	call   14a1e <_usb_set_intfdata>
   14b6a:	83 c4 08             	add    $0x8,%esp
   14b6d:	83 ec 08             	sub    $0x8,%esp
   14b70:	ff 75 f8             	pushl  0xfffffff8(%ebp)
   14b73:	ff 75 f0             	pushl  0xfffffff0(%ebp)
   14b76:	e8 d4 f8 ff ff       	call   1444f <_hub_configure>
   14b7b:	83 c4 10             	add    $0x10,%esp
   14b7e:	85 c0                	test   %eax,%eax
   14b80:	78 20                	js     14ba2 <_hub_probe+0x15f>
   14b82:	83 ec 08             	sub    $0x8,%esp
   14b85:	68 37 b2 01 00       	push   $0x1b237
   14b8a:	8b 45 08             	mov    0x8(%ebp),%eax
   14b8d:	83 c0 18             	add    $0x18,%eax
   14b90:	50                   	push   %eax
   14b91:	e8 0a 4f 00 00       	call   19aa0 <_strcpy>
   14b96:	83 c4 10             	add    $0x10,%esp
   14b99:	c7 45 e4 00 00 00 00 	movl   $0x0,0xffffffe4(%ebp)
   14ba0:	eb 15                	jmp    14bb7 <_hub_probe+0x174>
   14ba2:	83 ec 0c             	sub    $0xc,%esp
   14ba5:	ff 75 08             	pushl  0x8(%ebp)
   14ba8:	e8 0e fd ff ff       	call   148bb <_hub_disconnect>
   14bad:	83 c4 10             	add    $0x10,%esp
   14bb0:	c7 45 e4 ed ff ff ff 	movl   $0xffffffed,0xffffffe4(%ebp)
   14bb7:	8b 45 e4             	mov    0xffffffe4(%ebp),%eax
   14bba:	c9                   	leave  
   14bbb:	c3                   	ret    

00014bbc <_hub_ioctl>:
   14bbc:	55                   	push   %ebp
   14bbd:	89 e5                	mov    %esp,%ebp
   14bbf:	53                   	push   %ebx
   14bc0:	83 ec 14             	sub    $0x14,%esp
   14bc3:	8b 45 08             	mov    0x8(%ebp),%eax
   14bc6:	8b 80 b8 00 00 00    	mov    0xb8(%eax),%eax
   14bcc:	89 45 f4             	mov    %eax,0xfffffff4(%ebp)
   14bcf:	8b 45 f4             	mov    0xfffffff4(%ebp),%eax
   14bd2:	2d c0 00 00 00       	sub    $0xc0,%eax
   14bd7:	89 45 f8             	mov    %eax,0xfffffff8(%ebp)
   14bda:	8b 45 0c             	mov    0xc(%ebp),%eax
   14bdd:	3d d2 04 00 00       	cmp    $0x4d2,%eax
   14be2:	74 05                	je     14be9 <_hub_ioctl+0x2d>
   14be4:	e9 8a 00 00 00       	jmp    14c73 <_hub_ioctl+0xb7>
   14be9:	8b 45 10             	mov    0x10(%ebp),%eax
   14bec:	89 45 f4             	mov    %eax,0xfffffff4(%ebp)
   14bef:	c7 45 f0 00 00 00 00 	movl   $0x0,0xfffffff0(%ebp)
   14bf6:	8b 45 f8             	mov    0xfffffff8(%ebp),%eax
   14bf9:	83 38 00             	cmpl   $0x0,(%eax)
   14bfc:	7f 0b                	jg     14c09 <_hub_ioctl+0x4d>
   14bfe:	8b 45 f4             	mov    0xfffffff4(%ebp),%eax
   14c01:	c7 00 00 00 00 00    	movl   $0x0,(%eax)
   14c07:	eb 5f                	jmp    14c68 <_hub_ioctl+0xac>
   14c09:	8b 45 f4             	mov    0xfffffff4(%ebp),%eax
   14c0c:	8b 55 f8             	mov    0xfffffff8(%ebp),%edx
   14c0f:	8b 92 ac 01 00 00    	mov    0x1ac(%edx),%edx
   14c15:	89 10                	mov    %edx,(%eax)
   14c17:	c7 45 ec 00 00 00 00 	movl   $0x0,0xffffffec(%ebp)
   14c1e:	8b 45 f4             	mov    0xfffffff4(%ebp),%eax
   14c21:	8b 00                	mov    (%eax),%eax
   14c23:	3b 45 ec             	cmp    0xffffffec(%ebp),%eax
   14c26:	7e 40                	jle    14c68 <_hub_ioctl+0xac>
   14c28:	8b 55 f8             	mov    0xfffffff8(%ebp),%edx
   14c2b:	8b 45 ec             	mov    0xffffffec(%ebp),%eax
   14c2e:	83 bc 82 b0 01 00 00 	cmpl   $0x0,0x1b0(%edx,%eax,4)
   14c35:	00 
   14c36:	75 10                	jne    14c48 <_hub_ioctl+0x8c>
   14c38:	8b 55 f4             	mov    0xfffffff4(%ebp),%edx
   14c3b:	8b 45 ec             	mov    0xffffffec(%ebp),%eax
   14c3e:	c7 44 82 04 00 00 00 	movl   $0x0,0x4(%edx,%eax,4)
   14c45:	00 
   14c46:	eb 19                	jmp    14c61 <_hub_ioctl+0xa5>
   14c48:	8b 5d f4             	mov    0xfffffff4(%ebp),%ebx
   14c4b:	8b 4d ec             	mov    0xffffffec(%ebp),%ecx
   14c4e:	8b 55 f8             	mov    0xfffffff8(%ebp),%edx
   14c51:	8b 45 ec             	mov    0xffffffec(%ebp),%eax
   14c54:	8b 84 82 b0 01 00 00 	mov    0x1b0(%edx,%eax,4),%eax
   14c5b:	8b 00                	mov    (%eax),%eax
   14c5d:	89 44 8b 04          	mov    %eax,0x4(%ebx,%ecx,4)
   14c61:	8d 45 ec             	lea    0xffffffec(%ebp),%eax
   14c64:	ff 00                	incl   (%eax)
   14c66:	eb b6                	jmp    14c1e <_hub_ioctl+0x62>
   14c68:	8b 45 f4             	mov    0xfffffff4(%ebp),%eax
   14c6b:	8b 00                	mov    (%eax),%eax
   14c6d:	40                   	inc    %eax
   14c6e:	89 45 e8             	mov    %eax,0xffffffe8(%ebp)
   14c71:	eb 07                	jmp    14c7a <_hub_ioctl+0xbe>
   14c73:	c7 45 e8 da ff ff ff 	movl   $0xffffffda,0xffffffe8(%ebp)
   14c7a:	8b 45 e8             	mov    0xffffffe8(%ebp),%eax
   14c7d:	83 c4 14             	add    $0x14,%esp
   14c80:	5b                   	pop    %ebx
   14c81:	5d                   	pop    %ebp
   14c82:	c3                   	ret    

00014c83 <_hub_reset>:
   14c83:	55                   	push   %ebp
   14c84:	89 e5                	mov    %esp,%ebp
   14c86:	83 ec 18             	sub    $0x18,%esp
   14c89:	8b 45 08             	mov    0x8(%ebp),%eax
   14c8c:	8b 00                	mov    (%eax),%eax
   14c8e:	8b 80 b8 00 00 00    	mov    0xb8(%eax),%eax
   14c94:	89 45 f8             	mov    %eax,0xfffffff8(%ebp)
   14c97:	8b 45 f8             	mov    0xfffffff8(%ebp),%eax
   14c9a:	2d c0 00 00 00       	sub    $0xc0,%eax
   14c9f:	89 45 fc             	mov    %eax,0xfffffffc(%ebp)
   14ca2:	c7 45 f8 00 00 00 00 	movl   $0x0,0xfffffff8(%ebp)
   14ca9:	8b 45 08             	mov    0x8(%ebp),%eax
   14cac:	8b 40 2c             	mov    0x2c(%eax),%eax
   14caf:	8a 40 02             	mov    0x2(%eax),%al
   14cb2:	25 ff 00 00 00       	and    $0xff,%eax
   14cb7:	3b 45 f8             	cmp    0xfffffff8(%ebp),%eax
   14cba:	7e 31                	jle    14ced <_hub_reset+0x6a>
   14cbc:	8b 55 fc             	mov    0xfffffffc(%ebp),%edx
   14cbf:	8b 45 f8             	mov    0xfffffff8(%ebp),%eax
   14cc2:	83 bc 82 b0 01 00 00 	cmpl   $0x0,0x1b0(%edx,%eax,4)
   14cc9:	00 
   14cca:	74 1a                	je     14ce6 <_hub_reset+0x63>
   14ccc:	83 ec 0c             	sub    $0xc,%esp
   14ccf:	8b 45 f8             	mov    0xfffffff8(%ebp),%eax
   14cd2:	c1 e0 02             	shl    $0x2,%eax
   14cd5:	03 45 fc             	add    0xfffffffc(%ebp),%eax
   14cd8:	05 b0 01 00 00       	add    $0x1b0,%eax
   14cdd:	50                   	push   %eax
   14cde:	e8 2e 19 00 00       	call   16611 <_usb_disconnect>
   14ce3:	83 c4 10             	add    $0x10,%esp
   14ce6:	8d 45 f8             	lea    0xfffffff8(%ebp),%eax
   14ce9:	ff 00                	incl   (%eax)
   14ceb:	eb bc                	jmp    14ca9 <_hub_reset+0x26>
   14ced:	8b 45 08             	mov    0x8(%ebp),%eax
   14cf0:	83 78 04 00          	cmpl   $0x0,0x4(%eax)
   14cf4:	74 13                	je     14d09 <_hub_reset+0x86>
   14cf6:	83 ec 0c             	sub    $0xc,%esp
   14cf9:	8b 45 08             	mov    0x8(%ebp),%eax
   14cfc:	ff 70 04             	pushl  0x4(%eax)
   14cff:	e8 b6 37 00 00       	call   184ba <_usb_unlink_urb@4>
   14d04:	83 c4 0c             	add    $0xc,%esp
   14d07:	eb 09                	jmp    14d12 <_hub_reset+0x8f>
   14d09:	c7 45 f4 ff ff ff ff 	movl   $0xffffffff,0xfffffff4(%ebp)
   14d10:	eb 5c                	jmp    14d6e <_hub_reset+0xeb>
   14d12:	83 ec 0c             	sub    $0xc,%esp
   14d15:	ff 75 fc             	pushl  0xfffffffc(%ebp)
   14d18:	e8 a3 0d 00 00       	call   15ac0 <_usb_reset_device>
   14d1d:	83 c4 10             	add    $0x10,%esp
   14d20:	85 c0                	test   %eax,%eax
   14d22:	74 09                	je     14d2d <_hub_reset+0xaa>
   14d24:	c7 45 f4 ff ff ff ff 	movl   $0xffffffff,0xfffffff4(%ebp)
   14d2b:	eb 41                	jmp    14d6e <_hub_reset+0xeb>
   14d2d:	8b 45 08             	mov    0x8(%ebp),%eax
   14d30:	8b 50 04             	mov    0x4(%eax),%edx
   14d33:	8b 45 fc             	mov    0xfffffffc(%ebp),%eax
   14d36:	89 42 14             	mov    %eax,0x14(%edx)
   14d39:	83 ec 08             	sub    $0x8,%esp
   14d3c:	6a 00                	push   $0x0
   14d3e:	8b 45 08             	mov    0x8(%ebp),%eax
   14d41:	ff 70 04             	pushl  0x4(%eax)
   14d44:	e8 5a 34 00 00       	call   181a3 <_usb_submit_urb@8>
   14d49:	83 c4 08             	add    $0x8,%esp
   14d4c:	85 c0                	test   %eax,%eax
   14d4e:	74 09                	je     14d59 <_hub_reset+0xd6>
   14d50:	c7 45 f4 ff ff ff ff 	movl   $0xffffffff,0xfffffff4(%ebp)
   14d57:	eb 15                	jmp    14d6e <_hub_reset+0xeb>
   14d59:	83 ec 0c             	sub    $0xc,%esp
   14d5c:	ff 75 08             	pushl  0x8(%ebp)
   14d5f:	e8 0f f6 ff ff       	call   14373 <_hub_power_on>
   14d64:	83 c4 10             	add    $0x10,%esp
   14d67:	c7 45 f4 00 00 00 00 	movl   $0x0,0xfffffff4(%ebp)
   14d6e:	8b 45 f4             	mov    0xfffffff4(%ebp),%eax
   14d71:	c9                   	leave  
   14d72:	c3                   	ret    

00014d73 <_hub_start_disconnect>:
   14d73:	55                   	push   %ebp
   14d74:	89 e5                	mov    %esp,%ebp
   14d76:	83 ec 08             	sub    $0x8,%esp
   14d79:	8b 45 08             	mov    0x8(%ebp),%eax
   14d7c:	8b 80 b8 00 00 00    	mov    0xb8(%eax),%eax
   14d82:	89 45 fc             	mov    %eax,0xfffffffc(%ebp)
   14d85:	83 7d fc 00          	cmpl   $0x0,0xfffffffc(%ebp)
   14d89:	74 4a                	je     14dd5 <_hub_start_disconnect+0x62>
   14d8b:	c7 45 f8 00 00 00 00 	movl   $0x0,0xfffffff8(%ebp)
   14d92:	8b 45 fc             	mov    0xfffffffc(%ebp),%eax
   14d95:	8b 80 ac 01 00 00    	mov    0x1ac(%eax),%eax
   14d9b:	3b 45 f8             	cmp    0xfffffff8(%ebp),%eax
   14d9e:	7e 35                	jle    14dd5 <_hub_start_disconnect+0x62>
   14da0:	8b 45 fc             	mov    0xfffffffc(%ebp),%eax
   14da3:	8b 55 f8             	mov    0xfffffff8(%ebp),%edx
   14da6:	8b 84 90 b0 01 00 00 	mov    0x1b0(%eax,%edx,4),%eax
   14dad:	3b 45 08             	cmp    0x8(%ebp),%eax
   14db0:	75 1c                	jne    14dce <_hub_start_disconnect+0x5b>
   14db2:	83 ec 0c             	sub    $0xc,%esp
   14db5:	8b 45 f8             	mov    0xfffffff8(%ebp),%eax
   14db8:	c1 e0 02             	shl    $0x2,%eax
   14dbb:	03 45 fc             	add    0xfffffffc(%ebp),%eax
   14dbe:	05 b0 01 00 00       	add    $0x1b0,%eax
   14dc3:	50                   	push   %eax
   14dc4:	e8 48 18 00 00       	call   16611 <_usb_disconnect>
   14dc9:	83 c4 10             	add    $0x10,%esp
   14dcc:	eb 07                	jmp    14dd5 <_hub_start_disconnect+0x62>
   14dce:	8d 45 f8             	lea    0xfffffff8(%ebp),%eax
   14dd1:	ff 00                	incl   (%eax)
   14dd3:	eb bd                	jmp    14d92 <_hub_start_disconnect+0x1f>
   14dd5:	c9                   	leave  
   14dd6:	c3                   	ret    

00014dd7 <_hub_port_status>:
   14dd7:	55                   	push   %ebp
   14dd8:	89 e5                	mov    %esp,%ebp
   14dda:	83 ec 08             	sub    $0x8,%esp
   14ddd:	8b 45 08             	mov    0x8(%ebp),%eax
   14de0:	8b 80 88 01 00 00    	mov    0x188(%eax),%eax
   14de6:	ff 70 0c             	pushl  0xc(%eax)
   14de9:	e8 44 fc ff ff       	call   14a32 <_usb_get_intfdata>
   14dee:	83 c4 04             	add    $0x4,%esp
   14df1:	89 45 fc             	mov    %eax,0xfffffffc(%ebp)
   14df4:	83 ec 04             	sub    $0x4,%esp
   14df7:	8b 45 fc             	mov    0xfffffffc(%ebp),%eax
   14dfa:	ff 70 10             	pushl  0x10(%eax)
   14dfd:	8b 45 0c             	mov    0xc(%ebp),%eax
   14e00:	40                   	inc    %eax
   14e01:	50                   	push   %eax
   14e02:	ff 75 08             	pushl  0x8(%ebp)
   14e05:	e8 99 f1 ff ff       	call   13fa3 <_get_port_status>
   14e0a:	83 c4 10             	add    $0x10,%esp
   14e0d:	89 45 f8             	mov    %eax,0xfffffff8(%ebp)
   14e10:	83 7d f8 00          	cmpl   $0x0,0xfffffff8(%ebp)
   14e14:	79 02                	jns    14e18 <_hub_port_status+0x41>
   14e16:	eb 26                	jmp    14e3e <_hub_port_status+0x67>
   14e18:	8b 55 10             	mov    0x10(%ebp),%edx
   14e1b:	8b 45 fc             	mov    0xfffffffc(%ebp),%eax
   14e1e:	8b 40 10             	mov    0x10(%eax),%eax
   14e21:	66 8b 00             	mov    (%eax),%ax
   14e24:	66 89 02             	mov    %ax,(%edx)
   14e27:	8b 55 14             	mov    0x14(%ebp),%edx
   14e2a:	8b 45 fc             	mov    0xfffffffc(%ebp),%eax
   14e2d:	8b 40 10             	mov    0x10(%eax),%eax
   14e30:	66 8b 40 02          	mov    0x2(%eax),%ax
   14e34:	66 89 02             	mov    %ax,(%edx)
   14e37:	c7 45 f8 00 00 00 00 	movl   $0x0,0xfffffff8(%ebp)
   14e3e:	8b 45 f8             	mov    0xfffffff8(%ebp),%eax
   14e41:	c9                   	leave  
   14e42:	c3                   	ret    

00014e43 <_hub_port_wait_reset>:
   14e43:	55                   	push   %ebp
   14e44:	89 e5                	mov    %esp,%ebp
   14e46:	83 ec 18             	sub    $0x18,%esp
   14e49:	c7 45 fc 00 00 00 00 	movl   $0x0,0xfffffffc(%ebp)
   14e50:	81 7d fc f3 01 00 00 	cmpl   $0x1f3,0xfffffffc(%ebp)
   14e57:	0f 8f 00 01 00 00    	jg     14f5d <_hub_port_wait_reset+0x11a>
   14e5d:	83 ec 0c             	sub    $0xc,%esp
   14e60:	ff 75 14             	pushl  0x14(%ebp)
   14e63:	e8 48 46 00 00       	call   194b0 <_wait_ms>
   14e68:	83 c4 10             	add    $0x10,%esp
   14e6b:	8d 45 f4             	lea    0xfffffff4(%ebp),%eax
   14e6e:	50                   	push   %eax
   14e6f:	8d 45 f6             	lea    0xfffffff6(%ebp),%eax
   14e72:	50                   	push   %eax
   14e73:	ff 75 0c             	pushl  0xc(%ebp)
   14e76:	ff 75 08             	pushl  0x8(%ebp)
   14e79:	e8 59 ff ff ff       	call   14dd7 <_hub_port_status>
   14e7e:	83 c4 10             	add    $0x10,%esp
   14e81:	89 45 f8             	mov    %eax,0xfffffff8(%ebp)
   14e84:	83 7d f8 00          	cmpl   $0x0,0xfffffff8(%ebp)
   14e88:	79 0c                	jns    14e96 <_hub_port_wait_reset+0x53>
   14e8a:	c7 45 f0 ff ff ff ff 	movl   $0xffffffff,0xfffffff0(%ebp)
   14e91:	e9 ce 00 00 00       	jmp    14f64 <_hub_port_wait_reset+0x121>
   14e96:	66 8b 45 f6          	mov    0xfffffff6(%ebp),%ax
   14e9a:	25 ff ff 00 00       	and    $0xffff,%eax
   14e9f:	83 e0 01             	and    $0x1,%eax
   14ea2:	85 c0                	test   %eax,%eax
   14ea4:	75 0c                	jne    14eb2 <_hub_port_wait_reset+0x6f>
   14ea6:	c7 45 f0 01 00 00 00 	movl   $0x1,0xfffffff0(%ebp)
   14ead:	e9 b2 00 00 00       	jmp    14f64 <_hub_port_wait_reset+0x121>
   14eb2:	8b 45 f4             	mov    0xfffffff4(%ebp),%eax
   14eb5:	25 ff ff 00 00       	and    $0xffff,%eax
   14eba:	83 e0 01             	and    $0x1,%eax
   14ebd:	85 c0                	test   %eax,%eax
   14ebf:	74 0c                	je     14ecd <_hub_port_wait_reset+0x8a>
   14ec1:	c7 45 f0 ff ff ff ff 	movl   $0xffffffff,0xfffffff0(%ebp)
   14ec8:	e9 97 00 00 00       	jmp    14f64 <_hub_port_wait_reset+0x121>
   14ecd:	66 8b 45 f6          	mov    0xfffffff6(%ebp),%ax
   14ed1:	25 ff ff 00 00       	and    $0xffff,%eax
   14ed6:	c1 e8 04             	shr    $0x4,%eax
   14ed9:	83 e0 01             	and    $0x1,%eax
   14edc:	85 c0                	test   %eax,%eax
   14ede:	75 63                	jne    14f43 <_hub_port_wait_reset+0x100>
   14ee0:	66 8b 45 f6          	mov    0xfffffff6(%ebp),%ax
   14ee4:	25 ff ff 00 00       	and    $0xffff,%eax
   14ee9:	d1 e8                	shr    %eax
   14eeb:	83 e0 01             	and    $0x1,%eax
   14eee:	85 c0                	test   %eax,%eax
   14ef0:	74 51                	je     14f43 <_hub_port_wait_reset+0x100>
   14ef2:	66 8b 45 f6          	mov    0xfffffff6(%ebp),%ax
   14ef6:	25 ff ff 00 00       	and    $0xffff,%eax
   14efb:	c1 e8 0a             	shr    $0xa,%eax
   14efe:	83 e0 01             	and    $0x1,%eax
   14f01:	85 c0                	test   %eax,%eax
   14f03:	74 0c                	je     14f11 <_hub_port_wait_reset+0xce>
   14f05:	8b 45 10             	mov    0x10(%ebp),%eax
   14f08:	c7 40 18 03 00 00 00 	movl   $0x3,0x18(%eax)
   14f0f:	eb 29                	jmp    14f3a <_hub_port_wait_reset+0xf7>
   14f11:	66 8b 45 f6          	mov    0xfffffff6(%ebp),%ax
   14f15:	25 ff ff 00 00       	and    $0xffff,%eax
   14f1a:	c1 e8 09             	shr    $0x9,%eax
   14f1d:	83 e0 01             	and    $0x1,%eax
   14f20:	85 c0                	test   %eax,%eax
   14f22:	74 0c                	je     14f30 <_hub_port_wait_reset+0xed>
   14f24:	8b 45 10             	mov    0x10(%ebp),%eax
   14f27:	c7 40 18 01 00 00 00 	movl   $0x1,0x18(%eax)
   14f2e:	eb 0a                	jmp    14f3a <_hub_port_wait_reset+0xf7>
   14f30:	8b 45 10             	mov    0x10(%ebp),%eax
   14f33:	c7 40 18 02 00 00 00 	movl   $0x2,0x18(%eax)
   14f3a:	c7 45 f0 00 00 00 00 	movl   $0x0,0xfffffff0(%ebp)
   14f41:	eb 21                	jmp    14f64 <_hub_port_wait_reset+0x121>
   14f43:	83 7d fc 13          	cmpl   $0x13,0xfffffffc(%ebp)
   14f47:	7e 07                	jle    14f50 <_hub_port_wait_reset+0x10d>
   14f49:	c7 45 14 c8 00 00 00 	movl   $0xc8,0x14(%ebp)
   14f50:	8b 55 14             	mov    0x14(%ebp),%edx
   14f53:	8d 45 fc             	lea    0xfffffffc(%ebp),%eax
   14f56:	01 10                	add    %edx,(%eax)
   14f58:	e9 f3 fe ff ff       	jmp    14e50 <_hub_port_wait_reset+0xd>
   14f5d:	c7 45 f0 ff ff ff ff 	movl   $0xffffffff,0xfffffff0(%ebp)
   14f64:	8b 45 f0             	mov    0xfffffff0(%ebp),%eax
   14f67:	c9                   	leave  
   14f68:	c3                   	ret    

00014f69 <_hub_port_reset>:
   14f69:	55                   	push   %ebp
   14f6a:	89 e5                	mov    %esp,%ebp
   14f6c:	83 ec 18             	sub    $0x18,%esp
   14f6f:	c7 45 fc 00 00 00 00 	movl   $0x0,0xfffffffc(%ebp)
   14f76:	83 7d fc 04          	cmpl   $0x4,0xfffffffc(%ebp)
   14f7a:	0f 8f 85 00 00 00    	jg     15005 <_hub_port_reset+0x9c>
   14f80:	83 ec 04             	sub    $0x4,%esp
   14f83:	6a 04                	push   $0x4
   14f85:	8b 45 0c             	mov    0xc(%ebp),%eax
   14f88:	40                   	inc    %eax
   14f89:	50                   	push   %eax
   14f8a:	ff 75 08             	pushl  0x8(%ebp)
   14f8d:	e8 8e ef ff ff       	call   13f20 <_set_port_feature>
   14f92:	83 c4 10             	add    $0x10,%esp
   14f95:	ff 75 14             	pushl  0x14(%ebp)
   14f98:	ff 75 10             	pushl  0x10(%ebp)
   14f9b:	ff 75 0c             	pushl  0xc(%ebp)
   14f9e:	ff 75 08             	pushl  0x8(%ebp)
   14fa1:	e8 9d fe ff ff       	call   14e43 <_hub_port_wait_reset>
   14fa6:	83 c4 10             	add    $0x10,%esp
   14fa9:	89 45 f8             	mov    %eax,0xfffffff8(%ebp)
   14fac:	83 7d f8 ff          	cmpl   $0xffffffff,0xfffffff8(%ebp)
   14fb0:	74 42                	je     14ff4 <_hub_port_reset+0x8b>
   14fb2:	83 ec 04             	sub    $0x4,%esp
   14fb5:	6a 14                	push   $0x14
   14fb7:	8b 45 0c             	mov    0xc(%ebp),%eax
   14fba:	40                   	inc    %eax
   14fbb:	50                   	push   %eax
   14fbc:	ff 75 08             	pushl  0x8(%ebp)
   14fbf:	e8 17 ef ff ff       	call   13edb <_clear_port_feature>
   14fc4:	83 c4 10             	add    $0x10,%esp
   14fc7:	8b 45 10             	mov    0x10(%ebp),%eax
   14fca:	89 45 f0             	mov    %eax,0xfffffff0(%ebp)
   14fcd:	83 7d f8 00          	cmpl   $0x0,0xfffffff8(%ebp)
   14fd1:	74 09                	je     14fdc <_hub_port_reset+0x73>
   14fd3:	c7 45 ec 00 00 00 00 	movl   $0x0,0xffffffec(%ebp)
   14fda:	eb 07                	jmp    14fe3 <_hub_port_reset+0x7a>
   14fdc:	c7 45 ec 03 00 00 00 	movl   $0x3,0xffffffec(%ebp)
   14fe3:	8b 45 ec             	mov    0xffffffec(%ebp),%eax
   14fe6:	8b 55 f0             	mov    0xfffffff0(%ebp),%edx
   14fe9:	89 42 14             	mov    %eax,0x14(%edx)
   14fec:	8b 45 f8             	mov    0xfffffff8(%ebp),%eax
   14fef:	89 45 f4             	mov    %eax,0xfffffff4(%ebp)
   14ff2:	eb 18                	jmp    1500c <_hub_port_reset+0xa3>
   14ff4:	c7 45 14 c8 00 00 00 	movl   $0xc8,0x14(%ebp)
   14ffb:	8d 45 fc             	lea    0xfffffffc(%ebp),%eax
   14ffe:	ff 00                	incl   (%eax)
   15000:	e9 71 ff ff ff       	jmp    14f76 <_hub_port_reset+0xd>
   15005:	c7 45 f4 ff ff ff ff 	movl   $0xffffffff,0xfffffff4(%ebp)
   1500c:	8b 45 f4             	mov    0xfffffff4(%ebp),%eax
   1500f:	c9                   	leave  
   15010:	c3                   	ret    

00015011 <_hub_port_disable>:
   15011:	55                   	push   %ebp
   15012:	89 e5                	mov    %esp,%ebp
   15014:	83 ec 08             	sub    $0x8,%esp
   15017:	83 ec 04             	sub    $0x4,%esp
   1501a:	6a 01                	push   $0x1
   1501c:	8b 45 0c             	mov    0xc(%ebp),%eax
   1501f:	40                   	inc    %eax
   15020:	50                   	push   %eax
   15021:	ff 75 08             	pushl  0x8(%ebp)
   15024:	e8 b2 ee ff ff       	call   13edb <_clear_port_feature>
   15029:	83 c4 10             	add    $0x10,%esp
   1502c:	89 45 fc             	mov    %eax,0xfffffffc(%ebp)
   1502f:	8b 45 fc             	mov    0xfffffffc(%ebp),%eax
   15032:	c9                   	leave  
   15033:	c3                   	ret    

00015034 <_hub_port_debounce>:
   15034:	55                   	push   %ebp
   15035:	89 e5                	mov    %esp,%ebp
   15037:	83 ec 28             	sub    $0x28,%esp
   1503a:	c7 45 ec 00 00 00 00 	movl   $0x0,0xffffffec(%ebp)
   15041:	c7 45 f4 00 00 00 00 	movl   $0x0,0xfffffff4(%ebp)
   15048:	c7 45 f8 00 00 00 00 	movl   $0x0,0xfffffff8(%ebp)
   1504f:	81 7d f8 8f 01 00 00 	cmpl   $0x18f,0xfffffff8(%ebp)
   15056:	0f 8f a0 00 00 00    	jg     150fc <_hub_port_debounce+0xc8>
   1505c:	83 ec 0c             	sub    $0xc,%esp
   1505f:	6a 19                	push   $0x19
   15061:	e8 4a 44 00 00       	call   194b0 <_wait_ms>
   15066:	83 c4 10             	add    $0x10,%esp
   15069:	8d 45 f2             	lea    0xfffffff2(%ebp),%eax
   1506c:	50                   	push   %eax
   1506d:	8d 45 f0             	lea    0xfffffff0(%ebp),%eax
   15070:	50                   	push   %eax
   15071:	ff 75 0c             	pushl  0xc(%ebp)
   15074:	ff 75 08             	pushl  0x8(%ebp)
   15077:	e8 5b fd ff ff       	call   14dd7 <_hub_port_status>
   1507c:	83 c4 10             	add    $0x10,%esp
   1507f:	89 45 fc             	mov    %eax,0xfffffffc(%ebp)
   15082:	83 7d fc 00          	cmpl   $0x0,0xfffffffc(%ebp)
   15086:	79 0c                	jns    15094 <_hub_port_debounce+0x60>
   15088:	c7 45 e8 ff ff ff ff 	movl   $0xffffffff,0xffffffe8(%ebp)
   1508f:	e9 8d 00 00 00       	jmp    15121 <_hub_port_debounce+0xed>
   15094:	8b 45 f0             	mov    0xfffffff0(%ebp),%eax
   15097:	25 ff ff 00 00       	and    $0xffff,%eax
   1509c:	83 e0 01             	and    $0x1,%eax
   1509f:	3b 45 ec             	cmp    0xffffffec(%ebp),%eax
   150a2:	75 13                	jne    150b7 <_hub_port_debounce+0x83>
   150a4:	83 7d ec 00          	cmpl   $0x0,0xffffffec(%ebp)
   150a8:	74 14                	je     150be <_hub_port_debounce+0x8a>
   150aa:	8d 45 f4             	lea    0xfffffff4(%ebp),%eax
   150ad:	ff 00                	incl   (%eax)
   150af:	83 7d f4 04          	cmpl   $0x4,0xfffffff4(%ebp)
   150b3:	75 09                	jne    150be <_hub_port_debounce+0x8a>
   150b5:	eb 45                	jmp    150fc <_hub_port_debounce+0xc8>
   150b7:	c7 45 f4 00 00 00 00 	movl   $0x0,0xfffffff4(%ebp)
   150be:	8b 45 f0             	mov    0xfffffff0(%ebp),%eax
   150c1:	25 ff ff 00 00       	and    $0xffff,%eax
   150c6:	83 e0 01             	and    $0x1,%eax
   150c9:	89 45 ec             	mov    %eax,0xffffffec(%ebp)
   150cc:	66 8b 45 f2          	mov    0xfffffff2(%ebp),%ax
   150d0:	25 ff ff 00 00       	and    $0xffff,%eax
   150d5:	83 e0 01             	and    $0x1,%eax
   150d8:	85 c0                	test   %eax,%eax
   150da:	74 15                	je     150f1 <_hub_port_debounce+0xbd>
   150dc:	83 ec 04             	sub    $0x4,%esp
   150df:	6a 10                	push   $0x10
   150e1:	8b 45 0c             	mov    0xc(%ebp),%eax
   150e4:	40                   	inc    %eax
   150e5:	50                   	push   %eax
   150e6:	ff 75 08             	pushl  0x8(%ebp)
   150e9:	e8 ed ed ff ff       	call   13edb <_clear_port_feature>
   150ee:	83 c4 10             	add    $0x10,%esp
   150f1:	8d 45 f8             	lea    0xfffffff8(%ebp),%eax
   150f4:	83 00 19             	addl   $0x19,(%eax)
   150f7:	e9 53 ff ff ff       	jmp    1504f <_hub_port_debounce+0x1b>
   150fc:	8b 45 f0             	mov    0xfffffff0(%ebp),%eax
   150ff:	25 ff ff 00 00       	and    $0xffff,%eax
   15104:	83 e0 01             	and    $0x1,%eax
   15107:	85 c0                	test   %eax,%eax
   15109:	74 09                	je     15114 <_hub_port_debounce+0xe0>
   1510b:	c7 45 e4 00 00 00 00 	movl   $0x0,0xffffffe4(%ebp)
   15112:	eb 07                	jmp    1511b <_hub_port_debounce+0xe7>
   15114:	c7 45 e4 01 00 00 00 	movl   $0x1,0xffffffe4(%ebp)
   1511b:	8b 45 e4             	mov    0xffffffe4(%ebp),%eax
   1511e:	89 45 e8             	mov    %eax,0xffffffe8(%ebp)
   15121:	8b 45 e8             	mov    0xffffffe8(%ebp),%eax
   15124:	c9                   	leave  
   15125:	c3                   	ret    

00015126 <_hub_port_connect_change>:
   15126:	55                   	push   %ebp
   15127:	89 e5                	mov    %esp,%ebp
   15129:	83 ec 28             	sub    $0x28,%esp
   1512c:	8b 45 10             	mov    0x10(%ebp),%eax
   1512f:	8b 55 14             	mov    0x14(%ebp),%edx
   15132:	66 89 45 fe          	mov    %ax,0xfffffffe(%ebp)
   15136:	66 89 55 fc          	mov    %dx,0xfffffffc(%ebp)
   1513a:	8b 45 08             	mov    0x8(%ebp),%eax
   1513d:	8b 00                	mov    (%eax),%eax
   1513f:	8b 80 b8 00 00 00    	mov    0xb8(%eax),%eax
   15145:	89 45 f4             	mov    %eax,0xfffffff4(%ebp)
   15148:	8b 45 f4             	mov    0xfffffff4(%ebp),%eax
   1514b:	2d c0 00 00 00       	sub    $0xc0,%eax
   15150:	89 45 f8             	mov    %eax,0xfffffff8(%ebp)
   15153:	c7 45 f0 0a 00 00 00 	movl   $0xa,0xfffffff0(%ebp)
   1515a:	83 ec 04             	sub    $0x4,%esp
   1515d:	6a 10                	push   $0x10
   1515f:	8b 45 0c             	mov    0xc(%ebp),%eax
   15162:	40                   	inc    %eax
   15163:	50                   	push   %eax
   15164:	ff 75 f8             	pushl  0xfffffff8(%ebp)
   15167:	e8 6f ed ff ff       	call   13edb <_clear_port_feature>
   1516c:	83 c4 10             	add    $0x10,%esp
   1516f:	8b 55 f8             	mov    0xfffffff8(%ebp),%edx
   15172:	8b 45 0c             	mov    0xc(%ebp),%eax
   15175:	83 bc 82 b0 01 00 00 	cmpl   $0x0,0x1b0(%edx,%eax,4)
   1517c:	00 
   1517d:	74 1a                	je     15199 <_hub_port_connect_change+0x73>
   1517f:	83 ec 0c             	sub    $0xc,%esp
   15182:	8b 45 0c             	mov    0xc(%ebp),%eax
   15185:	c1 e0 02             	shl    $0x2,%eax
   15188:	03 45 f8             	add    0xfffffff8(%ebp),%eax
   1518b:	05 b0 01 00 00       	add    $0x1b0,%eax
   15190:	50                   	push   %eax
   15191:	e8 7b 14 00 00       	call   16611 <_usb_disconnect>
   15196:	83 c4 10             	add    $0x10,%esp
   15199:	66 8b 45 fe          	mov    0xfffffffe(%ebp),%ax
   1519d:	25 ff ff 00 00       	and    $0xffff,%eax
   151a2:	83 e0 01             	and    $0x1,%eax
   151a5:	85 c0                	test   %eax,%eax
   151a7:	75 2c                	jne    151d5 <_hub_port_connect_change+0xaf>
   151a9:	66 8b 45 fe          	mov    0xfffffffe(%ebp),%ax
   151ad:	25 ff ff 00 00       	and    $0xffff,%eax
   151b2:	d1 e8                	shr    %eax
   151b4:	83 e0 01             	and    $0x1,%eax
   151b7:	85 c0                	test   %eax,%eax
   151b9:	0f 84 08 02 00 00    	je     153c7 <_hub_port_connect_change+0x2a1>
   151bf:	83 ec 08             	sub    $0x8,%esp
   151c2:	ff 75 0c             	pushl  0xc(%ebp)
   151c5:	ff 75 f8             	pushl  0xfffffff8(%ebp)
   151c8:	e8 44 fe ff ff       	call   15011 <_hub_port_disable>
   151cd:	83 c4 10             	add    $0x10,%esp
   151d0:	e9 f2 01 00 00       	jmp    153c7 <_hub_port_connect_change+0x2a1>
   151d5:	83 ec 08             	sub    $0x8,%esp
   151d8:	ff 75 0c             	pushl  0xc(%ebp)
   151db:	ff 75 f8             	pushl  0xfffffff8(%ebp)
   151de:	e8 51 fe ff ff       	call   15034 <_hub_port_debounce>
   151e3:	83 c4 10             	add    $0x10,%esp
   151e6:	85 c0                	test   %eax,%eax
   151e8:	74 16                	je     15200 <_hub_port_connect_change+0xda>
   151ea:	83 ec 08             	sub    $0x8,%esp
   151ed:	ff 75 0c             	pushl  0xc(%ebp)
   151f0:	ff 75 f8             	pushl  0xfffffff8(%ebp)
   151f3:	e8 19 fe ff ff       	call   15011 <_hub_port_disable>
   151f8:	83 c4 10             	add    $0x10,%esp
   151fb:	e9 c7 01 00 00       	jmp    153c7 <_hub_port_connect_change+0x2a1>
   15200:	66 8b 45 fe          	mov    0xfffffffe(%ebp),%ax
   15204:	25 ff ff 00 00       	and    $0xffff,%eax
   15209:	c1 e8 09             	shr    $0x9,%eax
   1520c:	83 e0 01             	and    $0x1,%eax
   1520f:	85 c0                	test   %eax,%eax
   15211:	74 07                	je     1521a <_hub_port_connect_change+0xf4>
   15213:	c7 45 f0 c8 00 00 00 	movl   $0xc8,0xfffffff0(%ebp)
   1521a:	c7 45 ec 00 00 00 00 	movl   $0x0,0xffffffec(%ebp)
   15221:	83 7d ec 01          	cmpl   $0x1,0xffffffec(%ebp)
   15225:	0f 8f 7a 01 00 00    	jg     153a5 <_hub_port_connect_change+0x27f>
   1522b:	83 ec 08             	sub    $0x8,%esp
   1522e:	8b 45 f8             	mov    0xfffffff8(%ebp),%eax
   15231:	ff b0 bc 00 00 00    	pushl  0xbc(%eax)
   15237:	ff 75 f8             	pushl  0xfffffff8(%ebp)
   1523a:	e8 3a 10 00 00       	call   16279 <_usb_alloc_dev@8>
   1523f:	83 c4 08             	add    $0x8,%esp
   15242:	89 45 f4             	mov    %eax,0xfffffff4(%ebp)
   15245:	83 7d f4 00          	cmpl   $0x0,0xfffffff4(%ebp)
   15249:	75 05                	jne    15250 <_hub_port_connect_change+0x12a>
   1524b:	e9 55 01 00 00       	jmp    153a5 <_hub_port_connect_change+0x27f>
   15250:	8b 4d f8             	mov    0xfffffff8(%ebp),%ecx
   15253:	8b 55 0c             	mov    0xc(%ebp),%edx
   15256:	8b 45 f4             	mov    0xfffffff4(%ebp),%eax
   15259:	89 84 91 b0 01 00 00 	mov    %eax,0x1b0(%ecx,%edx,4)
   15260:	8b 45 f4             	mov    0xfffffff4(%ebp),%eax
   15263:	c7 40 14 02 00 00 00 	movl   $0x2,0x14(%eax)
   1526a:	ff 75 f0             	pushl  0xfffffff0(%ebp)
   1526d:	ff 75 f4             	pushl  0xfffffff4(%ebp)
   15270:	ff 75 0c             	pushl  0xc(%ebp)
   15273:	ff 75 f8             	pushl  0xfffffff8(%ebp)
   15276:	e8 ee fc ff ff       	call   14f69 <_hub_port_reset>
   1527b:	83 c4 10             	add    $0x10,%esp
   1527e:	85 c0                	test   %eax,%eax
   15280:	74 13                	je     15295 <_hub_port_connect_change+0x16f>
   15282:	83 ec 0c             	sub    $0xc,%esp
   15285:	ff 75 f4             	pushl  0xfffffff4(%ebp)
   15288:	e8 2e 11 00 00       	call   163bb <_usb_put_dev@4>
   1528d:	83 c4 0c             	add    $0xc,%esp
   15290:	e9 10 01 00 00       	jmp    153a5 <_hub_port_connect_change+0x27f>
   15295:	83 ec 0c             	sub    $0xc,%esp
   15298:	ff 75 f4             	pushl  0xfffffff4(%ebp)
   1529b:	e8 16 15 00 00       	call   167b6 <_usb_connect@4>
   152a0:	83 c4 0c             	add    $0xc,%esp
   152a3:	8b 45 f8             	mov    0xfffffff8(%ebp),%eax
   152a6:	83 78 1c 00          	cmpl   $0x0,0x1c(%eax)
   152aa:	74 1a                	je     152c6 <_hub_port_connect_change+0x1a0>
   152ac:	8b 55 f4             	mov    0xfffffff4(%ebp),%edx
   152af:	8b 45 f8             	mov    0xfffffff8(%ebp),%eax
   152b2:	8b 40 1c             	mov    0x1c(%eax),%eax
   152b5:	89 42 1c             	mov    %eax,0x1c(%edx)
   152b8:	8b 55 f4             	mov    0xfffffff4(%ebp),%edx
   152bb:	8b 45 f8             	mov    0xfffffff8(%ebp),%eax
   152be:	8b 40 20             	mov    0x20(%eax),%eax
   152c1:	89 42 20             	mov    %eax,0x20(%edx)
   152c4:	eb 28                	jmp    152ee <_hub_port_connect_change+0x1c8>
   152c6:	8b 45 f4             	mov    0xfffffff4(%ebp),%eax
   152c9:	83 78 18 03          	cmpl   $0x3,0x18(%eax)
   152cd:	74 1f                	je     152ee <_hub_port_connect_change+0x1c8>
   152cf:	8b 45 f8             	mov    0xfffffff8(%ebp),%eax
   152d2:	83 78 18 03          	cmpl   $0x3,0x18(%eax)
   152d6:	75 16                	jne    152ee <_hub_port_connect_change+0x1c8>
   152d8:	8b 55 f4             	mov    0xfffffff4(%ebp),%edx
   152db:	8b 45 08             	mov    0x8(%ebp),%eax
   152de:	83 c0 34             	add    $0x34,%eax
   152e1:	89 42 1c             	mov    %eax,0x1c(%edx)
   152e4:	8b 55 f4             	mov    0xfffffff4(%ebp),%edx
   152e7:	8b 45 0c             	mov    0xc(%ebp),%eax
   152ea:	40                   	inc    %eax
   152eb:	89 42 20             	mov    %eax,0x20(%edx)
   152ee:	8b 45 f4             	mov    0xfffffff4(%ebp),%eax
   152f1:	8b 80 b8 00 00 00    	mov    0xb8(%eax),%eax
   152f7:	89 45 e8             	mov    %eax,0xffffffe8(%ebp)
   152fa:	8b 45 e8             	mov    0xffffffe8(%ebp),%eax
   152fd:	80 78 04 30          	cmpb   $0x30,0x4(%eax)
   15301:	74 2a                	je     1532d <_hub_port_connect_change+0x207>
   15303:	83 ec 0c             	sub    $0xc,%esp
   15306:	8b 45 0c             	mov    0xc(%ebp),%eax
   15309:	40                   	inc    %eax
   1530a:	50                   	push   %eax
   1530b:	8b 45 e8             	mov    0xffffffe8(%ebp),%eax
   1530e:	83 c0 04             	add    $0x4,%eax
   15311:	50                   	push   %eax
   15312:	68 3b b2 01 00       	push   $0x1b23b
   15317:	6a 10                	push   $0x10
   15319:	8b 45 f4             	mov    0xfffffff4(%ebp),%eax
   1531c:	83 c0 04             	add    $0x4,%eax
   1531f:	50                   	push   %eax
   15320:	e8 9b 47 00 00       	call   19ac0 <__snprintf>
   15325:	83 c4 20             	add    $0x20,%esp
   15328:	89 45 e4             	mov    %eax,0xffffffe4(%ebp)
   1532b:	eb 1e                	jmp    1534b <_hub_port_connect_change+0x225>
   1532d:	8b 45 0c             	mov    0xc(%ebp),%eax
   15330:	40                   	inc    %eax
   15331:	50                   	push   %eax
   15332:	68 41 b2 01 00       	push   $0x1b241
   15337:	6a 10                	push   $0x10
   15339:	8b 45 f4             	mov    0xfffffff4(%ebp),%eax
   1533c:	83 c0 04             	add    $0x4,%eax
   1533f:	50                   	push   %eax
   15340:	e8 7b 47 00 00       	call   19ac0 <__snprintf>
   15345:	83 c4 10             	add    $0x10,%esp
   15348:	89 45 e4             	mov    %eax,0xffffffe4(%ebp)
   1534b:	8b 55 f4             	mov    0xfffffff4(%ebp),%edx
   1534e:	8b 45 f4             	mov    0xfffffff4(%ebp),%eax
   15351:	8b 80 b8 00 00 00    	mov    0xb8(%eax),%eax
   15357:	8b 80 60 01 00 00    	mov    0x160(%eax),%eax
   1535d:	8b 80 a0 00 00 00    	mov    0xa0(%eax),%eax
   15363:	89 82 60 01 00 00    	mov    %eax,0x160(%edx)
   15369:	83 ec 08             	sub    $0x8,%esp
   1536c:	8b 45 f8             	mov    0xfffffff8(%ebp),%eax
   1536f:	05 c0 00 00 00       	add    $0xc0,%eax
   15374:	50                   	push   %eax
   15375:	ff 75 f4             	pushl  0xfffffff4(%ebp)
   15378:	e8 16 18 00 00       	call   16b93 <_usb_new_device>
   1537d:	83 c4 10             	add    $0x10,%esp
   15380:	85 c0                	test   %eax,%eax
   15382:	75 02                	jne    15386 <_hub_port_connect_change+0x260>
   15384:	eb 41                	jmp    153c7 <_hub_port_connect_change+0x2a1>
   15386:	83 ec 0c             	sub    $0xc,%esp
   15389:	ff 75 f4             	pushl  0xfffffff4(%ebp)
   1538c:	e8 2a 10 00 00       	call   163bb <_usb_put_dev@4>
   15391:	83 c4 0c             	add    $0xc,%esp
   15394:	c7 45 f0 c8 00 00 00 	movl   $0xc8,0xfffffff0(%ebp)
   1539b:	8d 45 ec             	lea    0xffffffec(%ebp),%eax
   1539e:	ff 00                	incl   (%eax)
   153a0:	e9 7c fe ff ff       	jmp    15221 <_hub_port_connect_change+0xfb>
   153a5:	8b 55 f8             	mov    0xfffffff8(%ebp),%edx
   153a8:	8b 45 0c             	mov    0xc(%ebp),%eax
   153ab:	c7 84 82 b0 01 00 00 	movl   $0x0,0x1b0(%edx,%eax,4)
   153b2:	00 00 00 00 
   153b6:	83 ec 08             	sub    $0x8,%esp
   153b9:	ff 75 0c             	pushl  0xc(%ebp)
   153bc:	ff 75 f8             	pushl  0xfffffff8(%ebp)
   153bf:	e8 4d fc ff ff       	call   15011 <_hub_port_disable>
   153c4:	83 c4 10             	add    $0x10,%esp
   153c7:	c9                   	leave  
   153c8:	c3                   	ret    

000153c9 <_hub_events>:
   153c9:	55                   	push   %ebp
   153ca:	89 e5                	mov    %esp,%ebp
   153cc:	83 ec 28             	sub    $0x28,%esp
   153cf:	c7 45 dc 00 00 00 00 	movl   $0x0,0xffffffdc(%ebp)
   153d6:	83 7d dc 04          	cmpl   $0x4,0xffffffdc(%ebp)
   153da:	0f 8f 9c 02 00 00    	jg     1567c <_hub_events+0x2b3>
   153e0:	8d 45 dc             	lea    0xffffffdc(%ebp),%eax
   153e3:	ff 00                	incl   (%eax)
   153e5:	c7 45 fc 00 00 00 00 	movl   $0x0,0xfffffffc(%ebp)
   153ec:	68 40 a0 01 00       	push   $0x1a040
   153f1:	e8 08 ed ff ff       	call   140fe <_list_empty>
   153f6:	83 c4 04             	add    $0x4,%esp
   153f9:	85 c0                	test   %eax,%eax
   153fb:	74 05                	je     15402 <_hub_events+0x39>
   153fd:	e9 7a 02 00 00       	jmp    1567c <_hub_events+0x2b3>
   15402:	a1 40 a0 01 00       	mov    0x1a040,%eax
   15407:	89 45 f8             	mov    %eax,0xfffffff8(%ebp)
   1540a:	8b 45 f8             	mov    0xfffffff8(%ebp),%eax
   1540d:	83 e8 24             	sub    $0x24,%eax
   15410:	89 45 f0             	mov    %eax,0xfffffff0(%ebp)
   15413:	8b 45 f0             	mov    0xfffffff0(%ebp),%eax
   15416:	8b 00                	mov    (%eax),%eax
   15418:	8b 80 b8 00 00 00    	mov    0xb8(%eax),%eax
   1541e:	89 45 d8             	mov    %eax,0xffffffd8(%ebp)
   15421:	8b 45 d8             	mov    0xffffffd8(%ebp),%eax
   15424:	2d c0 00 00 00       	sub    $0xc0,%eax
   15429:	89 45 f4             	mov    %eax,0xfffffff4(%ebp)
   1542c:	83 ec 0c             	sub    $0xc,%esp
   1542f:	ff 75 f8             	pushl  0xfffffff8(%ebp)
   15432:	e8 47 02 00 00       	call   1567e <_list_del_init>
   15437:	83 c4 10             	add    $0x10,%esp
   1543a:	8b 45 f0             	mov    0xfffffff0(%ebp),%eax
   1543d:	83 78 14 00          	cmpl   $0x0,0x14(%eax)
   15441:	74 39                	je     1547c <_hub_events+0xb3>
   15443:	83 ec 0c             	sub    $0xc,%esp
   15446:	ff 75 f0             	pushl  0xfffffff0(%ebp)
   15449:	e8 35 f8 ff ff       	call   14c83 <_hub_reset>
   1544e:	83 c4 10             	add    $0x10,%esp
   15451:	85 c0                	test   %eax,%eax
   15453:	74 13                	je     15468 <_hub_events+0x9f>
   15455:	83 ec 0c             	sub    $0xc,%esp
   15458:	ff 75 f4             	pushl  0xfffffff4(%ebp)
   1545b:	e8 13 f9 ff ff       	call   14d73 <_hub_start_disconnect>
   15460:	83 c4 10             	add    $0x10,%esp
   15463:	e9 6e ff ff ff       	jmp    153d6 <_hub_events+0xd>
   15468:	8b 45 f0             	mov    0xfffffff0(%ebp),%eax
   1546b:	c7 40 18 00 00 00 00 	movl   $0x0,0x18(%eax)
   15472:	8b 45 f0             	mov    0xfffffff0(%ebp),%eax
   15475:	c7 40 14 00 00 00 00 	movl   $0x0,0x14(%eax)
   1547c:	c7 45 e4 00 00 00 00 	movl   $0x0,0xffffffe4(%ebp)
   15483:	8b 45 f0             	mov    0xfffffff0(%ebp),%eax
   15486:	8b 40 2c             	mov    0x2c(%eax),%eax
   15489:	8a 40 02             	mov    0x2(%eax),%al
   1548c:	25 ff 00 00 00       	and    $0xff,%eax
   15491:	3b 45 e4             	cmp    0xffffffe4(%ebp),%eax
   15494:	0f 8e 5c 01 00 00    	jle    155f6 <_hub_events+0x22d>
   1549a:	8d 45 e8             	lea    0xffffffe8(%ebp),%eax
   1549d:	50                   	push   %eax
   1549e:	8d 45 ea             	lea    0xffffffea(%ebp),%eax
   154a1:	50                   	push   %eax
   154a2:	ff 75 e4             	pushl  0xffffffe4(%ebp)
   154a5:	ff 75 f4             	pushl  0xfffffff4(%ebp)
   154a8:	e8 2a f9 ff ff       	call   14dd7 <_hub_port_status>
   154ad:	83 c4 10             	add    $0x10,%esp
   154b0:	89 45 e0             	mov    %eax,0xffffffe0(%ebp)
   154b3:	83 7d e0 00          	cmpl   $0x0,0xffffffe0(%ebp)
   154b7:	79 05                	jns    154be <_hub_events+0xf5>
   154b9:	e9 2e 01 00 00       	jmp    155ec <_hub_events+0x223>
   154be:	8b 45 e8             	mov    0xffffffe8(%ebp),%eax
   154c1:	25 ff ff 00 00       	and    $0xffff,%eax
   154c6:	83 e0 01             	and    $0x1,%eax
   154c9:	85 c0                	test   %eax,%eax
   154cb:	74 23                	je     154f0 <_hub_events+0x127>
   154cd:	8b 45 e8             	mov    0xffffffe8(%ebp),%eax
   154d0:	25 ff ff 00 00       	and    $0xffff,%eax
   154d5:	50                   	push   %eax
   154d6:	66 8b 45 ea          	mov    0xffffffea(%ebp),%ax
   154da:	25 ff ff 00 00       	and    $0xffff,%eax
   154df:	50                   	push   %eax
   154e0:	ff 75 e4             	pushl  0xffffffe4(%ebp)
   154e3:	ff 75 f0             	pushl  0xfffffff0(%ebp)
   154e6:	e8 3b fc ff ff       	call   15126 <_hub_port_connect_change>
   154eb:	83 c4 10             	add    $0x10,%esp
   154ee:	eb 79                	jmp    15569 <_hub_events+0x1a0>
   154f0:	8b 45 e8             	mov    0xffffffe8(%ebp),%eax
   154f3:	25 ff ff 00 00       	and    $0xffff,%eax
   154f8:	d1 e8                	shr    %eax
   154fa:	83 e0 01             	and    $0x1,%eax
   154fd:	85 c0                	test   %eax,%eax
   154ff:	74 68                	je     15569 <_hub_events+0x1a0>
   15501:	83 ec 04             	sub    $0x4,%esp
   15504:	6a 11                	push   $0x11
   15506:	8b 45 e4             	mov    0xffffffe4(%ebp),%eax
   15509:	40                   	inc    %eax
   1550a:	50                   	push   %eax
   1550b:	ff 75 f4             	pushl  0xfffffff4(%ebp)
   1550e:	e8 c8 e9 ff ff       	call   13edb <_clear_port_feature>
   15513:	83 c4 10             	add    $0x10,%esp
   15516:	66 8b 45 ea          	mov    0xffffffea(%ebp),%ax
   1551a:	25 ff ff 00 00       	and    $0xffff,%eax
   1551f:	d1 e8                	shr    %eax
   15521:	83 e0 01             	and    $0x1,%eax
   15524:	85 c0                	test   %eax,%eax
   15526:	75 41                	jne    15569 <_hub_events+0x1a0>
   15528:	66 8b 45 ea          	mov    0xffffffea(%ebp),%ax
   1552c:	25 ff ff 00 00       	and    $0xffff,%eax
   15531:	83 e0 01             	and    $0x1,%eax
   15534:	85 c0                	test   %eax,%eax
   15536:	74 31                	je     15569 <_hub_events+0x1a0>
   15538:	8b 55 f4             	mov    0xfffffff4(%ebp),%edx
   1553b:	8b 45 e4             	mov    0xffffffe4(%ebp),%eax
   1553e:	83 bc 82 b0 01 00 00 	cmpl   $0x0,0x1b0(%edx,%eax,4)
   15545:	00 
   15546:	74 21                	je     15569 <_hub_events+0x1a0>
   15548:	8b 45 e8             	mov    0xffffffe8(%ebp),%eax
   1554b:	25 ff ff 00 00       	and    $0xffff,%eax
   15550:	50                   	push   %eax
   15551:	66 8b 45 ea          	mov    0xffffffea(%ebp),%ax
   15555:	25 ff ff 00 00       	and    $0xffff,%eax
   1555a:	50                   	push   %eax
   1555b:	ff 75 e4             	pushl  0xffffffe4(%ebp)
   1555e:	ff 75 f0             	pushl  0xfffffff0(%ebp)
   15561:	e8 c0 fb ff ff       	call   15126 <_hub_port_connect_change>
   15566:	83 c4 10             	add    $0x10,%esp
   15569:	8b 45 e8             	mov    0xffffffe8(%ebp),%eax
   1556c:	25 ff ff 00 00       	and    $0xffff,%eax
   15571:	c1 e8 02             	shr    $0x2,%eax
   15574:	83 e0 01             	and    $0x1,%eax
   15577:	85 c0                	test   %eax,%eax
   15579:	74 15                	je     15590 <_hub_events+0x1c7>
   1557b:	83 ec 04             	sub    $0x4,%esp
   1557e:	6a 12                	push   $0x12
   15580:	8b 45 e4             	mov    0xffffffe4(%ebp),%eax
   15583:	40                   	inc    %eax
   15584:	50                   	push   %eax
   15585:	ff 75 f4             	pushl  0xfffffff4(%ebp)
   15588:	e8 4e e9 ff ff       	call   13edb <_clear_port_feature>
   1558d:	83 c4 10             	add    $0x10,%esp
   15590:	8b 45 e8             	mov    0xffffffe8(%ebp),%eax
   15593:	25 ff ff 00 00       	and    $0xffff,%eax
   15598:	c1 e8 03             	shr    $0x3,%eax
   1559b:	83 e0 01             	and    $0x1,%eax
   1559e:	85 c0                	test   %eax,%eax
   155a0:	74 23                	je     155c5 <_hub_events+0x1fc>
   155a2:	83 ec 04             	sub    $0x4,%esp
   155a5:	6a 13                	push   $0x13
   155a7:	8b 45 e4             	mov    0xffffffe4(%ebp),%eax
   155aa:	40                   	inc    %eax
   155ab:	50                   	push   %eax
   155ac:	ff 75 f4             	pushl  0xfffffff4(%ebp)
   155af:	e8 27 e9 ff ff       	call   13edb <_clear_port_feature>
   155b4:	83 c4 10             	add    $0x10,%esp
   155b7:	83 ec 0c             	sub    $0xc,%esp
   155ba:	ff 75 f0             	pushl  0xfffffff0(%ebp)
   155bd:	e8 b1 ed ff ff       	call   14373 <_hub_power_on>
   155c2:	83 c4 10             	add    $0x10,%esp
   155c5:	8b 45 e8             	mov    0xffffffe8(%ebp),%eax
   155c8:	25 ff ff 00 00       	and    $0xffff,%eax
   155cd:	c1 e8 04             	shr    $0x4,%eax
   155d0:	83 e0 01             	and    $0x1,%eax
   155d3:	85 c0                	test   %eax,%eax
   155d5:	74 15                	je     155ec <_hub_events+0x223>
   155d7:	83 ec 04             	sub    $0x4,%esp
   155da:	6a 14                	push   $0x14
   155dc:	8b 45 e4             	mov    0xffffffe4(%ebp),%eax
   155df:	40                   	inc    %eax
   155e0:	50                   	push   %eax
   155e1:	ff 75 f4             	pushl  0xfffffff4(%ebp)
   155e4:	e8 f2 e8 ff ff       	call   13edb <_clear_port_feature>
   155e9:	83 c4 10             	add    $0x10,%esp
   155ec:	8d 45 e4             	lea    0xffffffe4(%ebp),%eax
   155ef:	ff 00                	incl   (%eax)
   155f1:	e9 8d fe ff ff       	jmp    15483 <_hub_events+0xba>
   155f6:	83 ec 04             	sub    $0x4,%esp
   155f9:	8d 45 ec             	lea    0xffffffec(%ebp),%eax
   155fc:	50                   	push   %eax
   155fd:	8d 45 ee             	lea    0xffffffee(%ebp),%eax
   15600:	50                   	push   %eax
   15601:	ff 75 f0             	pushl  0xfffffff0(%ebp)
   15604:	e8 dd ed ff ff       	call   143e6 <_hub_hub_status>
   15609:	83 c4 10             	add    $0x10,%esp
   1560c:	85 c0                	test   %eax,%eax
   1560e:	79 05                	jns    15615 <_hub_events+0x24c>
   15610:	e9 c1 fd ff ff       	jmp    153d6 <_hub_events+0xd>
   15615:	8b 45 ec             	mov    0xffffffec(%ebp),%eax
   15618:	25 ff ff 00 00       	and    $0xffff,%eax
   1561d:	83 e0 01             	and    $0x1,%eax
   15620:	85 c0                	test   %eax,%eax
   15622:	74 10                	je     15634 <_hub_events+0x26b>
   15624:	83 ec 08             	sub    $0x8,%esp
   15627:	6a 00                	push   $0x0
   15629:	ff 75 f4             	pushl  0xfffffff4(%ebp)
   1562c:	e8 6c e8 ff ff       	call   13e9d <_clear_hub_feature>
   15631:	83 c4 10             	add    $0x10,%esp
   15634:	8b 45 ec             	mov    0xffffffec(%ebp),%eax
   15637:	25 ff ff 00 00       	and    $0xffff,%eax
   1563c:	d1 e8                	shr    %eax
   1563e:	83 e0 01             	and    $0x1,%eax
   15641:	85 c0                	test   %eax,%eax
   15643:	0f 84 8d fd ff ff    	je     153d6 <_hub_events+0xd>
   15649:	83 ec 0c             	sub    $0xc,%esp
   1564c:	68 f4 01 00 00       	push   $0x1f4
   15651:	e8 5a 3e 00 00       	call   194b0 <_wait_ms>
   15656:	83 c4 10             	add    $0x10,%esp
   15659:	83 ec 08             	sub    $0x8,%esp
   1565c:	6a 01                	push   $0x1
   1565e:	ff 75 f4             	pushl  0xfffffff4(%ebp)
   15661:	e8 37 e8 ff ff       	call   13e9d <_clear_hub_feature>
   15666:	83 c4 10             	add    $0x10,%esp
   15669:	83 ec 0c             	sub    $0xc,%esp
   1566c:	ff 75 f0             	pushl  0xfffffff0(%ebp)
   1566f:	e8 ff ec ff ff       	call   14373 <_hub_power_on>
   15674:	83 c4 10             	add    $0x10,%esp
   15677:	e9 5a fd ff ff       	jmp    153d6 <_hub_events+0xd>
   1567c:	c9                   	leave  
   1567d:	c3                   	ret    

0001567e <_list_del_init>:
   1567e:	55                   	push   %ebp
   1567f:	89 e5                	mov    %esp,%ebp
   15681:	8b 45 08             	mov    0x8(%ebp),%eax
   15684:	ff 30                	pushl  (%eax)
   15686:	8b 45 08             	mov    0x8(%ebp),%eax
   15689:	ff 70 04             	pushl  0x4(%eax)
   1568c:	e8 ac eb ff ff       	call   1423d <___list_del>
   15691:	83 c4 08             	add    $0x8,%esp
   15694:	8b 55 08             	mov    0x8(%ebp),%edx
   15697:	8b 45 08             	mov    0x8(%ebp),%eax
   1569a:	89 02                	mov    %eax,(%edx)
   1569c:	8b 55 08             	mov    0x8(%ebp),%edx
   1569f:	8b 45 08             	mov    0x8(%ebp),%eax
   156a2:	89 42 04             	mov    %eax,0x4(%edx)
   156a5:	c9                   	leave  
   156a6:	c3                   	ret    

000156a7 <_hub_thread>:
   156a7:	55                   	push   %ebp
   156a8:	89 e5                	mov    %esp,%ebp
   156aa:	83 ec 08             	sub    $0x8,%esp
   156ad:	e8 17 fd ff ff       	call   153c9 <_hub_events>
   156b2:	b8 00 00 00 00       	mov    $0x0,%eax
   156b7:	c9                   	leave  
   156b8:	c3                   	ret    

000156b9 <_usb_hub_init>:
   156b9:	55                   	push   %ebp
   156ba:	89 e5                	mov    %esp,%ebp
   156bc:	83 ec 08             	sub    $0x8,%esp
   156bf:	83 ec 0c             	sub    $0xc,%esp
   156c2:	68 a0 a0 01 00       	push   $0x1a0a0
   156c7:	e8 26 05 00 00       	call   15bf2 <_usb_register>
   156cc:	83 c4 10             	add    $0x10,%esp
   156cf:	85 c0                	test   %eax,%eax
   156d1:	79 09                	jns    156dc <_usb_hub_init+0x23>
   156d3:	c7 45 f8 ff ff ff ff 	movl   $0xffffffff,0xfffffff8(%ebp)
   156da:	eb 45                	jmp    15721 <_usb_hub_init+0x68>
   156dc:	83 ec 04             	sub    $0x4,%esp
   156df:	6a 00                	push   $0x0
   156e1:	6a 00                	push   $0x0
   156e3:	68 a7 56 01 00       	push   $0x156a7
   156e8:	e8 03 40 00 00       	call   196f0 <_my_kernel_thread>
   156ed:	83 c4 10             	add    $0x10,%esp
   156f0:	89 45 fc             	mov    %eax,0xfffffffc(%ebp)
   156f3:	83 7d fc 00          	cmpl   $0x0,0xfffffffc(%ebp)
   156f7:	78 11                	js     1570a <_usb_hub_init+0x51>
   156f9:	8b 45 fc             	mov    0xfffffffc(%ebp),%eax
   156fc:	a3 30 c0 01 00       	mov    %eax,0x1c030
   15701:	c7 45 f8 00 00 00 00 	movl   $0x0,0xfffffff8(%ebp)
   15708:	eb 17                	jmp    15721 <_usb_hub_init+0x68>
   1570a:	83 ec 0c             	sub    $0xc,%esp
   1570d:	68 a0 a0 01 00       	push   $0x1a0a0
   15712:	e8 54 05 00 00       	call   15c6b <_usb_deregister>
   15717:	83 c4 10             	add    $0x10,%esp
   1571a:	c7 45 f8 ff ff ff ff 	movl   $0xffffffff,0xfffffff8(%ebp)
   15721:	8b 45 f8             	mov    0xfffffff8(%ebp),%eax
   15724:	c9                   	leave  
   15725:	c3                   	ret    

00015726 <_usb_hub_cleanup>:
   15726:	55                   	push   %ebp
   15727:	89 e5                	mov    %esp,%ebp
   15729:	83 ec 08             	sub    $0x8,%esp
   1572c:	c7 45 fc 00 00 00 00 	movl   $0x0,0xfffffffc(%ebp)
   15733:	83 ec 0c             	sub    $0xc,%esp
   15736:	68 60 c0 01 00       	push   $0x1c060
   1573b:	e8 98 41 00 00       	call   198d8 <_my_wait_for_completion>
   15740:	83 c4 10             	add    $0x10,%esp
   15743:	83 ec 0c             	sub    $0xc,%esp
   15746:	68 a0 a0 01 00       	push   $0x1a0a0
   1574b:	e8 1b 05 00 00       	call   15c6b <_usb_deregister>
   15750:	83 c4 10             	add    $0x10,%esp
   15753:	c9                   	leave  
   15754:	c3                   	ret    

00015755 <_usb_physical_reset_device>:
   15755:	55                   	push   %ebp
   15756:	89 e5                	mov    %esp,%ebp
   15758:	53                   	push   %ebx
   15759:	83 ec 24             	sub    $0x24,%esp
   1575c:	8b 45 08             	mov    0x8(%ebp),%eax
   1575f:	8b 80 b8 00 00 00    	mov    0xb8(%eax),%eax
   15765:	89 45 f8             	mov    %eax,0xfffffff8(%ebp)
   15768:	c7 45 e8 ff ff ff ff 	movl   $0xffffffff,0xffffffe8(%ebp)
   1576f:	83 7d f8 00          	cmpl   $0x0,0xfffffff8(%ebp)
   15773:	75 0c                	jne    15781 <_usb_physical_reset_device+0x2c>
   15775:	c7 45 dc ea ff ff ff 	movl   $0xffffffea,0xffffffdc(%ebp)
   1577c:	e9 29 03 00 00       	jmp    15aaa <_usb_physical_reset_device+0x355>
   15781:	c7 45 f0 00 00 00 00 	movl   $0x0,0xfffffff0(%ebp)
   15788:	8b 45 f8             	mov    0xfffffff8(%ebp),%eax
   1578b:	8b 80 ac 01 00 00    	mov    0x1ac(%eax),%eax
   15791:	3b 45 f0             	cmp    0xfffffff0(%ebp),%eax
   15794:	7e 21                	jle    157b7 <_usb_physical_reset_device+0x62>
   15796:	8b 45 f8             	mov    0xfffffff8(%ebp),%eax
   15799:	8b 55 f0             	mov    0xfffffff0(%ebp),%edx
   1579c:	8b 84 90 b0 01 00 00 	mov    0x1b0(%eax,%edx,4),%eax
   157a3:	3b 45 08             	cmp    0x8(%ebp),%eax
   157a6:	75 08                	jne    157b0 <_usb_physical_reset_device+0x5b>
   157a8:	8b 45 f0             	mov    0xfffffff0(%ebp),%eax
   157ab:	89 45 e8             	mov    %eax,0xffffffe8(%ebp)
   157ae:	eb 07                	jmp    157b7 <_usb_physical_reset_device+0x62>
   157b0:	8d 45 f0             	lea    0xfffffff0(%ebp),%eax
   157b3:	ff 00                	incl   (%eax)
   157b5:	eb d1                	jmp    15788 <_usb_physical_reset_device+0x33>
   157b7:	83 7d e8 00          	cmpl   $0x0,0xffffffe8(%ebp)
   157bb:	79 0c                	jns    157c9 <_usb_physical_reset_device+0x74>
   157bd:	c7 45 dc fe ff ff ff 	movl   $0xfffffffe,0xffffffdc(%ebp)
   157c4:	e9 e1 02 00 00       	jmp    15aaa <_usb_physical_reset_device+0x355>
   157c9:	83 ec 08             	sub    $0x8,%esp
   157cc:	6a 12                	push   $0x12
   157ce:	6a 01                	push   $0x1
   157d0:	e8 5b 42 00 00       	call   19a30 <_ExAllocatePool@8>
   157d5:	83 c4 08             	add    $0x8,%esp
   157d8:	89 45 f4             	mov    %eax,0xfffffff4(%ebp)
   157db:	83 7d f4 00          	cmpl   $0x0,0xfffffff4(%ebp)
   157df:	75 0c                	jne    157ed <_usb_physical_reset_device+0x98>
   157e1:	c7 45 dc f4 ff ff ff 	movl   $0xfffffff4,0xffffffdc(%ebp)
   157e8:	e9 bd 02 00 00       	jmp    15aaa <_usb_physical_reset_device+0x355>
   157ed:	6a 0a                	push   $0xa
   157ef:	ff 75 08             	pushl  0x8(%ebp)
   157f2:	ff 75 e8             	pushl  0xffffffe8(%ebp)
   157f5:	ff 75 f8             	pushl  0xfffffff8(%ebp)
   157f8:	e8 6c f7 ff ff       	call   14f69 <_hub_port_reset>
   157fd:	83 c4 10             	add    $0x10,%esp
   15800:	85 c0                	test   %eax,%eax
   15802:	74 2b                	je     1582f <_usb_physical_reset_device+0xda>
   15804:	83 ec 08             	sub    $0x8,%esp
   15807:	ff 75 e8             	pushl  0xffffffe8(%ebp)
   1580a:	ff 75 f8             	pushl  0xfffffff8(%ebp)
   1580d:	e8 ff f7 ff ff       	call   15011 <_hub_port_disable>
   15812:	83 c4 10             	add    $0x10,%esp
   15815:	83 ec 0c             	sub    $0xc,%esp
   15818:	ff 75 f4             	pushl  0xfffffff4(%ebp)
   1581b:	e8 20 42 00 00       	call   19a40 <_ExFreePool@4>
   15820:	83 c4 0c             	add    $0xc,%esp
   15823:	c7 45 dc ed ff ff ff 	movl   $0xffffffed,0xffffffdc(%ebp)
   1582a:	e9 7b 02 00 00       	jmp    15aaa <_usb_physical_reset_device+0x355>
   1582f:	83 ec 0c             	sub    $0xc,%esp
   15832:	ff 75 08             	pushl  0x8(%ebp)
   15835:	e8 53 11 00 00       	call   1698d <_usb_set_address>
   1583a:	83 c4 10             	add    $0x10,%esp
   1583d:	89 45 ec             	mov    %eax,0xffffffec(%ebp)
   15840:	83 7d ec 00          	cmpl   $0x0,0xffffffec(%ebp)
   15844:	79 2a                	jns    15870 <_usb_physical_reset_device+0x11b>
   15846:	83 ec 08             	sub    $0x8,%esp
   15849:	ff 75 e8             	pushl  0xffffffe8(%ebp)
   1584c:	ff 75 f8             	pushl  0xfffffff8(%ebp)
   1584f:	e8 bd f7 ff ff       	call   15011 <_hub_port_disable>
   15854:	83 c4 10             	add    $0x10,%esp
   15857:	83 ec 0c             	sub    $0xc,%esp
   1585a:	ff 75 f4             	pushl  0xfffffff4(%ebp)
   1585d:	e8 de 41 00 00       	call   19a40 <_ExFreePool@4>
   15862:	83 c4 0c             	add    $0xc,%esp
   15865:	8b 45 ec             	mov    0xffffffec(%ebp),%eax
   15868:	89 45 dc             	mov    %eax,0xffffffdc(%ebp)
   1586b:	e9 3a 02 00 00       	jmp    15aaa <_usb_physical_reset_device+0x355>
   15870:	83 ec 0c             	sub    $0xc,%esp
   15873:	6a 0a                	push   $0xa
   15875:	e8 36 3c 00 00       	call   194b0 <_wait_ms>
   1587a:	83 c4 10             	add    $0x10,%esp
   1587d:	83 ec 0c             	sub    $0xc,%esp
   15880:	6a 12                	push   $0x12
   15882:	ff 75 f4             	pushl  0xfffffff4(%ebp)
   15885:	6a 00                	push   $0x0
   15887:	6a 01                	push   $0x1
   15889:	ff 75 08             	pushl  0x8(%ebp)
   1588c:	e8 cb ba ff ff       	call   1135c <_usb_get_descriptor>
   15891:	83 c4 20             	add    $0x20,%esp
   15894:	89 45 ec             	mov    %eax,0xffffffec(%ebp)
   15897:	83 7d ec 00          	cmpl   $0x0,0xffffffec(%ebp)
   1589b:	79 19                	jns    158b6 <_usb_physical_reset_device+0x161>
   1589d:	83 ec 0c             	sub    $0xc,%esp
   158a0:	ff 75 f4             	pushl  0xfffffff4(%ebp)
   158a3:	e8 98 41 00 00       	call   19a40 <_ExFreePool@4>
   158a8:	83 c4 0c             	add    $0xc,%esp
   158ab:	8b 45 ec             	mov    0xffffffec(%ebp),%eax
   158ae:	89 45 dc             	mov    %eax,0xffffffdc(%ebp)
   158b1:	e9 f4 01 00 00       	jmp    15aaa <_usb_physical_reset_device+0x355>
   158b6:	83 ec 04             	sub    $0x4,%esp
   158b9:	6a 12                	push   $0x12
   158bb:	ff 75 f4             	pushl  0xfffffff4(%ebp)
   158be:	8b 45 08             	mov    0x8(%ebp),%eax
   158c1:	05 70 01 00 00       	add    $0x170,%eax
   158c6:	50                   	push   %eax
   158c7:	e8 e4 41 00 00       	call   19ab0 <_RtlCompareMemory@12>
   158cc:	83 c4 04             	add    $0x4,%esp
   158cf:	85 c0                	test   %eax,%eax
   158d1:	0f 84 e8 00 00 00    	je     159bf <_usb_physical_reset_device+0x26a>
   158d7:	83 ec 0c             	sub    $0xc,%esp
   158da:	ff 75 f4             	pushl  0xfffffff4(%ebp)
   158dd:	e8 5e 41 00 00       	call   19a40 <_ExFreePool@4>
   158e2:	83 c4 0c             	add    $0xc,%esp
   158e5:	83 ec 0c             	sub    $0xc,%esp
   158e8:	ff 75 08             	pushl  0x8(%ebp)
   158eb:	e8 05 23 00 00       	call   17bf5 <_usb_destroy_configuration>
   158f0:	83 c4 10             	add    $0x10,%esp
   158f3:	83 ec 0c             	sub    $0xc,%esp
   158f6:	ff 75 08             	pushl  0x8(%ebp)
   158f9:	e8 83 bb ff ff       	call   11481 <_usb_get_device_descriptor>
   158fe:	83 c4 10             	add    $0x10,%esp
   15901:	89 45 ec             	mov    %eax,0xffffffec(%ebp)
   15904:	83 7d ec 11          	cmpl   $0x11,0xffffffec(%ebp)
   15908:	77 32                	ja     1593c <_usb_physical_reset_device+0x1e7>
   1590a:	83 ec 08             	sub    $0x8,%esp
   1590d:	8b 45 08             	mov    0x8(%ebp),%eax
   15910:	8b 80 bc 00 00 00    	mov    0xbc(%eax),%eax
   15916:	83 c0 10             	add    $0x10,%eax
   15919:	50                   	push   %eax
   1591a:	8b 45 08             	mov    0x8(%ebp),%eax
   1591d:	ff 30                	pushl  (%eax)
   1591f:	e8 8e 01 00 00       	call   15ab2 <_clear_bit>
   15924:	83 c4 10             	add    $0x10,%esp
   15927:	8b 45 08             	mov    0x8(%ebp),%eax
   1592a:	c7 00 ff ff ff ff    	movl   $0xffffffff,(%eax)
   15930:	c7 45 dc fb ff ff ff 	movl   $0xfffffffb,0xffffffdc(%ebp)
   15937:	e9 6e 01 00 00       	jmp    15aaa <_usb_physical_reset_device+0x355>
   1593c:	83 ec 0c             	sub    $0xc,%esp
   1593f:	ff 75 08             	pushl  0x8(%ebp)
   15942:	e8 d1 24 00 00       	call   17e18 <_usb_get_configuration>
   15947:	83 c4 10             	add    $0x10,%esp
   1594a:	89 45 ec             	mov    %eax,0xffffffec(%ebp)
   1594d:	83 7d ec 00          	cmpl   $0x0,0xffffffec(%ebp)
   15951:	79 40                	jns    15993 <_usb_physical_reset_device+0x23e>
   15953:	83 ec 0c             	sub    $0xc,%esp
   15956:	ff 75 08             	pushl  0x8(%ebp)
   15959:	e8 97 22 00 00       	call   17bf5 <_usb_destroy_configuration>
   1595e:	83 c4 10             	add    $0x10,%esp
   15961:	83 ec 08             	sub    $0x8,%esp
   15964:	8b 45 08             	mov    0x8(%ebp),%eax
   15967:	8b 80 bc 00 00 00    	mov    0xbc(%eax),%eax
   1596d:	83 c0 10             	add    $0x10,%eax
   15970:	50                   	push   %eax
   15971:	8b 45 08             	mov    0x8(%ebp),%eax
   15974:	ff 30                	pushl  (%eax)
   15976:	e8 37 01 00 00       	call   15ab2 <_clear_bit>
   1597b:	83 c4 10             	add    $0x10,%esp
   1597e:	8b 45 08             	mov    0x8(%ebp),%eax
   15981:	c7 00 ff ff ff ff    	movl   $0xffffffff,(%eax)
   15987:	c7 45 dc 01 00 00 00 	movl   $0x1,0xffffffdc(%ebp)
   1598e:	e9 17 01 00 00       	jmp    15aaa <_usb_physical_reset_device+0x355>
   15993:	8b 45 08             	mov    0x8(%ebp),%eax
   15996:	8b 55 08             	mov    0x8(%ebp),%edx
   15999:	8b 92 84 01 00 00    	mov    0x184(%edx),%edx
   1599f:	89 90 88 01 00 00    	mov    %edx,0x188(%eax)
   159a5:	83 ec 0c             	sub    $0xc,%esp
   159a8:	ff 75 08             	pushl  0x8(%ebp)
   159ab:	e8 49 bb ff ff       	call   114f9 <_usb_set_maxpacket>
   159b0:	83 c4 10             	add    $0x10,%esp
   159b3:	c7 45 dc 01 00 00 00 	movl   $0x1,0xffffffdc(%ebp)
   159ba:	e9 eb 00 00 00       	jmp    15aaa <_usb_physical_reset_device+0x355>
   159bf:	83 ec 0c             	sub    $0xc,%esp
   159c2:	ff 75 f4             	pushl  0xfffffff4(%ebp)
   159c5:	e8 76 40 00 00       	call   19a40 <_ExFreePool@4>
   159ca:	83 c4 0c             	add    $0xc,%esp
   159cd:	83 ec 08             	sub    $0x8,%esp
   159d0:	8b 45 08             	mov    0x8(%ebp),%eax
   159d3:	8b 80 88 01 00 00    	mov    0x188(%eax),%eax
   159d9:	8a 40 05             	mov    0x5(%eax),%al
   159dc:	25 ff 00 00 00       	and    $0xff,%eax
   159e1:	50                   	push   %eax
   159e2:	ff 75 08             	pushl  0x8(%ebp)
   159e5:	e8 5d c0 ff ff       	call   11a47 <_usb_set_configuration>
   159ea:	83 c4 10             	add    $0x10,%esp
   159ed:	89 45 ec             	mov    %eax,0xffffffec(%ebp)
   159f0:	83 7d ec 00          	cmpl   $0x0,0xffffffec(%ebp)
   159f4:	79 0b                	jns    15a01 <_usb_physical_reset_device+0x2ac>
   159f6:	8b 45 ec             	mov    0xffffffec(%ebp),%eax
   159f9:	89 45 dc             	mov    %eax,0xffffffdc(%ebp)
   159fc:	e9 a9 00 00 00       	jmp    15aaa <_usb_physical_reset_device+0x355>
   15a01:	c7 45 f0 00 00 00 00 	movl   $0x0,0xfffffff0(%ebp)
   15a08:	8b 45 08             	mov    0x8(%ebp),%eax
   15a0b:	8b 80 88 01 00 00    	mov    0x188(%eax),%eax
   15a11:	8a 40 04             	mov    0x4(%eax),%al
   15a14:	25 ff 00 00 00       	and    $0xff,%eax
   15a19:	3b 45 f0             	cmp    0xfffffff0(%ebp),%eax
   15a1c:	0f 8e 81 00 00 00    	jle    15aa3 <_usb_physical_reset_device+0x34e>
   15a22:	8b 45 08             	mov    0x8(%ebp),%eax
   15a25:	8b 98 88 01 00 00    	mov    0x188(%eax),%ebx
   15a2b:	8b 4d f0             	mov    0xfffffff0(%ebp),%ecx
   15a2e:	89 c8                	mov    %ecx,%eax
   15a30:	c1 e0 02             	shl    $0x2,%eax
   15a33:	01 c8                	add    %ecx,%eax
   15a35:	8d 14 85 00 00 00 00 	lea    0x0(,%eax,4),%edx
   15a3c:	01 d0                	add    %edx,%eax
   15a3e:	01 c0                	add    %eax,%eax
   15a40:	01 c8                	add    %ecx,%eax
   15a42:	c1 e0 02             	shl    $0x2,%eax
   15a45:	03 43 0c             	add    0xc(%ebx),%eax
   15a48:	89 45 e4             	mov    %eax,0xffffffe4(%ebp)
   15a4b:	8b 4d e4             	mov    0xffffffe4(%ebp),%ecx
   15a4e:	8b 45 e4             	mov    0xffffffe4(%ebp),%eax
   15a51:	8b 50 04             	mov    0x4(%eax),%edx
   15a54:	89 d0                	mov    %edx,%eax
   15a56:	01 c0                	add    %eax,%eax
   15a58:	01 d0                	add    %edx,%eax
   15a5a:	c1 e0 03             	shl    $0x3,%eax
   15a5d:	03 01                	add    (%ecx),%eax
   15a5f:	89 45 e0             	mov    %eax,0xffffffe0(%ebp)
   15a62:	83 ec 04             	sub    $0x4,%esp
   15a65:	8b 45 e0             	mov    0xffffffe0(%ebp),%eax
   15a68:	8a 40 03             	mov    0x3(%eax),%al
   15a6b:	25 ff 00 00 00       	and    $0xff,%eax
   15a70:	50                   	push   %eax
   15a71:	8b 45 e0             	mov    0xffffffe0(%ebp),%eax
   15a74:	8a 40 02             	mov    0x2(%eax),%al
   15a77:	25 ff 00 00 00       	and    $0xff,%eax
   15a7c:	50                   	push   %eax
   15a7d:	ff 75 08             	pushl  0x8(%ebp)
   15a80:	e8 f1 bc ff ff       	call   11776 <_usb_set_interface>
   15a85:	83 c4 10             	add    $0x10,%esp
   15a88:	89 45 ec             	mov    %eax,0xffffffec(%ebp)
   15a8b:	83 7d ec 00          	cmpl   $0x0,0xffffffec(%ebp)
   15a8f:	79 08                	jns    15a99 <_usb_physical_reset_device+0x344>
   15a91:	8b 45 ec             	mov    0xffffffec(%ebp),%eax
   15a94:	89 45 dc             	mov    %eax,0xffffffdc(%ebp)
   15a97:	eb 11                	jmp    15aaa <_usb_physical_reset_device+0x355>
   15a99:	8d 45 f0             	lea    0xfffffff0(%ebp),%eax
   15a9c:	ff 00                	incl   (%eax)
   15a9e:	e9 65 ff ff ff       	jmp    15a08 <_usb_physical_reset_device+0x2b3>
   15aa3:	c7 45 dc 00 00 00 00 	movl   $0x0,0xffffffdc(%ebp)
   15aaa:	8b 45 dc             	mov    0xffffffdc(%ebp),%eax
   15aad:	8b 5d fc             	mov    0xfffffffc(%ebp),%ebx
   15ab0:	c9                   	leave  
   15ab1:	c3                   	ret    

00015ab2 <_clear_bit>:
   15ab2:	55                   	push   %ebp
   15ab3:	89 e5                	mov    %esp,%ebp
   15ab5:	8b 55 0c             	mov    0xc(%ebp),%edx
   15ab8:	8b 45 08             	mov    0x8(%ebp),%eax
   15abb:	0f b3 02             	btr    %eax,(%edx)
   15abe:	5d                   	pop    %ebp
   15abf:	c3                   	ret    

00015ac0 <_usb_reset_device>:
   15ac0:	55                   	push   %ebp
   15ac1:	89 e5                	mov    %esp,%ebp
   15ac3:	83 ec 08             	sub    $0x8,%esp
   15ac6:	83 ec 0c             	sub    $0xc,%esp
   15ac9:	ff 75 08             	pushl  0x8(%ebp)
   15acc:	e8 84 fc ff ff       	call   15755 <_usb_physical_reset_device>
   15ad1:	83 c4 10             	add    $0x10,%esp
   15ad4:	89 45 fc             	mov    %eax,0xfffffffc(%ebp)
   15ad7:	8b 45 fc             	mov    0xfffffffc(%ebp),%eax
   15ada:	c9                   	leave  
   15adb:	c3                   	ret    
   15adc:	90                   	nop    
   15add:	90                   	nop    
   15ade:	90                   	nop    
   15adf:	90                   	nop    

00015ae0 <_generic_probe>:
   15ae0:	55                   	push   %ebp
   15ae1:	89 e5                	mov    %esp,%ebp
   15ae3:	b8 00 00 00 00       	mov    $0x0,%eax
   15ae8:	5d                   	pop    %ebp
   15ae9:	c3                   	ret    

00015aea <_generic_remove>:
   15aea:	55                   	push   %ebp
   15aeb:	89 e5                	mov    %esp,%ebp
   15aed:	b8 00 00 00 00       	mov    $0x0,%eax
   15af2:	5d                   	pop    %ebp
   15af3:	c3                   	ret    

00015af4 <_usb_device_probe>:
   15af4:	55                   	push   %ebp
   15af5:	89 e5                	mov    %esp,%ebp
   15af7:	83 ec 18             	sub    $0x18,%esp
   15afa:	8b 45 08             	mov    0x8(%ebp),%eax
   15afd:	89 45 f8             	mov    %eax,0xfffffff8(%ebp)
   15b00:	8b 45 f8             	mov    0xfffffff8(%ebp),%eax
   15b03:	83 e8 18             	sub    $0x18,%eax
   15b06:	89 45 fc             	mov    %eax,0xfffffffc(%ebp)
   15b09:	8b 45 08             	mov    0x8(%ebp),%eax
   15b0c:	8b 80 98 00 00 00    	mov    0x98(%eax),%eax
   15b12:	89 45 f4             	mov    %eax,0xfffffff4(%ebp)
   15b15:	8b 45 f4             	mov    0xfffffff4(%ebp),%eax
   15b18:	83 e8 18             	sub    $0x18,%eax
   15b1b:	89 45 f8             	mov    %eax,0xfffffff8(%ebp)
   15b1e:	c7 45 f0 ed ff ff ff 	movl   $0xffffffed,0xfffffff0(%ebp)
   15b25:	8b 45 f8             	mov    0xfffffff8(%ebp),%eax
   15b28:	83 78 08 00          	cmpl   $0x0,0x8(%eax)
   15b2c:	75 08                	jne    15b36 <_usb_device_probe+0x42>
   15b2e:	8b 45 f0             	mov    0xfffffff0(%ebp),%eax
   15b31:	89 45 ec             	mov    %eax,0xffffffec(%ebp)
   15b34:	eb 49                	jmp    15b7f <_usb_device_probe+0x8b>
   15b36:	83 ec 08             	sub    $0x8,%esp
   15b39:	8b 45 f8             	mov    0xfffffff8(%ebp),%eax
   15b3c:	ff 70 14             	pushl  0x14(%eax)
   15b3f:	ff 75 fc             	pushl  0xfffffffc(%ebp)
   15b42:	e8 0d 04 00 00       	call   15f54 <_usb_match_id>
   15b47:	83 c4 10             	add    $0x10,%esp
   15b4a:	89 45 f4             	mov    %eax,0xfffffff4(%ebp)
   15b4d:	83 7d f4 00          	cmpl   $0x0,0xfffffff4(%ebp)
   15b51:	74 17                	je     15b6a <_usb_device_probe+0x76>
   15b53:	83 ec 08             	sub    $0x8,%esp
   15b56:	8b 45 f8             	mov    0xfffffff8(%ebp),%eax
   15b59:	ff 75 f4             	pushl  0xfffffff4(%ebp)
   15b5c:	ff 75 fc             	pushl  0xfffffffc(%ebp)
   15b5f:	8b 40 08             	mov    0x8(%eax),%eax
   15b62:	ff d0                	call   *%eax
   15b64:	83 c4 10             	add    $0x10,%esp
   15b67:	89 45 f0             	mov    %eax,0xfffffff0(%ebp)
   15b6a:	83 7d f0 00          	cmpl   $0x0,0xfffffff0(%ebp)
   15b6e:	75 09                	jne    15b79 <_usb_device_probe+0x85>
   15b70:	8b 55 fc             	mov    0xfffffffc(%ebp),%edx
   15b73:	8b 45 f8             	mov    0xfffffff8(%ebp),%eax
   15b76:	89 42 10             	mov    %eax,0x10(%edx)
   15b79:	8b 45 f0             	mov    0xfffffff0(%ebp),%eax
   15b7c:	89 45 ec             	mov    %eax,0xffffffec(%ebp)
   15b7f:	8b 45 ec             	mov    0xffffffec(%ebp),%eax
   15b82:	c9                   	leave  
   15b83:	c3                   	ret    

00015b84 <_usb_device_remove>:
   15b84:	55                   	push   %ebp
   15b85:	89 e5                	mov    %esp,%ebp
   15b87:	83 ec 18             	sub    $0x18,%esp
   15b8a:	8b 45 08             	mov    0x8(%ebp),%eax
   15b8d:	83 e8 18             	sub    $0x18,%eax
   15b90:	89 45 fc             	mov    %eax,0xfffffffc(%ebp)
   15b93:	8b 45 08             	mov    0x8(%ebp),%eax
   15b96:	8b 80 98 00 00 00    	mov    0x98(%eax),%eax
   15b9c:	89 45 f4             	mov    %eax,0xfffffff4(%ebp)
   15b9f:	8b 45 f4             	mov    0xfffffff4(%ebp),%eax
   15ba2:	83 e8 18             	sub    $0x18,%eax
   15ba5:	89 45 f8             	mov    %eax,0xfffffff8(%ebp)
   15ba8:	8b 45 fc             	mov    0xfffffffc(%ebp),%eax
   15bab:	83 78 10 00          	cmpl   $0x0,0x10(%eax)
   15baf:	74 20                	je     15bd1 <_usb_device_remove+0x4d>
   15bb1:	8b 45 fc             	mov    0xfffffffc(%ebp),%eax
   15bb4:	8b 40 10             	mov    0x10(%eax),%eax
   15bb7:	83 78 0c 00          	cmpl   $0x0,0xc(%eax)
   15bbb:	74 14                	je     15bd1 <_usb_device_remove+0x4d>
   15bbd:	83 ec 0c             	sub    $0xc,%esp
   15bc0:	8b 45 fc             	mov    0xfffffffc(%ebp),%eax
   15bc3:	8b 40 10             	mov    0x10(%eax),%eax
   15bc6:	ff 75 fc             	pushl  0xfffffffc(%ebp)
   15bc9:	8b 40 0c             	mov    0xc(%eax),%eax
   15bcc:	ff d0                	call   *%eax
   15bce:	83 c4 10             	add    $0x10,%esp
   15bd1:	8b 45 fc             	mov    0xfffffffc(%ebp),%eax
   15bd4:	83 78 10 00          	cmpl   $0x0,0x10(%eax)
   15bd8:	74 11                	je     15beb <_usb_device_remove+0x67>
   15bda:	83 ec 08             	sub    $0x8,%esp
   15bdd:	ff 75 fc             	pushl  0xfffffffc(%ebp)
   15be0:	ff 75 f8             	pushl  0xfffffff8(%ebp)
   15be3:	e8 3f 03 00 00       	call   15f27 <_usb_driver_release_interface>
   15be8:	83 c4 10             	add    $0x10,%esp
   15beb:	b8 00 00 00 00       	mov    $0x0,%eax
   15bf0:	c9                   	leave  
   15bf1:	c3                   	ret    

00015bf2 <_usb_register>:
   15bf2:	55                   	push   %ebp
   15bf3:	89 e5                	mov    %esp,%ebp
   15bf5:	83 ec 08             	sub    $0x8,%esp
   15bf8:	c7 45 fc 00 00 00 00 	movl   $0x0,0xfffffffc(%ebp)
   15bff:	83 3d 30 c1 01 00 00 	cmpl   $0x0,0x1c130
   15c06:	74 09                	je     15c11 <_usb_register+0x1f>
   15c08:	c7 45 f8 ed ff ff ff 	movl   $0xffffffed,0xfffffff8(%ebp)
   15c0f:	eb 50                	jmp    15c61 <_usb_register+0x6f>
   15c11:	8b 55 08             	mov    0x8(%ebp),%edx
   15c14:	8b 45 08             	mov    0x8(%ebp),%eax
   15c17:	8b 40 04             	mov    0x4(%eax),%eax
   15c1a:	89 42 18             	mov    %eax,0x18(%edx)
   15c1d:	8b 45 08             	mov    0x8(%ebp),%eax
   15c20:	c7 40 1c f8 a0 01 00 	movl   $0x1a0f8,0x1c(%eax)
   15c27:	8b 45 08             	mov    0x8(%ebp),%eax
   15c2a:	c7 40 20 f4 5a 01 00 	movl   $0x15af4,0x20(%eax)
   15c31:	8b 45 08             	mov    0x8(%ebp),%eax
   15c34:	c7 40 24 84 5b 01 00 	movl   $0x15b84,0x24(%eax)
   15c3b:	83 ec 0c             	sub    $0xc,%esp
   15c3e:	8b 45 08             	mov    0x8(%ebp),%eax
   15c41:	83 c0 18             	add    $0x18,%eax
   15c44:	50                   	push   %eax
   15c45:	e8 92 3b 00 00       	call   197dc <_my_driver_register>
   15c4a:	83 c4 10             	add    $0x10,%esp
   15c4d:	89 45 fc             	mov    %eax,0xfffffffc(%ebp)
   15c50:	83 7d fc 00          	cmpl   $0x0,0xfffffffc(%ebp)
   15c54:	75 05                	jne    15c5b <_usb_register+0x69>
   15c56:	e8 0b 00 00 00       	call   15c66 <_usbfs_update_special>
   15c5b:	8b 45 fc             	mov    0xfffffffc(%ebp),%eax
   15c5e:	89 45 f8             	mov    %eax,0xfffffff8(%ebp)
   15c61:	8b 45 f8             	mov    0xfffffff8(%ebp),%eax
   15c64:	c9                   	leave  
   15c65:	c3                   	ret    

00015c66 <_usbfs_update_special>:
   15c66:	55                   	push   %ebp
   15c67:	89 e5                	mov    %esp,%ebp
   15c69:	5d                   	pop    %ebp
   15c6a:	c3                   	ret    

00015c6b <_usb_deregister>:
   15c6b:	55                   	push   %ebp
   15c6c:	89 e5                	mov    %esp,%ebp
   15c6e:	e8 f3 ff ff ff       	call   15c66 <_usbfs_update_special>
   15c73:	5d                   	pop    %ebp
   15c74:	c3                   	ret    

00015c75 <_usb_ifnum_to_if>:
   15c75:	55                   	push   %ebp
   15c76:	89 e5                	mov    %esp,%ebp
   15c78:	53                   	push   %ebx
   15c79:	83 ec 08             	sub    $0x8,%esp
   15c7c:	c7 45 f8 00 00 00 00 	movl   $0x0,0xfffffff8(%ebp)
   15c83:	8b 45 08             	mov    0x8(%ebp),%eax
   15c86:	8b 80 88 01 00 00    	mov    0x188(%eax),%eax
   15c8c:	8a 40 04             	mov    0x4(%eax),%al
   15c8f:	25 ff 00 00 00       	and    $0xff,%eax
   15c94:	3b 45 f8             	cmp    0xfffffff8(%ebp),%eax
   15c97:	7e 6f                	jle    15d08 <_usb_ifnum_to_if+0x93>
   15c99:	8b 45 08             	mov    0x8(%ebp),%eax
   15c9c:	8b 98 88 01 00 00    	mov    0x188(%eax),%ebx
   15ca2:	8b 4d f8             	mov    0xfffffff8(%ebp),%ecx
   15ca5:	89 c8                	mov    %ecx,%eax
   15ca7:	c1 e0 02             	shl    $0x2,%eax
   15caa:	01 c8                	add    %ecx,%eax
   15cac:	8d 14 85 00 00 00 00 	lea    0x0(,%eax,4),%edx
   15cb3:	01 d0                	add    %edx,%eax
   15cb5:	01 c0                	add    %eax,%eax
   15cb7:	01 c8                	add    %ecx,%eax
   15cb9:	8d 14 85 00 00 00 00 	lea    0x0(,%eax,4),%edx
   15cc0:	8b 43 0c             	mov    0xc(%ebx),%eax
   15cc3:	8b 04 02             	mov    (%edx,%eax,1),%eax
   15cc6:	8a 40 02             	mov    0x2(%eax),%al
   15cc9:	25 ff 00 00 00       	and    $0xff,%eax
   15cce:	3b 45 0c             	cmp    0xc(%ebp),%eax
   15cd1:	75 2b                	jne    15cfe <_usb_ifnum_to_if+0x89>
   15cd3:	8b 45 08             	mov    0x8(%ebp),%eax
   15cd6:	8b 98 88 01 00 00    	mov    0x188(%eax),%ebx
   15cdc:	8b 4d f8             	mov    0xfffffff8(%ebp),%ecx
   15cdf:	89 c8                	mov    %ecx,%eax
   15ce1:	c1 e0 02             	shl    $0x2,%eax
   15ce4:	01 c8                	add    %ecx,%eax
   15ce6:	8d 14 85 00 00 00 00 	lea    0x0(,%eax,4),%edx
   15ced:	01 d0                	add    %edx,%eax
   15cef:	01 c0                	add    %eax,%eax
   15cf1:	01 c8                	add    %ecx,%eax
   15cf3:	c1 e0 02             	shl    $0x2,%eax
   15cf6:	03 43 0c             	add    0xc(%ebx),%eax
   15cf9:	89 45 f4             	mov    %eax,0xfffffff4(%ebp)
   15cfc:	eb 11                	jmp    15d0f <_usb_ifnum_to_if+0x9a>
   15cfe:	8d 45 f8             	lea    0xfffffff8(%ebp),%eax
   15d01:	ff 00                	incl   (%eax)
   15d03:	e9 7b ff ff ff       	jmp    15c83 <_usb_ifnum_to_if+0xe>
   15d08:	c7 45 f4 00 00 00 00 	movl   $0x0,0xfffffff4(%ebp)
   15d0f:	8b 45 f4             	mov    0xfffffff4(%ebp),%eax
   15d12:	83 c4 08             	add    $0x8,%esp
   15d15:	5b                   	pop    %ebx
   15d16:	5d                   	pop    %ebp
   15d17:	c3                   	ret    

00015d18 <_usb_epnum_to_ep_desc>:
   15d18:	55                   	push   %ebp
   15d19:	89 e5                	mov    %esp,%ebp
   15d1b:	56                   	push   %esi
   15d1c:	53                   	push   %ebx
   15d1d:	83 ec 10             	sub    $0x10,%esp
   15d20:	c7 45 f4 00 00 00 00 	movl   $0x0,0xfffffff4(%ebp)
   15d27:	8b 45 08             	mov    0x8(%ebp),%eax
   15d2a:	8b 80 88 01 00 00    	mov    0x188(%eax),%eax
   15d30:	8a 40 04             	mov    0x4(%eax),%al
   15d33:	25 ff 00 00 00       	and    $0xff,%eax
   15d38:	3b 45 f4             	cmp    0xfffffff4(%ebp),%eax
   15d3b:	0f 8e 65 01 00 00    	jle    15ea6 <_usb_epnum_to_ep_desc+0x18e>
   15d41:	c7 45 f0 00 00 00 00 	movl   $0x0,0xfffffff0(%ebp)
   15d48:	8b 45 08             	mov    0x8(%ebp),%eax
   15d4b:	8b 98 88 01 00 00    	mov    0x188(%eax),%ebx
   15d51:	8b 4d f4             	mov    0xfffffff4(%ebp),%ecx
   15d54:	89 c8                	mov    %ecx,%eax
   15d56:	c1 e0 02             	shl    $0x2,%eax
   15d59:	01 c8                	add    %ecx,%eax
   15d5b:	8d 14 85 00 00 00 00 	lea    0x0(,%eax,4),%edx
   15d62:	01 d0                	add    %edx,%eax
   15d64:	01 c0                	add    %eax,%eax
   15d66:	01 c8                	add    %ecx,%eax
   15d68:	8d 0c 85 00 00 00 00 	lea    0x0(,%eax,4),%ecx
   15d6f:	8b 53 0c             	mov    0xc(%ebx),%edx
   15d72:	8b 45 f0             	mov    0xfffffff0(%ebp),%eax
   15d75:	3b 44 11 08          	cmp    0x8(%ecx,%edx,1),%eax
   15d79:	0f 83 1d 01 00 00    	jae    15e9c <_usb_epnum_to_ep_desc+0x184>
   15d7f:	c7 45 ec 00 00 00 00 	movl   $0x0,0xffffffec(%ebp)
   15d86:	8b 45 08             	mov    0x8(%ebp),%eax
   15d89:	8b 98 88 01 00 00    	mov    0x188(%eax),%ebx
   15d8f:	8b 4d f4             	mov    0xfffffff4(%ebp),%ecx
   15d92:	89 c8                	mov    %ecx,%eax
   15d94:	c1 e0 02             	shl    $0x2,%eax
   15d97:	01 c8                	add    %ecx,%eax
   15d99:	8d 14 85 00 00 00 00 	lea    0x0(,%eax,4),%edx
   15da0:	01 d0                	add    %edx,%eax
   15da2:	01 c0                	add    %eax,%eax
   15da4:	01 c8                	add    %ecx,%eax
   15da6:	8d 0c 85 00 00 00 00 	lea    0x0(,%eax,4),%ecx
   15dad:	8b 5b 0c             	mov    0xc(%ebx),%ebx
   15db0:	8b 55 f0             	mov    0xfffffff0(%ebp),%edx
   15db3:	89 d0                	mov    %edx,%eax
   15db5:	01 c0                	add    %eax,%eax
   15db7:	01 d0                	add    %edx,%eax
   15db9:	8d 14 c5 00 00 00 00 	lea    0x0(,%eax,8),%edx
   15dc0:	8b 04 19             	mov    (%ecx,%ebx,1),%eax
   15dc3:	8a 44 02 04          	mov    0x4(%edx,%eax,1),%al
   15dc7:	25 ff 00 00 00       	and    $0xff,%eax
   15dcc:	3b 45 ec             	cmp    0xffffffec(%ebp),%eax
   15dcf:	0f 8e bd 00 00 00    	jle    15e92 <_usb_epnum_to_ep_desc+0x17a>
   15dd5:	8b 45 08             	mov    0x8(%ebp),%eax
   15dd8:	8b 98 88 01 00 00    	mov    0x188(%eax),%ebx
   15dde:	8b 4d f4             	mov    0xfffffff4(%ebp),%ecx
   15de1:	89 c8                	mov    %ecx,%eax
   15de3:	c1 e0 02             	shl    $0x2,%eax
   15de6:	01 c8                	add    %ecx,%eax
   15de8:	8d 14 85 00 00 00 00 	lea    0x0(,%eax,4),%edx
   15def:	01 d0                	add    %edx,%eax
   15df1:	01 c0                	add    %eax,%eax
   15df3:	01 c8                	add    %ecx,%eax
   15df5:	8d 0c 85 00 00 00 00 	lea    0x0(,%eax,4),%ecx
   15dfc:	8b 5b 0c             	mov    0xc(%ebx),%ebx
   15dff:	8b 55 f0             	mov    0xfffffff0(%ebp),%edx
   15e02:	89 d0                	mov    %edx,%eax
   15e04:	01 c0                	add    %eax,%eax
   15e06:	01 d0                	add    %edx,%eax
   15e08:	8d 34 c5 00 00 00 00 	lea    0x0(,%eax,8),%esi
   15e0f:	8b 0c 19             	mov    (%ecx,%ebx,1),%ecx
   15e12:	8b 55 ec             	mov    0xffffffec(%ebp),%edx
   15e15:	89 d0                	mov    %edx,%eax
   15e17:	c1 e0 02             	shl    $0x2,%eax
   15e1a:	01 d0                	add    %edx,%eax
   15e1c:	8d 14 85 00 00 00 00 	lea    0x0(,%eax,4),%edx
   15e23:	8b 44 0e 0c          	mov    0xc(%esi,%ecx,1),%eax
   15e27:	8a 44 02 02          	mov    0x2(%edx,%eax,1),%al
   15e2b:	25 ff 00 00 00       	and    $0xff,%eax
   15e30:	3b 45 0c             	cmp    0xc(%ebp),%eax
   15e33:	75 53                	jne    15e88 <_usb_epnum_to_ep_desc+0x170>
   15e35:	8b 45 08             	mov    0x8(%ebp),%eax
   15e38:	8b 98 88 01 00 00    	mov    0x188(%eax),%ebx
   15e3e:	8b 4d f4             	mov    0xfffffff4(%ebp),%ecx
   15e41:	89 c8                	mov    %ecx,%eax
   15e43:	c1 e0 02             	shl    $0x2,%eax
   15e46:	01 c8                	add    %ecx,%eax
   15e48:	8d 14 85 00 00 00 00 	lea    0x0(,%eax,4),%edx
   15e4f:	01 d0                	add    %edx,%eax
   15e51:	01 c0                	add    %eax,%eax
   15e53:	01 c8                	add    %ecx,%eax
   15e55:	8d 0c 85 00 00 00 00 	lea    0x0(,%eax,4),%ecx
   15e5c:	8b 5b 0c             	mov    0xc(%ebx),%ebx
   15e5f:	8b 55 f0             	mov    0xfffffff0(%ebp),%edx
   15e62:	89 d0                	mov    %edx,%eax
   15e64:	01 c0                	add    %eax,%eax
   15e66:	01 d0                	add    %edx,%eax
   15e68:	8d 34 c5 00 00 00 00 	lea    0x0(,%eax,8),%esi
   15e6f:	8b 0c 19             	mov    (%ecx,%ebx,1),%ecx
   15e72:	8b 55 ec             	mov    0xffffffec(%ebp),%edx
   15e75:	89 d0                	mov    %edx,%eax
   15e77:	c1 e0 02             	shl    $0x2,%eax
   15e7a:	01 d0                	add    %edx,%eax
   15e7c:	c1 e0 02             	shl    $0x2,%eax
   15e7f:	03 44 0e 0c          	add    0xc(%esi,%ecx,1),%eax
   15e83:	89 45 e8             	mov    %eax,0xffffffe8(%ebp)
   15e86:	eb 25                	jmp    15ead <_usb_epnum_to_ep_desc+0x195>
   15e88:	8d 45 ec             	lea    0xffffffec(%ebp),%eax
   15e8b:	ff 00                	incl   (%eax)
   15e8d:	e9 f4 fe ff ff       	jmp    15d86 <_usb_epnum_to_ep_desc+0x6e>
   15e92:	8d 45 f0             	lea    0xfffffff0(%ebp),%eax
   15e95:	ff 00                	incl   (%eax)
   15e97:	e9 ac fe ff ff       	jmp    15d48 <_usb_epnum_to_ep_desc+0x30>
   15e9c:	8d 45 f4             	lea    0xfffffff4(%ebp),%eax
   15e9f:	ff 00                	incl   (%eax)
   15ea1:	e9 81 fe ff ff       	jmp    15d27 <_usb_epnum_to_ep_desc+0xf>
   15ea6:	c7 45 e8 00 00 00 00 	movl   $0x0,0xffffffe8(%ebp)
   15ead:	8b 45 e8             	mov    0xffffffe8(%ebp),%eax
   15eb0:	83 c4 10             	add    $0x10,%esp
   15eb3:	5b                   	pop    %ebx
   15eb4:	5e                   	pop    %esi
   15eb5:	5d                   	pop    %ebp
   15eb6:	c3                   	ret    

00015eb7 <_usb_driver_claim_interface>:
   15eb7:	55                   	push   %ebp
   15eb8:	89 e5                	mov    %esp,%ebp
   15eba:	83 ec 08             	sub    $0x8,%esp
   15ebd:	83 7d 0c 00          	cmpl   $0x0,0xc(%ebp)
   15ec1:	74 22                	je     15ee5 <_usb_driver_claim_interface+0x2e>
   15ec3:	83 7d 08 00          	cmpl   $0x0,0x8(%ebp)
   15ec7:	75 02                	jne    15ecb <_usb_driver_claim_interface+0x14>
   15ec9:	eb 1a                	jmp    15ee5 <_usb_driver_claim_interface+0x2e>
   15ecb:	8b 55 0c             	mov    0xc(%ebp),%edx
   15ece:	8b 45 08             	mov    0x8(%ebp),%eax
   15ed1:	89 42 10             	mov    %eax,0x10(%edx)
   15ed4:	83 ec 08             	sub    $0x8,%esp
   15ed7:	ff 75 10             	pushl  0x10(%ebp)
   15eda:	ff 75 0c             	pushl  0xc(%ebp)
   15edd:	e8 05 00 00 00       	call   15ee7 <_usb_set_intfdata>
   15ee2:	83 c4 10             	add    $0x10,%esp
   15ee5:	c9                   	leave  
   15ee6:	c3                   	ret    

00015ee7 <_usb_set_intfdata>:
   15ee7:	55                   	push   %ebp
   15ee8:	89 e5                	mov    %esp,%ebp
   15eea:	8b 55 08             	mov    0x8(%ebp),%edx
   15eed:	83 c2 18             	add    $0x18,%edx
   15ef0:	8b 45 0c             	mov    0xc(%ebp),%eax
   15ef3:	89 82 9c 00 00 00    	mov    %eax,0x9c(%edx)
   15ef9:	5d                   	pop    %ebp
   15efa:	c3                   	ret    

00015efb <_usb_interface_claimed>:
   15efb:	55                   	push   %ebp
   15efc:	89 e5                	mov    %esp,%ebp
   15efe:	83 ec 04             	sub    $0x4,%esp
   15f01:	83 7d 08 00          	cmpl   $0x0,0x8(%ebp)
   15f05:	75 09                	jne    15f10 <_usb_interface_claimed+0x15>
   15f07:	c7 45 fc 00 00 00 00 	movl   $0x0,0xfffffffc(%ebp)
   15f0e:	eb 12                	jmp    15f22 <_usb_interface_claimed+0x27>
   15f10:	8b 45 08             	mov    0x8(%ebp),%eax
   15f13:	83 78 10 00          	cmpl   $0x0,0x10(%eax)
   15f17:	0f 95 c0             	setne  %al
   15f1a:	25 ff 00 00 00       	and    $0xff,%eax
   15f1f:	89 45 fc             	mov    %eax,0xfffffffc(%ebp)
   15f22:	8b 45 fc             	mov    0xfffffffc(%ebp),%eax
   15f25:	c9                   	leave  
   15f26:	c3                   	ret    

00015f27 <_usb_driver_release_interface>:
   15f27:	55                   	push   %ebp
   15f28:	89 e5                	mov    %esp,%ebp
   15f2a:	83 7d 0c 00          	cmpl   $0x0,0xc(%ebp)
   15f2e:	74 22                	je     15f52 <_usb_driver_release_interface+0x2b>
   15f30:	8b 45 0c             	mov    0xc(%ebp),%eax
   15f33:	8b 40 10             	mov    0x10(%eax),%eax
   15f36:	3b 45 08             	cmp    0x8(%ebp),%eax
   15f39:	75 17                	jne    15f52 <_usb_driver_release_interface+0x2b>
   15f3b:	8b 45 0c             	mov    0xc(%ebp),%eax
   15f3e:	c7 40 10 00 00 00 00 	movl   $0x0,0x10(%eax)
   15f45:	6a 00                	push   $0x0
   15f47:	ff 75 0c             	pushl  0xc(%ebp)
   15f4a:	e8 98 ff ff ff       	call   15ee7 <_usb_set_intfdata>
   15f4f:	83 c4 08             	add    $0x8,%esp
   15f52:	c9                   	leave  
   15f53:	c3                   	ret    

00015f54 <_usb_match_id>:
   15f54:	55                   	push   %ebp
   15f55:	89 e5                	mov    %esp,%ebp
   15f57:	83 ec 10             	sub    $0x10,%esp
   15f5a:	83 7d 0c 00          	cmpl   $0x0,0xc(%ebp)
   15f5e:	75 0c                	jne    15f6c <_usb_match_id+0x18>
   15f60:	c7 45 f0 00 00 00 00 	movl   $0x0,0xfffffff0(%ebp)
   15f67:	e9 0f 02 00 00       	jmp    1617b <_usb_match_id+0x227>
   15f6c:	8b 4d 08             	mov    0x8(%ebp),%ecx
   15f6f:	8b 45 08             	mov    0x8(%ebp),%eax
   15f72:	8b 50 04             	mov    0x4(%eax),%edx
   15f75:	89 d0                	mov    %edx,%eax
   15f77:	01 c0                	add    %eax,%eax
   15f79:	01 d0                	add    %edx,%eax
   15f7b:	c1 e0 03             	shl    $0x3,%eax
   15f7e:	03 01                	add    (%ecx),%eax
   15f80:	89 45 fc             	mov    %eax,0xfffffffc(%ebp)
   15f83:	8b 45 08             	mov    0x8(%ebp),%eax
   15f86:	8b 80 b8 00 00 00    	mov    0xb8(%eax),%eax
   15f8c:	89 45 f4             	mov    %eax,0xfffffff4(%ebp)
   15f8f:	8b 45 f4             	mov    0xfffffff4(%ebp),%eax
   15f92:	2d c0 00 00 00       	sub    $0xc0,%eax
   15f97:	89 45 f8             	mov    %eax,0xfffffff8(%ebp)
   15f9a:	8b 45 0c             	mov    0xc(%ebp),%eax
   15f9d:	66 83 78 02 00       	cmpw   $0x0,0x2(%eax)
   15fa2:	75 20                	jne    15fc4 <_usb_match_id+0x70>
   15fa4:	8b 45 0c             	mov    0xc(%ebp),%eax
   15fa7:	80 78 0a 00          	cmpb   $0x0,0xa(%eax)
   15fab:	75 17                	jne    15fc4 <_usb_match_id+0x70>
   15fad:	8b 45 0c             	mov    0xc(%ebp),%eax
   15fb0:	80 78 0d 00          	cmpb   $0x0,0xd(%eax)
   15fb4:	75 0e                	jne    15fc4 <_usb_match_id+0x70>
   15fb6:	8b 45 0c             	mov    0xc(%ebp),%eax
   15fb9:	83 78 10 00          	cmpl   $0x0,0x10(%eax)
   15fbd:	75 05                	jne    15fc4 <_usb_match_id+0x70>
   15fbf:	e9 b0 01 00 00       	jmp    16174 <_usb_match_id+0x220>
   15fc4:	8b 45 0c             	mov    0xc(%ebp),%eax
   15fc7:	66 8b 00             	mov    (%eax),%ax
   15fca:	25 ff ff 00 00       	and    $0xffff,%eax
   15fcf:	83 e0 01             	and    $0x1,%eax
   15fd2:	85 c0                	test   %eax,%eax
   15fd4:	74 18                	je     15fee <_usb_match_id+0x9a>
   15fd6:	8b 45 0c             	mov    0xc(%ebp),%eax
   15fd9:	8b 55 f8             	mov    0xfffffff8(%ebp),%edx
   15fdc:	66 8b 40 02          	mov    0x2(%eax),%ax
   15fe0:	66 3b 82 78 01 00 00 	cmp    0x178(%edx),%ax
   15fe7:	74 05                	je     15fee <_usb_match_id+0x9a>
   15fe9:	e9 7b 01 00 00       	jmp    16169 <_usb_match_id+0x215>
   15fee:	8b 45 0c             	mov    0xc(%ebp),%eax
   15ff1:	66 8b 00             	mov    (%eax),%ax
   15ff4:	25 ff ff 00 00       	and    $0xffff,%eax
   15ff9:	d1 e8                	shr    %eax
   15ffb:	83 e0 01             	and    $0x1,%eax
   15ffe:	85 c0                	test   %eax,%eax
   16000:	74 18                	je     1601a <_usb_match_id+0xc6>
   16002:	8b 45 0c             	mov    0xc(%ebp),%eax
   16005:	8b 55 f8             	mov    0xfffffff8(%ebp),%edx
   16008:	66 8b 40 04          	mov    0x4(%eax),%ax
   1600c:	66 3b 82 7a 01 00 00 	cmp    0x17a(%edx),%ax
   16013:	74 05                	je     1601a <_usb_match_id+0xc6>
   16015:	e9 4f 01 00 00       	jmp    16169 <_usb_match_id+0x215>
   1601a:	8b 45 0c             	mov    0xc(%ebp),%eax
   1601d:	66 8b 00             	mov    (%eax),%ax
   16020:	25 ff ff 00 00       	and    $0xffff,%eax
   16025:	c1 e8 02             	shr    $0x2,%eax
   16028:	83 e0 01             	and    $0x1,%eax
   1602b:	85 c0                	test   %eax,%eax
   1602d:	74 18                	je     16047 <_usb_match_id+0xf3>
   1602f:	8b 45 0c             	mov    0xc(%ebp),%eax
   16032:	8b 55 f8             	mov    0xfffffff8(%ebp),%edx
   16035:	66 8b 40 06          	mov    0x6(%eax),%ax
   16039:	66 3b 82 7c 01 00 00 	cmp    0x17c(%edx),%ax
   16040:	76 05                	jbe    16047 <_usb_match_id+0xf3>
   16042:	e9 22 01 00 00       	jmp    16169 <_usb_match_id+0x215>
   16047:	8b 45 0c             	mov    0xc(%ebp),%eax
   1604a:	66 8b 00             	mov    (%eax),%ax
   1604d:	25 ff ff 00 00       	and    $0xffff,%eax
   16052:	c1 e8 03             	shr    $0x3,%eax
   16055:	83 e0 01             	and    $0x1,%eax
   16058:	85 c0                	test   %eax,%eax
   1605a:	74 18                	je     16074 <_usb_match_id+0x120>
   1605c:	8b 45 0c             	mov    0xc(%ebp),%eax
   1605f:	8b 55 f8             	mov    0xfffffff8(%ebp),%edx
   16062:	66 8b 40 08          	mov    0x8(%eax),%ax
   16066:	66 3b 82 7c 01 00 00 	cmp    0x17c(%edx),%ax
   1606d:	73 05                	jae    16074 <_usb_match_id+0x120>
   1606f:	e9 f5 00 00 00       	jmp    16169 <_usb_match_id+0x215>
   16074:	8b 45 0c             	mov    0xc(%ebp),%eax
   16077:	66 8b 00             	mov    (%eax),%ax
   1607a:	25 ff ff 00 00       	and    $0xffff,%eax
   1607f:	c1 e8 04             	shr    $0x4,%eax
   16082:	83 e0 01             	and    $0x1,%eax
   16085:	85 c0                	test   %eax,%eax
   16087:	74 16                	je     1609f <_usb_match_id+0x14b>
   16089:	8b 45 0c             	mov    0xc(%ebp),%eax
   1608c:	8b 55 f8             	mov    0xfffffff8(%ebp),%edx
   1608f:	8a 40 0a             	mov    0xa(%eax),%al
   16092:	3a 82 74 01 00 00    	cmp    0x174(%edx),%al
   16098:	74 05                	je     1609f <_usb_match_id+0x14b>
   1609a:	e9 ca 00 00 00       	jmp    16169 <_usb_match_id+0x215>
   1609f:	8b 45 0c             	mov    0xc(%ebp),%eax
   160a2:	66 8b 00             	mov    (%eax),%ax
   160a5:	25 ff ff 00 00       	and    $0xffff,%eax
   160aa:	c1 e8 05             	shr    $0x5,%eax
   160ad:	83 e0 01             	and    $0x1,%eax
   160b0:	85 c0                	test   %eax,%eax
   160b2:	74 16                	je     160ca <_usb_match_id+0x176>
   160b4:	8b 45 0c             	mov    0xc(%ebp),%eax
   160b7:	8b 55 f8             	mov    0xfffffff8(%ebp),%edx
   160ba:	8a 40 0b             	mov    0xb(%eax),%al
   160bd:	3a 82 75 01 00 00    	cmp    0x175(%edx),%al
   160c3:	74 05                	je     160ca <_usb_match_id+0x176>
   160c5:	e9 9f 00 00 00       	jmp    16169 <_usb_match_id+0x215>
   160ca:	8b 45 0c             	mov    0xc(%ebp),%eax
   160cd:	66 8b 00             	mov    (%eax),%ax
   160d0:	25 ff ff 00 00       	and    $0xffff,%eax
   160d5:	c1 e8 06             	shr    $0x6,%eax
   160d8:	83 e0 01             	and    $0x1,%eax
   160db:	85 c0                	test   %eax,%eax
   160dd:	74 13                	je     160f2 <_usb_match_id+0x19e>
   160df:	8b 45 0c             	mov    0xc(%ebp),%eax
   160e2:	8b 55 f8             	mov    0xfffffff8(%ebp),%edx
   160e5:	8a 40 0c             	mov    0xc(%eax),%al
   160e8:	3a 82 76 01 00 00    	cmp    0x176(%edx),%al
   160ee:	74 02                	je     160f2 <_usb_match_id+0x19e>
   160f0:	eb 77                	jmp    16169 <_usb_match_id+0x215>
   160f2:	8b 45 0c             	mov    0xc(%ebp),%eax
   160f5:	66 8b 00             	mov    (%eax),%ax
   160f8:	25 ff ff 00 00       	and    $0xffff,%eax
   160fd:	c1 e8 07             	shr    $0x7,%eax
   16100:	83 e0 01             	and    $0x1,%eax
   16103:	85 c0                	test   %eax,%eax
   16105:	74 10                	je     16117 <_usb_match_id+0x1c3>
   16107:	8b 45 0c             	mov    0xc(%ebp),%eax
   1610a:	8b 55 fc             	mov    0xfffffffc(%ebp),%edx
   1610d:	8a 40 0d             	mov    0xd(%eax),%al
   16110:	3a 42 05             	cmp    0x5(%edx),%al
   16113:	74 02                	je     16117 <_usb_match_id+0x1c3>
   16115:	eb 52                	jmp    16169 <_usb_match_id+0x215>
   16117:	8b 45 0c             	mov    0xc(%ebp),%eax
   1611a:	66 8b 00             	mov    (%eax),%ax
   1611d:	25 ff ff 00 00       	and    $0xffff,%eax
   16122:	c1 e8 08             	shr    $0x8,%eax
   16125:	83 e0 01             	and    $0x1,%eax
   16128:	85 c0                	test   %eax,%eax
   1612a:	74 10                	je     1613c <_usb_match_id+0x1e8>
   1612c:	8b 45 0c             	mov    0xc(%ebp),%eax
   1612f:	8b 55 fc             	mov    0xfffffffc(%ebp),%edx
   16132:	8a 40 0e             	mov    0xe(%eax),%al
   16135:	3a 42 06             	cmp    0x6(%edx),%al
   16138:	74 02                	je     1613c <_usb_match_id+0x1e8>
   1613a:	eb 2d                	jmp    16169 <_usb_match_id+0x215>
   1613c:	8b 45 0c             	mov    0xc(%ebp),%eax
   1613f:	66 8b 00             	mov    (%eax),%ax
   16142:	25 ff ff 00 00       	and    $0xffff,%eax
   16147:	c1 e8 09             	shr    $0x9,%eax
   1614a:	83 e0 01             	and    $0x1,%eax
   1614d:	85 c0                	test   %eax,%eax
   1614f:	74 10                	je     16161 <_usb_match_id+0x20d>
   16151:	8b 45 0c             	mov    0xc(%ebp),%eax
   16154:	8b 55 fc             	mov    0xfffffffc(%ebp),%edx
   16157:	8a 40 0f             	mov    0xf(%eax),%al
   1615a:	3a 42 07             	cmp    0x7(%edx),%al
   1615d:	74 02                	je     16161 <_usb_match_id+0x20d>
   1615f:	eb 08                	jmp    16169 <_usb_match_id+0x215>
   16161:	8b 45 0c             	mov    0xc(%ebp),%eax
   16164:	89 45 f0             	mov    %eax,0xfffffff0(%ebp)
   16167:	eb 12                	jmp    1617b <_usb_match_id+0x227>
   16169:	8d 45 0c             	lea    0xc(%ebp),%eax
   1616c:	83 00 14             	addl   $0x14,(%eax)
   1616f:	e9 26 fe ff ff       	jmp    15f9a <_usb_match_id+0x46>
   16174:	c7 45 f0 00 00 00 00 	movl   $0x0,0xfffffff0(%ebp)
   1617b:	8b 45 f0             	mov    0xfffffff0(%ebp),%eax
   1617e:	c9                   	leave  
   1617f:	c3                   	ret    

00016180 <_usb_find_interface>:
   16180:	55                   	push   %ebp
   16181:	89 e5                	mov    %esp,%ebp
   16183:	83 ec 14             	sub    $0x14,%esp
   16186:	8b 45 08             	mov    0x8(%ebp),%eax
   16189:	83 c0 28             	add    $0x28,%eax
   1618c:	8b 00                	mov    (%eax),%eax
   1618e:	89 45 fc             	mov    %eax,0xfffffffc(%ebp)
   16191:	8b 45 08             	mov    0x8(%ebp),%eax
   16194:	83 c0 28             	add    $0x28,%eax
   16197:	3b 45 fc             	cmp    0xfffffffc(%ebp),%eax
   1619a:	74 59                	je     161f5 <_usb_find_interface+0x75>
   1619c:	8b 45 fc             	mov    0xfffffffc(%ebp),%eax
   1619f:	89 45 f0             	mov    %eax,0xfffffff0(%ebp)
   161a2:	8b 45 f0             	mov    0xfffffff0(%ebp),%eax
   161a5:	2d a4 00 00 00       	sub    $0xa4,%eax
   161aa:	89 45 f8             	mov    %eax,0xfffffff8(%ebp)
   161ad:	8b 45 f8             	mov    0xfffffff8(%ebp),%eax
   161b0:	81 b8 98 00 00 00 e0 	cmpl   $0x1a0e0,0x98(%eax)
   161b7:	a0 01 00 
   161ba:	75 02                	jne    161be <_usb_find_interface+0x3e>
   161bc:	eb 2d                	jmp    161eb <_usb_find_interface+0x6b>
   161be:	8b 45 f8             	mov    0xfffffff8(%ebp),%eax
   161c1:	89 45 f0             	mov    %eax,0xfffffff0(%ebp)
   161c4:	8b 45 f0             	mov    0xfffffff0(%ebp),%eax
   161c7:	83 e8 18             	sub    $0x18,%eax
   161ca:	89 45 f4             	mov    %eax,0xfffffff4(%ebp)
   161cd:	8b 45 f4             	mov    0xfffffff4(%ebp),%eax
   161d0:	83 78 14 ff          	cmpl   $0xffffffff,0x14(%eax)
   161d4:	75 02                	jne    161d8 <_usb_find_interface+0x58>
   161d6:	eb 13                	jmp    161eb <_usb_find_interface+0x6b>
   161d8:	8b 45 f4             	mov    0xfffffff4(%ebp),%eax
   161db:	8b 40 14             	mov    0x14(%eax),%eax
   161de:	3b 45 0c             	cmp    0xc(%ebp),%eax
   161e1:	75 08                	jne    161eb <_usb_find_interface+0x6b>
   161e3:	8b 45 f4             	mov    0xfffffff4(%ebp),%eax
   161e6:	89 45 ec             	mov    %eax,0xffffffec(%ebp)
   161e9:	eb 11                	jmp    161fc <_usb_find_interface+0x7c>
   161eb:	8b 45 fc             	mov    0xfffffffc(%ebp),%eax
   161ee:	8b 00                	mov    (%eax),%eax
   161f0:	89 45 fc             	mov    %eax,0xfffffffc(%ebp)
   161f3:	eb 9c                	jmp    16191 <_usb_find_interface+0x11>
   161f5:	c7 45 ec 00 00 00 00 	movl   $0x0,0xffffffec(%ebp)
   161fc:	8b 45 ec             	mov    0xffffffec(%ebp),%eax
   161ff:	c9                   	leave  
   16200:	c3                   	ret    

00016201 <_usb_device_match>:
   16201:	55                   	push   %ebp
   16202:	89 e5                	mov    %esp,%ebp
   16204:	83 ec 14             	sub    $0x14,%esp
   16207:	81 7d 0c e0 a0 01 00 	cmpl   $0x1a0e0,0xc(%ebp)
   1620e:	75 09                	jne    16219 <_usb_device_match+0x18>
   16210:	c7 45 ec 00 00 00 00 	movl   $0x0,0xffffffec(%ebp)
   16217:	eb 51                	jmp    1626a <_usb_device_match+0x69>
   16219:	8b 45 08             	mov    0x8(%ebp),%eax
   1621c:	89 45 f0             	mov    %eax,0xfffffff0(%ebp)
   1621f:	8b 45 f0             	mov    0xfffffff0(%ebp),%eax
   16222:	83 e8 18             	sub    $0x18,%eax
   16225:	89 45 fc             	mov    %eax,0xfffffffc(%ebp)
   16228:	8b 45 0c             	mov    0xc(%ebp),%eax
   1622b:	89 45 f0             	mov    %eax,0xfffffff0(%ebp)
   1622e:	8b 45 f0             	mov    0xfffffff0(%ebp),%eax
   16231:	83 e8 18             	sub    $0x18,%eax
   16234:	89 45 f8             	mov    %eax,0xfffffff8(%ebp)
   16237:	8b 45 f8             	mov    0xfffffff8(%ebp),%eax
   1623a:	8b 40 14             	mov    0x14(%eax),%eax
   1623d:	89 45 f4             	mov    %eax,0xfffffff4(%ebp)
   16240:	8b 45 f8             	mov    0xfffffff8(%ebp),%eax
   16243:	ff 70 14             	pushl  0x14(%eax)
   16246:	ff 75 fc             	pushl  0xfffffffc(%ebp)
   16249:	e8 06 fd ff ff       	call   15f54 <_usb_match_id>
   1624e:	83 c4 08             	add    $0x8,%esp
   16251:	89 45 f4             	mov    %eax,0xfffffff4(%ebp)
   16254:	83 7d f4 00          	cmpl   $0x0,0xfffffff4(%ebp)
   16258:	74 09                	je     16263 <_usb_device_match+0x62>
   1625a:	c7 45 ec 01 00 00 00 	movl   $0x1,0xffffffec(%ebp)
   16261:	eb 07                	jmp    1626a <_usb_device_match+0x69>
   16263:	c7 45 ec 00 00 00 00 	movl   $0x0,0xffffffec(%ebp)
   1626a:	8b 45 ec             	mov    0xffffffec(%ebp),%eax
   1626d:	c9                   	leave  
   1626e:	c3                   	ret    

0001626f <_usb_hotplug>:
   1626f:	55                   	push   %ebp
   16270:	89 e5                	mov    %esp,%ebp
   16272:	b8 ed ff ff ff       	mov    $0xffffffed,%eax
   16277:	5d                   	pop    %ebp
   16278:	c3                   	ret    

00016279 <_usb_alloc_dev@8>:
   16279:	55                   	push   %ebp
   1627a:	89 e5                	mov    %esp,%ebp
   1627c:	83 ec 08             	sub    $0x8,%esp
   1627f:	83 ec 08             	sub    $0x8,%esp
   16282:	68 f0 01 00 00       	push   $0x1f0
   16287:	6a 01                	push   $0x1
   16289:	e8 a2 37 00 00       	call   19a30 <_ExAllocatePool@8>
   1628e:	83 c4 08             	add    $0x8,%esp
   16291:	89 45 fc             	mov    %eax,0xfffffffc(%ebp)
   16294:	83 7d fc 00          	cmpl   $0x0,0xfffffffc(%ebp)
   16298:	75 0c                	jne    162a6 <_usb_alloc_dev@8+0x2d>
   1629a:	c7 45 f8 00 00 00 00 	movl   $0x0,0xfffffff8(%ebp)
   162a1:	e9 bd 00 00 00       	jmp    16363 <_usb_alloc_dev@8+0xea>
   162a6:	83 ec 04             	sub    $0x4,%esp
   162a9:	68 f0 01 00 00       	push   $0x1f0
   162ae:	6a 00                	push   $0x0
   162b0:	ff 75 fc             	pushl  0xfffffffc(%ebp)
   162b3:	e8 98 37 00 00       	call   19a50 <_memset>
   162b8:	83 c4 10             	add    $0x10,%esp
   162bb:	83 ec 0c             	sub    $0xc,%esp
   162be:	8b 45 fc             	mov    0xfffffffc(%ebp),%eax
   162c1:	05 c0 00 00 00       	add    $0xc0,%eax
   162c6:	50                   	push   %eax
   162c7:	e8 94 35 00 00       	call   19860 <_my_device_initialize>
   162cc:	83 c4 10             	add    $0x10,%esp
   162cf:	8b 45 fc             	mov    0xfffffffc(%ebp),%eax
   162d2:	c7 40 14 01 00 00 00 	movl   $0x1,0x14(%eax)
   162d9:	83 ec 0c             	sub    $0xc,%esp
   162dc:	ff 75 0c             	pushl  0xc(%ebp)
   162df:	e8 b2 c2 ff ff       	call   12596 <_usb_bus_get>
   162e4:	83 c4 10             	add    $0x10,%esp
   162e7:	83 7d 08 00          	cmpl   $0x0,0x8(%ebp)
   162eb:	75 07                	jne    162f4 <_usb_alloc_dev@8+0x7b>
   162ed:	8b 45 fc             	mov    0xfffffffc(%ebp),%eax
   162f0:	c6 40 04 30          	movb   $0x30,0x4(%eax)
   162f4:	8b 55 fc             	mov    0xfffffffc(%ebp),%edx
   162f7:	8b 45 0c             	mov    0xc(%ebp),%eax
   162fa:	89 82 bc 00 00 00    	mov    %eax,0xbc(%edx)
   16300:	8b 55 fc             	mov    0xfffffffc(%ebp),%edx
   16303:	8b 45 08             	mov    0x8(%ebp),%eax
   16306:	89 82 b8 00 00 00    	mov    %eax,0xb8(%edx)
   1630c:	8b 55 fc             	mov    0xfffffffc(%ebp),%edx
   1630f:	81 c2 9c 01 00 00    	add    $0x19c,%edx
   16315:	8b 45 fc             	mov    0xfffffffc(%ebp),%eax
   16318:	05 9c 01 00 00       	add    $0x19c,%eax
   1631d:	89 02                	mov    %eax,(%edx)
   1631f:	8b 55 fc             	mov    0xfffffffc(%ebp),%edx
   16322:	81 c2 9c 01 00 00    	add    $0x19c,%edx
   16328:	8b 45 fc             	mov    0xfffffffc(%ebp),%eax
   1632b:	05 9c 01 00 00       	add    $0x19c,%eax
   16330:	89 42 04             	mov    %eax,0x4(%edx)
   16333:	8b 45 fc             	mov    0xfffffffc(%ebp),%eax
   16336:	8b 80 bc 00 00 00    	mov    0xbc(%eax),%eax
   1633c:	8b 40 20             	mov    0x20(%eax),%eax
   1633f:	83 38 00             	cmpl   $0x0,(%eax)
   16342:	74 19                	je     1635d <_usb_alloc_dev@8+0xe4>
   16344:	83 ec 0c             	sub    $0xc,%esp
   16347:	8b 45 fc             	mov    0xfffffffc(%ebp),%eax
   1634a:	8b 80 bc 00 00 00    	mov    0xbc(%eax),%eax
   16350:	8b 40 20             	mov    0x20(%eax),%eax
   16353:	ff 75 fc             	pushl  0xfffffffc(%ebp)
   16356:	8b 00                	mov    (%eax),%eax
   16358:	ff d0                	call   *%eax
   1635a:	83 c4 10             	add    $0x10,%esp
   1635d:	8b 45 fc             	mov    0xfffffffc(%ebp),%eax
   16360:	89 45 f8             	mov    %eax,0xfffffff8(%ebp)
   16363:	8b 45 f8             	mov    0xfffffff8(%ebp),%eax
   16366:	c9                   	leave  
   16367:	c2 08 00             	ret    $0x8

0001636a <_usb_get_dev>:
   1636a:	55                   	push   %ebp
   1636b:	89 e5                	mov    %esp,%ebp
   1636d:	83 ec 18             	sub    $0x18,%esp
   16370:	83 7d 08 00          	cmpl   $0x0,0x8(%ebp)
   16374:	75 09                	jne    1637f <_usb_get_dev+0x15>
   16376:	c7 45 f4 00 00 00 00 	movl   $0x0,0xfffffff4(%ebp)
   1637d:	eb 37                	jmp    163b6 <_usb_get_dev+0x4c>
   1637f:	83 ec 0c             	sub    $0xc,%esp
   16382:	8b 45 08             	mov    0x8(%ebp),%eax
   16385:	05 c0 00 00 00       	add    $0xc0,%eax
   1638a:	50                   	push   %eax
   1638b:	e8 c6 34 00 00       	call   19856 <_my_get_device>
   16390:	83 c4 10             	add    $0x10,%esp
   16393:	89 45 fc             	mov    %eax,0xfffffffc(%ebp)
   16396:	83 7d fc 00          	cmpl   $0x0,0xfffffffc(%ebp)
   1639a:	74 13                	je     163af <_usb_get_dev+0x45>
   1639c:	8b 45 fc             	mov    0xfffffffc(%ebp),%eax
   1639f:	89 45 f8             	mov    %eax,0xfffffff8(%ebp)
   163a2:	8b 45 f8             	mov    0xfffffff8(%ebp),%eax
   163a5:	2d c0 00 00 00       	sub    $0xc0,%eax
   163aa:	89 45 f4             	mov    %eax,0xfffffff4(%ebp)
   163ad:	eb 07                	jmp    163b6 <_usb_get_dev+0x4c>
   163af:	c7 45 f4 00 00 00 00 	movl   $0x0,0xfffffff4(%ebp)
   163b6:	8b 45 f4             	mov    0xfffffff4(%ebp),%eax
   163b9:	c9                   	leave  
   163ba:	c3                   	ret    

000163bb <_usb_put_dev@4>:
   163bb:	55                   	push   %ebp
   163bc:	89 e5                	mov    %esp,%ebp
   163be:	5d                   	pop    %ebp
   163bf:	c2 04 00             	ret    $0x4

000163c2 <_usb_release_dev>:
   163c2:	55                   	push   %ebp
   163c3:	89 e5                	mov    %esp,%ebp
   163c5:	83 ec 08             	sub    $0x8,%esp
   163c8:	8b 45 08             	mov    0x8(%ebp),%eax
   163cb:	89 45 f8             	mov    %eax,0xfffffff8(%ebp)
   163ce:	8b 45 f8             	mov    0xfffffff8(%ebp),%eax
   163d1:	2d c0 00 00 00       	sub    $0xc0,%eax
   163d6:	89 45 fc             	mov    %eax,0xfffffffc(%ebp)
   163d9:	8b 45 fc             	mov    0xfffffffc(%ebp),%eax
   163dc:	83 b8 bc 00 00 00 00 	cmpl   $0x0,0xbc(%eax)
   163e3:	74 3b                	je     16420 <_usb_release_dev+0x5e>
   163e5:	8b 45 fc             	mov    0xfffffffc(%ebp),%eax
   163e8:	8b 80 bc 00 00 00    	mov    0xbc(%eax),%eax
   163ee:	83 78 20 00          	cmpl   $0x0,0x20(%eax)
   163f2:	74 2c                	je     16420 <_usb_release_dev+0x5e>
   163f4:	8b 45 fc             	mov    0xfffffffc(%ebp),%eax
   163f7:	8b 80 bc 00 00 00    	mov    0xbc(%eax),%eax
   163fd:	8b 40 20             	mov    0x20(%eax),%eax
   16400:	83 78 04 00          	cmpl   $0x0,0x4(%eax)
   16404:	74 1a                	je     16420 <_usb_release_dev+0x5e>
   16406:	83 ec 0c             	sub    $0xc,%esp
   16409:	8b 45 fc             	mov    0xfffffffc(%ebp),%eax
   1640c:	8b 80 bc 00 00 00    	mov    0xbc(%eax),%eax
   16412:	8b 40 20             	mov    0x20(%eax),%eax
   16415:	ff 75 fc             	pushl  0xfffffffc(%ebp)
   16418:	8b 40 04             	mov    0x4(%eax),%eax
   1641b:	ff d0                	call   *%eax
   1641d:	83 c4 10             	add    $0x10,%esp
   16420:	83 ec 0c             	sub    $0xc,%esp
   16423:	ff 75 fc             	pushl  0xfffffffc(%ebp)
   16426:	e8 ca 17 00 00       	call   17bf5 <_usb_destroy_configuration>
   1642b:	83 c4 10             	add    $0x10,%esp
   1642e:	83 ec 0c             	sub    $0xc,%esp
   16431:	8b 45 fc             	mov    0xfffffffc(%ebp),%eax
   16434:	ff b0 bc 00 00 00    	pushl  0xbc(%eax)
   1643a:	e8 6d c1 ff ff       	call   125ac <_usb_bus_put>
   1643f:	83 c4 10             	add    $0x10,%esp
   16442:	83 ec 0c             	sub    $0xc,%esp
   16445:	ff 75 fc             	pushl  0xfffffffc(%ebp)
   16448:	e8 f3 35 00 00       	call   19a40 <_ExFreePool@4>
   1644d:	83 c4 0c             	add    $0xc,%esp
   16450:	c9                   	leave  
   16451:	c3                   	ret    

00016452 <_match_device>:
   16452:	55                   	push   %ebp
   16453:	89 e5                	mov    %esp,%ebp
   16455:	83 ec 18             	sub    $0x18,%esp
   16458:	8b 45 0c             	mov    0xc(%ebp),%eax
   1645b:	8b 55 10             	mov    0x10(%ebp),%edx
   1645e:	66 89 45 fe          	mov    %ax,0xfffffffe(%ebp)
   16462:	66 89 55 fc          	mov    %dx,0xfffffffc(%ebp)
   16466:	c7 45 f8 00 00 00 00 	movl   $0x0,0xfffffff8(%ebp)
   1646d:	8b 45 08             	mov    0x8(%ebp),%eax
   16470:	66 8b 80 78 01 00 00 	mov    0x178(%eax),%ax
   16477:	66 3b 45 fe          	cmp    0xfffffffe(%ebp),%ax
   1647b:	75 23                	jne    164a0 <_match_device+0x4e>
   1647d:	8b 45 08             	mov    0x8(%ebp),%eax
   16480:	66 8b 80 7a 01 00 00 	mov    0x17a(%eax),%ax
   16487:	66 3b 45 fc          	cmp    0xfffffffc(%ebp),%ax
   1648b:	75 13                	jne    164a0 <_match_device+0x4e>
   1648d:	83 ec 0c             	sub    $0xc,%esp
   16490:	ff 75 08             	pushl  0x8(%ebp)
   16493:	e8 d2 fe ff ff       	call   1636a <_usb_get_dev>
   16498:	83 c4 10             	add    $0x10,%esp
   1649b:	89 45 f8             	mov    %eax,0xfffffff8(%ebp)
   1649e:	eb 62                	jmp    16502 <_match_device+0xb0>
   164a0:	c7 45 f4 00 00 00 00 	movl   $0x0,0xfffffff4(%ebp)
   164a7:	8b 45 08             	mov    0x8(%ebp),%eax
   164aa:	8b 80 ac 01 00 00    	mov    0x1ac(%eax),%eax
   164b0:	3b 45 f4             	cmp    0xfffffff4(%ebp),%eax
   164b3:	7e 4d                	jle    16502 <_match_device+0xb0>
   164b5:	8b 55 08             	mov    0x8(%ebp),%edx
   164b8:	8b 45 f4             	mov    0xfffffff4(%ebp),%eax
   164bb:	83 bc 82 b0 01 00 00 	cmpl   $0x0,0x1b0(%edx,%eax,4)
   164c2:	00 
   164c3:	74 36                	je     164fb <_match_device+0xa9>
   164c5:	83 ec 04             	sub    $0x4,%esp
   164c8:	8b 45 fc             	mov    0xfffffffc(%ebp),%eax
   164cb:	25 ff ff 00 00       	and    $0xffff,%eax
   164d0:	50                   	push   %eax
   164d1:	66 8b 45 fe          	mov    0xfffffffe(%ebp),%ax
   164d5:	25 ff ff 00 00       	and    $0xffff,%eax
   164da:	50                   	push   %eax
   164db:	8b 55 08             	mov    0x8(%ebp),%edx
   164de:	8b 45 f4             	mov    0xfffffff4(%ebp),%eax
   164e1:	ff b4 82 b0 01 00 00 	pushl  0x1b0(%edx,%eax,4)
   164e8:	e8 65 ff ff ff       	call   16452 <_match_device>
   164ed:	83 c4 10             	add    $0x10,%esp
   164f0:	89 45 f8             	mov    %eax,0xfffffff8(%ebp)
   164f3:	83 7d f8 00          	cmpl   $0x0,0xfffffff8(%ebp)
   164f7:	74 02                	je     164fb <_match_device+0xa9>
   164f9:	eb 07                	jmp    16502 <_match_device+0xb0>
   164fb:	8d 45 f4             	lea    0xfffffff4(%ebp),%eax
   164fe:	ff 00                	incl   (%eax)
   16500:	eb a5                	jmp    164a7 <_match_device+0x55>
   16502:	8b 45 f8             	mov    0xfffffff8(%ebp),%eax
   16505:	c9                   	leave  
   16506:	c3                   	ret    

00016507 <_usb_find_device>:
   16507:	55                   	push   %ebp
   16508:	89 e5                	mov    %esp,%ebp
   1650a:	83 ec 18             	sub    $0x18,%esp
   1650d:	8b 45 08             	mov    0x8(%ebp),%eax
   16510:	8b 55 0c             	mov    0xc(%ebp),%edx
   16513:	66 89 45 fe          	mov    %ax,0xfffffffe(%ebp)
   16517:	66 89 55 fc          	mov    %dx,0xfffffffc(%ebp)
   1651b:	c7 45 f0 00 00 00 00 	movl   $0x0,0xfffffff0(%ebp)
   16522:	a1 00 a0 01 00       	mov    0x1a000,%eax
   16527:	89 45 f8             	mov    %eax,0xfffffff8(%ebp)
   1652a:	81 7d f8 00 a0 01 00 	cmpl   $0x1a000,0xfffffff8(%ebp)
   16531:	74 48                	je     1657b <_usb_find_device+0x74>
   16533:	8b 45 f8             	mov    0xfffffff8(%ebp),%eax
   16536:	89 45 ec             	mov    %eax,0xffffffec(%ebp)
   16539:	8b 45 ec             	mov    0xffffffec(%ebp),%eax
   1653c:	83 e8 28             	sub    $0x28,%eax
   1653f:	89 45 f4             	mov    %eax,0xfffffff4(%ebp)
   16542:	83 ec 04             	sub    $0x4,%esp
   16545:	8b 45 fc             	mov    0xfffffffc(%ebp),%eax
   16548:	25 ff ff 00 00       	and    $0xffff,%eax
   1654d:	50                   	push   %eax
   1654e:	66 8b 45 fe          	mov    0xfffffffe(%ebp),%ax
   16552:	25 ff ff 00 00       	and    $0xffff,%eax
   16557:	50                   	push   %eax
   16558:	8b 45 f4             	mov    0xfffffff4(%ebp),%eax
   1655b:	ff 70 24             	pushl  0x24(%eax)
   1655e:	e8 ef fe ff ff       	call   16452 <_match_device>
   16563:	83 c4 10             	add    $0x10,%esp
   16566:	89 45 f0             	mov    %eax,0xfffffff0(%ebp)
   16569:	83 7d f0 00          	cmpl   $0x0,0xfffffff0(%ebp)
   1656d:	74 02                	je     16571 <_usb_find_device+0x6a>
   1656f:	eb 0a                	jmp    1657b <_usb_find_device+0x74>
   16571:	8b 45 f8             	mov    0xfffffff8(%ebp),%eax
   16574:	8b 00                	mov    (%eax),%eax
   16576:	89 45 f8             	mov    %eax,0xfffffff8(%ebp)
   16579:	eb af                	jmp    1652a <_usb_find_device+0x23>
   1657b:	8b 45 f0             	mov    0xfffffff0(%ebp),%eax
   1657e:	c9                   	leave  
   1657f:	c3                   	ret    

00016580 <_usb_get_current_frame_number>:
   16580:	55                   	push   %ebp
   16581:	89 e5                	mov    %esp,%ebp
   16583:	83 ec 08             	sub    $0x8,%esp
   16586:	83 ec 0c             	sub    $0xc,%esp
   16589:	8b 45 08             	mov    0x8(%ebp),%eax
   1658c:	8b 80 bc 00 00 00    	mov    0xbc(%eax),%eax
   16592:	8b 40 20             	mov    0x20(%eax),%eax
   16595:	ff 75 08             	pushl  0x8(%ebp)
   16598:	8b 40 08             	mov    0x8(%eax),%eax
   1659b:	ff d0                	call   *%eax
   1659d:	83 c4 10             	add    $0x10,%esp
   165a0:	c9                   	leave  
   165a1:	c3                   	ret    

000165a2 <___usb_get_extra_descriptor>:
   165a2:	55                   	push   %ebp
   165a3:	89 e5                	mov    %esp,%ebp
   165a5:	83 ec 0c             	sub    $0xc,%esp
   165a8:	8b 45 10             	mov    0x10(%ebp),%eax
   165ab:	88 45 ff             	mov    %al,0xffffffff(%ebp)
   165ae:	83 7d 0c 01          	cmpl   $0x1,0xc(%ebp)
   165b2:	76 51                	jbe    16605 <___usb_get_extra_descriptor+0x63>
   165b4:	8b 45 08             	mov    0x8(%ebp),%eax
   165b7:	89 45 f8             	mov    %eax,0xfffffff8(%ebp)
   165ba:	8b 45 f8             	mov    0xfffffff8(%ebp),%eax
   165bd:	80 38 01             	cmpb   $0x1,(%eax)
   165c0:	77 09                	ja     165cb <___usb_get_extra_descriptor+0x29>
   165c2:	c7 45 f4 ff ff ff ff 	movl   $0xffffffff,0xfffffff4(%ebp)
   165c9:	eb 41                	jmp    1660c <___usb_get_extra_descriptor+0x6a>
   165cb:	8b 45 f8             	mov    0xfffffff8(%ebp),%eax
   165ce:	8a 40 01             	mov    0x1(%eax),%al
   165d1:	3a 45 ff             	cmp    0xffffffff(%ebp),%al
   165d4:	75 11                	jne    165e7 <___usb_get_extra_descriptor+0x45>
   165d6:	8b 55 14             	mov    0x14(%ebp),%edx
   165d9:	8b 45 f8             	mov    0xfffffff8(%ebp),%eax
   165dc:	89 02                	mov    %eax,(%edx)
   165de:	c7 45 f4 00 00 00 00 	movl   $0x0,0xfffffff4(%ebp)
   165e5:	eb 25                	jmp    1660c <___usb_get_extra_descriptor+0x6a>
   165e7:	8b 45 f8             	mov    0xfffffff8(%ebp),%eax
   165ea:	8a 00                	mov    (%eax),%al
   165ec:	25 ff 00 00 00       	and    $0xff,%eax
   165f1:	01 45 08             	add    %eax,0x8(%ebp)
   165f4:	8b 45 f8             	mov    0xfffffff8(%ebp),%eax
   165f7:	ba 00 00 00 00       	mov    $0x0,%edx
   165fc:	8a 10                	mov    (%eax),%dl
   165fe:	8d 45 0c             	lea    0xc(%ebp),%eax
   16601:	29 10                	sub    %edx,(%eax)
   16603:	eb a9                	jmp    165ae <___usb_get_extra_descriptor+0xc>
   16605:	c7 45 f4 ff ff ff ff 	movl   $0xffffffff,0xfffffff4(%ebp)
   1660c:	8b 45 f4             	mov    0xfffffff4(%ebp),%eax
   1660f:	c9                   	leave  
   16610:	c3                   	ret    

00016611 <_usb_disconnect>:
   16611:	55                   	push   %ebp
   16612:	89 e5                	mov    %esp,%ebp
   16614:	53                   	push   %ebx
   16615:	83 ec 14             	sub    $0x14,%esp
   16618:	8b 45 08             	mov    0x8(%ebp),%eax
   1661b:	8b 00                	mov    (%eax),%eax
   1661d:	89 45 f8             	mov    %eax,0xfffffff8(%ebp)
   16620:	83 7d f8 00          	cmpl   $0x0,0xfffffff8(%ebp)
   16624:	75 05                	jne    1662b <_usb_disconnect+0x1a>
   16626:	e9 73 01 00 00       	jmp    1679e <_usb_disconnect+0x18d>
   1662b:	8b 45 f8             	mov    0xfffffff8(%ebp),%eax
   1662e:	8b 80 bc 00 00 00    	mov    0xbc(%eax),%eax
   16634:	89 45 f4             	mov    %eax,0xfffffff4(%ebp)
   16637:	83 7d f4 00          	cmpl   $0x0,0xfffffff4(%ebp)
   1663b:	75 05                	jne    16642 <_usb_disconnect+0x31>
   1663d:	e9 5c 01 00 00       	jmp    1679e <_usb_disconnect+0x18d>
   16642:	8b 45 f4             	mov    0xfffffff4(%ebp),%eax
   16645:	8b 40 20             	mov    0x20(%eax),%eax
   16648:	89 45 f0             	mov    %eax,0xfffffff0(%ebp)
   1664b:	8b 45 08             	mov    0x8(%ebp),%eax
   1664e:	c7 00 00 00 00 00    	movl   $0x0,(%eax)
   16654:	8b 45 f8             	mov    0xfffffff8(%ebp),%eax
   16657:	c7 40 14 00 00 00 00 	movl   $0x0,0x14(%eax)
   1665e:	c7 45 ec 00 00 00 00 	movl   $0x0,0xffffffec(%ebp)
   16665:	83 7d ec 0f          	cmpl   $0xf,0xffffffec(%ebp)
   16669:	7f 2e                	jg     16699 <_usb_disconnect+0x88>
   1666b:	8b 45 ec             	mov    0xffffffec(%ebp),%eax
   1666e:	c1 e0 02             	shl    $0x2,%eax
   16671:	03 45 f8             	add    0xfffffff8(%ebp),%eax
   16674:	05 b0 01 00 00       	add    $0x1b0,%eax
   16679:	89 45 e8             	mov    %eax,0xffffffe8(%ebp)
   1667c:	8b 45 e8             	mov    0xffffffe8(%ebp),%eax
   1667f:	83 38 00             	cmpl   $0x0,(%eax)
   16682:	74 0e                	je     16692 <_usb_disconnect+0x81>
   16684:	83 ec 0c             	sub    $0xc,%esp
   16687:	ff 75 e8             	pushl  0xffffffe8(%ebp)
   1668a:	e8 82 ff ff ff       	call   16611 <_usb_disconnect>
   1668f:	83 c4 10             	add    $0x10,%esp
   16692:	8d 45 ec             	lea    0xffffffec(%ebp),%eax
   16695:	ff 00                	incl   (%eax)
   16697:	eb cc                	jmp    16665 <_usb_disconnect+0x54>
   16699:	8b 45 f8             	mov    0xfffffff8(%ebp),%eax
   1669c:	83 b8 88 01 00 00 00 	cmpl   $0x0,0x188(%eax)
   166a3:	74 5f                	je     16704 <_usb_disconnect+0xf3>
   166a5:	c7 45 ec 00 00 00 00 	movl   $0x0,0xffffffec(%ebp)
   166ac:	8b 45 f8             	mov    0xfffffff8(%ebp),%eax
   166af:	8b 80 88 01 00 00    	mov    0x188(%eax),%eax
   166b5:	8a 40 04             	mov    0x4(%eax),%al
   166b8:	25 ff 00 00 00       	and    $0xff,%eax
   166bd:	3b 45 ec             	cmp    0xffffffec(%ebp),%eax
   166c0:	7e 42                	jle    16704 <_usb_disconnect+0xf3>
   166c2:	8b 45 f8             	mov    0xfffffff8(%ebp),%eax
   166c5:	8b 98 88 01 00 00    	mov    0x188(%eax),%ebx
   166cb:	8b 4d ec             	mov    0xffffffec(%ebp),%ecx
   166ce:	89 c8                	mov    %ecx,%eax
   166d0:	c1 e0 02             	shl    $0x2,%eax
   166d3:	01 c8                	add    %ecx,%eax
   166d5:	8d 14 85 00 00 00 00 	lea    0x0(,%eax,4),%edx
   166dc:	01 d0                	add    %edx,%eax
   166de:	01 c0                	add    %eax,%eax
   166e0:	01 c8                	add    %ecx,%eax
   166e2:	c1 e0 02             	shl    $0x2,%eax
   166e5:	03 43 0c             	add    0xc(%ebx),%eax
   166e8:	89 45 e8             	mov    %eax,0xffffffe8(%ebp)
   166eb:	83 ec 0c             	sub    $0xc,%esp
   166ee:	8b 45 e8             	mov    0xffffffe8(%ebp),%eax
   166f1:	83 c0 18             	add    $0x18,%eax
   166f4:	50                   	push   %eax
   166f5:	e8 1d 31 00 00       	call   19817 <_my_device_unregister>
   166fa:	83 c4 10             	add    $0x10,%esp
   166fd:	8d 45 ec             	lea    0xffffffec(%ebp),%eax
   16700:	ff 00                	incl   (%eax)
   16702:	eb a8                	jmp    166ac <_usb_disconnect+0x9b>
   16704:	8b 45 f0             	mov    0xfffffff0(%ebp),%eax
   16707:	83 78 1c 00          	cmpl   $0x0,0x1c(%eax)
   1670b:	74 42                	je     1674f <_usb_disconnect+0x13e>
   1670d:	8b 45 f0             	mov    0xfffffff0(%ebp),%eax
   16710:	8b 40 1c             	mov    0x1c(%eax),%eax
   16713:	89 45 e8             	mov    %eax,0xffffffe8(%ebp)
   16716:	c7 45 ec 00 00 00 00 	movl   $0x0,0xffffffec(%ebp)
   1671d:	83 7d ec 0e          	cmpl   $0xe,0xffffffec(%ebp)
   16721:	7f 2c                	jg     1674f <_usb_disconnect+0x13e>
   16723:	83 ec 08             	sub    $0x8,%esp
   16726:	ff 75 ec             	pushl  0xffffffec(%ebp)
   16729:	ff 75 f8             	pushl  0xfffffff8(%ebp)
   1672c:	8b 45 e8             	mov    0xffffffe8(%ebp),%eax
   1672f:	ff d0                	call   *%eax
   16731:	83 c4 10             	add    $0x10,%esp
   16734:	83 ec 08             	sub    $0x8,%esp
   16737:	8b 45 ec             	mov    0xffffffec(%ebp),%eax
   1673a:	0c 80                	or     $0x80,%al
   1673c:	50                   	push   %eax
   1673d:	ff 75 f8             	pushl  0xfffffff8(%ebp)
   16740:	8b 45 e8             	mov    0xffffffe8(%ebp),%eax
   16743:	ff d0                	call   *%eax
   16745:	83 c4 10             	add    $0x10,%esp
   16748:	8d 45 ec             	lea    0xffffffec(%ebp),%eax
   1674b:	ff 00                	incl   (%eax)
   1674d:	eb ce                	jmp    1671d <_usb_disconnect+0x10c>
   1674f:	8b 45 f8             	mov    0xfffffff8(%ebp),%eax
   16752:	83 38 00             	cmpl   $0x0,(%eax)
   16755:	7e 2b                	jle    16782 <_usb_disconnect+0x171>
   16757:	83 ec 08             	sub    $0x8,%esp
   1675a:	8b 45 f8             	mov    0xfffffff8(%ebp),%eax
   1675d:	8b 80 bc 00 00 00    	mov    0xbc(%eax),%eax
   16763:	83 c0 10             	add    $0x10,%eax
   16766:	50                   	push   %eax
   16767:	8b 45 f8             	mov    0xfffffff8(%ebp),%eax
   1676a:	ff 30                	pushl  (%eax)
   1676c:	e8 37 00 00 00       	call   167a8 <_clear_bit>
   16771:	83 c4 10             	add    $0x10,%esp
   16774:	83 ec 0c             	sub    $0xc,%esp
   16777:	ff 75 f8             	pushl  0xfffffff8(%ebp)
   1677a:	e8 24 00 00 00       	call   167a3 <_usbfs_remove_device>
   1677f:	83 c4 10             	add    $0x10,%esp
   16782:	83 ec 0c             	sub    $0xc,%esp
   16785:	8b 45 f8             	mov    0xfffffff8(%ebp),%eax
   16788:	05 c0 00 00 00       	add    $0xc0,%eax
   1678d:	50                   	push   %eax
   1678e:	e8 84 30 00 00       	call   19817 <_my_device_unregister>
   16793:	83 c4 10             	add    $0x10,%esp
   16796:	ff 75 f8             	pushl  0xfffffff8(%ebp)
   16799:	e8 1d fc ff ff       	call   163bb <_usb_put_dev@4>
   1679e:	8b 5d fc             	mov    0xfffffffc(%ebp),%ebx
   167a1:	c9                   	leave  
   167a2:	c3                   	ret    

000167a3 <_usbfs_remove_device>:
   167a3:	55                   	push   %ebp
   167a4:	89 e5                	mov    %esp,%ebp
   167a6:	5d                   	pop    %ebp
   167a7:	c3                   	ret    

000167a8 <_clear_bit>:
   167a8:	55                   	push   %ebp
   167a9:	89 e5                	mov    %esp,%ebp
   167ab:	8b 55 0c             	mov    0xc(%ebp),%edx
   167ae:	8b 45 08             	mov    0x8(%ebp),%eax
   167b1:	0f b3 02             	btr    %eax,(%edx)
   167b4:	5d                   	pop    %ebp
   167b5:	c3                   	ret    

000167b6 <_usb_connect@4>:
   167b6:	55                   	push   %ebp
   167b7:	89 e5                	mov    %esp,%ebp
   167b9:	83 ec 18             	sub    $0x18,%esp
   167bc:	8b 45 08             	mov    0x8(%ebp),%eax
   167bf:	c6 80 77 01 00 00 08 	movb   $0x8,0x177(%eax)
   167c6:	83 ec 04             	sub    $0x4,%esp
   167c9:	8b 45 08             	mov    0x8(%ebp),%eax
   167cc:	8b 80 bc 00 00 00    	mov    0xbc(%eax),%eax
   167d2:	ff 70 0c             	pushl  0xc(%eax)
   167d5:	68 80 00 00 00       	push   $0x80
   167da:	8b 45 08             	mov    0x8(%ebp),%eax
   167dd:	8b 80 bc 00 00 00    	mov    0xbc(%eax),%eax
   167e3:	83 c0 10             	add    $0x10,%eax
   167e6:	50                   	push   %eax
   167e7:	e8 94 00 00 00       	call   16880 <_find_next_zero_bit>
   167ec:	83 c4 10             	add    $0x10,%esp
   167ef:	89 45 fc             	mov    %eax,0xfffffffc(%ebp)
   167f2:	83 7d fc 7f          	cmpl   $0x7f,0xfffffffc(%ebp)
   167f6:	7e 22                	jle    1681a <_usb_connect@4+0x64>
   167f8:	83 ec 04             	sub    $0x4,%esp
   167fb:	6a 01                	push   $0x1
   167fd:	68 80 00 00 00       	push   $0x80
   16802:	8b 45 08             	mov    0x8(%ebp),%eax
   16805:	8b 80 bc 00 00 00    	mov    0xbc(%eax),%eax
   1680b:	83 c0 10             	add    $0x10,%eax
   1680e:	50                   	push   %eax
   1680f:	e8 6c 00 00 00       	call   16880 <_find_next_zero_bit>
   16814:	83 c4 10             	add    $0x10,%esp
   16817:	89 45 fc             	mov    %eax,0xfffffffc(%ebp)
   1681a:	8b 45 08             	mov    0x8(%ebp),%eax
   1681d:	8b 80 bc 00 00 00    	mov    0xbc(%eax),%eax
   16823:	89 45 f8             	mov    %eax,0xfffffff8(%ebp)
   16826:	83 7d fc 7e          	cmpl   $0x7e,0xfffffffc(%ebp)
   1682a:	7f 09                	jg     16835 <_usb_connect@4+0x7f>
   1682c:	8b 45 fc             	mov    0xfffffffc(%ebp),%eax
   1682f:	40                   	inc    %eax
   16830:	89 45 f4             	mov    %eax,0xfffffff4(%ebp)
   16833:	eb 07                	jmp    1683c <_usb_connect@4+0x86>
   16835:	c7 45 f4 01 00 00 00 	movl   $0x1,0xfffffff4(%ebp)
   1683c:	8b 45 f4             	mov    0xfffffff4(%ebp),%eax
   1683f:	8b 55 f8             	mov    0xfffffff8(%ebp),%edx
   16842:	89 42 0c             	mov    %eax,0xc(%edx)
   16845:	83 7d fc 7f          	cmpl   $0x7f,0xfffffffc(%ebp)
   16849:	7f 23                	jg     1686e <_usb_connect@4+0xb8>
   1684b:	83 ec 08             	sub    $0x8,%esp
   1684e:	8b 45 08             	mov    0x8(%ebp),%eax
   16851:	8b 80 bc 00 00 00    	mov    0xbc(%eax),%eax
   16857:	83 c0 10             	add    $0x10,%eax
   1685a:	50                   	push   %eax
   1685b:	ff 75 fc             	pushl  0xfffffffc(%ebp)
   1685e:	e8 0f 00 00 00       	call   16872 <_set_bit>
   16863:	83 c4 10             	add    $0x10,%esp
   16866:	8b 55 08             	mov    0x8(%ebp),%edx
   16869:	8b 45 fc             	mov    0xfffffffc(%ebp),%eax
   1686c:	89 02                	mov    %eax,(%edx)
   1686e:	c9                   	leave  
   1686f:	c2 04 00             	ret    $0x4

00016872 <_set_bit>:
   16872:	55                   	push   %ebp
   16873:	89 e5                	mov    %esp,%ebp
   16875:	8b 55 0c             	mov    0xc(%ebp),%edx
   16878:	8b 45 08             	mov    0x8(%ebp),%eax
   1687b:	0f ab 02             	bts    %eax,(%edx)
   1687e:	5d                   	pop    %ebp
   1687f:	c3                   	ret    

00016880 <_find_next_zero_bit>:
   16880:	55                   	push   %ebp
   16881:	89 e5                	mov    %esp,%ebp
   16883:	83 ec 18             	sub    $0x18,%esp
   16886:	8b 45 10             	mov    0x10(%ebp),%eax
   16889:	c1 f8 05             	sar    $0x5,%eax
   1688c:	c1 e0 02             	shl    $0x2,%eax
   1688f:	03 45 08             	add    0x8(%ebp),%eax
   16892:	89 45 fc             	mov    %eax,0xfffffffc(%ebp)
   16895:	c7 45 f8 00 00 00 00 	movl   $0x0,0xfffffff8(%ebp)
   1689c:	8b 45 10             	mov    0x10(%ebp),%eax
   1689f:	83 e0 1f             	and    $0x1f,%eax
   168a2:	89 45 f4             	mov    %eax,0xfffffff4(%ebp)
   168a5:	83 7d f4 00          	cmpl   $0x0,0xfffffff4(%ebp)
   168a9:	74 42                	je     168ed <_find_next_zero_bit+0x6d>
   168ab:	8b 45 fc             	mov    0xfffffffc(%ebp),%eax
   168ae:	8b 4d f4             	mov    0xfffffff4(%ebp),%ecx
   168b1:	8b 00                	mov    (%eax),%eax
   168b3:	d3 e8                	shr    %cl,%eax
   168b5:	f7 d0                	not    %eax
   168b7:	0f bc c0             	bsf    %eax,%eax
   168ba:	75 05                	jne    168c1 <_find_next_zero_bit+0x41>
   168bc:	b8 20 00 00 00       	mov    $0x20,%eax
   168c1:	89 45 f8             	mov    %eax,0xfffffff8(%ebp)
   168c4:	b8 20 00 00 00       	mov    $0x20,%eax
   168c9:	2b 45 f4             	sub    0xfffffff4(%ebp),%eax
   168cc:	3b 45 f8             	cmp    0xfffffff8(%ebp),%eax
   168cf:	7e 0b                	jle    168dc <_find_next_zero_bit+0x5c>
   168d1:	8b 45 10             	mov    0x10(%ebp),%eax
   168d4:	03 45 f8             	add    0xfffffff8(%ebp),%eax
   168d7:	89 45 ec             	mov    %eax,0xffffffec(%ebp)
   168da:	eb 43                	jmp    1691f <_find_next_zero_bit+0x9f>
   168dc:	b8 20 00 00 00       	mov    $0x20,%eax
   168e1:	2b 45 f4             	sub    0xfffffff4(%ebp),%eax
   168e4:	89 45 f8             	mov    %eax,0xfffffff8(%ebp)
   168e7:	8d 45 fc             	lea    0xfffffffc(%ebp),%eax
   168ea:	83 00 04             	addl   $0x4,(%eax)
   168ed:	83 ec 08             	sub    $0x8,%esp
   168f0:	8b 55 08             	mov    0x8(%ebp),%edx
   168f3:	8b 45 fc             	mov    0xfffffffc(%ebp),%eax
   168f6:	29 d0                	sub    %edx,%eax
   168f8:	8d 14 c5 00 00 00 00 	lea    0x0(,%eax,8),%edx
   168ff:	8b 45 0c             	mov    0xc(%ebp),%eax
   16902:	29 d0                	sub    %edx,%eax
   16904:	50                   	push   %eax
   16905:	ff 75 fc             	pushl  0xfffffffc(%ebp)
   16908:	e8 17 00 00 00       	call   16924 <_find_first_zero_bit>
   1690d:	83 c4 10             	add    $0x10,%esp
   16910:	89 45 f0             	mov    %eax,0xfffffff0(%ebp)
   16913:	8b 45 f8             	mov    0xfffffff8(%ebp),%eax
   16916:	03 45 10             	add    0x10(%ebp),%eax
   16919:	03 45 f0             	add    0xfffffff0(%ebp),%eax
   1691c:	89 45 ec             	mov    %eax,0xffffffec(%ebp)
   1691f:	8b 45 ec             	mov    0xffffffec(%ebp),%eax
   16922:	c9                   	leave  
   16923:	c3                   	ret    

00016924 <_find_first_zero_bit>:
   16924:	55                   	push   %ebp
   16925:	89 e5                	mov    %esp,%ebp
   16927:	57                   	push   %edi
   16928:	53                   	push   %ebx
   16929:	83 ec 14             	sub    $0x14,%esp
   1692c:	83 7d 0c 00          	cmpl   $0x0,0xc(%ebp)
   16930:	75 09                	jne    1693b <_find_first_zero_bit+0x17>
   16932:	c7 45 e4 00 00 00 00 	movl   $0x0,0xffffffe4(%ebp)
   16939:	eb 48                	jmp    16983 <_find_first_zero_bit+0x5f>
   1693b:	8b 45 0c             	mov    0xc(%ebp),%eax
   1693e:	83 c0 1f             	add    $0x1f,%eax
   16941:	89 c1                	mov    %eax,%ecx
   16943:	c1 e9 05             	shr    $0x5,%ecx
   16946:	8b 7d 08             	mov    0x8(%ebp),%edi
   16949:	8b 5d 08             	mov    0x8(%ebp),%ebx
   1694c:	b8 ff ff ff ff       	mov    $0xffffffff,%eax
   16951:	31 d2                	xor    %edx,%edx
   16953:	f3 af                	repz scas %es:(%edi),%eax
   16955:	74 09                	je     16960 <_find_first_zero_bit+0x3c>
   16957:	33 47 fc             	xor    0xfffffffc(%edi),%eax
   1695a:	83 ef 04             	sub    $0x4,%edi
   1695d:	0f bc d0             	bsf    %eax,%edx
   16960:	29 df                	sub    %ebx,%edi
   16962:	c1 e7 03             	shl    $0x3,%edi
   16965:	01 fa                	add    %edi,%edx
   16967:	89 c3                	mov    %eax,%ebx
   16969:	89 d0                	mov    %edx,%eax
   1696b:	89 45 e8             	mov    %eax,0xffffffe8(%ebp)
   1696e:	89 c8                	mov    %ecx,%eax
   16970:	89 45 f4             	mov    %eax,0xfffffff4(%ebp)
   16973:	89 f8                	mov    %edi,%eax
   16975:	89 45 f0             	mov    %eax,0xfffffff0(%ebp)
   16978:	89 d8                	mov    %ebx,%eax
   1697a:	89 45 ec             	mov    %eax,0xffffffec(%ebp)
   1697d:	8b 45 e8             	mov    0xffffffe8(%ebp),%eax
   16980:	89 45 e4             	mov    %eax,0xffffffe4(%ebp)
   16983:	8b 45 e4             	mov    0xffffffe4(%ebp),%eax
   16986:	83 c4 14             	add    $0x14,%esp
   16989:	5b                   	pop    %ebx
   1698a:	5f                   	pop    %edi
   1698b:	5d                   	pop    %ebp
   1698c:	c3                   	ret    

0001698d <_usb_set_address>:
   1698d:	55                   	push   %ebp
   1698e:	89 e5                	mov    %esp,%ebp
   16990:	83 ec 08             	sub    $0x8,%esp
   16993:	8b 45 08             	mov    0x8(%ebp),%eax
   16996:	83 38 00             	cmpl   $0x0,(%eax)
   16999:	75 09                	jne    169a4 <_usb_set_address+0x17>
   1699b:	c7 45 f8 ea ff ff ff 	movl   $0xffffffea,0xfffffff8(%ebp)
   169a2:	eb 61                	jmp    16a05 <_usb_set_address+0x78>
   169a4:	8b 45 08             	mov    0x8(%ebp),%eax
   169a7:	83 78 14 03          	cmpl   $0x3,0x14(%eax)
   169ab:	74 12                	je     169bf <_usb_set_address+0x32>
   169ad:	8b 45 08             	mov    0x8(%ebp),%eax
   169b0:	83 78 14 04          	cmpl   $0x4,0x14(%eax)
   169b4:	74 09                	je     169bf <_usb_set_address+0x32>
   169b6:	c7 45 f8 ea ff ff ff 	movl   $0xffffffea,0xfffffff8(%ebp)
   169bd:	eb 46                	jmp    16a05 <_usb_set_address+0x78>
   169bf:	83 ec 0c             	sub    $0xc,%esp
   169c2:	68 f4 01 00 00       	push   $0x1f4
   169c7:	6a 00                	push   $0x0
   169c9:	6a 00                	push   $0x0
   169cb:	6a 00                	push   $0x0
   169cd:	8b 45 08             	mov    0x8(%ebp),%eax
   169d0:	8b 00                	mov    (%eax),%eax
   169d2:	25 ff ff 00 00       	and    $0xffff,%eax
   169d7:	50                   	push   %eax
   169d8:	6a 00                	push   $0x0
   169da:	6a 05                	push   $0x5
   169dc:	68 00 00 00 80       	push   $0x80000000
   169e1:	ff 75 08             	pushl  0x8(%ebp)
   169e4:	e8 07 a8 ff ff       	call   111f0 <_usb_control_msg>
   169e9:	83 c4 30             	add    $0x30,%esp
   169ec:	89 45 fc             	mov    %eax,0xfffffffc(%ebp)
   169ef:	83 7d fc 00          	cmpl   $0x0,0xfffffffc(%ebp)
   169f3:	75 0a                	jne    169ff <_usb_set_address+0x72>
   169f5:	8b 45 08             	mov    0x8(%ebp),%eax
   169f8:	c7 40 14 04 00 00 00 	movl   $0x4,0x14(%eax)
   169ff:	8b 45 fc             	mov    0xfffffffc(%ebp),%eax
   16a02:	89 45 f8             	mov    %eax,0xfffffff8(%ebp)
   16a05:	8b 45 f8             	mov    0xfffffff8(%ebp),%eax
   16a08:	c9                   	leave  
   16a09:	c3                   	ret    

00016a0a <_set_device_description>:
   16a0a:	55                   	push   %ebp
   16a0b:	89 e5                	mov    %esp,%ebp
   16a0d:	83 ec 28             	sub    $0x28,%esp
   16a10:	8b 45 08             	mov    0x8(%ebp),%eax
   16a13:	8a 80 7e 01 00 00    	mov    0x17e(%eax),%al
   16a19:	25 ff 00 00 00       	and    $0xff,%eax
   16a1e:	89 45 f8             	mov    %eax,0xfffffff8(%ebp)
   16a21:	8b 45 08             	mov    0x8(%ebp),%eax
   16a24:	8a 80 7f 01 00 00    	mov    0x17f(%eax),%al
   16a2a:	25 ff 00 00 00       	and    $0xff,%eax
   16a2f:	89 45 f4             	mov    %eax,0xfffffff4(%ebp)
   16a32:	8b 45 08             	mov    0x8(%ebp),%eax
   16a35:	66 8b 80 78 01 00 00 	mov    0x178(%eax),%ax
   16a3c:	25 ff ff 00 00       	and    $0xffff,%eax
   16a41:	89 45 f0             	mov    %eax,0xfffffff0(%ebp)
   16a44:	8b 45 08             	mov    0x8(%ebp),%eax
   16a47:	66 8b 80 7a 01 00 00 	mov    0x17a(%eax),%ax
   16a4e:	25 ff ff 00 00       	and    $0xffff,%eax
   16a53:	89 45 ec             	mov    %eax,0xffffffec(%ebp)
   16a56:	ff 75 ec             	pushl  0xffffffec(%ebp)
   16a59:	ff 75 f0             	pushl  0xfffffff0(%ebp)
   16a5c:	68 4c b2 01 00       	push   $0x1b24c
   16a61:	8b 45 08             	mov    0x8(%ebp),%eax
   16a64:	05 c0 00 00 00       	add    $0xc0,%eax
   16a69:	50                   	push   %eax
   16a6a:	e8 21 30 00 00       	call   19a90 <_sprintf>
   16a6f:	83 c4 10             	add    $0x10,%esp
   16a72:	83 ec 08             	sub    $0x8,%esp
   16a75:	68 00 02 00 00       	push   $0x200
   16a7a:	6a 01                	push   $0x1
   16a7c:	e8 af 2f 00 00       	call   19a30 <_ExAllocatePool@8>
   16a81:	83 c4 08             	add    $0x8,%esp
   16a84:	89 45 fc             	mov    %eax,0xfffffffc(%ebp)
   16a87:	83 7d fc 00          	cmpl   $0x0,0xfffffffc(%ebp)
   16a8b:	75 05                	jne    16a92 <_set_device_description+0x88>
   16a8d:	e9 ff 00 00 00       	jmp    16b91 <_set_device_description+0x187>
   16a92:	8b 45 fc             	mov    0xfffffffc(%ebp),%eax
   16a95:	89 45 e4             	mov    %eax,0xffffffe4(%ebp)
   16a98:	8b 45 fc             	mov    0xfffffffc(%ebp),%eax
   16a9b:	05 00 01 00 00       	add    $0x100,%eax
   16aa0:	89 45 e8             	mov    %eax,0xffffffe8(%ebp)
   16aa3:	83 7d f4 00          	cmpl   $0x0,0xfffffff4(%ebp)
   16aa7:	74 1c                	je     16ac5 <_set_device_description+0xbb>
   16aa9:	68 00 01 00 00       	push   $0x100
   16aae:	ff 75 e4             	pushl  0xffffffe4(%ebp)
   16ab1:	ff 75 f4             	pushl  0xfffffff4(%ebp)
   16ab4:	ff 75 08             	pushl  0x8(%ebp)
   16ab7:	e8 27 b1 ff ff       	call   11be3 <_usb_string>
   16abc:	83 c4 10             	add    $0x10,%esp
   16abf:	85 c0                	test   %eax,%eax
   16ac1:	7e 02                	jle    16ac5 <_set_device_description+0xbb>
   16ac3:	eb 07                	jmp    16acc <_set_device_description+0xc2>
   16ac5:	c7 45 e4 00 00 00 00 	movl   $0x0,0xffffffe4(%ebp)
   16acc:	83 7d f8 00          	cmpl   $0x0,0xfffffff8(%ebp)
   16ad0:	74 1c                	je     16aee <_set_device_description+0xe4>
   16ad2:	68 00 01 00 00       	push   $0x100
   16ad7:	ff 75 e8             	pushl  0xffffffe8(%ebp)
   16ada:	ff 75 f8             	pushl  0xfffffff8(%ebp)
   16add:	ff 75 08             	pushl  0x8(%ebp)
   16ae0:	e8 fe b0 ff ff       	call   11be3 <_usb_string>
   16ae5:	83 c4 10             	add    $0x10,%esp
   16ae8:	85 c0                	test   %eax,%eax
   16aea:	7e 02                	jle    16aee <_set_device_description+0xe4>
   16aec:	eb 07                	jmp    16af5 <_set_device_description+0xeb>
   16aee:	c7 45 e8 00 00 00 00 	movl   $0x0,0xffffffe8(%ebp)
   16af5:	83 7d e4 00          	cmpl   $0x0,0xffffffe4(%ebp)
   16af9:	74 2c                	je     16b27 <_set_device_description+0x11d>
   16afb:	83 7d e8 00          	cmpl   $0x0,0xffffffe8(%ebp)
   16aff:	74 26                	je     16b27 <_set_device_description+0x11d>
   16b01:	83 ec 0c             	sub    $0xc,%esp
   16b04:	ff 75 e8             	pushl  0xffffffe8(%ebp)
   16b07:	ff 75 e4             	pushl  0xffffffe4(%ebp)
   16b0a:	68 61 b2 01 00       	push   $0x1b261
   16b0f:	68 80 00 00 00       	push   $0x80
   16b14:	8b 45 08             	mov    0x8(%ebp),%eax
   16b17:	05 c0 00 00 00       	add    $0xc0,%eax
   16b1c:	50                   	push   %eax
   16b1d:	e8 9e 2f 00 00       	call   19ac0 <__snprintf>
   16b22:	83 c4 20             	add    $0x20,%esp
   16b25:	eb 5c                	jmp    16b83 <_set_device_description+0x179>
   16b27:	83 7d e4 00          	cmpl   $0x0,0xffffffe4(%ebp)
   16b2b:	74 29                	je     16b56 <_set_device_description+0x14c>
   16b2d:	83 ec 08             	sub    $0x8,%esp
   16b30:	ff 75 ec             	pushl  0xffffffec(%ebp)
   16b33:	ff 75 f0             	pushl  0xfffffff0(%ebp)
   16b36:	ff 75 e4             	pushl  0xffffffe4(%ebp)
   16b39:	68 69 b2 01 00       	push   $0x1b269
   16b3e:	68 80 00 00 00       	push   $0x80
   16b43:	8b 45 08             	mov    0x8(%ebp),%eax
   16b46:	05 c0 00 00 00       	add    $0xc0,%eax
   16b4b:	50                   	push   %eax
   16b4c:	e8 6f 2f 00 00       	call   19ac0 <__snprintf>
   16b51:	83 c4 20             	add    $0x20,%esp
   16b54:	eb 2d                	jmp    16b83 <_set_device_description+0x179>
   16b56:	83 7d e8 00          	cmpl   $0x0,0xffffffe8(%ebp)
   16b5a:	74 27                	je     16b83 <_set_device_description+0x179>
   16b5c:	83 ec 08             	sub    $0x8,%esp
   16b5f:	ff 75 e8             	pushl  0xffffffe8(%ebp)
   16b62:	ff 75 ec             	pushl  0xffffffec(%ebp)
   16b65:	ff 75 f0             	pushl  0xfffffff0(%ebp)
   16b68:	68 83 b2 01 00       	push   $0x1b283
   16b6d:	68 80 00 00 00       	push   $0x80
   16b72:	8b 45 08             	mov    0x8(%ebp),%eax
   16b75:	05 c0 00 00 00       	add    $0xc0,%eax
   16b7a:	50                   	push   %eax
   16b7b:	e8 40 2f 00 00       	call   19ac0 <__snprintf>
   16b80:	83 c4 20             	add    $0x20,%esp
   16b83:	83 ec 0c             	sub    $0xc,%esp
   16b86:	ff 75 fc             	pushl  0xfffffffc(%ebp)
   16b89:	e8 b2 2e 00 00       	call   19a40 <_ExFreePool@4>
   16b8e:	83 c4 0c             	add    $0xc,%esp
   16b91:	c9                   	leave  
   16b92:	c3                   	ret    

00016b93 <_usb_new_device>:
   16b93:	55                   	push   %ebp
   16b94:	89 e5                	mov    %esp,%ebp
   16b96:	53                   	push   %ebx
   16b97:	83 ec 24             	sub    $0x24,%esp
   16b9a:	c7 45 f8 00 00 00 00 	movl   $0x0,0xfffffff8(%ebp)
   16ba1:	c7 05 e4 a0 01 00 f8 	movl   $0x1a0f8,0x1a0e4
   16ba8:	a0 01 00 
   16bab:	8b 55 08             	mov    0x8(%ebp),%edx
   16bae:	8b 45 0c             	mov    0xc(%ebp),%eax
   16bb1:	89 82 60 01 00 00    	mov    %eax,0x160(%edx)
   16bb7:	8b 45 08             	mov    0x8(%ebp),%eax
   16bba:	c7 80 58 01 00 00 e0 	movl   $0x1a0e0,0x158(%eax)
   16bc1:	a0 01 00 
   16bc4:	8b 45 08             	mov    0x8(%ebp),%eax
   16bc7:	c7 80 40 01 00 00 f8 	movl   $0x1a0f8,0x140(%eax)
   16bce:	a0 01 00 
   16bd1:	8b 45 08             	mov    0x8(%ebp),%eax
   16bd4:	c7 80 6c 01 00 00 c2 	movl   $0x163c2,0x16c(%eax)
   16bdb:	63 01 00 
   16bde:	8b 45 08             	mov    0x8(%ebp),%eax
   16be1:	c7 80 5c 01 00 00 70 	movl   $0x1c070,0x15c(%eax)
   16be8:	c0 01 00 
   16beb:	83 ec 0c             	sub    $0xc,%esp
   16bee:	ff 75 08             	pushl  0x8(%ebp)
   16bf1:	e8 74 f7 ff ff       	call   1636a <_usb_get_dev>
   16bf6:	83 c4 10             	add    $0x10,%esp
   16bf9:	8b 45 08             	mov    0x8(%ebp),%eax
   16bfc:	80 b8 48 01 00 00 00 	cmpb   $0x0,0x148(%eax)
   16c03:	75 29                	jne    16c2e <_usb_new_device+0x9b>
   16c05:	8b 45 08             	mov    0x8(%ebp),%eax
   16c08:	83 c0 04             	add    $0x4,%eax
   16c0b:	50                   	push   %eax
   16c0c:	8b 45 08             	mov    0x8(%ebp),%eax
   16c0f:	8b 80 bc 00 00 00    	mov    0xbc(%eax),%eax
   16c15:	ff 70 04             	pushl  0x4(%eax)
   16c18:	68 9d b2 01 00       	push   $0x1b29d
   16c1d:	8b 45 08             	mov    0x8(%ebp),%eax
   16c20:	05 48 01 00 00       	add    $0x148,%eax
   16c25:	50                   	push   %eax
   16c26:	e8 65 2e 00 00       	call   19a90 <_sprintf>
   16c2b:	83 c4 10             	add    $0x10,%esp
   16c2e:	8b 55 08             	mov    0x8(%ebp),%edx
   16c31:	8b 45 0c             	mov    0xc(%ebp),%eax
   16c34:	8b 80 84 00 00 00    	mov    0x84(%eax),%eax
   16c3a:	89 82 44 01 00 00    	mov    %eax,0x144(%edx)
   16c40:	8b 45 08             	mov    0x8(%ebp),%eax
   16c43:	8b 40 18             	mov    0x18(%eax),%eax
   16c46:	89 45 e0             	mov    %eax,0xffffffe0(%ebp)
   16c49:	83 7d e0 01          	cmpl   $0x1,0xffffffe0(%ebp)
   16c4d:	72 20                	jb     16c6f <_usb_new_device+0xdc>
   16c4f:	83 7d e0 02          	cmpl   $0x2,0xffffffe0(%ebp)
   16c53:	76 11                	jbe    16c66 <_usb_new_device+0xd3>
   16c55:	83 7d e0 03          	cmpl   $0x3,0xffffffe0(%ebp)
   16c59:	74 02                	je     16c5d <_usb_new_device+0xca>
   16c5b:	eb 12                	jmp    16c6f <_usb_new_device+0xdc>
   16c5d:	c7 45 f4 40 00 00 00 	movl   $0x40,0xfffffff4(%ebp)
   16c64:	eb 15                	jmp    16c7b <_usb_new_device+0xe8>
   16c66:	c7 45 f4 08 00 00 00 	movl   $0x8,0xfffffff4(%ebp)
   16c6d:	eb 0c                	jmp    16c7b <_usb_new_device+0xe8>
   16c6f:	c7 45 e4 ea ff ff ff 	movl   $0xffffffea,0xffffffe4(%ebp)
   16c76:	e9 da 03 00 00       	jmp    17055 <_usb_new_device+0x4c2>
   16c7b:	8b 55 08             	mov    0x8(%ebp),%edx
   16c7e:	8b 45 f4             	mov    0xfffffff4(%ebp),%eax
   16c81:	89 42 38             	mov    %eax,0x38(%edx)
   16c84:	8b 55 08             	mov    0x8(%ebp),%edx
   16c87:	8b 45 f4             	mov    0xfffffff4(%ebp),%eax
   16c8a:	89 42 78             	mov    %eax,0x78(%edx)
   16c8d:	c7 45 f4 00 00 00 00 	movl   $0x0,0xfffffff4(%ebp)
   16c94:	83 7d f4 01          	cmpl   $0x1,0xfffffff4(%ebp)
   16c98:	0f 8f c8 00 00 00    	jg     16d66 <_usb_new_device+0x1d3>
   16c9e:	c7 45 f0 00 00 00 00 	movl   $0x0,0xfffffff0(%ebp)
   16ca5:	83 7d f0 01          	cmpl   $0x1,0xfffffff0(%ebp)
   16ca9:	7f 30                	jg     16cdb <_usb_new_device+0x148>
   16cab:	83 ec 0c             	sub    $0xc,%esp
   16cae:	ff 75 08             	pushl  0x8(%ebp)
   16cb1:	e8 d7 fc ff ff       	call   1698d <_usb_set_address>
   16cb6:	83 c4 10             	add    $0x10,%esp
   16cb9:	89 45 f8             	mov    %eax,0xfffffff8(%ebp)
   16cbc:	83 7d f8 00          	cmpl   $0x0,0xfffffff8(%ebp)
   16cc0:	78 02                	js     16cc4 <_usb_new_device+0x131>
   16cc2:	eb 17                	jmp    16cdb <_usb_new_device+0x148>
   16cc4:	83 ec 0c             	sub    $0xc,%esp
   16cc7:	68 c8 00 00 00       	push   $0xc8
   16ccc:	e8 df 27 00 00       	call   194b0 <_wait_ms>
   16cd1:	83 c4 10             	add    $0x10,%esp
   16cd4:	8d 45 f0             	lea    0xfffffff0(%ebp),%eax
   16cd7:	ff 00                	incl   (%eax)
   16cd9:	eb ca                	jmp    16ca5 <_usb_new_device+0x112>
   16cdb:	83 7d f8 00          	cmpl   $0x0,0xfffffff8(%ebp)
   16cdf:	79 39                	jns    16d1a <_usb_new_device+0x187>
   16ce1:	8b 45 08             	mov    0x8(%ebp),%eax
   16ce4:	c7 40 14 03 00 00 00 	movl   $0x3,0x14(%eax)
   16ceb:	8b 45 08             	mov    0x8(%ebp),%eax
   16cee:	8b 80 bc 00 00 00    	mov    0xbc(%eax),%eax
   16cf4:	83 c0 10             	add    $0x10,%eax
   16cf7:	50                   	push   %eax
   16cf8:	8b 45 08             	mov    0x8(%ebp),%eax
   16cfb:	ff 30                	pushl  (%eax)
   16cfd:	e8 a6 fa ff ff       	call   167a8 <_clear_bit>
   16d02:	83 c4 08             	add    $0x8,%esp
   16d05:	8b 45 08             	mov    0x8(%ebp),%eax
   16d08:	c7 00 ff ff ff ff    	movl   $0xffffffff,(%eax)
   16d0e:	c7 45 e4 01 00 00 00 	movl   $0x1,0xffffffe4(%ebp)
   16d15:	e9 3b 03 00 00       	jmp    17055 <_usb_new_device+0x4c2>
   16d1a:	83 ec 0c             	sub    $0xc,%esp
   16d1d:	6a 0a                	push   $0xa
   16d1f:	e8 8c 27 00 00       	call   194b0 <_wait_ms>
   16d24:	83 c4 10             	add    $0x10,%esp
   16d27:	83 ec 0c             	sub    $0xc,%esp
   16d2a:	6a 08                	push   $0x8
   16d2c:	8b 45 08             	mov    0x8(%ebp),%eax
   16d2f:	05 70 01 00 00       	add    $0x170,%eax
   16d34:	50                   	push   %eax
   16d35:	6a 00                	push   $0x0
   16d37:	6a 01                	push   $0x1
   16d39:	ff 75 08             	pushl  0x8(%ebp)
   16d3c:	e8 1b a6 ff ff       	call   1135c <_usb_get_descriptor>
   16d41:	83 c4 20             	add    $0x20,%esp
   16d44:	89 45 f8             	mov    %eax,0xfffffff8(%ebp)
   16d47:	83 7d f8 07          	cmpl   $0x7,0xfffffff8(%ebp)
   16d4b:	7e 02                	jle    16d4f <_usb_new_device+0x1bc>
   16d4d:	eb 17                	jmp    16d66 <_usb_new_device+0x1d3>
   16d4f:	83 ec 0c             	sub    $0xc,%esp
   16d52:	6a 64                	push   $0x64
   16d54:	e8 57 27 00 00       	call   194b0 <_wait_ms>
   16d59:	83 c4 10             	add    $0x10,%esp
   16d5c:	8d 45 f4             	lea    0xfffffff4(%ebp),%eax
   16d5f:	ff 00                	incl   (%eax)
   16d61:	e9 2e ff ff ff       	jmp    16c94 <_usb_new_device+0x101>
   16d66:	83 7d f8 07          	cmpl   $0x7,0xfffffff8(%ebp)
   16d6a:	7f 2f                	jg     16d9b <_usb_new_device+0x208>
   16d6c:	8b 45 08             	mov    0x8(%ebp),%eax
   16d6f:	8b 80 bc 00 00 00    	mov    0xbc(%eax),%eax
   16d75:	83 c0 10             	add    $0x10,%eax
   16d78:	50                   	push   %eax
   16d79:	8b 45 08             	mov    0x8(%ebp),%eax
   16d7c:	ff 30                	pushl  (%eax)
   16d7e:	e8 25 fa ff ff       	call   167a8 <_clear_bit>
   16d83:	83 c4 08             	add    $0x8,%esp
   16d86:	8b 45 08             	mov    0x8(%ebp),%eax
   16d89:	c7 00 ff ff ff ff    	movl   $0xffffffff,(%eax)
   16d8f:	c7 45 e4 01 00 00 00 	movl   $0x1,0xffffffe4(%ebp)
   16d96:	e9 ba 02 00 00       	jmp    17055 <_usb_new_device+0x4c2>
   16d9b:	8b 45 08             	mov    0x8(%ebp),%eax
   16d9e:	83 78 18 02          	cmpl   $0x2,0x18(%eax)
   16da2:	75 28                	jne    16dcc <_usb_new_device+0x239>
   16da4:	8b 55 08             	mov    0x8(%ebp),%edx
   16da7:	8b 45 08             	mov    0x8(%ebp),%eax
   16daa:	8a 80 77 01 00 00    	mov    0x177(%eax),%al
   16db0:	25 ff 00 00 00       	and    $0xff,%eax
   16db5:	89 42 38             	mov    %eax,0x38(%edx)
   16db8:	8b 55 08             	mov    0x8(%ebp),%edx
   16dbb:	8b 45 08             	mov    0x8(%ebp),%eax
   16dbe:	8a 80 77 01 00 00    	mov    0x177(%eax),%al
   16dc4:	25 ff 00 00 00       	and    $0xff,%eax
   16dc9:	89 42 78             	mov    %eax,0x78(%edx)
   16dcc:	83 ec 0c             	sub    $0xc,%esp
   16dcf:	ff 75 08             	pushl  0x8(%ebp)
   16dd2:	e8 aa a6 ff ff       	call   11481 <_usb_get_device_descriptor>
   16dd7:	83 c4 10             	add    $0x10,%esp
   16dda:	89 45 f8             	mov    %eax,0xfffffff8(%ebp)
   16ddd:	83 7d f8 11          	cmpl   $0x11,0xfffffff8(%ebp)
   16de1:	7f 2f                	jg     16e12 <_usb_new_device+0x27f>
   16de3:	8b 45 08             	mov    0x8(%ebp),%eax
   16de6:	8b 80 bc 00 00 00    	mov    0xbc(%eax),%eax
   16dec:	83 c0 10             	add    $0x10,%eax
   16def:	50                   	push   %eax
   16df0:	8b 45 08             	mov    0x8(%ebp),%eax
   16df3:	ff 30                	pushl  (%eax)
   16df5:	e8 ae f9 ff ff       	call   167a8 <_clear_bit>
   16dfa:	83 c4 08             	add    $0x8,%esp
   16dfd:	8b 45 08             	mov    0x8(%ebp),%eax
   16e00:	c7 00 ff ff ff ff    	movl   $0xffffffff,(%eax)
   16e06:	c7 45 e4 01 00 00 00 	movl   $0x1,0xffffffe4(%ebp)
   16e0d:	e9 43 02 00 00       	jmp    17055 <_usb_new_device+0x4c2>
   16e12:	83 ec 0c             	sub    $0xc,%esp
   16e15:	ff 75 08             	pushl  0x8(%ebp)
   16e18:	e8 fb 0f 00 00       	call   17e18 <_usb_get_configuration>
   16e1d:	83 c4 10             	add    $0x10,%esp
   16e20:	89 45 f8             	mov    %eax,0xfffffff8(%ebp)
   16e23:	83 7d f8 00          	cmpl   $0x0,0xfffffff8(%ebp)
   16e27:	79 2f                	jns    16e58 <_usb_new_device+0x2c5>
   16e29:	8b 45 08             	mov    0x8(%ebp),%eax
   16e2c:	8b 80 bc 00 00 00    	mov    0xbc(%eax),%eax
   16e32:	83 c0 10             	add    $0x10,%eax
   16e35:	50                   	push   %eax
   16e36:	8b 45 08             	mov    0x8(%ebp),%eax
   16e39:	ff 30                	pushl  (%eax)
   16e3b:	e8 68 f9 ff ff       	call   167a8 <_clear_bit>
   16e40:	83 c4 08             	add    $0x8,%esp
   16e43:	8b 45 08             	mov    0x8(%ebp),%eax
   16e46:	c7 00 ff ff ff ff    	movl   $0xffffffff,(%eax)
   16e4c:	c7 45 e4 01 00 00 00 	movl   $0x1,0xffffffe4(%ebp)
   16e53:	e9 fd 01 00 00       	jmp    17055 <_usb_new_device+0x4c2>
   16e58:	83 ec 08             	sub    $0x8,%esp
   16e5b:	8b 45 08             	mov    0x8(%ebp),%eax
   16e5e:	8b 80 84 01 00 00    	mov    0x184(%eax),%eax
   16e64:	8a 40 05             	mov    0x5(%eax),%al
   16e67:	25 ff 00 00 00       	and    $0xff,%eax
   16e6c:	50                   	push   %eax
   16e6d:	ff 75 08             	pushl  0x8(%ebp)
   16e70:	e8 d2 ab ff ff       	call   11a47 <_usb_set_configuration>
   16e75:	83 c4 10             	add    $0x10,%esp
   16e78:	89 45 f8             	mov    %eax,0xfffffff8(%ebp)
   16e7b:	83 7d f8 00          	cmpl   $0x0,0xfffffff8(%ebp)
   16e7f:	74 2f                	je     16eb0 <_usb_new_device+0x31d>
   16e81:	8b 45 08             	mov    0x8(%ebp),%eax
   16e84:	8b 80 bc 00 00 00    	mov    0xbc(%eax),%eax
   16e8a:	83 c0 10             	add    $0x10,%eax
   16e8d:	50                   	push   %eax
   16e8e:	8b 45 08             	mov    0x8(%ebp),%eax
   16e91:	ff 30                	pushl  (%eax)
   16e93:	e8 10 f9 ff ff       	call   167a8 <_clear_bit>
   16e98:	83 c4 08             	add    $0x8,%esp
   16e9b:	8b 45 08             	mov    0x8(%ebp),%eax
   16e9e:	c7 00 ff ff ff ff    	movl   $0xffffffff,(%eax)
   16ea4:	c7 45 e4 01 00 00 00 	movl   $0x1,0xffffffe4(%ebp)
   16eab:	e9 a5 01 00 00       	jmp    17055 <_usb_new_device+0x4c2>
   16eb0:	83 ec 0c             	sub    $0xc,%esp
   16eb3:	ff 75 08             	pushl  0x8(%ebp)
   16eb6:	e8 4f fb ff ff       	call   16a0a <_set_device_description>
   16ebb:	83 c4 10             	add    $0x10,%esp
   16ebe:	83 ec 0c             	sub    $0xc,%esp
   16ec1:	8b 45 08             	mov    0x8(%ebp),%eax
   16ec4:	05 c0 00 00 00       	add    $0xc0,%eax
   16ec9:	50                   	push   %eax
   16eca:	e8 3b 28 00 00       	call   1970a <_my_device_add>
   16ecf:	83 c4 10             	add    $0x10,%esp
   16ed2:	89 45 f8             	mov    %eax,0xfffffff8(%ebp)
   16ed5:	83 7d f8 00          	cmpl   $0x0,0xfffffff8(%ebp)
   16ed9:	74 0b                	je     16ee6 <_usb_new_device+0x353>
   16edb:	8b 45 f8             	mov    0xfffffff8(%ebp),%eax
   16ede:	89 45 e4             	mov    %eax,0xffffffe4(%ebp)
   16ee1:	e9 6f 01 00 00       	jmp    17055 <_usb_new_device+0x4c2>
   16ee6:	c7 45 f4 00 00 00 00 	movl   $0x0,0xfffffff4(%ebp)
   16eed:	8b 45 08             	mov    0x8(%ebp),%eax
   16ef0:	8b 80 88 01 00 00    	mov    0x188(%eax),%eax
   16ef6:	8a 40 04             	mov    0x4(%eax),%al
   16ef9:	25 ff 00 00 00       	and    $0xff,%eax
   16efe:	3b 45 f4             	cmp    0xfffffff4(%ebp),%eax
   16f01:	0f 8e 39 01 00 00    	jle    17040 <_usb_new_device+0x4ad>
   16f07:	8b 45 08             	mov    0x8(%ebp),%eax
   16f0a:	8b 98 88 01 00 00    	mov    0x188(%eax),%ebx
   16f10:	8b 4d f4             	mov    0xfffffff4(%ebp),%ecx
   16f13:	89 c8                	mov    %ecx,%eax
   16f15:	c1 e0 02             	shl    $0x2,%eax
   16f18:	01 c8                	add    %ecx,%eax
   16f1a:	8d 14 85 00 00 00 00 	lea    0x0(,%eax,4),%edx
   16f21:	01 d0                	add    %edx,%eax
   16f23:	01 c0                	add    %eax,%eax
   16f25:	01 c8                	add    %ecx,%eax
   16f27:	c1 e0 02             	shl    $0x2,%eax
   16f2a:	03 43 0c             	add    0xc(%ebx),%eax
   16f2d:	89 45 ec             	mov    %eax,0xffffffec(%ebp)
   16f30:	8b 4d ec             	mov    0xffffffec(%ebp),%ecx
   16f33:	8b 45 ec             	mov    0xffffffec(%ebp),%eax
   16f36:	8b 50 04             	mov    0x4(%eax),%edx
   16f39:	89 d0                	mov    %edx,%eax
   16f3b:	01 c0                	add    %eax,%eax
   16f3d:	01 d0                	add    %edx,%eax
   16f3f:	c1 e0 03             	shl    $0x3,%eax
   16f42:	03 01                	add    (%ecx),%eax
   16f44:	89 45 e8             	mov    %eax,0xffffffe8(%ebp)
   16f47:	8b 55 ec             	mov    0xffffffec(%ebp),%edx
   16f4a:	8b 45 08             	mov    0x8(%ebp),%eax
   16f4d:	05 c0 00 00 00       	add    $0xc0,%eax
   16f52:	89 82 b8 00 00 00    	mov    %eax,0xb8(%edx)
   16f58:	8b 45 ec             	mov    0xffffffec(%ebp),%eax
   16f5b:	c7 80 b0 00 00 00 00 	movl   $0x0,0xb0(%eax)
   16f62:	00 00 00 
   16f65:	8b 45 ec             	mov    0xffffffec(%ebp),%eax
   16f68:	c7 80 98 00 00 00 f8 	movl   $0x1a0f8,0x98(%eax)
   16f6f:	a0 01 00 
   16f72:	8b 55 ec             	mov    0xffffffec(%ebp),%edx
   16f75:	8b 45 0c             	mov    0xc(%ebp),%eax
   16f78:	8b 80 84 00 00 00    	mov    0x84(%eax),%eax
   16f7e:	89 82 9c 00 00 00    	mov    %eax,0x9c(%edx)
   16f84:	83 ec 0c             	sub    $0xc,%esp
   16f87:	8b 45 e8             	mov    0xffffffe8(%ebp),%eax
   16f8a:	8a 40 02             	mov    0x2(%eax),%al
   16f8d:	25 ff 00 00 00       	and    $0xff,%eax
   16f92:	50                   	push   %eax
   16f93:	8b 45 08             	mov    0x8(%ebp),%eax
   16f96:	83 c0 04             	add    $0x4,%eax
   16f99:	50                   	push   %eax
   16f9a:	8b 45 08             	mov    0x8(%ebp),%eax
   16f9d:	8b 80 bc 00 00 00    	mov    0xbc(%eax),%eax
   16fa3:	ff 70 04             	pushl  0x4(%eax)
   16fa6:	68 a3 b2 01 00       	push   $0x1b2a3
   16fab:	8b 45 ec             	mov    0xffffffec(%ebp),%eax
   16fae:	05 a0 00 00 00       	add    $0xa0,%eax
   16fb3:	50                   	push   %eax
   16fb4:	e8 d7 2a 00 00       	call   19a90 <_sprintf>
   16fb9:	83 c4 20             	add    $0x20,%esp
   16fbc:	8b 45 e8             	mov    0xffffffe8(%ebp),%eax
   16fbf:	80 78 08 00          	cmpb   $0x0,0x8(%eax)
   16fc3:	74 29                	je     16fee <_usb_new_device+0x45b>
   16fc5:	68 80 00 00 00       	push   $0x80
   16fca:	8b 45 ec             	mov    0xffffffec(%ebp),%eax
   16fcd:	83 c0 18             	add    $0x18,%eax
   16fd0:	50                   	push   %eax
   16fd1:	8b 45 e8             	mov    0xffffffe8(%ebp),%eax
   16fd4:	8a 40 08             	mov    0x8(%eax),%al
   16fd7:	25 ff 00 00 00       	and    $0xff,%eax
   16fdc:	50                   	push   %eax
   16fdd:	ff 75 08             	pushl  0x8(%ebp)
   16fe0:	e8 fe ab ff ff       	call   11be3 <_usb_string>
   16fe5:	83 c4 10             	add    $0x10,%esp
   16fe8:	85 c0                	test   %eax,%eax
   16fea:	7e 02                	jle    16fee <_usb_new_device+0x45b>
   16fec:	eb 36                	jmp    17024 <_usb_new_device+0x491>
   16fee:	83 ec 0c             	sub    $0xc,%esp
   16ff1:	8b 45 e8             	mov    0xffffffe8(%ebp),%eax
   16ff4:	8a 40 02             	mov    0x2(%eax),%al
   16ff7:	25 ff 00 00 00       	and    $0xff,%eax
   16ffc:	50                   	push   %eax
   16ffd:	8b 45 08             	mov    0x8(%ebp),%eax
   17000:	83 c0 04             	add    $0x4,%eax
   17003:	50                   	push   %eax
   17004:	8b 45 08             	mov    0x8(%ebp),%eax
   17007:	8b 80 bc 00 00 00    	mov    0xbc(%eax),%eax
   1700d:	ff 70 08             	pushl  0x8(%eax)
   17010:	68 ac b2 01 00       	push   $0x1b2ac
   17015:	8b 45 ec             	mov    0xffffffec(%ebp),%eax
   17018:	83 c0 18             	add    $0x18,%eax
   1701b:	50                   	push   %eax
   1701c:	e8 6f 2a 00 00       	call   19a90 <_sprintf>
   17021:	83 c4 20             	add    $0x20,%esp
   17024:	83 ec 0c             	sub    $0xc,%esp
   17027:	8b 45 ec             	mov    0xffffffec(%ebp),%eax
   1702a:	83 c0 18             	add    $0x18,%eax
   1702d:	50                   	push   %eax
   1702e:	e8 d7 26 00 00       	call   1970a <_my_device_add>
   17033:	83 c4 10             	add    $0x10,%esp
   17036:	8d 45 f4             	lea    0xfffffff4(%ebp),%eax
   17039:	ff 00                	incl   (%eax)
   1703b:	e9 ad fe ff ff       	jmp    16eed <_usb_new_device+0x35a>
   17040:	83 ec 0c             	sub    $0xc,%esp
   17043:	ff 75 08             	pushl  0x8(%ebp)
   17046:	e8 12 00 00 00       	call   1705d <_usbfs_add_device>
   1704b:	83 c4 10             	add    $0x10,%esp
   1704e:	c7 45 e4 00 00 00 00 	movl   $0x0,0xffffffe4(%ebp)
   17055:	8b 45 e4             	mov    0xffffffe4(%ebp),%eax
   17058:	8b 5d fc             	mov    0xfffffffc(%ebp),%ebx
   1705b:	c9                   	leave  
   1705c:	c3                   	ret    

0001705d <_usbfs_add_device>:
   1705d:	55                   	push   %ebp
   1705e:	89 e5                	mov    %esp,%ebp
   17060:	5d                   	pop    %ebp
   17061:	c3                   	ret    

00017062 <_usb_buffer_alloc>:
   17062:	55                   	push   %ebp
   17063:	89 e5                	mov    %esp,%ebp
   17065:	83 ec 08             	sub    $0x8,%esp
   17068:	83 7d 08 00          	cmpl   $0x0,0x8(%ebp)
   1706c:	74 2d                	je     1709b <_usb_buffer_alloc+0x39>
   1706e:	8b 45 08             	mov    0x8(%ebp),%eax
   17071:	83 b8 bc 00 00 00 00 	cmpl   $0x0,0xbc(%eax)
   17078:	74 21                	je     1709b <_usb_buffer_alloc+0x39>
   1707a:	8b 45 08             	mov    0x8(%ebp),%eax
   1707d:	8b 80 bc 00 00 00    	mov    0xbc(%eax),%eax
   17083:	83 78 20 00          	cmpl   $0x0,0x20(%eax)
   17087:	74 12                	je     1709b <_usb_buffer_alloc+0x39>
   17089:	8b 45 08             	mov    0x8(%ebp),%eax
   1708c:	8b 80 bc 00 00 00    	mov    0xbc(%eax),%eax
   17092:	8b 40 20             	mov    0x20(%eax),%eax
   17095:	83 78 14 00          	cmpl   $0x0,0x14(%eax)
   17099:	75 09                	jne    170a4 <_usb_buffer_alloc+0x42>
   1709b:	c7 45 fc 00 00 00 00 	movl   $0x0,0xfffffffc(%ebp)
   170a2:	eb 29                	jmp    170cd <_usb_buffer_alloc+0x6b>
   170a4:	8b 45 08             	mov    0x8(%ebp),%eax
   170a7:	8b 80 bc 00 00 00    	mov    0xbc(%eax),%eax
   170ad:	8b 50 20             	mov    0x20(%eax),%edx
   170b0:	ff 75 14             	pushl  0x14(%ebp)
   170b3:	ff 75 10             	pushl  0x10(%ebp)
   170b6:	ff 75 0c             	pushl  0xc(%ebp)
   170b9:	8b 45 08             	mov    0x8(%ebp),%eax
   170bc:	ff b0 bc 00 00 00    	pushl  0xbc(%eax)
   170c2:	8b 42 14             	mov    0x14(%edx),%eax
   170c5:	ff d0                	call   *%eax
   170c7:	83 c4 10             	add    $0x10,%esp
   170ca:	89 45 fc             	mov    %eax,0xfffffffc(%ebp)
   170cd:	8b 45 fc             	mov    0xfffffffc(%ebp),%eax
   170d0:	c9                   	leave  
   170d1:	c3                   	ret    

000170d2 <_usb_buffer_free>:
   170d2:	55                   	push   %ebp
   170d3:	89 e5                	mov    %esp,%ebp
   170d5:	83 ec 08             	sub    $0x8,%esp
   170d8:	83 7d 08 00          	cmpl   $0x0,0x8(%ebp)
   170dc:	74 55                	je     17133 <_usb_buffer_free+0x61>
   170de:	8b 45 08             	mov    0x8(%ebp),%eax
   170e1:	83 b8 bc 00 00 00 00 	cmpl   $0x0,0xbc(%eax)
   170e8:	74 49                	je     17133 <_usb_buffer_free+0x61>
   170ea:	8b 45 08             	mov    0x8(%ebp),%eax
   170ed:	8b 80 bc 00 00 00    	mov    0xbc(%eax),%eax
   170f3:	83 78 20 00          	cmpl   $0x0,0x20(%eax)
   170f7:	74 3a                	je     17133 <_usb_buffer_free+0x61>
   170f9:	8b 45 08             	mov    0x8(%ebp),%eax
   170fc:	8b 80 bc 00 00 00    	mov    0xbc(%eax),%eax
   17102:	8b 40 20             	mov    0x20(%eax),%eax
   17105:	83 78 18 00          	cmpl   $0x0,0x18(%eax)
   17109:	75 02                	jne    1710d <_usb_buffer_free+0x3b>
   1710b:	eb 26                	jmp    17133 <_usb_buffer_free+0x61>
   1710d:	8b 45 08             	mov    0x8(%ebp),%eax
   17110:	8b 80 bc 00 00 00    	mov    0xbc(%eax),%eax
   17116:	8b 50 20             	mov    0x20(%eax),%edx
   17119:	ff 75 14             	pushl  0x14(%ebp)
   1711c:	ff 75 10             	pushl  0x10(%ebp)
   1711f:	ff 75 0c             	pushl  0xc(%ebp)
   17122:	8b 45 08             	mov    0x8(%ebp),%eax
   17125:	ff b0 bc 00 00 00    	pushl  0xbc(%eax)
   1712b:	8b 42 18             	mov    0x18(%edx),%eax
   1712e:	ff d0                	call   *%eax
   17130:	83 c4 10             	add    $0x10,%esp
   17133:	c9                   	leave  
   17134:	c3                   	ret    

00017135 <_usb_buffer_map>:
   17135:	55                   	push   %ebp
   17136:	89 e5                	mov    %esp,%ebp
   17138:	83 ec 0c             	sub    $0xc,%esp
   1713b:	83 7d 08 00          	cmpl   $0x0,0x8(%ebp)
   1713f:	74 39                	je     1717a <_usb_buffer_map+0x45>
   17141:	8b 45 08             	mov    0x8(%ebp),%eax
   17144:	8b 40 18             	mov    0x18(%eax),%eax
   17147:	c1 e8 1e             	shr    $0x1e,%eax
   1714a:	83 e0 03             	and    $0x3,%eax
   1714d:	83 f8 02             	cmp    $0x2,%eax
   17150:	74 28                	je     1717a <_usb_buffer_map+0x45>
   17152:	8b 45 08             	mov    0x8(%ebp),%eax
   17155:	83 78 14 00          	cmpl   $0x0,0x14(%eax)
   17159:	74 1f                	je     1717a <_usb_buffer_map+0x45>
   1715b:	8b 45 08             	mov    0x8(%ebp),%eax
   1715e:	8b 40 14             	mov    0x14(%eax),%eax
   17161:	8b 80 bc 00 00 00    	mov    0xbc(%eax),%eax
   17167:	89 45 fc             	mov    %eax,0xfffffffc(%ebp)
   1716a:	85 c0                	test   %eax,%eax
   1716c:	74 0c                	je     1717a <_usb_buffer_map+0x45>
   1716e:	8b 45 fc             	mov    0xfffffffc(%ebp),%eax
   17171:	8b 00                	mov    (%eax),%eax
   17173:	89 45 f8             	mov    %eax,0xfffffff8(%ebp)
   17176:	85 c0                	test   %eax,%eax
   17178:	75 09                	jne    17183 <_usb_buffer_map+0x4e>
   1717a:	c7 45 f4 00 00 00 00 	movl   $0x0,0xfffffff4(%ebp)
   17181:	eb 3f                	jmp    171c2 <_usb_buffer_map+0x8d>
   17183:	8b 45 f8             	mov    0xfffffff8(%ebp),%eax
   17186:	83 b8 84 00 00 00 00 	cmpl   $0x0,0x84(%eax)
   1718d:	74 14                	je     171a3 <_usb_buffer_map+0x6e>
   1718f:	8b 45 08             	mov    0x8(%ebp),%eax
   17192:	8b 55 08             	mov    0x8(%ebp),%edx
   17195:	8b 52 24             	mov    0x24(%edx),%edx
   17198:	81 e2 ff ff ff 0f    	and    $0xfffffff,%edx
   1719e:	89 50 28             	mov    %edx,0x28(%eax)
   171a1:	eb 0a                	jmp    171ad <_usb_buffer_map+0x78>
   171a3:	8b 45 08             	mov    0x8(%ebp),%eax
   171a6:	c7 40 28 ff ff ff ff 	movl   $0xffffffff,0x28(%eax)
   171ad:	8b 55 08             	mov    0x8(%ebp),%edx
   171b0:	8b 45 08             	mov    0x8(%ebp),%eax
   171b3:	8b 40 20             	mov    0x20(%eax),%eax
   171b6:	83 c8 04             	or     $0x4,%eax
   171b9:	89 42 20             	mov    %eax,0x20(%edx)
   171bc:	8b 45 08             	mov    0x8(%ebp),%eax
   171bf:	89 45 f4             	mov    %eax,0xfffffff4(%ebp)
   171c2:	8b 45 f4             	mov    0xfffffff4(%ebp),%eax
   171c5:	c9                   	leave  
   171c6:	c3                   	ret    

000171c7 <_usb_buffer_dmasync>:
   171c7:	55                   	push   %ebp
   171c8:	89 e5                	mov    %esp,%ebp
   171ca:	83 ec 08             	sub    $0x8,%esp
   171cd:	83 7d 08 00          	cmpl   $0x0,0x8(%ebp)
   171d1:	74 3a                	je     1720d <_usb_buffer_dmasync+0x46>
   171d3:	8b 45 08             	mov    0x8(%ebp),%eax
   171d6:	8b 40 20             	mov    0x20(%eax),%eax
   171d9:	c1 e8 02             	shr    $0x2,%eax
   171dc:	83 e0 01             	and    $0x1,%eax
   171df:	85 c0                	test   %eax,%eax
   171e1:	74 2a                	je     1720d <_usb_buffer_dmasync+0x46>
   171e3:	8b 45 08             	mov    0x8(%ebp),%eax
   171e6:	83 78 14 00          	cmpl   $0x0,0x14(%eax)
   171ea:	74 21                	je     1720d <_usb_buffer_dmasync+0x46>
   171ec:	8b 45 08             	mov    0x8(%ebp),%eax
   171ef:	8b 40 14             	mov    0x14(%eax),%eax
   171f2:	8b 80 bc 00 00 00    	mov    0xbc(%eax),%eax
   171f8:	89 45 fc             	mov    %eax,0xfffffffc(%ebp)
   171fb:	85 c0                	test   %eax,%eax
   171fd:	74 0e                	je     1720d <_usb_buffer_dmasync+0x46>
   171ff:	8b 45 fc             	mov    0xfffffffc(%ebp),%eax
   17202:	8b 00                	mov    (%eax),%eax
   17204:	89 45 f8             	mov    %eax,0xfffffff8(%ebp)
   17207:	85 c0                	test   %eax,%eax
   17209:	75 02                	jne    1720d <_usb_buffer_dmasync+0x46>
   1720b:	eb 00                	jmp    1720d <_usb_buffer_dmasync+0x46>
   1720d:	c9                   	leave  
   1720e:	c3                   	ret    

0001720f <_usb_buffer_unmap>:
   1720f:	55                   	push   %ebp
   17210:	89 e5                	mov    %esp,%ebp
   17212:	83 ec 08             	sub    $0x8,%esp
   17215:	83 7d 08 00          	cmpl   $0x0,0x8(%ebp)
   17219:	74 49                	je     17264 <_usb_buffer_unmap+0x55>
   1721b:	8b 45 08             	mov    0x8(%ebp),%eax
   1721e:	8b 40 20             	mov    0x20(%eax),%eax
   17221:	c1 e8 02             	shr    $0x2,%eax
   17224:	83 e0 01             	and    $0x1,%eax
   17227:	85 c0                	test   %eax,%eax
   17229:	74 39                	je     17264 <_usb_buffer_unmap+0x55>
   1722b:	8b 45 08             	mov    0x8(%ebp),%eax
   1722e:	83 78 14 00          	cmpl   $0x0,0x14(%eax)
   17232:	74 30                	je     17264 <_usb_buffer_unmap+0x55>
   17234:	8b 45 08             	mov    0x8(%ebp),%eax
   17237:	8b 40 14             	mov    0x14(%eax),%eax
   1723a:	8b 80 bc 00 00 00    	mov    0xbc(%eax),%eax
   17240:	89 45 fc             	mov    %eax,0xfffffffc(%ebp)
   17243:	85 c0                	test   %eax,%eax
   17245:	74 1d                	je     17264 <_usb_buffer_unmap+0x55>
   17247:	8b 45 fc             	mov    0xfffffffc(%ebp),%eax
   1724a:	8b 00                	mov    (%eax),%eax
   1724c:	89 45 f8             	mov    %eax,0xfffffff8(%ebp)
   1724f:	85 c0                	test   %eax,%eax
   17251:	75 02                	jne    17255 <_usb_buffer_unmap+0x46>
   17253:	eb 0f                	jmp    17264 <_usb_buffer_unmap+0x55>
   17255:	8b 45 08             	mov    0x8(%ebp),%eax
   17258:	8b 55 08             	mov    0x8(%ebp),%edx
   1725b:	8b 52 20             	mov    0x20(%edx),%edx
   1725e:	83 e2 fb             	and    $0xfffffffb,%edx
   17261:	89 50 20             	mov    %edx,0x20(%eax)
   17264:	c9                   	leave  
   17265:	c3                   	ret    

00017266 <_usb_buffer_map_sg>:
   17266:	55                   	push   %ebp
   17267:	89 e5                	mov    %esp,%ebp
   17269:	83 ec 0c             	sub    $0xc,%esp
   1726c:	83 7d 08 00          	cmpl   $0x0,0x8(%ebp)
   17270:	74 36                	je     172a8 <_usb_buffer_map_sg+0x42>
   17272:	8b 45 0c             	mov    0xc(%ebp),%eax
   17275:	c1 e8 1e             	shr    $0x1e,%eax
   17278:	83 e0 03             	and    $0x3,%eax
   1727b:	83 f8 02             	cmp    $0x2,%eax
   1727e:	74 28                	je     172a8 <_usb_buffer_map_sg+0x42>
   17280:	8b 45 08             	mov    0x8(%ebp),%eax
   17283:	8b 80 bc 00 00 00    	mov    0xbc(%eax),%eax
   17289:	89 45 fc             	mov    %eax,0xfffffffc(%ebp)
   1728c:	85 c0                	test   %eax,%eax
   1728e:	74 18                	je     172a8 <_usb_buffer_map_sg+0x42>
   17290:	8b 45 fc             	mov    0xfffffffc(%ebp),%eax
   17293:	8b 00                	mov    (%eax),%eax
   17295:	89 45 f8             	mov    %eax,0xfffffff8(%ebp)
   17298:	85 c0                	test   %eax,%eax
   1729a:	74 0c                	je     172a8 <_usb_buffer_map_sg+0x42>
   1729c:	8b 45 f8             	mov    0xfffffff8(%ebp),%eax
   1729f:	83 b8 84 00 00 00 00 	cmpl   $0x0,0x84(%eax)
   172a6:	75 09                	jne    172b1 <_usb_buffer_map_sg+0x4b>
   172a8:	c7 45 f4 ff ff ff ff 	movl   $0xffffffff,0xfffffff4(%ebp)
   172af:	eb 07                	jmp    172b8 <_usb_buffer_map_sg+0x52>
   172b1:	c7 45 f4 00 00 00 00 	movl   $0x0,0xfffffff4(%ebp)
   172b8:	8b 45 f4             	mov    0xfffffff4(%ebp),%eax
   172bb:	c9                   	leave  
   172bc:	c3                   	ret    

000172bd <_usb_buffer_dmasync_sg>:
   172bd:	55                   	push   %ebp
   172be:	89 e5                	mov    %esp,%ebp
   172c0:	83 ec 08             	sub    $0x8,%esp
   172c3:	83 7d 08 00          	cmpl   $0x0,0x8(%ebp)
   172c7:	74 1c                	je     172e5 <_usb_buffer_dmasync_sg+0x28>
   172c9:	8b 45 08             	mov    0x8(%ebp),%eax
   172cc:	8b 80 bc 00 00 00    	mov    0xbc(%eax),%eax
   172d2:	89 45 fc             	mov    %eax,0xfffffffc(%ebp)
   172d5:	85 c0                	test   %eax,%eax
   172d7:	74 0c                	je     172e5 <_usb_buffer_dmasync_sg+0x28>
   172d9:	8b 45 fc             	mov    0xfffffffc(%ebp),%eax
   172dc:	8b 00                	mov    (%eax),%eax
   172de:	89 45 f8             	mov    %eax,0xfffffff8(%ebp)
   172e1:	85 c0                	test   %eax,%eax
   172e3:	74 00                	je     172e5 <_usb_buffer_dmasync_sg+0x28>
   172e5:	c9                   	leave  
   172e6:	c3                   	ret    

000172e7 <_usb_buffer_unmap_sg>:
   172e7:	55                   	push   %ebp
   172e8:	89 e5                	mov    %esp,%ebp
   172ea:	83 ec 08             	sub    $0x8,%esp
   172ed:	83 7d 08 00          	cmpl   $0x0,0x8(%ebp)
   172f1:	74 1c                	je     1730f <_usb_buffer_unmap_sg+0x28>
   172f3:	8b 45 08             	mov    0x8(%ebp),%eax
   172f6:	8b 80 bc 00 00 00    	mov    0xbc(%eax),%eax
   172fc:	89 45 fc             	mov    %eax,0xfffffffc(%ebp)
   172ff:	85 c0                	test   %eax,%eax
   17301:	74 0c                	je     1730f <_usb_buffer_unmap_sg+0x28>
   17303:	8b 45 fc             	mov    0xfffffffc(%ebp),%eax
   17306:	8b 00                	mov    (%eax),%eax
   17308:	89 45 f8             	mov    %eax,0xfffffff8(%ebp)
   1730b:	85 c0                	test   %eax,%eax
   1730d:	74 00                	je     1730f <_usb_buffer_unmap_sg+0x28>
   1730f:	c9                   	leave  
   17310:	c3                   	ret    

00017311 <_usb_setup_disable>:
   17311:	55                   	push   %ebp
   17312:	89 e5                	mov    %esp,%ebp
   17314:	c7 05 30 c1 01 00 01 	movl   $0x1,0x1c130
   1731b:	00 00 00 
   1731e:	b8 01 00 00 00       	mov    $0x1,%eax
   17323:	5d                   	pop    %ebp
   17324:	c3                   	ret    

00017325 <_usb_disabled@0>:
   17325:	55                   	push   %ebp
   17326:	89 e5                	mov    %esp,%ebp
   17328:	a1 30 c1 01 00       	mov    0x1c130,%eax
   1732d:	5d                   	pop    %ebp
   1732e:	c3                   	ret    

0001732f <_usb_init>:
   1732f:	55                   	push   %ebp
   17330:	89 e5                	mov    %esp,%ebp
   17332:	83 ec 08             	sub    $0x8,%esp
   17335:	83 3d 30 c1 01 00 00 	cmpl   $0x0,0x1c130
   1733c:	74 09                	je     17347 <_usb_init+0x18>
   1733e:	c7 45 fc 00 00 00 00 	movl   $0x0,0xfffffffc(%ebp)
   17345:	eb 26                	jmp    1736d <_usb_init+0x3e>
   17347:	e8 30 00 00 00       	call   1737c <_usb_major_init>
   1734c:	e8 21 00 00 00       	call   17372 <_usbfs_init>
   17351:	e8 63 e3 ff ff       	call   156b9 <_usb_hub_init>
   17356:	83 ec 0c             	sub    $0xc,%esp
   17359:	68 e0 a0 01 00       	push   $0x1a0e0
   1735e:	e8 79 24 00 00       	call   197dc <_my_driver_register>
   17363:	83 c4 10             	add    $0x10,%esp
   17366:	c7 45 fc 00 00 00 00 	movl   $0x0,0xfffffffc(%ebp)
   1736d:	8b 45 fc             	mov    0xfffffffc(%ebp),%eax
   17370:	c9                   	leave  
   17371:	c3                   	ret    

00017372 <_usbfs_init>:
   17372:	55                   	push   %ebp
   17373:	89 e5                	mov    %esp,%ebp
   17375:	b8 00 00 00 00       	mov    $0x0,%eax
   1737a:	5d                   	pop    %ebp
   1737b:	c3                   	ret    

0001737c <_usb_major_init>:
   1737c:	55                   	push   %ebp
   1737d:	89 e5                	mov    %esp,%ebp
   1737f:	b8 00 00 00 00       	mov    $0x0,%eax
   17384:	5d                   	pop    %ebp
   17385:	c3                   	ret    

00017386 <_usb_exit>:
   17386:	55                   	push   %ebp
   17387:	89 e5                	mov    %esp,%ebp
   17389:	83 ec 08             	sub    $0x8,%esp
   1738c:	83 3d 30 c1 01 00 00 	cmpl   $0x0,0x1c130
   17393:	74 02                	je     17397 <_usb_exit+0x11>
   17395:	eb 0f                	jmp    173a6 <_usb_exit+0x20>
   17397:	e8 11 00 00 00       	call   173ad <_usb_major_cleanup>
   1739c:	e8 07 00 00 00       	call   173a8 <_usbfs_cleanup>
   173a1:	e8 80 e3 ff ff       	call   15726 <_usb_hub_cleanup>
   173a6:	c9                   	leave  
   173a7:	c3                   	ret    

000173a8 <_usbfs_cleanup>:
   173a8:	55                   	push   %ebp
   173a9:	89 e5                	mov    %esp,%ebp
   173ab:	5d                   	pop    %ebp
   173ac:	c3                   	ret    

000173ad <_usb_major_cleanup>:
   173ad:	55                   	push   %ebp
   173ae:	89 e5                	mov    %esp,%ebp
   173b0:	5d                   	pop    %ebp
   173b1:	c3                   	ret    

000173b2 <_subsys_usb_init>:
   173b2:	55                   	push   %ebp
   173b3:	89 e5                	mov    %esp,%ebp
   173b5:	83 ec 08             	sub    $0x8,%esp
   173b8:	e8 72 ff ff ff       	call   1732f <_usb_init>
   173bd:	c9                   	leave  
   173be:	c3                   	ret    

000173bf <_module_exit_usb_exit>:
   173bf:	55                   	push   %ebp
   173c0:	89 e5                	mov    %esp,%ebp
   173c2:	83 ec 08             	sub    $0x8,%esp
   173c5:	e8 bc ff ff ff       	call   17386 <_usb_exit>
   173ca:	c9                   	leave  
   173cb:	c3                   	ret    
   173cc:	90                   	nop    
   173cd:	90                   	nop    
   173ce:	90                   	nop    
   173cf:	90                   	nop    

000173d0 <_usb_parse_endpoint>:
   173d0:	55                   	push   %ebp
   173d1:	89 e5                	mov    %esp,%ebp
   173d3:	53                   	push   %ebx
   173d4:	83 ec 24             	sub    $0x24,%esp
   173d7:	c7 45 f0 00 00 00 00 	movl   $0x0,0xfffffff0(%ebp)
   173de:	8b 45 0c             	mov    0xc(%ebp),%eax
   173e1:	89 45 f8             	mov    %eax,0xfffffff8(%ebp)
   173e4:	8b 45 f8             	mov    0xfffffff8(%ebp),%eax
   173e7:	8a 00                	mov    (%eax),%al
   173e9:	25 ff 00 00 00       	and    $0xff,%eax
   173ee:	3b 45 10             	cmp    0x10(%ebp),%eax
   173f1:	7e 0c                	jle    173ff <_usb_parse_endpoint+0x2f>
   173f3:	c7 45 e4 ff ff ff ff 	movl   $0xffffffff,0xffffffe4(%ebp)
   173fa:	e9 7c 01 00 00       	jmp    1757b <_usb_parse_endpoint+0x1ab>
   173ff:	8b 45 f8             	mov    0xfffffff8(%ebp),%eax
   17402:	80 78 01 05          	cmpb   $0x5,0x1(%eax)
   17406:	74 0b                	je     17413 <_usb_parse_endpoint+0x43>
   17408:	8b 45 f0             	mov    0xfffffff0(%ebp),%eax
   1740b:	89 45 e4             	mov    %eax,0xffffffe4(%ebp)
   1740e:	e9 68 01 00 00       	jmp    1757b <_usb_parse_endpoint+0x1ab>
   17413:	8b 45 f8             	mov    0xfffffff8(%ebp),%eax
   17416:	80 38 09             	cmpb   $0x9,(%eax)
   17419:	75 15                	jne    17430 <_usb_parse_endpoint+0x60>
   1741b:	83 ec 04             	sub    $0x4,%esp
   1741e:	6a 09                	push   $0x9
   17420:	ff 75 0c             	pushl  0xc(%ebp)
   17423:	ff 75 08             	pushl  0x8(%ebp)
   17426:	e8 45 26 00 00       	call   19a70 <_memcpy>
   1742b:	83 c4 10             	add    $0x10,%esp
   1742e:	eb 13                	jmp    17443 <_usb_parse_endpoint+0x73>
   17430:	83 ec 04             	sub    $0x4,%esp
   17433:	6a 07                	push   $0x7
   17435:	ff 75 0c             	pushl  0xc(%ebp)
   17438:	ff 75 08             	pushl  0x8(%ebp)
   1743b:	e8 30 26 00 00       	call   19a70 <_memcpy>
   17440:	83 c4 10             	add    $0x10,%esp
   17443:	8b 45 f8             	mov    0xfffffff8(%ebp),%eax
   17446:	ba 00 00 00 00       	mov    $0x0,%edx
   1744b:	8a 10                	mov    (%eax),%dl
   1744d:	8d 45 0c             	lea    0xc(%ebp),%eax
   17450:	01 10                	add    %edx,(%eax)
   17452:	8b 45 f8             	mov    0xfffffff8(%ebp),%eax
   17455:	ba 00 00 00 00       	mov    $0x0,%edx
   1745a:	8a 10                	mov    (%eax),%dl
   1745c:	8d 45 10             	lea    0x10(%ebp),%eax
   1745f:	29 10                	sub    %edx,(%eax)
   17461:	8b 45 f8             	mov    0xfffffff8(%ebp),%eax
   17464:	ba 00 00 00 00       	mov    $0x0,%edx
   17469:	8a 10                	mov    (%eax),%dl
   1746b:	8d 45 f0             	lea    0xfffffff0(%ebp),%eax
   1746e:	01 10                	add    %edx,(%eax)
   17470:	8b 45 0c             	mov    0xc(%ebp),%eax
   17473:	89 45 f4             	mov    %eax,0xfffffff4(%ebp)
   17476:	c7 45 e8 00 00 00 00 	movl   $0x0,0xffffffe8(%ebp)
   1747d:	83 7d 10 01          	cmpl   $0x1,0x10(%ebp)
   17481:	76 72                	jbe    174f5 <_usb_parse_endpoint+0x125>
   17483:	8b 45 0c             	mov    0xc(%ebp),%eax
   17486:	89 45 f8             	mov    %eax,0xfffffff8(%ebp)
   17489:	8b 45 f8             	mov    0xfffffff8(%ebp),%eax
   1748c:	80 38 01             	cmpb   $0x1,(%eax)
   1748f:	77 0c                	ja     1749d <_usb_parse_endpoint+0xcd>
   17491:	c7 45 e4 ff ff ff ff 	movl   $0xffffffff,0xffffffe4(%ebp)
   17498:	e9 de 00 00 00       	jmp    1757b <_usb_parse_endpoint+0x1ab>
   1749d:	8b 45 f8             	mov    0xfffffff8(%ebp),%eax
   174a0:	80 78 01 05          	cmpb   $0x5,0x1(%eax)
   174a4:	74 4f                	je     174f5 <_usb_parse_endpoint+0x125>
   174a6:	8b 45 f8             	mov    0xfffffff8(%ebp),%eax
   174a9:	80 78 01 04          	cmpb   $0x4,0x1(%eax)
   174ad:	74 46                	je     174f5 <_usb_parse_endpoint+0x125>
   174af:	8b 45 f8             	mov    0xfffffff8(%ebp),%eax
   174b2:	80 78 01 02          	cmpb   $0x2,0x1(%eax)
   174b6:	74 3d                	je     174f5 <_usb_parse_endpoint+0x125>
   174b8:	8b 45 f8             	mov    0xfffffff8(%ebp),%eax
   174bb:	80 78 01 01          	cmpb   $0x1,0x1(%eax)
   174bf:	74 34                	je     174f5 <_usb_parse_endpoint+0x125>
   174c1:	8d 45 e8             	lea    0xffffffe8(%ebp),%eax
   174c4:	ff 00                	incl   (%eax)
   174c6:	8b 45 f8             	mov    0xfffffff8(%ebp),%eax
   174c9:	ba 00 00 00 00       	mov    $0x0,%edx
   174ce:	8a 10                	mov    (%eax),%dl
   174d0:	8d 45 0c             	lea    0xc(%ebp),%eax
   174d3:	01 10                	add    %edx,(%eax)
   174d5:	8b 45 f8             	mov    0xfffffff8(%ebp),%eax
   174d8:	ba 00 00 00 00       	mov    $0x0,%edx
   174dd:	8a 10                	mov    (%eax),%dl
   174df:	8d 45 10             	lea    0x10(%ebp),%eax
   174e2:	29 10                	sub    %edx,(%eax)
   174e4:	8b 45 f8             	mov    0xfffffff8(%ebp),%eax
   174e7:	ba 00 00 00 00       	mov    $0x0,%edx
   174ec:	8a 10                	mov    (%eax),%dl
   174ee:	8d 45 f0             	lea    0xfffffff0(%ebp),%eax
   174f1:	01 10                	add    %edx,(%eax)
   174f3:	eb 88                	jmp    1747d <_usb_parse_endpoint+0xad>
   174f5:	8b 45 f4             	mov    0xfffffff4(%ebp),%eax
   174f8:	8b 55 0c             	mov    0xc(%ebp),%edx
   174fb:	29 c2                	sub    %eax,%edx
   174fd:	89 d0                	mov    %edx,%eax
   174ff:	89 45 ec             	mov    %eax,0xffffffec(%ebp)
   17502:	83 7d ec 00          	cmpl   $0x0,0xffffffec(%ebp)
   17506:	75 1c                	jne    17524 <_usb_parse_endpoint+0x154>
   17508:	8b 45 08             	mov    0x8(%ebp),%eax
   1750b:	c7 40 0c 00 00 00 00 	movl   $0x0,0xc(%eax)
   17512:	8b 45 08             	mov    0x8(%ebp),%eax
   17515:	c7 40 10 00 00 00 00 	movl   $0x0,0x10(%eax)
   1751c:	8b 45 f0             	mov    0xfffffff0(%ebp),%eax
   1751f:	89 45 e4             	mov    %eax,0xffffffe4(%ebp)
   17522:	eb 57                	jmp    1757b <_usb_parse_endpoint+0x1ab>
   17524:	8b 5d 08             	mov    0x8(%ebp),%ebx
   17527:	83 ec 08             	sub    $0x8,%esp
   1752a:	ff 75 ec             	pushl  0xffffffec(%ebp)
   1752d:	6a 01                	push   $0x1
   1752f:	e8 fc 24 00 00       	call   19a30 <_ExAllocatePool@8>
   17534:	83 c4 08             	add    $0x8,%esp
   17537:	89 43 0c             	mov    %eax,0xc(%ebx)
   1753a:	8b 45 08             	mov    0x8(%ebp),%eax
   1753d:	83 78 0c 00          	cmpl   $0x0,0xc(%eax)
   17541:	75 12                	jne    17555 <_usb_parse_endpoint+0x185>
   17543:	8b 45 08             	mov    0x8(%ebp),%eax
   17546:	c7 40 10 00 00 00 00 	movl   $0x0,0x10(%eax)
   1754d:	8b 45 f0             	mov    0xfffffff0(%ebp),%eax
   17550:	89 45 e4             	mov    %eax,0xffffffe4(%ebp)
   17553:	eb 26                	jmp    1757b <_usb_parse_endpoint+0x1ab>
   17555:	83 ec 04             	sub    $0x4,%esp
   17558:	ff 75 ec             	pushl  0xffffffec(%ebp)
   1755b:	ff 75 f4             	pushl  0xfffffff4(%ebp)
   1755e:	8b 45 08             	mov    0x8(%ebp),%eax
   17561:	ff 70 0c             	pushl  0xc(%eax)
   17564:	e8 07 25 00 00       	call   19a70 <_memcpy>
   17569:	83 c4 10             	add    $0x10,%esp
   1756c:	8b 55 08             	mov    0x8(%ebp),%edx
   1756f:	8b 45 ec             	mov    0xffffffec(%ebp),%eax
   17572:	89 42 10             	mov    %eax,0x10(%edx)
   17575:	8b 45 f0             	mov    0xfffffff0(%ebp),%eax
   17578:	89 45 e4             	mov    %eax,0xffffffe4(%ebp)
   1757b:	8b 45 e4             	mov    0xffffffe4(%ebp),%eax
   1757e:	8b 5d fc             	mov    0xfffffffc(%ebp),%ebx
   17581:	c9                   	leave  
   17582:	c3                   	ret    

00017583 <_usb_parse_interface>:
   17583:	55                   	push   %ebp
   17584:	89 e5                	mov    %esp,%ebp
   17586:	53                   	push   %ebx
   17587:	83 ec 34             	sub    $0x34,%esp
   1758a:	c7 45 e8 00 00 00 00 	movl   $0x0,0xffffffe8(%ebp)
   17591:	8b 45 08             	mov    0x8(%ebp),%eax
   17594:	c7 40 04 00 00 00 00 	movl   $0x0,0x4(%eax)
   1759b:	8b 45 08             	mov    0x8(%ebp),%eax
   1759e:	c7 40 08 00 00 00 00 	movl   $0x0,0x8(%eax)
   175a5:	8b 45 08             	mov    0x8(%ebp),%eax
   175a8:	c7 40 0c 04 00 00 00 	movl   $0x4,0xc(%eax)
   175af:	83 ec 0c             	sub    $0xc,%esp
   175b2:	8b 45 08             	mov    0x8(%ebp),%eax
   175b5:	83 c0 18             	add    $0x18,%eax
   175b8:	50                   	push   %eax
   175b9:	e8 a2 22 00 00       	call   19860 <_my_device_initialize>
   175be:	83 c4 10             	add    $0x10,%esp
   175c1:	8b 5d 08             	mov    0x8(%ebp),%ebx
   175c4:	83 ec 08             	sub    $0x8,%esp
   175c7:	8b 45 08             	mov    0x8(%ebp),%eax
   175ca:	8b 50 0c             	mov    0xc(%eax),%edx
   175cd:	89 d0                	mov    %edx,%eax
   175cf:	01 c0                	add    %eax,%eax
   175d1:	01 d0                	add    %edx,%eax
   175d3:	c1 e0 03             	shl    $0x3,%eax
   175d6:	50                   	push   %eax
   175d7:	6a 01                	push   $0x1
   175d9:	e8 52 24 00 00       	call   19a30 <_ExAllocatePool@8>
   175de:	83 c4 08             	add    $0x8,%esp
   175e1:	89 03                	mov    %eax,(%ebx)
   175e3:	8b 45 08             	mov    0x8(%ebp),%eax
   175e6:	83 38 00             	cmpl   $0x0,(%eax)
   175e9:	75 0c                	jne    175f7 <_usb_parse_interface+0x74>
   175eb:	c7 45 cc ff ff ff ff 	movl   $0xffffffff,0xffffffcc(%ebp)
   175f2:	e9 85 03 00 00       	jmp    1797c <_usb_parse_interface+0x3f9>
   175f7:	83 7d 10 00          	cmpl   $0x0,0x10(%ebp)
   175fb:	0f 8e 75 03 00 00    	jle    17976 <_usb_parse_interface+0x3f3>
   17601:	8b 45 08             	mov    0x8(%ebp),%eax
   17604:	8b 55 08             	mov    0x8(%ebp),%edx
   17607:	8b 40 08             	mov    0x8(%eax),%eax
   1760a:	3b 42 0c             	cmp    0xc(%edx),%eax
   1760d:	0f 82 9a 00 00 00    	jb     176ad <_usb_parse_interface+0x12a>
   17613:	8b 45 08             	mov    0x8(%ebp),%eax
   17616:	8b 40 0c             	mov    0xc(%eax),%eax
   17619:	89 45 d0             	mov    %eax,0xffffffd0(%ebp)
   1761c:	8b 55 08             	mov    0x8(%ebp),%edx
   1761f:	8b 45 08             	mov    0x8(%ebp),%eax
   17622:	8b 40 0c             	mov    0xc(%eax),%eax
   17625:	83 c0 04             	add    $0x4,%eax
   17628:	89 42 0c             	mov    %eax,0xc(%edx)
   1762b:	8b 45 08             	mov    0x8(%ebp),%eax
   1762e:	81 78 0c 80 00 00 00 	cmpl   $0x80,0xc(%eax)
   17635:	76 0c                	jbe    17643 <_usb_parse_interface+0xc0>
   17637:	c7 45 cc ff ff ff ff 	movl   $0xffffffff,0xffffffcc(%ebp)
   1763e:	e9 39 03 00 00       	jmp    1797c <_usb_parse_interface+0x3f9>
   17643:	83 ec 08             	sub    $0x8,%esp
   17646:	8b 45 08             	mov    0x8(%ebp),%eax
   17649:	8b 50 0c             	mov    0xc(%eax),%edx
   1764c:	89 d0                	mov    %edx,%eax
   1764e:	01 c0                	add    %eax,%eax
   17650:	01 d0                	add    %edx,%eax
   17652:	c1 e0 03             	shl    $0x3,%eax
   17655:	50                   	push   %eax
   17656:	6a 01                	push   $0x1
   17658:	e8 d3 23 00 00       	call   19a30 <_ExAllocatePool@8>
   1765d:	83 c4 08             	add    $0x8,%esp
   17660:	89 45 d4             	mov    %eax,0xffffffd4(%ebp)
   17663:	83 7d d4 00          	cmpl   $0x0,0xffffffd4(%ebp)
   17667:	75 0c                	jne    17675 <_usb_parse_interface+0xf2>
   17669:	c7 45 cc ff ff ff ff 	movl   $0xffffffff,0xffffffcc(%ebp)
   17670:	e9 07 03 00 00       	jmp    1797c <_usb_parse_interface+0x3f9>
   17675:	83 ec 04             	sub    $0x4,%esp
   17678:	8b 55 d0             	mov    0xffffffd0(%ebp),%edx
   1767b:	89 d0                	mov    %edx,%eax
   1767d:	01 c0                	add    %eax,%eax
   1767f:	01 d0                	add    %edx,%eax
   17681:	c1 e0 03             	shl    $0x3,%eax
   17684:	50                   	push   %eax
   17685:	8b 45 08             	mov    0x8(%ebp),%eax
   17688:	ff 30                	pushl  (%eax)
   1768a:	ff 75 d4             	pushl  0xffffffd4(%ebp)
   1768d:	e8 de 23 00 00       	call   19a70 <_memcpy>
   17692:	83 c4 10             	add    $0x10,%esp
   17695:	83 ec 0c             	sub    $0xc,%esp
   17698:	8b 45 08             	mov    0x8(%ebp),%eax
   1769b:	ff 30                	pushl  (%eax)
   1769d:	e8 9e 23 00 00       	call   19a40 <_ExFreePool@4>
   176a2:	83 c4 0c             	add    $0xc,%esp
   176a5:	8b 55 08             	mov    0x8(%ebp),%edx
   176a8:	8b 45 d4             	mov    0xffffffd4(%ebp),%eax
   176ab:	89 02                	mov    %eax,(%edx)
   176ad:	8b 4d 08             	mov    0x8(%ebp),%ecx
   176b0:	8b 45 08             	mov    0x8(%ebp),%eax
   176b3:	8b 50 08             	mov    0x8(%eax),%edx
   176b6:	89 d0                	mov    %edx,%eax
   176b8:	01 c0                	add    %eax,%eax
   176ba:	01 d0                	add    %edx,%eax
   176bc:	c1 e0 03             	shl    $0x3,%eax
   176bf:	03 01                	add    (%ecx),%eax
   176c1:	89 45 e0             	mov    %eax,0xffffffe0(%ebp)
   176c4:	8b 45 e0             	mov    0xffffffe0(%ebp),%eax
   176c7:	c7 40 0c 00 00 00 00 	movl   $0x0,0xc(%eax)
   176ce:	8b 45 e0             	mov    0xffffffe0(%ebp),%eax
   176d1:	c7 40 10 00 00 00 00 	movl   $0x0,0x10(%eax)
   176d8:	8b 45 e0             	mov    0xffffffe0(%ebp),%eax
   176db:	c7 40 14 00 00 00 00 	movl   $0x0,0x14(%eax)
   176e2:	8b 45 08             	mov    0x8(%ebp),%eax
   176e5:	ff 40 08             	incl   0x8(%eax)
   176e8:	83 ec 04             	sub    $0x4,%esp
   176eb:	6a 09                	push   $0x9
   176ed:	ff 75 0c             	pushl  0xc(%ebp)
   176f0:	ff 75 e0             	pushl  0xffffffe0(%ebp)
   176f3:	e8 78 23 00 00       	call   19a70 <_memcpy>
   176f8:	83 c4 10             	add    $0x10,%esp
   176fb:	8b 45 e0             	mov    0xffffffe0(%ebp),%eax
   176fe:	ba 00 00 00 00       	mov    $0x0,%edx
   17703:	8a 10                	mov    (%eax),%dl
   17705:	8d 45 0c             	lea    0xc(%ebp),%eax
   17708:	01 10                	add    %edx,(%eax)
   1770a:	8b 45 e0             	mov    0xffffffe0(%ebp),%eax
   1770d:	ba 00 00 00 00       	mov    $0x0,%edx
   17712:	8a 10                	mov    (%eax),%dl
   17714:	8d 45 e8             	lea    0xffffffe8(%ebp),%eax
   17717:	01 10                	add    %edx,(%eax)
   17719:	8b 45 e0             	mov    0xffffffe0(%ebp),%eax
   1771c:	ba 00 00 00 00       	mov    $0x0,%edx
   17721:	8a 10                	mov    (%eax),%dl
   17723:	8d 45 10             	lea    0x10(%ebp),%eax
   17726:	29 10                	sub    %edx,(%eax)
   17728:	8b 45 0c             	mov    0xc(%ebp),%eax
   1772b:	89 45 dc             	mov    %eax,0xffffffdc(%ebp)
   1772e:	c7 45 f0 00 00 00 00 	movl   $0x0,0xfffffff0(%ebp)
   17735:	83 7d 10 01          	cmpl   $0x1,0x10(%ebp)
   17739:	76 72                	jbe    177ad <_usb_parse_interface+0x22a>
   1773b:	8b 45 0c             	mov    0xc(%ebp),%eax
   1773e:	89 45 e4             	mov    %eax,0xffffffe4(%ebp)
   17741:	8b 45 e4             	mov    0xffffffe4(%ebp),%eax
   17744:	80 38 01             	cmpb   $0x1,(%eax)
   17747:	77 0c                	ja     17755 <_usb_parse_interface+0x1d2>
   17749:	c7 45 cc ff ff ff ff 	movl   $0xffffffff,0xffffffcc(%ebp)
   17750:	e9 27 02 00 00       	jmp    1797c <_usb_parse_interface+0x3f9>
   17755:	8b 45 e4             	mov    0xffffffe4(%ebp),%eax
   17758:	80 78 01 04          	cmpb   $0x4,0x1(%eax)
   1775c:	74 4f                	je     177ad <_usb_parse_interface+0x22a>
   1775e:	8b 45 e4             	mov    0xffffffe4(%ebp),%eax
   17761:	80 78 01 05          	cmpb   $0x5,0x1(%eax)
   17765:	74 46                	je     177ad <_usb_parse_interface+0x22a>
   17767:	8b 45 e4             	mov    0xffffffe4(%ebp),%eax
   1776a:	80 78 01 02          	cmpb   $0x2,0x1(%eax)
   1776e:	74 3d                	je     177ad <_usb_parse_interface+0x22a>
   17770:	8b 45 e4             	mov    0xffffffe4(%ebp),%eax
   17773:	80 78 01 01          	cmpb   $0x1,0x1(%eax)
   17777:	74 34                	je     177ad <_usb_parse_interface+0x22a>
   17779:	8d 45 f0             	lea    0xfffffff0(%ebp),%eax
   1777c:	ff 00                	incl   (%eax)
   1777e:	8b 45 e4             	mov    0xffffffe4(%ebp),%eax
   17781:	ba 00 00 00 00       	mov    $0x0,%edx
   17786:	8a 10                	mov    (%eax),%dl
   17788:	8d 45 0c             	lea    0xc(%ebp),%eax
   1778b:	01 10                	add    %edx,(%eax)
   1778d:	8b 45 e4             	mov    0xffffffe4(%ebp),%eax
   17790:	ba 00 00 00 00       	mov    $0x0,%edx
   17795:	8a 10                	mov    (%eax),%dl
   17797:	8d 45 e8             	lea    0xffffffe8(%ebp),%eax
   1779a:	01 10                	add    %edx,(%eax)
   1779c:	8b 45 e4             	mov    0xffffffe4(%ebp),%eax
   1779f:	ba 00 00 00 00       	mov    $0x0,%edx
   177a4:	8a 10                	mov    (%eax),%dl
   177a6:	8d 45 10             	lea    0x10(%ebp),%eax
   177a9:	29 10                	sub    %edx,(%eax)
   177ab:	eb 88                	jmp    17735 <_usb_parse_interface+0x1b2>
   177ad:	8b 45 dc             	mov    0xffffffdc(%ebp),%eax
   177b0:	8b 55 0c             	mov    0xc(%ebp),%edx
   177b3:	29 c2                	sub    %eax,%edx
   177b5:	89 d0                	mov    %edx,%eax
   177b7:	89 45 f4             	mov    %eax,0xfffffff4(%ebp)
   177ba:	83 7d f4 00          	cmpl   $0x0,0xfffffff4(%ebp)
   177be:	74 55                	je     17815 <_usb_parse_interface+0x292>
   177c0:	8b 5d e0             	mov    0xffffffe0(%ebp),%ebx
   177c3:	83 ec 08             	sub    $0x8,%esp
   177c6:	ff 75 f4             	pushl  0xfffffff4(%ebp)
   177c9:	6a 01                	push   $0x1
   177cb:	e8 60 22 00 00       	call   19a30 <_ExAllocatePool@8>
   177d0:	83 c4 08             	add    $0x8,%esp
   177d3:	89 43 10             	mov    %eax,0x10(%ebx)
   177d6:	8b 45 e0             	mov    0xffffffe0(%ebp),%eax
   177d9:	83 78 10 00          	cmpl   $0x0,0x10(%eax)
   177dd:	75 16                	jne    177f5 <_usb_parse_interface+0x272>
   177df:	8b 45 e0             	mov    0xffffffe0(%ebp),%eax
   177e2:	c7 40 14 00 00 00 00 	movl   $0x0,0x14(%eax)
   177e9:	c7 45 cc ff ff ff ff 	movl   $0xffffffff,0xffffffcc(%ebp)
   177f0:	e9 87 01 00 00       	jmp    1797c <_usb_parse_interface+0x3f9>
   177f5:	83 ec 04             	sub    $0x4,%esp
   177f8:	ff 75 f4             	pushl  0xfffffff4(%ebp)
   177fb:	ff 75 dc             	pushl  0xffffffdc(%ebp)
   177fe:	8b 45 e0             	mov    0xffffffe0(%ebp),%eax
   17801:	ff 70 10             	pushl  0x10(%eax)
   17804:	e8 67 22 00 00       	call   19a70 <_memcpy>
   17809:	83 c4 10             	add    $0x10,%esp
   1780c:	8b 55 e0             	mov    0xffffffe0(%ebp),%edx
   1780f:	8b 45 f4             	mov    0xfffffff4(%ebp),%eax
   17812:	89 42 14             	mov    %eax,0x14(%edx)
   17815:	8b 45 0c             	mov    0xc(%ebp),%eax
   17818:	89 45 e4             	mov    %eax,0xffffffe4(%ebp)
   1781b:	83 7d 10 01          	cmpl   $0x1,0x10(%ebp)
   1781f:	76 1f                	jbe    17840 <_usb_parse_interface+0x2bd>
   17821:	8b 45 e4             	mov    0xffffffe4(%ebp),%eax
   17824:	80 78 01 02          	cmpb   $0x2,0x1(%eax)
   17828:	74 0b                	je     17835 <_usb_parse_interface+0x2b2>
   1782a:	8b 45 e4             	mov    0xffffffe4(%ebp),%eax
   1782d:	80 78 01 01          	cmpb   $0x1,0x1(%eax)
   17831:	74 02                	je     17835 <_usb_parse_interface+0x2b2>
   17833:	eb 0b                	jmp    17840 <_usb_parse_interface+0x2bd>
   17835:	8b 45 e8             	mov    0xffffffe8(%ebp),%eax
   17838:	89 45 cc             	mov    %eax,0xffffffcc(%ebp)
   1783b:	e9 3c 01 00 00       	jmp    1797c <_usb_parse_interface+0x3f9>
   17840:	8b 45 e0             	mov    0xffffffe0(%ebp),%eax
   17843:	80 78 04 1e          	cmpb   $0x1e,0x4(%eax)
   17847:	76 0c                	jbe    17855 <_usb_parse_interface+0x2d2>
   17849:	c7 45 cc ff ff ff ff 	movl   $0xffffffff,0xffffffcc(%ebp)
   17850:	e9 27 01 00 00       	jmp    1797c <_usb_parse_interface+0x3f9>
   17855:	8b 5d e0             	mov    0xffffffe0(%ebp),%ebx
   17858:	83 ec 08             	sub    $0x8,%esp
   1785b:	8b 45 e0             	mov    0xffffffe0(%ebp),%eax
   1785e:	ba 00 00 00 00       	mov    $0x0,%edx
   17863:	8a 50 04             	mov    0x4(%eax),%dl
   17866:	89 d0                	mov    %edx,%eax
   17868:	c1 e0 02             	shl    $0x2,%eax
   1786b:	01 d0                	add    %edx,%eax
   1786d:	c1 e0 02             	shl    $0x2,%eax
   17870:	50                   	push   %eax
   17871:	6a 01                	push   $0x1
   17873:	e8 b8 21 00 00       	call   19a30 <_ExAllocatePool@8>
   17878:	83 c4 08             	add    $0x8,%esp
   1787b:	89 43 0c             	mov    %eax,0xc(%ebx)
   1787e:	8b 45 e0             	mov    0xffffffe0(%ebp),%eax
   17881:	83 78 0c 00          	cmpl   $0x0,0xc(%eax)
   17885:	75 0c                	jne    17893 <_usb_parse_interface+0x310>
   17887:	c7 45 cc ff ff ff ff 	movl   $0xffffffff,0xffffffcc(%ebp)
   1788e:	e9 e9 00 00 00       	jmp    1797c <_usb_parse_interface+0x3f9>
   17893:	83 ec 04             	sub    $0x4,%esp
   17896:	8b 45 e0             	mov    0xffffffe0(%ebp),%eax
   17899:	ba 00 00 00 00       	mov    $0x0,%edx
   1789e:	8a 50 04             	mov    0x4(%eax),%dl
   178a1:	89 d0                	mov    %edx,%eax
   178a3:	c1 e0 02             	shl    $0x2,%eax
   178a6:	01 d0                	add    %edx,%eax
   178a8:	c1 e0 02             	shl    $0x2,%eax
   178ab:	50                   	push   %eax
   178ac:	6a 00                	push   $0x0
   178ae:	8b 45 e0             	mov    0xffffffe0(%ebp),%eax
   178b1:	ff 70 0c             	pushl  0xc(%eax)
   178b4:	e8 97 21 00 00       	call   19a50 <_memset>
   178b9:	83 c4 10             	add    $0x10,%esp
   178bc:	c7 45 f8 00 00 00 00 	movl   $0x0,0xfffffff8(%ebp)
   178c3:	8b 45 e0             	mov    0xffffffe0(%ebp),%eax
   178c6:	8a 40 04             	mov    0x4(%eax),%al
   178c9:	25 ff 00 00 00       	and    $0xff,%eax
   178ce:	3b 45 f8             	cmp    0xfffffff8(%ebp),%eax
   178d1:	7e 79                	jle    1794c <_usb_parse_interface+0x3c9>
   178d3:	8b 45 0c             	mov    0xc(%ebp),%eax
   178d6:	89 45 e4             	mov    %eax,0xffffffe4(%ebp)
   178d9:	8b 45 e4             	mov    0xffffffe4(%ebp),%eax
   178dc:	8a 00                	mov    (%eax),%al
   178de:	25 ff 00 00 00       	and    $0xff,%eax
   178e3:	3b 45 10             	cmp    0x10(%ebp),%eax
   178e6:	7e 0c                	jle    178f4 <_usb_parse_interface+0x371>
   178e8:	c7 45 cc ff ff ff ff 	movl   $0xffffffff,0xffffffcc(%ebp)
   178ef:	e9 88 00 00 00       	jmp    1797c <_usb_parse_interface+0x3f9>
   178f4:	83 ec 04             	sub    $0x4,%esp
   178f7:	ff 75 10             	pushl  0x10(%ebp)
   178fa:	ff 75 0c             	pushl  0xc(%ebp)
   178fd:	8b 4d e0             	mov    0xffffffe0(%ebp),%ecx
   17900:	8b 55 f8             	mov    0xfffffff8(%ebp),%edx
   17903:	89 d0                	mov    %edx,%eax
   17905:	c1 e0 02             	shl    $0x2,%eax
   17908:	01 d0                	add    %edx,%eax
   1790a:	c1 e0 02             	shl    $0x2,%eax
   1790d:	03 41 0c             	add    0xc(%ecx),%eax
   17910:	50                   	push   %eax
   17911:	e8 ba fa ff ff       	call   173d0 <_usb_parse_endpoint>
   17916:	83 c4 10             	add    $0x10,%esp
   17919:	89 45 ec             	mov    %eax,0xffffffec(%ebp)
   1791c:	83 7d ec 00          	cmpl   $0x0,0xffffffec(%ebp)
   17920:	79 08                	jns    1792a <_usb_parse_interface+0x3a7>
   17922:	8b 45 ec             	mov    0xffffffec(%ebp),%eax
   17925:	89 45 cc             	mov    %eax,0xffffffcc(%ebp)
   17928:	eb 52                	jmp    1797c <_usb_parse_interface+0x3f9>
   1792a:	8b 55 ec             	mov    0xffffffec(%ebp),%edx
   1792d:	8d 45 0c             	lea    0xc(%ebp),%eax
   17930:	01 10                	add    %edx,(%eax)
   17932:	8b 55 ec             	mov    0xffffffec(%ebp),%edx
   17935:	8d 45 e8             	lea    0xffffffe8(%ebp),%eax
   17938:	01 10                	add    %edx,(%eax)
   1793a:	8b 55 ec             	mov    0xffffffec(%ebp),%edx
   1793d:	8d 45 10             	lea    0x10(%ebp),%eax
   17940:	29 10                	sub    %edx,(%eax)
   17942:	8d 45 f8             	lea    0xfffffff8(%ebp),%eax
   17945:	ff 00                	incl   (%eax)
   17947:	e9 77 ff ff ff       	jmp    178c3 <_usb_parse_interface+0x340>
   1794c:	8b 45 0c             	mov    0xc(%ebp),%eax
   1794f:	89 45 d8             	mov    %eax,0xffffffd8(%ebp)
   17952:	83 7d 10 08          	cmpl   $0x8,0x10(%ebp)
   17956:	7e 16                	jle    1796e <_usb_parse_interface+0x3eb>
   17958:	8b 45 d8             	mov    0xffffffd8(%ebp),%eax
   1795b:	80 78 01 04          	cmpb   $0x4,0x1(%eax)
   1795f:	75 0d                	jne    1796e <_usb_parse_interface+0x3eb>
   17961:	8b 45 d8             	mov    0xffffffd8(%ebp),%eax
   17964:	80 78 03 00          	cmpb   $0x0,0x3(%eax)
   17968:	0f 85 89 fc ff ff    	jne    175f7 <_usb_parse_interface+0x74>
   1796e:	8b 45 e8             	mov    0xffffffe8(%ebp),%eax
   17971:	89 45 cc             	mov    %eax,0xffffffcc(%ebp)
   17974:	eb 06                	jmp    1797c <_usb_parse_interface+0x3f9>
   17976:	8b 45 e8             	mov    0xffffffe8(%ebp),%eax
   17979:	89 45 cc             	mov    %eax,0xffffffcc(%ebp)
   1797c:	8b 45 cc             	mov    0xffffffcc(%ebp),%eax
   1797f:	8b 5d fc             	mov    0xfffffffc(%ebp),%ebx
   17982:	c9                   	leave  
   17983:	c3                   	ret    

00017984 <_usb_parse_configuration>:
   17984:	55                   	push   %ebp
   17985:	89 e5                	mov    %esp,%ebp
   17987:	53                   	push   %ebx
   17988:	83 ec 24             	sub    $0x24,%esp
   1798b:	83 ec 04             	sub    $0x4,%esp
   1798e:	6a 09                	push   $0x9
   17990:	ff 75 0c             	pushl  0xc(%ebp)
   17993:	ff 75 08             	pushl  0x8(%ebp)
   17996:	e8 d5 20 00 00       	call   19a70 <_memcpy>
   1799b:	83 c4 10             	add    $0x10,%esp
   1799e:	8b 45 08             	mov    0x8(%ebp),%eax
   179a1:	66 8b 40 02          	mov    0x2(%eax),%ax
   179a5:	25 ff ff 00 00       	and    $0xffff,%eax
   179aa:	89 45 f0             	mov    %eax,0xfffffff0(%ebp)
   179ad:	8b 45 08             	mov    0x8(%ebp),%eax
   179b0:	80 78 04 20          	cmpb   $0x20,0x4(%eax)
   179b4:	76 0c                	jbe    179c2 <_usb_parse_configuration+0x3e>
   179b6:	c7 45 dc ff ff ff ff 	movl   $0xffffffff,0xffffffdc(%ebp)
   179bd:	e9 2b 02 00 00       	jmp    17bed <_usb_parse_configuration+0x269>
   179c2:	8b 5d 08             	mov    0x8(%ebp),%ebx
   179c5:	83 ec 08             	sub    $0x8,%esp
   179c8:	8b 45 08             	mov    0x8(%ebp),%eax
   179cb:	b9 00 00 00 00       	mov    $0x0,%ecx
   179d0:	8a 48 04             	mov    0x4(%eax),%cl
   179d3:	89 c8                	mov    %ecx,%eax
   179d5:	c1 e0 02             	shl    $0x2,%eax
   179d8:	01 c8                	add    %ecx,%eax
   179da:	8d 14 85 00 00 00 00 	lea    0x0(,%eax,4),%edx
   179e1:	01 d0                	add    %edx,%eax
   179e3:	01 c0                	add    %eax,%eax
   179e5:	01 c8                	add    %ecx,%eax
   179e7:	c1 e0 02             	shl    $0x2,%eax
   179ea:	50                   	push   %eax
   179eb:	6a 01                	push   $0x1
   179ed:	e8 3e 20 00 00       	call   19a30 <_ExAllocatePool@8>
   179f2:	83 c4 08             	add    $0x8,%esp
   179f5:	89 43 0c             	mov    %eax,0xc(%ebx)
   179f8:	8b 45 08             	mov    0x8(%ebp),%eax
   179fb:	83 78 0c 00          	cmpl   $0x0,0xc(%eax)
   179ff:	75 0c                	jne    17a0d <_usb_parse_configuration+0x89>
   17a01:	c7 45 dc ff ff ff ff 	movl   $0xffffffff,0xffffffdc(%ebp)
   17a08:	e9 e0 01 00 00       	jmp    17bed <_usb_parse_configuration+0x269>
   17a0d:	83 ec 04             	sub    $0x4,%esp
   17a10:	8b 45 08             	mov    0x8(%ebp),%eax
   17a13:	b9 00 00 00 00       	mov    $0x0,%ecx
   17a18:	8a 48 04             	mov    0x4(%eax),%cl
   17a1b:	89 c8                	mov    %ecx,%eax
   17a1d:	c1 e0 02             	shl    $0x2,%eax
   17a20:	01 c8                	add    %ecx,%eax
   17a22:	8d 14 85 00 00 00 00 	lea    0x0(,%eax,4),%edx
   17a29:	01 d0                	add    %edx,%eax
   17a2b:	01 c0                	add    %eax,%eax
   17a2d:	01 c8                	add    %ecx,%eax
   17a2f:	c1 e0 02             	shl    $0x2,%eax
   17a32:	50                   	push   %eax
   17a33:	6a 00                	push   $0x0
   17a35:	8b 45 08             	mov    0x8(%ebp),%eax
   17a38:	ff 70 0c             	pushl  0xc(%eax)
   17a3b:	e8 10 20 00 00       	call   19a50 <_memset>
   17a40:	83 c4 10             	add    $0x10,%esp
   17a43:	8b 45 08             	mov    0x8(%ebp),%eax
   17a46:	ba 00 00 00 00       	mov    $0x0,%edx
   17a4b:	8a 10                	mov    (%eax),%dl
   17a4d:	8d 45 0c             	lea    0xc(%ebp),%eax
   17a50:	01 10                	add    %edx,(%eax)
   17a52:	8b 45 08             	mov    0x8(%ebp),%eax
   17a55:	ba 00 00 00 00       	mov    $0x0,%edx
   17a5a:	8a 10                	mov    (%eax),%dl
   17a5c:	8d 45 f0             	lea    0xfffffff0(%ebp),%eax
   17a5f:	29 10                	sub    %edx,(%eax)
   17a61:	8b 45 08             	mov    0x8(%ebp),%eax
   17a64:	c7 40 10 00 00 00 00 	movl   $0x0,0x10(%eax)
   17a6b:	8b 45 08             	mov    0x8(%ebp),%eax
   17a6e:	c7 40 14 00 00 00 00 	movl   $0x0,0x14(%eax)
   17a75:	c7 45 f8 00 00 00 00 	movl   $0x0,0xfffffff8(%ebp)
   17a7c:	8b 45 08             	mov    0x8(%ebp),%eax
   17a7f:	8a 40 04             	mov    0x4(%eax),%al
   17a82:	25 ff 00 00 00       	and    $0xff,%eax
   17a87:	3b 45 f8             	cmp    0xfffffff8(%ebp),%eax
   17a8a:	0f 8e 57 01 00 00    	jle    17be7 <_usb_parse_configuration+0x263>
   17a90:	8b 45 0c             	mov    0xc(%ebp),%eax
   17a93:	89 45 e0             	mov    %eax,0xffffffe0(%ebp)
   17a96:	c7 45 e8 00 00 00 00 	movl   $0x0,0xffffffe8(%ebp)
   17a9d:	83 7d f0 01          	cmpl   $0x1,0xfffffff0(%ebp)
   17aa1:	76 74                	jbe    17b17 <_usb_parse_configuration+0x193>
   17aa3:	8b 45 0c             	mov    0xc(%ebp),%eax
   17aa6:	89 45 ec             	mov    %eax,0xffffffec(%ebp)
   17aa9:	8b 45 ec             	mov    0xffffffec(%ebp),%eax
   17aac:	8a 00                	mov    (%eax),%al
   17aae:	25 ff 00 00 00       	and    $0xff,%eax
   17ab3:	3b 45 f0             	cmp    0xfffffff0(%ebp),%eax
   17ab6:	7f 0a                	jg     17ac2 <_usb_parse_configuration+0x13e>
   17ab8:	8b 45 ec             	mov    0xffffffec(%ebp),%eax
   17abb:	80 38 01             	cmpb   $0x1,(%eax)
   17abe:	76 02                	jbe    17ac2 <_usb_parse_configuration+0x13e>
   17ac0:	eb 0c                	jmp    17ace <_usb_parse_configuration+0x14a>
   17ac2:	c7 45 dc ff ff ff ff 	movl   $0xffffffff,0xffffffdc(%ebp)
   17ac9:	e9 1f 01 00 00       	jmp    17bed <_usb_parse_configuration+0x269>
   17ace:	8b 45 ec             	mov    0xffffffec(%ebp),%eax
   17ad1:	80 78 01 05          	cmpb   $0x5,0x1(%eax)
   17ad5:	74 40                	je     17b17 <_usb_parse_configuration+0x193>
   17ad7:	8b 45 ec             	mov    0xffffffec(%ebp),%eax
   17ada:	80 78 01 04          	cmpb   $0x4,0x1(%eax)
   17ade:	74 37                	je     17b17 <_usb_parse_configuration+0x193>
   17ae0:	8b 45 ec             	mov    0xffffffec(%ebp),%eax
   17ae3:	80 78 01 02          	cmpb   $0x2,0x1(%eax)
   17ae7:	74 2e                	je     17b17 <_usb_parse_configuration+0x193>
   17ae9:	8b 45 ec             	mov    0xffffffec(%ebp),%eax
   17aec:	80 78 01 01          	cmpb   $0x1,0x1(%eax)
   17af0:	74 25                	je     17b17 <_usb_parse_configuration+0x193>
   17af2:	8d 45 e8             	lea    0xffffffe8(%ebp),%eax
   17af5:	ff 00                	incl   (%eax)
   17af7:	8b 45 ec             	mov    0xffffffec(%ebp),%eax
   17afa:	ba 00 00 00 00       	mov    $0x0,%edx
   17aff:	8a 10                	mov    (%eax),%dl
   17b01:	8d 45 0c             	lea    0xc(%ebp),%eax
   17b04:	01 10                	add    %edx,(%eax)
   17b06:	8b 45 ec             	mov    0xffffffec(%ebp),%eax
   17b09:	ba 00 00 00 00       	mov    $0x0,%edx
   17b0e:	8a 10                	mov    (%eax),%dl
   17b10:	8d 45 f0             	lea    0xfffffff0(%ebp),%eax
   17b13:	29 10                	sub    %edx,(%eax)
   17b15:	eb 86                	jmp    17a9d <_usb_parse_configuration+0x119>
   17b17:	8b 45 e0             	mov    0xffffffe0(%ebp),%eax
   17b1a:	8b 55 0c             	mov    0xc(%ebp),%edx
   17b1d:	29 c2                	sub    %eax,%edx
   17b1f:	89 d0                	mov    %edx,%eax
   17b21:	89 45 e4             	mov    %eax,0xffffffe4(%ebp)
   17b24:	83 7d e4 00          	cmpl   $0x0,0xffffffe4(%ebp)
   17b28:	74 60                	je     17b8a <_usb_parse_configuration+0x206>
   17b2a:	8b 45 08             	mov    0x8(%ebp),%eax
   17b2d:	83 78 14 00          	cmpl   $0x0,0x14(%eax)
   17b31:	74 02                	je     17b35 <_usb_parse_configuration+0x1b1>
   17b33:	eb 55                	jmp    17b8a <_usb_parse_configuration+0x206>
   17b35:	8b 5d 08             	mov    0x8(%ebp),%ebx
   17b38:	83 ec 08             	sub    $0x8,%esp
   17b3b:	ff 75 e4             	pushl  0xffffffe4(%ebp)
   17b3e:	6a 01                	push   $0x1
   17b40:	e8 eb 1e 00 00       	call   19a30 <_ExAllocatePool@8>
   17b45:	83 c4 08             	add    $0x8,%esp
   17b48:	89 43 10             	mov    %eax,0x10(%ebx)
   17b4b:	8b 45 08             	mov    0x8(%ebp),%eax
   17b4e:	83 78 10 00          	cmpl   $0x0,0x10(%eax)
   17b52:	75 16                	jne    17b6a <_usb_parse_configuration+0x1e6>
   17b54:	8b 45 08             	mov    0x8(%ebp),%eax
   17b57:	c7 40 14 00 00 00 00 	movl   $0x0,0x14(%eax)
   17b5e:	c7 45 dc ff ff ff ff 	movl   $0xffffffff,0xffffffdc(%ebp)
   17b65:	e9 83 00 00 00       	jmp    17bed <_usb_parse_configuration+0x269>
   17b6a:	83 ec 04             	sub    $0x4,%esp
   17b6d:	ff 75 e4             	pushl  0xffffffe4(%ebp)
   17b70:	ff 75 e0             	pushl  0xffffffe0(%ebp)
   17b73:	8b 45 08             	mov    0x8(%ebp),%eax
   17b76:	ff 70 10             	pushl  0x10(%eax)
   17b79:	e8 f2 1e 00 00       	call   19a70 <_memcpy>
   17b7e:	83 c4 10             	add    $0x10,%esp
   17b81:	8b 55 08             	mov    0x8(%ebp),%edx
   17b84:	8b 45 e4             	mov    0xffffffe4(%ebp),%eax
   17b87:	89 42 14             	mov    %eax,0x14(%edx)
   17b8a:	83 ec 04             	sub    $0x4,%esp
   17b8d:	ff 75 f0             	pushl  0xfffffff0(%ebp)
   17b90:	ff 75 0c             	pushl  0xc(%ebp)
   17b93:	8b 5d 08             	mov    0x8(%ebp),%ebx
   17b96:	8b 4d f8             	mov    0xfffffff8(%ebp),%ecx
   17b99:	89 c8                	mov    %ecx,%eax
   17b9b:	c1 e0 02             	shl    $0x2,%eax
   17b9e:	01 c8                	add    %ecx,%eax
   17ba0:	8d 14 85 00 00 00 00 	lea    0x0(,%eax,4),%edx
   17ba7:	01 d0                	add    %edx,%eax
   17ba9:	01 c0                	add    %eax,%eax
   17bab:	01 c8                	add    %ecx,%eax
   17bad:	c1 e0 02             	shl    $0x2,%eax
   17bb0:	03 43 0c             	add    0xc(%ebx),%eax
   17bb3:	50                   	push   %eax
   17bb4:	e8 ca f9 ff ff       	call   17583 <_usb_parse_interface>
   17bb9:	83 c4 10             	add    $0x10,%esp
   17bbc:	89 45 f4             	mov    %eax,0xfffffff4(%ebp)
   17bbf:	83 7d f4 00          	cmpl   $0x0,0xfffffff4(%ebp)
   17bc3:	79 08                	jns    17bcd <_usb_parse_configuration+0x249>
   17bc5:	8b 45 f4             	mov    0xfffffff4(%ebp),%eax
   17bc8:	89 45 dc             	mov    %eax,0xffffffdc(%ebp)
   17bcb:	eb 20                	jmp    17bed <_usb_parse_configuration+0x269>
   17bcd:	8b 55 f4             	mov    0xfffffff4(%ebp),%edx
   17bd0:	8d 45 0c             	lea    0xc(%ebp),%eax
   17bd3:	01 10                	add    %edx,(%eax)
   17bd5:	8b 55 f4             	mov    0xfffffff4(%ebp),%edx
   17bd8:	8d 45 f0             	lea    0xfffffff0(%ebp),%eax
   17bdb:	29 10                	sub    %edx,(%eax)
   17bdd:	8d 45 f8             	lea    0xfffffff8(%ebp),%eax
   17be0:	ff 00                	incl   (%eax)
   17be2:	e9 95 fe ff ff       	jmp    17a7c <_usb_parse_configuration+0xf8>
   17be7:	8b 45 f0             	mov    0xfffffff0(%ebp),%eax
   17bea:	89 45 dc             	mov    %eax,0xffffffdc(%ebp)
   17bed:	8b 45 dc             	mov    0xffffffdc(%ebp),%eax
   17bf0:	8b 5d fc             	mov    0xfffffffc(%ebp),%ebx
   17bf3:	c9                   	leave  
   17bf4:	c3                   	ret    

00017bf5 <_usb_destroy_configuration>:
   17bf5:	55                   	push   %ebp
   17bf6:	89 e5                	mov    %esp,%ebp
   17bf8:	53                   	push   %ebx
   17bf9:	83 ec 24             	sub    $0x24,%esp
   17bfc:	8b 45 08             	mov    0x8(%ebp),%eax
   17bff:	83 b8 84 01 00 00 00 	cmpl   $0x0,0x184(%eax)
   17c06:	75 05                	jne    17c0d <_usb_destroy_configuration+0x18>
   17c08:	e9 06 02 00 00       	jmp    17e13 <_usb_destroy_configuration+0x21e>
   17c0d:	8b 45 08             	mov    0x8(%ebp),%eax
   17c10:	83 b8 8c 01 00 00 00 	cmpl   $0x0,0x18c(%eax)
   17c17:	74 56                	je     17c6f <_usb_destroy_configuration+0x7a>
   17c19:	c7 45 f4 00 00 00 00 	movl   $0x0,0xfffffff4(%ebp)
   17c20:	8b 45 08             	mov    0x8(%ebp),%eax
   17c23:	8a 80 81 01 00 00    	mov    0x181(%eax),%al
   17c29:	25 ff 00 00 00       	and    $0xff,%eax
   17c2e:	3b 45 f4             	cmp    0xfffffff4(%ebp),%eax
   17c31:	7e 28                	jle    17c5b <_usb_destroy_configuration+0x66>
   17c33:	83 ec 0c             	sub    $0xc,%esp
   17c36:	8b 4d 08             	mov    0x8(%ebp),%ecx
   17c39:	8b 45 f4             	mov    0xfffffff4(%ebp),%eax
   17c3c:	8d 14 85 00 00 00 00 	lea    0x0(,%eax,4),%edx
   17c43:	8b 81 8c 01 00 00    	mov    0x18c(%ecx),%eax
   17c49:	ff 34 02             	pushl  (%edx,%eax,1)
   17c4c:	e8 ef 1d 00 00       	call   19a40 <_ExFreePool@4>
   17c51:	83 c4 0c             	add    $0xc,%esp
   17c54:	8d 45 f4             	lea    0xfffffff4(%ebp),%eax
   17c57:	ff 00                	incl   (%eax)
   17c59:	eb c5                	jmp    17c20 <_usb_destroy_configuration+0x2b>
   17c5b:	83 ec 0c             	sub    $0xc,%esp
   17c5e:	8b 45 08             	mov    0x8(%ebp),%eax
   17c61:	ff b0 8c 01 00 00    	pushl  0x18c(%eax)
   17c67:	e8 d4 1d 00 00       	call   19a40 <_ExFreePool@4>
   17c6c:	83 c4 0c             	add    $0xc,%esp
   17c6f:	c7 45 f8 00 00 00 00 	movl   $0x0,0xfffffff8(%ebp)
   17c76:	8b 45 08             	mov    0x8(%ebp),%eax
   17c79:	8a 80 81 01 00 00    	mov    0x181(%eax),%al
   17c7f:	25 ff 00 00 00       	and    $0xff,%eax
   17c84:	3b 45 f8             	cmp    0xfffffff8(%ebp),%eax
   17c87:	0f 8e 72 01 00 00    	jle    17dff <_usb_destroy_configuration+0x20a>
   17c8d:	8b 4d 08             	mov    0x8(%ebp),%ecx
   17c90:	8b 55 f8             	mov    0xfffffff8(%ebp),%edx
   17c93:	89 d0                	mov    %edx,%eax
   17c95:	01 c0                	add    %eax,%eax
   17c97:	01 d0                	add    %edx,%eax
   17c99:	c1 e0 03             	shl    $0x3,%eax
   17c9c:	03 81 84 01 00 00    	add    0x184(%ecx),%eax
   17ca2:	89 45 e8             	mov    %eax,0xffffffe8(%ebp)
   17ca5:	8b 45 e8             	mov    0xffffffe8(%ebp),%eax
   17ca8:	83 78 0c 00          	cmpl   $0x0,0xc(%eax)
   17cac:	75 05                	jne    17cb3 <_usb_destroy_configuration+0xbe>
   17cae:	e9 4c 01 00 00       	jmp    17dff <_usb_destroy_configuration+0x20a>
   17cb3:	c7 45 f4 00 00 00 00 	movl   $0x0,0xfffffff4(%ebp)
   17cba:	8b 45 e8             	mov    0xffffffe8(%ebp),%eax
   17cbd:	8a 40 04             	mov    0x4(%eax),%al
   17cc0:	25 ff 00 00 00       	and    $0xff,%eax
   17cc5:	3b 45 f4             	cmp    0xfffffff4(%ebp),%eax
   17cc8:	0f 8e 16 01 00 00    	jle    17de4 <_usb_destroy_configuration+0x1ef>
   17cce:	8b 5d e8             	mov    0xffffffe8(%ebp),%ebx
   17cd1:	8b 4d f4             	mov    0xfffffff4(%ebp),%ecx
   17cd4:	89 c8                	mov    %ecx,%eax
   17cd6:	c1 e0 02             	shl    $0x2,%eax
   17cd9:	01 c8                	add    %ecx,%eax
   17cdb:	8d 14 85 00 00 00 00 	lea    0x0(,%eax,4),%edx
   17ce2:	01 d0                	add    %edx,%eax
   17ce4:	01 c0                	add    %eax,%eax
   17ce6:	01 c8                	add    %ecx,%eax
   17ce8:	c1 e0 02             	shl    $0x2,%eax
   17ceb:	03 43 0c             	add    0xc(%ebx),%eax
   17cee:	89 45 e4             	mov    %eax,0xffffffe4(%ebp)
   17cf1:	8b 45 e4             	mov    0xffffffe4(%ebp),%eax
   17cf4:	83 38 00             	cmpl   $0x0,(%eax)
   17cf7:	75 05                	jne    17cfe <_usb_destroy_configuration+0x109>
   17cf9:	e9 e6 00 00 00       	jmp    17de4 <_usb_destroy_configuration+0x1ef>
   17cfe:	c7 45 f0 00 00 00 00 	movl   $0x0,0xfffffff0(%ebp)
   17d05:	8b 55 e4             	mov    0xffffffe4(%ebp),%edx
   17d08:	8b 45 f0             	mov    0xfffffff0(%ebp),%eax
   17d0b:	3b 42 08             	cmp    0x8(%edx),%eax
   17d0e:	0f 83 b6 00 00 00    	jae    17dca <_usb_destroy_configuration+0x1d5>
   17d14:	8b 4d e4             	mov    0xffffffe4(%ebp),%ecx
   17d17:	8b 55 f0             	mov    0xfffffff0(%ebp),%edx
   17d1a:	89 d0                	mov    %edx,%eax
   17d1c:	01 c0                	add    %eax,%eax
   17d1e:	01 d0                	add    %edx,%eax
   17d20:	c1 e0 03             	shl    $0x3,%eax
   17d23:	03 01                	add    (%ecx),%eax
   17d25:	89 45 e0             	mov    %eax,0xffffffe0(%ebp)
   17d28:	8b 45 e0             	mov    0xffffffe0(%ebp),%eax
   17d2b:	83 78 10 00          	cmpl   $0x0,0x10(%eax)
   17d2f:	74 11                	je     17d42 <_usb_destroy_configuration+0x14d>
   17d31:	83 ec 0c             	sub    $0xc,%esp
   17d34:	8b 45 e0             	mov    0xffffffe0(%ebp),%eax
   17d37:	ff 70 10             	pushl  0x10(%eax)
   17d3a:	e8 01 1d 00 00       	call   19a40 <_ExFreePool@4>
   17d3f:	83 c4 0c             	add    $0xc,%esp
   17d42:	8b 45 e0             	mov    0xffffffe0(%ebp),%eax
   17d45:	83 78 0c 00          	cmpl   $0x0,0xc(%eax)
   17d49:	75 02                	jne    17d4d <_usb_destroy_configuration+0x158>
   17d4b:	eb 7d                	jmp    17dca <_usb_destroy_configuration+0x1d5>
   17d4d:	c7 45 ec 00 00 00 00 	movl   $0x0,0xffffffec(%ebp)
   17d54:	8b 45 e0             	mov    0xffffffe0(%ebp),%eax
   17d57:	8a 40 04             	mov    0x4(%eax),%al
   17d5a:	25 ff 00 00 00       	and    $0xff,%eax
   17d5f:	3b 45 ec             	cmp    0xffffffec(%ebp),%eax
   17d62:	7e 4b                	jle    17daf <_usb_destroy_configuration+0x1ba>
   17d64:	8b 4d e0             	mov    0xffffffe0(%ebp),%ecx
   17d67:	8b 55 ec             	mov    0xffffffec(%ebp),%edx
   17d6a:	89 d0                	mov    %edx,%eax
   17d6c:	c1 e0 02             	shl    $0x2,%eax
   17d6f:	01 d0                	add    %edx,%eax
   17d71:	8d 14 85 00 00 00 00 	lea    0x0(,%eax,4),%edx
   17d78:	8b 41 0c             	mov    0xc(%ecx),%eax
   17d7b:	83 7c 02 0c 00       	cmpl   $0x0,0xc(%edx,%eax,1)
   17d80:	74 26                	je     17da8 <_usb_destroy_configuration+0x1b3>
   17d82:	83 ec 0c             	sub    $0xc,%esp
   17d85:	8b 4d e0             	mov    0xffffffe0(%ebp),%ecx
   17d88:	8b 55 ec             	mov    0xffffffec(%ebp),%edx
   17d8b:	89 d0                	mov    %edx,%eax
   17d8d:	c1 e0 02             	shl    $0x2,%eax
   17d90:	01 d0                	add    %edx,%eax
   17d92:	8d 14 85 00 00 00 00 	lea    0x0(,%eax,4),%edx
   17d99:	8b 41 0c             	mov    0xc(%ecx),%eax
   17d9c:	ff 74 02 0c          	pushl  0xc(%edx,%eax,1)
   17da0:	e8 9b 1c 00 00       	call   19a40 <_ExFreePool@4>
   17da5:	83 c4 0c             	add    $0xc,%esp
   17da8:	8d 45 ec             	lea    0xffffffec(%ebp),%eax
   17dab:	ff 00                	incl   (%eax)
   17dad:	eb a5                	jmp    17d54 <_usb_destroy_configuration+0x15f>
   17daf:	83 ec 0c             	sub    $0xc,%esp
   17db2:	8b 45 e0             	mov    0xffffffe0(%ebp),%eax
   17db5:	ff 70 0c             	pushl  0xc(%eax)
   17db8:	e8 83 1c 00 00       	call   19a40 <_ExFreePool@4>
   17dbd:	83 c4 0c             	add    $0xc,%esp
   17dc0:	8d 45 f0             	lea    0xfffffff0(%ebp),%eax
   17dc3:	ff 00                	incl   (%eax)
   17dc5:	e9 3b ff ff ff       	jmp    17d05 <_usb_destroy_configuration+0x110>
   17dca:	83 ec 0c             	sub    $0xc,%esp
   17dcd:	8b 45 e4             	mov    0xffffffe4(%ebp),%eax
   17dd0:	ff 30                	pushl  (%eax)
   17dd2:	e8 69 1c 00 00       	call   19a40 <_ExFreePool@4>
   17dd7:	83 c4 0c             	add    $0xc,%esp
   17dda:	8d 45 f4             	lea    0xfffffff4(%ebp),%eax
   17ddd:	ff 00                	incl   (%eax)
   17ddf:	e9 d6 fe ff ff       	jmp    17cba <_usb_destroy_configuration+0xc5>
   17de4:	83 ec 0c             	sub    $0xc,%esp
   17de7:	8b 45 e8             	mov    0xffffffe8(%ebp),%eax
   17dea:	ff 70 0c             	pushl  0xc(%eax)
   17ded:	e8 4e 1c 00 00       	call   19a40 <_ExFreePool@4>
   17df2:	83 c4 0c             	add    $0xc,%esp
   17df5:	8d 45 f8             	lea    0xfffffff8(%ebp),%eax
   17df8:	ff 00                	incl   (%eax)
   17dfa:	e9 77 fe ff ff       	jmp    17c76 <_usb_destroy_configuration+0x81>
   17dff:	83 ec 0c             	sub    $0xc,%esp
   17e02:	8b 45 08             	mov    0x8(%ebp),%eax
   17e05:	ff b0 84 01 00 00    	pushl  0x184(%eax)
   17e0b:	e8 30 1c 00 00       	call   19a40 <_ExFreePool@4>
   17e10:	83 c4 0c             	add    $0xc,%esp
   17e13:	8b 5d fc             	mov    0xfffffffc(%ebp),%ebx
   17e16:	c9                   	leave  
   17e17:	c3                   	ret    

00017e18 <_usb_get_configuration>:
   17e18:	55                   	push   %ebp
   17e19:	89 e5                	mov    %esp,%ebp
   17e1b:	53                   	push   %ebx
   17e1c:	83 ec 24             	sub    $0x24,%esp
   17e1f:	8b 45 08             	mov    0x8(%ebp),%eax
   17e22:	80 b8 81 01 00 00 08 	cmpb   $0x8,0x181(%eax)
   17e29:	76 0c                	jbe    17e37 <_usb_get_configuration+0x1f>
   17e2b:	c7 45 e0 ea ff ff ff 	movl   $0xffffffea,0xffffffe0(%ebp)
   17e32:	e9 78 02 00 00       	jmp    180af <_usb_get_configuration+0x297>
   17e37:	8b 45 08             	mov    0x8(%ebp),%eax
   17e3a:	80 b8 81 01 00 00 00 	cmpb   $0x0,0x181(%eax)
   17e41:	75 0c                	jne    17e4f <_usb_get_configuration+0x37>
   17e43:	c7 45 e0 ea ff ff ff 	movl   $0xffffffea,0xffffffe0(%ebp)
   17e4a:	e9 60 02 00 00       	jmp    180af <_usb_get_configuration+0x297>
   17e4f:	8b 5d 08             	mov    0x8(%ebp),%ebx
   17e52:	83 ec 08             	sub    $0x8,%esp
   17e55:	8b 45 08             	mov    0x8(%ebp),%eax
   17e58:	ba 00 00 00 00       	mov    $0x0,%edx
   17e5d:	8a 90 81 01 00 00    	mov    0x181(%eax),%dl
   17e63:	89 d0                	mov    %edx,%eax
   17e65:	01 c0                	add    %eax,%eax
   17e67:	01 d0                	add    %edx,%eax
   17e69:	c1 e0 03             	shl    $0x3,%eax
   17e6c:	50                   	push   %eax
   17e6d:	6a 01                	push   $0x1
   17e6f:	e8 bc 1b 00 00       	call   19a30 <_ExAllocatePool@8>
   17e74:	83 c4 08             	add    $0x8,%esp
   17e77:	89 83 84 01 00 00    	mov    %eax,0x184(%ebx)
   17e7d:	8b 45 08             	mov    0x8(%ebp),%eax
   17e80:	83 b8 84 01 00 00 00 	cmpl   $0x0,0x184(%eax)
   17e87:	75 0c                	jne    17e95 <_usb_get_configuration+0x7d>
   17e89:	c7 45 e0 f4 ff ff ff 	movl   $0xfffffff4,0xffffffe0(%ebp)
   17e90:	e9 1a 02 00 00       	jmp    180af <_usb_get_configuration+0x297>
   17e95:	83 ec 04             	sub    $0x4,%esp
   17e98:	8b 45 08             	mov    0x8(%ebp),%eax
   17e9b:	ba 00 00 00 00       	mov    $0x0,%edx
   17ea0:	8a 90 81 01 00 00    	mov    0x181(%eax),%dl
   17ea6:	89 d0                	mov    %edx,%eax
   17ea8:	01 c0                	add    %eax,%eax
   17eaa:	01 d0                	add    %edx,%eax
   17eac:	c1 e0 03             	shl    $0x3,%eax
   17eaf:	50                   	push   %eax
   17eb0:	6a 00                	push   $0x0
   17eb2:	8b 45 08             	mov    0x8(%ebp),%eax
   17eb5:	ff b0 84 01 00 00    	pushl  0x184(%eax)
   17ebb:	e8 90 1b 00 00       	call   19a50 <_memset>
   17ec0:	83 c4 10             	add    $0x10,%esp
   17ec3:	8b 5d 08             	mov    0x8(%ebp),%ebx
   17ec6:	83 ec 08             	sub    $0x8,%esp
   17ec9:	8b 45 08             	mov    0x8(%ebp),%eax
   17ecc:	8a 80 81 01 00 00    	mov    0x181(%eax),%al
   17ed2:	25 ff 00 00 00       	and    $0xff,%eax
   17ed7:	c1 e0 02             	shl    $0x2,%eax
   17eda:	50                   	push   %eax
   17edb:	6a 01                	push   $0x1
   17edd:	e8 4e 1b 00 00       	call   19a30 <_ExAllocatePool@8>
   17ee2:	83 c4 08             	add    $0x8,%esp
   17ee5:	89 83 8c 01 00 00    	mov    %eax,0x18c(%ebx)
   17eeb:	8b 45 08             	mov    0x8(%ebp),%eax
   17eee:	83 b8 8c 01 00 00 00 	cmpl   $0x0,0x18c(%eax)
   17ef5:	75 0c                	jne    17f03 <_usb_get_configuration+0xeb>
   17ef7:	c7 45 e0 f4 ff ff ff 	movl   $0xfffffff4,0xffffffe0(%ebp)
   17efe:	e9 ac 01 00 00       	jmp    180af <_usb_get_configuration+0x297>
   17f03:	83 ec 08             	sub    $0x8,%esp
   17f06:	6a 08                	push   $0x8
   17f08:	6a 01                	push   $0x1
   17f0a:	e8 21 1b 00 00       	call   19a30 <_ExAllocatePool@8>
   17f0f:	83 c4 08             	add    $0x8,%esp
   17f12:	89 45 ec             	mov    %eax,0xffffffec(%ebp)
   17f15:	83 7d ec 00          	cmpl   $0x0,0xffffffec(%ebp)
   17f19:	75 0c                	jne    17f27 <_usb_get_configuration+0x10f>
   17f1b:	c7 45 e0 f4 ff ff ff 	movl   $0xfffffff4,0xffffffe0(%ebp)
   17f22:	e9 88 01 00 00       	jmp    180af <_usb_get_configuration+0x297>
   17f27:	8b 45 ec             	mov    0xffffffec(%ebp),%eax
   17f2a:	89 45 e4             	mov    %eax,0xffffffe4(%ebp)
   17f2d:	c7 45 f4 00 00 00 00 	movl   $0x0,0xfffffff4(%ebp)
   17f34:	8b 45 08             	mov    0x8(%ebp),%eax
   17f37:	8a 80 81 01 00 00    	mov    0x181(%eax),%al
   17f3d:	25 ff 00 00 00       	and    $0xff,%eax
   17f42:	3b 45 f4             	cmp    0xfffffff4(%ebp),%eax
   17f45:	0f 86 2d 01 00 00    	jbe    18078 <_usb_get_configuration+0x260>
   17f4b:	83 ec 0c             	sub    $0xc,%esp
   17f4e:	6a 08                	push   $0x8
   17f50:	ff 75 ec             	pushl  0xffffffec(%ebp)
   17f53:	8b 45 f4             	mov    0xfffffff4(%ebp),%eax
   17f56:	25 ff 00 00 00       	and    $0xff,%eax
   17f5b:	50                   	push   %eax
   17f5c:	6a 02                	push   $0x2
   17f5e:	ff 75 08             	pushl  0x8(%ebp)
   17f61:	e8 f6 93 ff ff       	call   1135c <_usb_get_descriptor>
   17f66:	83 c4 20             	add    $0x20,%esp
   17f69:	89 45 f8             	mov    %eax,0xfffffff8(%ebp)
   17f6c:	83 7d f8 07          	cmpl   $0x7,0xfffffff8(%ebp)
   17f70:	7f 17                	jg     17f89 <_usb_get_configuration+0x171>
   17f72:	83 7d f8 00          	cmpl   $0x0,0xfffffff8(%ebp)
   17f76:	79 05                	jns    17f7d <_usb_get_configuration+0x165>
   17f78:	e9 12 01 00 00       	jmp    1808f <_usb_get_configuration+0x277>
   17f7d:	c7 45 f8 ea ff ff ff 	movl   $0xffffffea,0xfffffff8(%ebp)
   17f84:	e9 06 01 00 00       	jmp    1808f <_usb_get_configuration+0x277>
   17f89:	8b 45 e4             	mov    0xffffffe4(%ebp),%eax
   17f8c:	66 8b 40 02          	mov    0x2(%eax),%ax
   17f90:	25 ff ff 00 00       	and    $0xffff,%eax
   17f95:	89 45 f0             	mov    %eax,0xfffffff0(%ebp)
   17f98:	83 ec 08             	sub    $0x8,%esp
   17f9b:	ff 75 f0             	pushl  0xfffffff0(%ebp)
   17f9e:	6a 01                	push   $0x1
   17fa0:	e8 8b 1a 00 00       	call   19a30 <_ExAllocatePool@8>
   17fa5:	83 c4 08             	add    $0x8,%esp
   17fa8:	89 45 e8             	mov    %eax,0xffffffe8(%ebp)
   17fab:	83 7d e8 00          	cmpl   $0x0,0xffffffe8(%ebp)
   17faf:	75 0c                	jne    17fbd <_usb_get_configuration+0x1a5>
   17fb1:	c7 45 f8 f4 ff ff ff 	movl   $0xfffffff4,0xfffffff8(%ebp)
   17fb8:	e9 d2 00 00 00       	jmp    1808f <_usb_get_configuration+0x277>
   17fbd:	83 ec 0c             	sub    $0xc,%esp
   17fc0:	ff 75 f0             	pushl  0xfffffff0(%ebp)
   17fc3:	ff 75 e8             	pushl  0xffffffe8(%ebp)
   17fc6:	8b 45 f4             	mov    0xfffffff4(%ebp),%eax
   17fc9:	25 ff 00 00 00       	and    $0xff,%eax
   17fce:	50                   	push   %eax
   17fcf:	6a 02                	push   $0x2
   17fd1:	ff 75 08             	pushl  0x8(%ebp)
   17fd4:	e8 83 93 ff ff       	call   1135c <_usb_get_descriptor>
   17fd9:	83 c4 20             	add    $0x20,%esp
   17fdc:	89 45 f8             	mov    %eax,0xfffffff8(%ebp)
   17fdf:	83 7d f8 00          	cmpl   $0x0,0xfffffff8(%ebp)
   17fe3:	79 13                	jns    17ff8 <_usb_get_configuration+0x1e0>
   17fe5:	83 ec 0c             	sub    $0xc,%esp
   17fe8:	ff 75 e8             	pushl  0xffffffe8(%ebp)
   17feb:	e8 50 1a 00 00       	call   19a40 <_ExFreePool@4>
   17ff0:	83 c4 0c             	add    $0xc,%esp
   17ff3:	e9 97 00 00 00       	jmp    1808f <_usb_get_configuration+0x277>
   17ff8:	8b 45 f8             	mov    0xfffffff8(%ebp),%eax
   17ffb:	3b 45 f0             	cmp    0xfffffff0(%ebp),%eax
   17ffe:	73 17                	jae    18017 <_usb_get_configuration+0x1ff>
   18000:	c7 45 f8 ea ff ff ff 	movl   $0xffffffea,0xfffffff8(%ebp)
   18007:	83 ec 0c             	sub    $0xc,%esp
   1800a:	ff 75 e8             	pushl  0xffffffe8(%ebp)
   1800d:	e8 2e 1a 00 00       	call   19a40 <_ExFreePool@4>
   18012:	83 c4 0c             	add    $0xc,%esp
   18015:	eb 78                	jmp    1808f <_usb_get_configuration+0x277>
   18017:	8b 55 08             	mov    0x8(%ebp),%edx
   1801a:	8b 45 f4             	mov    0xfffffff4(%ebp),%eax
   1801d:	8d 0c 85 00 00 00 00 	lea    0x0(,%eax,4),%ecx
   18024:	8b 92 8c 01 00 00    	mov    0x18c(%edx),%edx
   1802a:	8b 45 e8             	mov    0xffffffe8(%ebp),%eax
   1802d:	89 04 11             	mov    %eax,(%ecx,%edx,1)
   18030:	83 ec 08             	sub    $0x8,%esp
   18033:	ff 75 e8             	pushl  0xffffffe8(%ebp)
   18036:	8b 4d 08             	mov    0x8(%ebp),%ecx
   18039:	8b 55 f4             	mov    0xfffffff4(%ebp),%edx
   1803c:	89 d0                	mov    %edx,%eax
   1803e:	01 c0                	add    %eax,%eax
   18040:	01 d0                	add    %edx,%eax
   18042:	c1 e0 03             	shl    $0x3,%eax
   18045:	03 81 84 01 00 00    	add    0x184(%ecx),%eax
   1804b:	50                   	push   %eax
   1804c:	e8 33 f9 ff ff       	call   17984 <_usb_parse_configuration>
   18051:	83 c4 10             	add    $0x10,%esp
   18054:	89 45 f8             	mov    %eax,0xfffffff8(%ebp)
   18057:	83 7d f8 00          	cmpl   $0x0,0xfffffff8(%ebp)
   1805b:	7e 02                	jle    1805f <_usb_get_configuration+0x247>
   1805d:	eb 0f                	jmp    1806e <_usb_get_configuration+0x256>
   1805f:	83 7d f8 00          	cmpl   $0x0,0xfffffff8(%ebp)
   18063:	79 09                	jns    1806e <_usb_get_configuration+0x256>
   18065:	c7 45 f8 ea ff ff ff 	movl   $0xffffffea,0xfffffff8(%ebp)
   1806c:	eb 21                	jmp    1808f <_usb_get_configuration+0x277>
   1806e:	8d 45 f4             	lea    0xfffffff4(%ebp),%eax
   18071:	ff 00                	incl   (%eax)
   18073:	e9 bc fe ff ff       	jmp    17f34 <_usb_get_configuration+0x11c>
   18078:	83 ec 0c             	sub    $0xc,%esp
   1807b:	ff 75 ec             	pushl  0xffffffec(%ebp)
   1807e:	e8 bd 19 00 00       	call   19a40 <_ExFreePool@4>
   18083:	83 c4 0c             	add    $0xc,%esp
   18086:	c7 45 e0 00 00 00 00 	movl   $0x0,0xffffffe0(%ebp)
   1808d:	eb 20                	jmp    180af <_usb_get_configuration+0x297>
   1808f:	83 ec 0c             	sub    $0xc,%esp
   18092:	ff 75 ec             	pushl  0xffffffec(%ebp)
   18095:	e8 a6 19 00 00       	call   19a40 <_ExFreePool@4>
   1809a:	83 c4 0c             	add    $0xc,%esp
   1809d:	8b 45 08             	mov    0x8(%ebp),%eax
   180a0:	8b 55 f4             	mov    0xfffffff4(%ebp),%edx
   180a3:	88 90 81 01 00 00    	mov    %dl,0x181(%eax)
   180a9:	8b 45 f8             	mov    0xfffffff8(%ebp),%eax
   180ac:	89 45 e0             	mov    %eax,0xffffffe0(%ebp)
   180af:	8b 45 e0             	mov    0xffffffe0(%ebp),%eax
   180b2:	8b 5d fc             	mov    0xfffffffc(%ebp),%ebx
   180b5:	c9                   	leave  
   180b6:	c3                   	ret    
   180b7:	90                   	nop    
   180b8:	90                   	nop    
   180b9:	90                   	nop    
   180ba:	90                   	nop    
   180bb:	90                   	nop    
   180bc:	90                   	nop    
   180bd:	90                   	nop    
   180be:	90                   	nop    
   180bf:	90                   	nop    

000180c0 <_usb_init_urb@4>:
   180c0:	55                   	push   %ebp
   180c1:	89 e5                	mov    %esp,%ebp
   180c3:	83 ec 08             	sub    $0x8,%esp
   180c6:	83 7d 08 00          	cmpl   $0x0,0x8(%ebp)
   180ca:	74 1c                	je     180e8 <_usb_init_urb@4+0x28>
   180cc:	83 ec 04             	sub    $0x4,%esp
   180cf:	6a 5c                	push   $0x5c
   180d1:	6a 00                	push   $0x0
   180d3:	ff 75 08             	pushl  0x8(%ebp)
   180d6:	e8 75 19 00 00       	call   19a50 <_memset>
   180db:	83 c4 10             	add    $0x10,%esp
   180de:	8b 45 08             	mov    0x8(%ebp),%eax
   180e1:	c7 40 04 01 00 00 00 	movl   $0x1,0x4(%eax)
   180e8:	c9                   	leave  
   180e9:	c2 04 00             	ret    $0x4

000180ec <_usb_alloc_urb@8>:
   180ec:	55                   	push   %ebp
   180ed:	89 e5                	mov    %esp,%ebp
   180ef:	83 ec 08             	sub    $0x8,%esp
   180f2:	83 ec 08             	sub    $0x8,%esp
   180f5:	8b 45 08             	mov    0x8(%ebp),%eax
   180f8:	c1 e0 04             	shl    $0x4,%eax
   180fb:	83 c0 5c             	add    $0x5c,%eax
   180fe:	50                   	push   %eax
   180ff:	6a 01                	push   $0x1
   18101:	e8 2a 19 00 00       	call   19a30 <_ExAllocatePool@8>
   18106:	83 c4 08             	add    $0x8,%esp
   18109:	89 45 fc             	mov    %eax,0xfffffffc(%ebp)
   1810c:	83 7d fc 00          	cmpl   $0x0,0xfffffffc(%ebp)
   18110:	75 09                	jne    1811b <_usb_alloc_urb@8+0x2f>
   18112:	c7 45 f8 00 00 00 00 	movl   $0x0,0xfffffff8(%ebp)
   18119:	eb 14                	jmp    1812f <_usb_alloc_urb@8+0x43>
   1811b:	83 ec 0c             	sub    $0xc,%esp
   1811e:	ff 75 fc             	pushl  0xfffffffc(%ebp)
   18121:	e8 9a ff ff ff       	call   180c0 <_usb_init_urb@4>
   18126:	83 c4 0c             	add    $0xc,%esp
   18129:	8b 45 fc             	mov    0xfffffffc(%ebp),%eax
   1812c:	89 45 f8             	mov    %eax,0xfffffff8(%ebp)
   1812f:	8b 45 f8             	mov    0xfffffff8(%ebp),%eax
   18132:	c9                   	leave  
   18133:	c2 08 00             	ret    $0x8

00018136 <_usb_free_urb@4>:
   18136:	55                   	push   %ebp
   18137:	89 e5                	mov    %esp,%ebp
   18139:	83 ec 08             	sub    $0x8,%esp
   1813c:	83 7d 08 00          	cmpl   $0x0,0x8(%ebp)
   18140:	74 2a                	je     1816c <_usb_free_urb@4+0x36>
   18142:	8b 55 08             	mov    0x8(%ebp),%edx
   18145:	83 c2 04             	add    $0x4,%edx
   18148:	8b 45 08             	mov    0x8(%ebp),%eax
   1814b:	83 c0 04             	add    $0x4,%eax
   1814e:	8b 00                	mov    (%eax),%eax
   18150:	48                   	dec    %eax
   18151:	89 02                	mov    %eax,(%edx)
   18153:	8b 45 08             	mov    0x8(%ebp),%eax
   18156:	83 c0 04             	add    $0x4,%eax
   18159:	83 38 00             	cmpl   $0x0,(%eax)
   1815c:	75 0e                	jne    1816c <_usb_free_urb@4+0x36>
   1815e:	83 ec 0c             	sub    $0xc,%esp
   18161:	ff 75 08             	pushl  0x8(%ebp)
   18164:	e8 d7 18 00 00       	call   19a40 <_ExFreePool@4>
   18169:	83 c4 0c             	add    $0xc,%esp
   1816c:	c9                   	leave  
   1816d:	c2 04 00             	ret    $0x4

00018170 <_usb_get_urb@4>:
   18170:	55                   	push   %ebp
   18171:	89 e5                	mov    %esp,%ebp
   18173:	83 ec 04             	sub    $0x4,%esp
   18176:	83 7d 08 00          	cmpl   $0x0,0x8(%ebp)
   1817a:	74 19                	je     18195 <_usb_get_urb@4+0x25>
   1817c:	8b 55 08             	mov    0x8(%ebp),%edx
   1817f:	83 c2 04             	add    $0x4,%edx
   18182:	8b 45 08             	mov    0x8(%ebp),%eax
   18185:	83 c0 04             	add    $0x4,%eax
   18188:	8b 00                	mov    (%eax),%eax
   1818a:	40                   	inc    %eax
   1818b:	89 02                	mov    %eax,(%edx)
   1818d:	8b 45 08             	mov    0x8(%ebp),%eax
   18190:	89 45 fc             	mov    %eax,0xfffffffc(%ebp)
   18193:	eb 07                	jmp    1819c <_usb_get_urb@4+0x2c>
   18195:	c7 45 fc 00 00 00 00 	movl   $0x0,0xfffffffc(%ebp)
   1819c:	8b 45 fc             	mov    0xfffffffc(%ebp),%eax
   1819f:	c9                   	leave  
   181a0:	c2 04 00             	ret    $0x4

000181a3 <_usb_submit_urb@8>:
   181a3:	55                   	push   %ebp
   181a4:	89 e5                	mov    %esp,%ebp
   181a6:	53                   	push   %ebx
   181a7:	83 ec 34             	sub    $0x34,%esp
   181aa:	83 7d 08 00          	cmpl   $0x0,0x8(%ebp)
   181ae:	74 12                	je     181c2 <_usb_submit_urb@8+0x1f>
   181b0:	8b 45 08             	mov    0x8(%ebp),%eax
   181b3:	83 78 08 00          	cmpl   $0x0,0x8(%eax)
   181b7:	75 09                	jne    181c2 <_usb_submit_urb@8+0x1f>
   181b9:	8b 45 08             	mov    0x8(%ebp),%eax
   181bc:	83 78 58 00          	cmpl   $0x0,0x58(%eax)
   181c0:	75 0c                	jne    181ce <_usb_submit_urb@8+0x2b>
   181c2:	c7 45 d4 ea ff ff ff 	movl   $0xffffffea,0xffffffd4(%ebp)
   181c9:	e9 e2 02 00 00       	jmp    184b0 <_usb_submit_urb@8+0x30d>
   181ce:	8b 45 08             	mov    0x8(%ebp),%eax
   181d1:	8b 40 14             	mov    0x14(%eax),%eax
   181d4:	89 45 ec             	mov    %eax,0xffffffec(%ebp)
   181d7:	85 c0                	test   %eax,%eax
   181d9:	74 1f                	je     181fa <_usb_submit_urb@8+0x57>
   181db:	8b 45 ec             	mov    0xffffffec(%ebp),%eax
   181de:	83 78 14 02          	cmpl   $0x2,0x14(%eax)
   181e2:	76 16                	jbe    181fa <_usb_submit_urb@8+0x57>
   181e4:	8b 45 ec             	mov    0xffffffec(%ebp),%eax
   181e7:	83 b8 bc 00 00 00 00 	cmpl   $0x0,0xbc(%eax)
   181ee:	74 0a                	je     181fa <_usb_submit_urb@8+0x57>
   181f0:	8b 45 ec             	mov    0xffffffec(%ebp),%eax
   181f3:	83 38 00             	cmpl   $0x0,(%eax)
   181f6:	7e 02                	jle    181fa <_usb_submit_urb@8+0x57>
   181f8:	eb 0c                	jmp    18206 <_usb_submit_urb@8+0x63>
   181fa:	c7 45 d4 ed ff ff ff 	movl   $0xffffffed,0xffffffd4(%ebp)
   18201:	e9 aa 02 00 00       	jmp    184b0 <_usb_submit_urb@8+0x30d>
   18206:	8b 45 ec             	mov    0xffffffec(%ebp),%eax
   18209:	8b 80 bc 00 00 00    	mov    0xbc(%eax),%eax
   1820f:	8b 40 20             	mov    0x20(%eax),%eax
   18212:	89 45 e8             	mov    %eax,0xffffffe8(%ebp)
   18215:	85 c0                	test   %eax,%eax
   18217:	74 09                	je     18222 <_usb_submit_urb@8+0x7f>
   18219:	8b 45 e8             	mov    0xffffffe8(%ebp),%eax
   1821c:	83 78 0c 00          	cmpl   $0x0,0xc(%eax)
   18220:	75 0c                	jne    1822e <_usb_submit_urb@8+0x8b>
   18222:	c7 45 d4 ed ff ff ff 	movl   $0xffffffed,0xffffffd4(%ebp)
   18229:	e9 82 02 00 00       	jmp    184b0 <_usb_submit_urb@8+0x30d>
   1822e:	8b 45 08             	mov    0x8(%ebp),%eax
   18231:	c7 40 1c 8d ff ff ff 	movl   $0xffffff8d,0x1c(%eax)
   18238:	8b 45 08             	mov    0x8(%ebp),%eax
   1823b:	c7 40 30 00 00 00 00 	movl   $0x0,0x30(%eax)
   18242:	8b 45 08             	mov    0x8(%ebp),%eax
   18245:	c7 40 34 00 00 00 00 	movl   $0x0,0x34(%eax)
   1824c:	8b 45 08             	mov    0x8(%ebp),%eax
   1824f:	8b 40 18             	mov    0x18(%eax),%eax
   18252:	89 45 f8             	mov    %eax,0xfffffff8(%ebp)
   18255:	8b 45 f8             	mov    0xfffffff8(%ebp),%eax
   18258:	c1 f8 1e             	sar    $0x1e,%eax
   1825b:	83 e0 03             	and    $0x3,%eax
   1825e:	89 45 f4             	mov    %eax,0xfffffff4(%ebp)
   18261:	8b 45 f8             	mov    0xfffffff8(%ebp),%eax
   18264:	c1 e8 07             	shr    $0x7,%eax
   18267:	83 f0 01             	xor    $0x1,%eax
   1826a:	83 e0 01             	and    $0x1,%eax
   1826d:	89 45 e4             	mov    %eax,0xffffffe4(%ebp)
   18270:	8b 45 f8             	mov    0xfffffff8(%ebp),%eax
   18273:	c1 f8 1e             	sar    $0x1e,%eax
   18276:	83 e0 03             	and    $0x3,%eax
   18279:	83 f8 02             	cmp    $0x2,%eax
   1827c:	74 15                	je     18293 <_usb_submit_urb@8+0xf0>
   1827e:	8b 45 ec             	mov    0xffffffec(%ebp),%eax
   18281:	83 78 14 04          	cmpl   $0x4,0x14(%eax)
   18285:	77 0c                	ja     18293 <_usb_submit_urb@8+0xf0>
   18287:	c7 45 d4 ed ff ff ff 	movl   $0xffffffed,0xffffffd4(%ebp)
   1828e:	e9 1d 02 00 00       	jmp    184b0 <_usb_submit_urb@8+0x30d>
   18293:	8b 55 ec             	mov    0xffffffec(%ebp),%edx
   18296:	8b 5d e4             	mov    0xffffffe4(%ebp),%ebx
   18299:	8b 45 f8             	mov    0xfffffff8(%ebp),%eax
   1829c:	c1 f8 0f             	sar    $0xf,%eax
   1829f:	89 c1                	mov    %eax,%ecx
   182a1:	83 e1 0f             	and    $0xf,%ecx
   182a4:	b8 01 00 00 00       	mov    $0x1,%eax
   182a9:	d3 e0                	shl    %cl,%eax
   182ab:	23 44 9a 30          	and    0x30(%edx,%ebx,4),%eax
   182af:	85 c0                	test   %eax,%eax
   182b1:	74 0c                	je     182bf <_usb_submit_urb@8+0x11c>
   182b3:	c7 45 d4 e0 ff ff ff 	movl   $0xffffffe0,0xffffffd4(%ebp)
   182ba:	e9 f1 01 00 00       	jmp    184b0 <_usb_submit_urb@8+0x30d>
   182bf:	83 7d e4 00          	cmpl   $0x0,0xffffffe4(%ebp)
   182c3:	74 15                	je     182da <_usb_submit_urb@8+0x137>
   182c5:	8b 55 ec             	mov    0xffffffec(%ebp),%edx
   182c8:	8b 45 f8             	mov    0xfffffff8(%ebp),%eax
   182cb:	c1 f8 0f             	sar    $0xf,%eax
   182ce:	83 e0 0f             	and    $0xf,%eax
   182d1:	8b 44 82 78          	mov    0x78(%edx,%eax,4),%eax
   182d5:	89 45 d0             	mov    %eax,0xffffffd0(%ebp)
   182d8:	eb 13                	jmp    182ed <_usb_submit_urb@8+0x14a>
   182da:	8b 55 ec             	mov    0xffffffec(%ebp),%edx
   182dd:	8b 45 f8             	mov    0xfffffff8(%ebp),%eax
   182e0:	c1 f8 0f             	sar    $0xf,%eax
   182e3:	83 e0 0f             	and    $0xf,%eax
   182e6:	8b 44 82 38          	mov    0x38(%edx,%eax,4),%eax
   182ea:	89 45 d0             	mov    %eax,0xffffffd0(%ebp)
   182ed:	8b 45 d0             	mov    0xffffffd0(%ebp),%eax
   182f0:	89 45 f0             	mov    %eax,0xfffffff0(%ebp)
   182f3:	83 7d f0 00          	cmpl   $0x0,0xfffffff0(%ebp)
   182f7:	7f 0c                	jg     18305 <_usb_submit_urb@8+0x162>
   182f9:	c7 45 d4 a6 ff ff ff 	movl   $0xffffffa6,0xffffffd4(%ebp)
   18300:	e9 ab 01 00 00       	jmp    184b0 <_usb_submit_urb@8+0x30d>
   18305:	83 7d f4 00          	cmpl   $0x0,0xfffffff4(%ebp)
   18309:	0f 85 ae 00 00 00    	jne    183bd <_usb_submit_urb@8+0x21a>
   1830f:	8b 45 ec             	mov    0xffffffec(%ebp),%eax
   18312:	83 78 18 03          	cmpl   $0x3,0x18(%eax)
   18316:	75 20                	jne    18338 <_usb_submit_urb@8+0x195>
   18318:	8b 45 f0             	mov    0xfffffff0(%ebp),%eax
   1831b:	c1 f8 0b             	sar    $0xb,%eax
   1831e:	83 e0 03             	and    $0x3,%eax
   18321:	40                   	inc    %eax
   18322:	89 45 d8             	mov    %eax,0xffffffd8(%ebp)
   18325:	8d 45 f0             	lea    0xfffffff0(%ebp),%eax
   18328:	81 20 ff 03 00 00    	andl   $0x3ff,(%eax)
   1832e:	8b 45 f0             	mov    0xfffffff0(%ebp),%eax
   18331:	0f af 45 d8          	imul   0xffffffd8(%ebp),%eax
   18335:	89 45 f0             	mov    %eax,0xfffffff0(%ebp)
   18338:	8b 45 08             	mov    0x8(%ebp),%eax
   1833b:	83 78 44 00          	cmpl   $0x0,0x44(%eax)
   1833f:	7f 0c                	jg     1834d <_usb_submit_urb@8+0x1aa>
   18341:	c7 45 d4 ea ff ff ff 	movl   $0xffffffea,0xffffffd4(%ebp)
   18348:	e9 63 01 00 00       	jmp    184b0 <_usb_submit_urb@8+0x30d>
   1834d:	c7 45 e0 00 00 00 00 	movl   $0x0,0xffffffe0(%ebp)
   18354:	8b 45 08             	mov    0x8(%ebp),%eax
   18357:	8b 40 44             	mov    0x44(%eax),%eax
   1835a:	3b 45 e0             	cmp    0xffffffe0(%ebp),%eax
   1835d:	7e 5e                	jle    183bd <_usb_submit_urb@8+0x21a>
   1835f:	8b 55 08             	mov    0x8(%ebp),%edx
   18362:	8b 45 e0             	mov    0xffffffe0(%ebp),%eax
   18365:	c1 e0 04             	shl    $0x4,%eax
   18368:	01 d0                	add    %edx,%eax
   1836a:	83 c0 60             	add    $0x60,%eax
   1836d:	8b 00                	mov    (%eax),%eax
   1836f:	89 45 dc             	mov    %eax,0xffffffdc(%ebp)
   18372:	83 7d dc 00          	cmpl   $0x0,0xffffffdc(%ebp)
   18376:	78 0a                	js     18382 <_usb_submit_urb@8+0x1df>
   18378:	8b 45 dc             	mov    0xffffffdc(%ebp),%eax
   1837b:	3b 45 f0             	cmp    0xfffffff0(%ebp),%eax
   1837e:	7f 02                	jg     18382 <_usb_submit_urb@8+0x1df>
   18380:	eb 0c                	jmp    1838e <_usb_submit_urb@8+0x1eb>
   18382:	c7 45 d4 a6 ff ff ff 	movl   $0xffffffa6,0xffffffd4(%ebp)
   18389:	e9 22 01 00 00       	jmp    184b0 <_usb_submit_urb@8+0x30d>
   1838e:	8b 55 08             	mov    0x8(%ebp),%edx
   18391:	8b 45 e0             	mov    0xffffffe0(%ebp),%eax
   18394:	c1 e0 04             	shl    $0x4,%eax
   18397:	01 d0                	add    %edx,%eax
   18399:	83 c0 68             	add    $0x68,%eax
   1839c:	c7 00 ee ff ff ff    	movl   $0xffffffee,(%eax)
   183a2:	8b 55 08             	mov    0x8(%ebp),%edx
   183a5:	8b 45 e0             	mov    0xffffffe0(%ebp),%eax
   183a8:	c1 e0 04             	shl    $0x4,%eax
   183ab:	01 d0                	add    %edx,%eax
   183ad:	83 c0 64             	add    $0x64,%eax
   183b0:	c7 00 00 00 00 00    	movl   $0x0,(%eax)
   183b6:	8d 45 e0             	lea    0xffffffe0(%ebp),%eax
   183b9:	ff 00                	incl   (%eax)
   183bb:	eb 97                	jmp    18354 <_usb_submit_urb@8+0x1b1>
   183bd:	8b 45 08             	mov    0x8(%ebp),%eax
   183c0:	83 78 2c 00          	cmpl   $0x0,0x2c(%eax)
   183c4:	79 0c                	jns    183d2 <_usb_submit_urb@8+0x22f>
   183c6:	c7 45 d4 a6 ff ff ff 	movl   $0xffffffa6,0xffffffd4(%ebp)
   183cd:	e9 de 00 00 00       	jmp    184b0 <_usb_submit_urb@8+0x30d>
   183d2:	8b 45 f4             	mov    0xfffffff4(%ebp),%eax
   183d5:	83 c0 00             	add    $0x0,%eax
   183d8:	83 f8 01             	cmp    $0x1,%eax
   183db:	0f 87 b8 00 00 00    	ja     18499 <_usb_submit_urb@8+0x2f6>
   183e1:	8b 45 08             	mov    0x8(%ebp),%eax
   183e4:	83 78 48 00          	cmpl   $0x0,0x48(%eax)
   183e8:	7f 0c                	jg     183f6 <_usb_submit_urb@8+0x253>
   183ea:	c7 45 d4 ea ff ff ff 	movl   $0xffffffea,0xffffffd4(%ebp)
   183f1:	e9 ba 00 00 00       	jmp    184b0 <_usb_submit_urb@8+0x30d>
   183f6:	8b 45 ec             	mov    0xffffffec(%ebp),%eax
   183f9:	8b 40 18             	mov    0x18(%eax),%eax
   183fc:	89 45 cc             	mov    %eax,0xffffffcc(%ebp)
   183ff:	83 7d cc 01          	cmpl   $0x1,0xffffffcc(%ebp)
   18403:	72 70                	jb     18475 <_usb_submit_urb@8+0x2d2>
   18405:	83 7d cc 02          	cmpl   $0x2,0xffffffcc(%ebp)
   18409:	76 27                	jbe    18432 <_usb_submit_urb@8+0x28f>
   1840b:	83 7d cc 03          	cmpl   $0x3,0xffffffcc(%ebp)
   1840f:	74 02                	je     18413 <_usb_submit_urb@8+0x270>
   18411:	eb 62                	jmp    18475 <_usb_submit_urb@8+0x2d2>
   18413:	8b 45 08             	mov    0x8(%ebp),%eax
   18416:	81 78 48 00 20 00 00 	cmpl   $0x2000,0x48(%eax)
   1841d:	7e 0a                	jle    18429 <_usb_submit_urb@8+0x286>
   1841f:	8b 45 08             	mov    0x8(%ebp),%eax
   18422:	c7 40 48 00 20 00 00 	movl   $0x2000,0x48(%eax)
   18429:	c7 45 f4 00 20 00 00 	movl   $0x2000,0xfffffff4(%ebp)
   18430:	eb 4c                	jmp    1847e <_usb_submit_urb@8+0x2db>
   18432:	83 7d f4 01          	cmpl   $0x1,0xfffffff4(%ebp)
   18436:	75 1e                	jne    18456 <_usb_submit_urb@8+0x2b3>
   18438:	8b 45 08             	mov    0x8(%ebp),%eax
   1843b:	81 78 48 ff 00 00 00 	cmpl   $0xff,0x48(%eax)
   18442:	7e 09                	jle    1844d <_usb_submit_urb@8+0x2aa>
   18444:	c7 45 d4 ea ff ff ff 	movl   $0xffffffea,0xffffffd4(%ebp)
   1844b:	eb 63                	jmp    184b0 <_usb_submit_urb@8+0x30d>
   1844d:	c7 45 f4 80 00 00 00 	movl   $0x80,0xfffffff4(%ebp)
   18454:	eb 28                	jmp    1847e <_usb_submit_urb@8+0x2db>
   18456:	8b 45 08             	mov    0x8(%ebp),%eax
   18459:	81 78 48 00 04 00 00 	cmpl   $0x400,0x48(%eax)
   18460:	7e 0a                	jle    1846c <_usb_submit_urb@8+0x2c9>
   18462:	8b 45 08             	mov    0x8(%ebp),%eax
   18465:	c7 40 48 00 04 00 00 	movl   $0x400,0x48(%eax)
   1846c:	c7 45 f4 00 04 00 00 	movl   $0x400,0xfffffff4(%ebp)
   18473:	eb 09                	jmp    1847e <_usb_submit_urb@8+0x2db>
   18475:	c7 45 d4 ea ff ff ff 	movl   $0xffffffea,0xffffffd4(%ebp)
   1847c:	eb 32                	jmp    184b0 <_usb_submit_urb@8+0x30d>
   1847e:	8b 45 08             	mov    0x8(%ebp),%eax
   18481:	8b 40 48             	mov    0x48(%eax),%eax
   18484:	3b 45 f4             	cmp    0xfffffff4(%ebp),%eax
   18487:	7d 07                	jge    18490 <_usb_submit_urb@8+0x2ed>
   18489:	8d 45 f4             	lea    0xfffffff4(%ebp),%eax
   1848c:	d1 38                	sarl   (%eax)
   1848e:	eb ee                	jmp    1847e <_usb_submit_urb@8+0x2db>
   18490:	8b 55 08             	mov    0x8(%ebp),%edx
   18493:	8b 45 f4             	mov    0xfffffff4(%ebp),%eax
   18496:	89 42 48             	mov    %eax,0x48(%edx)
   18499:	83 ec 08             	sub    $0x8,%esp
   1849c:	8b 45 e8             	mov    0xffffffe8(%ebp),%eax
   1849f:	ff 75 0c             	pushl  0xc(%ebp)
   184a2:	ff 75 08             	pushl  0x8(%ebp)
   184a5:	8b 40 0c             	mov    0xc(%eax),%eax
   184a8:	ff d0                	call   *%eax
   184aa:	83 c4 10             	add    $0x10,%esp
   184ad:	89 45 d4             	mov    %eax,0xffffffd4(%ebp)
   184b0:	8b 45 d4             	mov    0xffffffd4(%ebp),%eax
   184b3:	8b 5d fc             	mov    0xfffffffc(%ebp),%ebx
   184b6:	c9                   	leave  
   184b7:	c2 08 00             	ret    $0x8

000184ba <_usb_unlink_urb@4>:
   184ba:	55                   	push   %ebp
   184bb:	89 e5                	mov    %esp,%ebp
   184bd:	83 ec 08             	sub    $0x8,%esp
   184c0:	83 7d 08 00          	cmpl   $0x0,0x8(%ebp)
   184c4:	74 4c                	je     18512 <_usb_unlink_urb@4+0x58>
   184c6:	8b 45 08             	mov    0x8(%ebp),%eax
   184c9:	83 78 14 00          	cmpl   $0x0,0x14(%eax)
   184cd:	74 43                	je     18512 <_usb_unlink_urb@4+0x58>
   184cf:	8b 45 08             	mov    0x8(%ebp),%eax
   184d2:	8b 40 14             	mov    0x14(%eax),%eax
   184d5:	83 b8 bc 00 00 00 00 	cmpl   $0x0,0xbc(%eax)
   184dc:	74 34                	je     18512 <_usb_unlink_urb@4+0x58>
   184de:	8b 45 08             	mov    0x8(%ebp),%eax
   184e1:	8b 40 14             	mov    0x14(%eax),%eax
   184e4:	8b 80 bc 00 00 00    	mov    0xbc(%eax),%eax
   184ea:	83 78 20 00          	cmpl   $0x0,0x20(%eax)
   184ee:	74 22                	je     18512 <_usb_unlink_urb@4+0x58>
   184f0:	83 ec 0c             	sub    $0xc,%esp
   184f3:	8b 45 08             	mov    0x8(%ebp),%eax
   184f6:	8b 40 14             	mov    0x14(%eax),%eax
   184f9:	8b 80 bc 00 00 00    	mov    0xbc(%eax),%eax
   184ff:	8b 40 20             	mov    0x20(%eax),%eax
   18502:	ff 75 08             	pushl  0x8(%ebp)
   18505:	8b 40 10             	mov    0x10(%eax),%eax
   18508:	ff d0                	call   *%eax
   1850a:	83 c4 10             	add    $0x10,%esp
   1850d:	89 45 fc             	mov    %eax,0xfffffffc(%ebp)
   18510:	eb 07                	jmp    18519 <_usb_unlink_urb@4+0x5f>
   18512:	c7 45 fc ed ff ff ff 	movl   $0xffffffed,0xfffffffc(%ebp)
   18519:	8b 45 fc             	mov    0xfffffffc(%ebp),%eax
   1851c:	c9                   	leave  
   1851d:	c2 04 00             	ret    $0x4

00018520 <_hcd_buffer_create>:
   18520:	55                   	push   %ebp
   18521:	89 e5                	mov    %esp,%ebp
   18523:	b8 00 00 00 00       	mov    $0x0,%eax
   18528:	5d                   	pop    %ebp
   18529:	c3                   	ret    

0001852a <_hcd_buffer_destroy>:
   1852a:	55                   	push   %ebp
   1852b:	89 e5                	mov    %esp,%ebp
   1852d:	5d                   	pop    %ebp
   1852e:	c3                   	ret    

0001852f <_hcd_buffer_alloc>:
   1852f:	55                   	push   %ebp
   18530:	89 e5                	mov    %esp,%ebp
   18532:	83 ec 08             	sub    $0x8,%esp
   18535:	83 ec 08             	sub    $0x8,%esp
   18538:	ff 75 0c             	pushl  0xc(%ebp)
   1853b:	6a 01                	push   $0x1
   1853d:	e8 ee 14 00 00       	call   19a30 <_ExAllocatePool@8>
   18542:	83 c4 08             	add    $0x8,%esp
   18545:	c9                   	leave  
   18546:	c3                   	ret    

00018547 <_hcd_buffer_free>:
   18547:	55                   	push   %ebp
   18548:	89 e5                	mov    %esp,%ebp
   1854a:	83 ec 08             	sub    $0x8,%esp
   1854d:	83 ec 0c             	sub    $0xc,%esp
   18550:	ff 75 10             	pushl  0x10(%ebp)
   18553:	e8 e8 14 00 00       	call   19a40 <_ExFreePool@4>
   18558:	83 c4 0c             	add    $0xc,%esp
   1855b:	c9                   	leave  
   1855c:	c3                   	ret    
   1855d:	90                   	nop    
   1855e:	90                   	nop    
   1855f:	90                   	nop    

00018560 <_usb_show_endpoint>:
   18560:	55                   	push   %ebp
   18561:	89 e5                	mov    %esp,%ebp
   18563:	83 ec 08             	sub    $0x8,%esp
   18566:	83 ec 0c             	sub    $0xc,%esp
   18569:	ff 75 08             	pushl  0x8(%ebp)
   1856c:	e8 86 09 00 00       	call   18ef7 <_usb_show_endpoint_descriptor>
   18571:	83 c4 10             	add    $0x10,%esp
   18574:	c9                   	leave  
   18575:	c3                   	ret    

00018576 <_usb_show_interface>:
   18576:	55                   	push   %ebp
   18577:	89 e5                	mov    %esp,%ebp
   18579:	83 ec 08             	sub    $0x8,%esp
   1857c:	83 ec 0c             	sub    $0xc,%esp
   1857f:	ff 75 08             	pushl  0x8(%ebp)
   18582:	e8 89 07 00 00       	call   18d10 <_usb_show_interface_descriptor>
   18587:	83 c4 10             	add    $0x10,%esp
   1858a:	c7 45 fc 00 00 00 00 	movl   $0x0,0xfffffffc(%ebp)
   18591:	8b 45 08             	mov    0x8(%ebp),%eax
   18594:	8a 40 04             	mov    0x4(%eax),%al
   18597:	25 ff 00 00 00       	and    $0xff,%eax
   1859c:	3b 45 fc             	cmp    0xfffffffc(%ebp),%eax
   1859f:	7e 26                	jle    185c7 <_usb_show_interface+0x51>
   185a1:	83 ec 0c             	sub    $0xc,%esp
   185a4:	8b 4d 08             	mov    0x8(%ebp),%ecx
   185a7:	8b 55 fc             	mov    0xfffffffc(%ebp),%edx
   185aa:	89 d0                	mov    %edx,%eax
   185ac:	c1 e0 02             	shl    $0x2,%eax
   185af:	01 d0                	add    %edx,%eax
   185b1:	c1 e0 02             	shl    $0x2,%eax
   185b4:	03 41 0c             	add    0xc(%ecx),%eax
   185b7:	50                   	push   %eax
   185b8:	e8 a3 ff ff ff       	call   18560 <_usb_show_endpoint>
   185bd:	83 c4 10             	add    $0x10,%esp
   185c0:	8d 45 fc             	lea    0xfffffffc(%ebp),%eax
   185c3:	ff 00                	incl   (%eax)
   185c5:	eb ca                	jmp    18591 <_usb_show_interface+0x1b>
   185c7:	c9                   	leave  
   185c8:	c3                   	ret    

000185c9 <_usb_show_config>:
   185c9:	55                   	push   %ebp
   185ca:	89 e5                	mov    %esp,%ebp
   185cc:	53                   	push   %ebx
   185cd:	83 ec 14             	sub    $0x14,%esp
   185d0:	83 ec 0c             	sub    $0xc,%esp
   185d3:	ff 75 08             	pushl  0x8(%ebp)
   185d6:	e8 45 05 00 00       	call   18b20 <_usb_show_config_descriptor>
   185db:	83 c4 10             	add    $0x10,%esp
   185de:	c7 45 f8 00 00 00 00 	movl   $0x0,0xfffffff8(%ebp)
   185e5:	8b 45 08             	mov    0x8(%ebp),%eax
   185e8:	8a 40 04             	mov    0x4(%eax),%al
   185eb:	25 ff 00 00 00       	and    $0xff,%eax
   185f0:	3b 45 f8             	cmp    0xfffffff8(%ebp),%eax
   185f3:	0f 8e 95 00 00 00    	jle    1868e <_usb_show_config+0xc5>
   185f9:	8b 5d 08             	mov    0x8(%ebp),%ebx
   185fc:	8b 4d f8             	mov    0xfffffff8(%ebp),%ecx
   185ff:	89 c8                	mov    %ecx,%eax
   18601:	c1 e0 02             	shl    $0x2,%eax
   18604:	01 c8                	add    %ecx,%eax
   18606:	8d 14 85 00 00 00 00 	lea    0x0(,%eax,4),%edx
   1860d:	01 d0                	add    %edx,%eax
   1860f:	01 c0                	add    %eax,%eax
   18611:	01 c8                	add    %ecx,%eax
   18613:	c1 e0 02             	shl    $0x2,%eax
   18616:	03 43 0c             	add    0xc(%ebx),%eax
   18619:	89 45 f0             	mov    %eax,0xfffffff0(%ebp)
   1861c:	83 7d f0 00          	cmpl   $0x0,0xfffffff0(%ebp)
   18620:	75 02                	jne    18624 <_usb_show_config+0x5b>
   18622:	eb 6a                	jmp    1868e <_usb_show_config+0xc5>
   18624:	83 ec 04             	sub    $0x4,%esp
   18627:	6a 32                	push   $0x32
   18629:	68 c4 b2 01 00       	push   $0x1b2c4
   1862e:	68 d0 b2 01 00       	push   $0x1b2d0
   18633:	e8 28 14 00 00       	call   19a60 <_DbgPrint>
   18638:	83 c4 10             	add    $0x10,%esp
   1863b:	83 ec 08             	sub    $0x8,%esp
   1863e:	ff 75 f8             	pushl  0xfffffff8(%ebp)
   18641:	68 d9 b2 01 00       	push   $0x1b2d9
   18646:	e8 15 14 00 00       	call   19a60 <_DbgPrint>
   1864b:	83 c4 10             	add    $0x10,%esp
   1864e:	c7 45 f4 00 00 00 00 	movl   $0x0,0xfffffff4(%ebp)
   18655:	8b 55 f0             	mov    0xfffffff0(%ebp),%edx
   18658:	8b 45 f4             	mov    0xfffffff4(%ebp),%eax
   1865b:	3b 42 08             	cmp    0x8(%edx),%eax
   1865e:	73 24                	jae    18684 <_usb_show_config+0xbb>
   18660:	83 ec 0c             	sub    $0xc,%esp
   18663:	8b 4d f0             	mov    0xfffffff0(%ebp),%ecx
   18666:	8b 55 f4             	mov    0xfffffff4(%ebp),%edx
   18669:	89 d0                	mov    %edx,%eax
   1866b:	01 c0                	add    %eax,%eax
   1866d:	01 d0                	add    %edx,%eax
   1866f:	c1 e0 03             	shl    $0x3,%eax
   18672:	03 01                	add    (%ecx),%eax
   18674:	50                   	push   %eax
   18675:	e8 fc fe ff ff       	call   18576 <_usb_show_interface>
   1867a:	83 c4 10             	add    $0x10,%esp
   1867d:	8d 45 f4             	lea    0xfffffff4(%ebp),%eax
   18680:	ff 00                	incl   (%eax)
   18682:	eb d1                	jmp    18655 <_usb_show_config+0x8c>
   18684:	8d 45 f8             	lea    0xfffffff8(%ebp),%eax
   18687:	ff 00                	incl   (%eax)
   18689:	e9 57 ff ff ff       	jmp    185e5 <_usb_show_config+0x1c>
   1868e:	8b 5d fc             	mov    0xfffffffc(%ebp),%ebx
   18691:	c9                   	leave  
   18692:	c3                   	ret    

00018693 <_usb_show_device>:
   18693:	55                   	push   %ebp
   18694:	89 e5                	mov    %esp,%ebp
   18696:	83 ec 08             	sub    $0x8,%esp
   18699:	83 ec 0c             	sub    $0xc,%esp
   1869c:	8b 45 08             	mov    0x8(%ebp),%eax
   1869f:	05 70 01 00 00       	add    $0x170,%eax
   186a4:	50                   	push   %eax
   186a5:	e8 47 00 00 00       	call   186f1 <_usb_show_device_descriptor>
   186aa:	83 c4 10             	add    $0x10,%esp
   186ad:	c7 45 fc 00 00 00 00 	movl   $0x0,0xfffffffc(%ebp)
   186b4:	8b 45 08             	mov    0x8(%ebp),%eax
   186b7:	8a 80 81 01 00 00    	mov    0x181(%eax),%al
   186bd:	25 ff 00 00 00       	and    $0xff,%eax
   186c2:	3b 45 fc             	cmp    0xfffffffc(%ebp),%eax
   186c5:	7e 28                	jle    186ef <_usb_show_device+0x5c>
   186c7:	83 ec 0c             	sub    $0xc,%esp
   186ca:	8b 4d 08             	mov    0x8(%ebp),%ecx
   186cd:	8b 55 fc             	mov    0xfffffffc(%ebp),%edx
   186d0:	89 d0                	mov    %edx,%eax
   186d2:	01 c0                	add    %eax,%eax
   186d4:	01 d0                	add    %edx,%eax
   186d6:	c1 e0 03             	shl    $0x3,%eax
   186d9:	03 81 84 01 00 00    	add    0x184(%ecx),%eax
   186df:	50                   	push   %eax
   186e0:	e8 e4 fe ff ff       	call   185c9 <_usb_show_config>
   186e5:	83 c4 10             	add    $0x10,%esp
   186e8:	8d 45 fc             	lea    0xfffffffc(%ebp),%eax
   186eb:	ff 00                	incl   (%eax)
   186ed:	eb c5                	jmp    186b4 <_usb_show_device+0x21>
   186ef:	c9                   	leave  
   186f0:	c3                   	ret    

000186f1 <_usb_show_device_descriptor>:
   186f1:	55                   	push   %ebp
   186f2:	89 e5                	mov    %esp,%ebp
   186f4:	83 ec 08             	sub    $0x8,%esp
   186f7:	83 7d 08 00          	cmpl   $0x0,0x8(%ebp)
   186fb:	75 2c                	jne    18729 <_usb_show_device_descriptor+0x38>
   186fd:	83 ec 04             	sub    $0x4,%esp
   18700:	6a 48                	push   $0x48
   18702:	68 c4 b2 01 00       	push   $0x1b2c4
   18707:	68 d0 b2 01 00       	push   $0x1b2d0
   1870c:	e8 4f 13 00 00       	call   19a60 <_DbgPrint>
   18711:	83 c4 10             	add    $0x10,%esp
   18714:	83 ec 0c             	sub    $0xc,%esp
   18717:	68 ec b2 01 00       	push   $0x1b2ec
   1871c:	e8 3f 13 00 00       	call   19a60 <_DbgPrint>
   18721:	83 c4 10             	add    $0x10,%esp
   18724:	e9 f5 03 00 00       	jmp    18b1e <_usb_show_device_descriptor+0x42d>
   18729:	83 ec 04             	sub    $0x4,%esp
   1872c:	6a 4c                	push   $0x4c
   1872e:	68 c4 b2 01 00       	push   $0x1b2c4
   18733:	68 d0 b2 01 00       	push   $0x1b2d0
   18738:	e8 23 13 00 00       	call   19a60 <_DbgPrint>
   1873d:	83 c4 10             	add    $0x10,%esp
   18740:	83 ec 04             	sub    $0x4,%esp
   18743:	8b 45 08             	mov    0x8(%ebp),%eax
   18746:	80 38 12             	cmpb   $0x12,(%eax)
   18749:	75 09                	jne    18754 <_usb_show_device_descriptor+0x63>
   1874b:	c7 45 fc 1a b3 01 00 	movl   $0x1b31a,0xfffffffc(%ebp)
   18752:	eb 07                	jmp    1875b <_usb_show_device_descriptor+0x6a>
   18754:	c7 45 fc 1b b3 01 00 	movl   $0x1b31b,0xfffffffc(%ebp)
   1875b:	ff 75 fc             	pushl  0xfffffffc(%ebp)
   1875e:	8b 45 08             	mov    0x8(%ebp),%eax
   18761:	8a 00                	mov    (%eax),%al
   18763:	25 ff 00 00 00       	and    $0xff,%eax
   18768:	50                   	push   %eax
   18769:	68 24 b3 01 00       	push   $0x1b324
   1876e:	e8 ed 12 00 00       	call   19a60 <_DbgPrint>
   18773:	83 c4 10             	add    $0x10,%esp
   18776:	83 ec 04             	sub    $0x4,%esp
   18779:	6a 4d                	push   $0x4d
   1877b:	68 c4 b2 01 00       	push   $0x1b2c4
   18780:	68 d0 b2 01 00       	push   $0x1b2d0
   18785:	e8 d6 12 00 00       	call   19a60 <_DbgPrint>
   1878a:	83 c4 10             	add    $0x10,%esp
   1878d:	83 ec 08             	sub    $0x8,%esp
   18790:	8b 45 08             	mov    0x8(%ebp),%eax
   18793:	8a 40 01             	mov    0x1(%eax),%al
   18796:	25 ff 00 00 00       	and    $0xff,%eax
   1879b:	50                   	push   %eax
   1879c:	68 43 b3 01 00       	push   $0x1b343
   187a1:	e8 ba 12 00 00       	call   19a60 <_DbgPrint>
   187a6:	83 c4 10             	add    $0x10,%esp
   187a9:	83 ec 04             	sub    $0x4,%esp
   187ac:	6a 50                	push   $0x50
   187ae:	68 c4 b2 01 00       	push   $0x1b2c4
   187b3:	68 d0 b2 01 00       	push   $0x1b2d0
   187b8:	e8 a3 12 00 00       	call   19a60 <_DbgPrint>
   187bd:	83 c4 10             	add    $0x10,%esp
   187c0:	83 ec 04             	sub    $0x4,%esp
   187c3:	8b 45 08             	mov    0x8(%ebp),%eax
   187c6:	66 8b 40 02          	mov    0x2(%eax),%ax
   187ca:	25 ff ff 00 00       	and    $0xffff,%eax
   187cf:	25 ff 00 00 00       	and    $0xff,%eax
   187d4:	50                   	push   %eax
   187d5:	8b 45 08             	mov    0x8(%ebp),%eax
   187d8:	66 8b 40 02          	mov    0x2(%eax),%ax
   187dc:	66 c1 e8 08          	shr    $0x8,%ax
   187e0:	25 ff ff 00 00       	and    $0xffff,%eax
   187e5:	50                   	push   %eax
   187e6:	68 64 b3 01 00       	push   $0x1b364
   187eb:	e8 70 12 00 00       	call   19a60 <_DbgPrint>
   187f0:	83 c4 10             	add    $0x10,%esp
   187f3:	83 ec 04             	sub    $0x4,%esp
   187f6:	6a 52                	push   $0x52
   187f8:	68 c4 b2 01 00       	push   $0x1b2c4
   187fd:	68 d0 b2 01 00       	push   $0x1b2d0
   18802:	e8 59 12 00 00       	call   19a60 <_DbgPrint>
   18807:	83 c4 10             	add    $0x10,%esp
   1880a:	83 ec 04             	sub    $0x4,%esp
   1880d:	8b 45 08             	mov    0x8(%ebp),%eax
   18810:	66 8b 40 0a          	mov    0xa(%eax),%ax
   18814:	25 ff ff 00 00       	and    $0xffff,%eax
   18819:	50                   	push   %eax
   1881a:	8b 45 08             	mov    0x8(%ebp),%eax
   1881d:	66 8b 40 08          	mov    0x8(%eax),%ax
   18821:	25 ff ff 00 00       	and    $0xffff,%eax
   18826:	50                   	push   %eax
   18827:	68 88 b3 01 00       	push   $0x1b388
   1882c:	e8 2f 12 00 00       	call   19a60 <_DbgPrint>
   18831:	83 c4 10             	add    $0x10,%esp
   18834:	83 ec 04             	sub    $0x4,%esp
   18837:	6a 53                	push   $0x53
   18839:	68 c4 b2 01 00       	push   $0x1b2c4
   1883e:	68 d0 b2 01 00       	push   $0x1b2d0
   18843:	e8 18 12 00 00       	call   19a60 <_DbgPrint>
   18848:	83 c4 10             	add    $0x10,%esp
   1884b:	83 ec 08             	sub    $0x8,%esp
   1884e:	8b 45 08             	mov    0x8(%ebp),%eax
   18851:	8a 40 07             	mov    0x7(%eax),%al
   18854:	25 ff 00 00 00       	and    $0xff,%eax
   18859:	50                   	push   %eax
   1885a:	68 ab b3 01 00       	push   $0x1b3ab
   1885f:	e8 fc 11 00 00       	call   19a60 <_DbgPrint>
   18864:	83 c4 10             	add    $0x10,%esp
   18867:	83 ec 04             	sub    $0x4,%esp
   1886a:	6a 54                	push   $0x54
   1886c:	68 c4 b2 01 00       	push   $0x1b2c4
   18871:	68 d0 b2 01 00       	push   $0x1b2d0
   18876:	e8 e5 11 00 00       	call   19a60 <_DbgPrint>
   1887b:	83 c4 10             	add    $0x10,%esp
   1887e:	83 ec 08             	sub    $0x8,%esp
   18881:	8b 45 08             	mov    0x8(%ebp),%eax
   18884:	8a 40 11             	mov    0x11(%eax),%al
   18887:	25 ff 00 00 00       	and    $0xff,%eax
   1888c:	50                   	push   %eax
   1888d:	68 c7 b3 01 00       	push   $0x1b3c7
   18892:	e8 c9 11 00 00       	call   19a60 <_DbgPrint>
   18897:	83 c4 10             	add    $0x10,%esp
   1889a:	83 ec 04             	sub    $0x4,%esp
   1889d:	6a 56                	push   $0x56
   1889f:	68 c4 b2 01 00       	push   $0x1b2c4
   188a4:	68 d0 b2 01 00       	push   $0x1b2d0
   188a9:	e8 b2 11 00 00       	call   19a60 <_DbgPrint>
   188ae:	83 c4 10             	add    $0x10,%esp
   188b1:	83 ec 04             	sub    $0x4,%esp
   188b4:	8b 45 08             	mov    0x8(%ebp),%eax
   188b7:	66 8b 40 0c          	mov    0xc(%eax),%ax
   188bb:	25 ff ff 00 00       	and    $0xffff,%eax
   188c0:	25 ff 00 00 00       	and    $0xff,%eax
   188c5:	50                   	push   %eax
   188c6:	8b 45 08             	mov    0x8(%ebp),%eax
   188c9:	66 8b 40 0c          	mov    0xc(%eax),%ax
   188cd:	66 c1 e8 08          	shr    $0x8,%ax
   188d1:	25 ff ff 00 00       	and    $0xffff,%eax
   188d6:	50                   	push   %eax
   188d7:	68 e4 b3 01 00       	push   $0x1b3e4
   188dc:	e8 7f 11 00 00       	call   19a60 <_DbgPrint>
   188e1:	83 c4 10             	add    $0x10,%esp
   188e4:	83 ec 04             	sub    $0x4,%esp
   188e7:	6a 59                	push   $0x59
   188e9:	68 c4 b2 01 00       	push   $0x1b2c4
   188ee:	68 d0 b2 01 00       	push   $0x1b2d0
   188f3:	e8 68 11 00 00       	call   19a60 <_DbgPrint>
   188f8:	83 c4 10             	add    $0x10,%esp
   188fb:	8b 45 08             	mov    0x8(%ebp),%eax
   188fe:	8a 40 06             	mov    0x6(%eax),%al
   18901:	25 ff 00 00 00       	and    $0xff,%eax
   18906:	50                   	push   %eax
   18907:	8b 45 08             	mov    0x8(%ebp),%eax
   1890a:	8a 40 05             	mov    0x5(%eax),%al
   1890d:	25 ff 00 00 00       	and    $0xff,%eax
   18912:	50                   	push   %eax
   18913:	8b 45 08             	mov    0x8(%ebp),%eax
   18916:	8a 40 04             	mov    0x4(%eax),%al
   18919:	25 ff 00 00 00       	and    $0xff,%eax
   1891e:	50                   	push   %eax
   1891f:	68 08 b4 01 00       	push   $0x1b408
   18924:	e8 37 11 00 00       	call   19a60 <_DbgPrint>
   18929:	83 c4 10             	add    $0x10,%esp
   1892c:	8b 45 08             	mov    0x8(%ebp),%eax
   1892f:	ba 00 00 00 00       	mov    $0x0,%edx
   18934:	8a 50 04             	mov    0x4(%eax),%dl
   18937:	89 55 f8             	mov    %edx,0xfffffff8(%ebp)
   1893a:	83 7d f8 03          	cmpl   $0x3,0xfffffff8(%ebp)
   1893e:	0f 84 e0 00 00 00    	je     18a24 <_usb_show_device_descriptor+0x333>
   18944:	83 7d f8 03          	cmpl   $0x3,0xfffffff8(%ebp)
   18948:	7f 1b                	jg     18965 <_usb_show_device_descriptor+0x274>
   1894a:	83 7d f8 01          	cmpl   $0x1,0xfffffff8(%ebp)
   1894e:	74 7c                	je     189cc <_usb_show_device_descriptor+0x2db>
   18950:	83 7d f8 01          	cmpl   $0x1,0xfffffff8(%ebp)
   18954:	0f 8f 9e 00 00 00    	jg     189f8 <_usb_show_device_descriptor+0x307>
   1895a:	83 7d f8 00          	cmpl   $0x0,0xfffffff8(%ebp)
   1895e:	74 40                	je     189a0 <_usb_show_device_descriptor+0x2af>
   18960:	e9 92 01 00 00       	jmp    18af7 <_usb_show_device_descriptor+0x406>
   18965:	83 7d f8 08          	cmpl   $0x8,0xfffffff8(%ebp)
   18969:	0f 84 0d 01 00 00    	je     18a7c <_usb_show_device_descriptor+0x38b>
   1896f:	83 7d f8 08          	cmpl   $0x8,0xfffffff8(%ebp)
   18973:	7f 0f                	jg     18984 <_usb_show_device_descriptor+0x293>
   18975:	83 7d f8 07          	cmpl   $0x7,0xfffffff8(%ebp)
   18979:	0f 84 d1 00 00 00    	je     18a50 <_usb_show_device_descriptor+0x35f>
   1897f:	e9 73 01 00 00       	jmp    18af7 <_usb_show_device_descriptor+0x406>
   18984:	83 7d f8 09          	cmpl   $0x9,0xfffffff8(%ebp)
   18988:	0f 84 17 01 00 00    	je     18aa5 <_usb_show_device_descriptor+0x3b4>
   1898e:	81 7d f8 ff 00 00 00 	cmpl   $0xff,0xfffffff8(%ebp)
   18995:	0f 84 33 01 00 00    	je     18ace <_usb_show_device_descriptor+0x3dd>
   1899b:	e9 57 01 00 00       	jmp    18af7 <_usb_show_device_descriptor+0x406>
   189a0:	83 ec 04             	sub    $0x4,%esp
   189a3:	6a 5c                	push   $0x5c
   189a5:	68 c4 b2 01 00       	push   $0x1b2c4
   189aa:	68 d0 b2 01 00       	push   $0x1b2d0
   189af:	e8 ac 10 00 00       	call   19a60 <_DbgPrint>
   189b4:	83 c4 10             	add    $0x10,%esp
   189b7:	83 ec 0c             	sub    $0xc,%esp
   189ba:	68 3b b4 01 00       	push   $0x1b43b
   189bf:	e8 9c 10 00 00       	call   19a60 <_DbgPrint>
   189c4:	83 c4 10             	add    $0x10,%esp
   189c7:	e9 52 01 00 00       	jmp    18b1e <_usb_show_device_descriptor+0x42d>
   189cc:	83 ec 04             	sub    $0x4,%esp
   189cf:	6a 5f                	push   $0x5f
   189d1:	68 c4 b2 01 00       	push   $0x1b2c4
   189d6:	68 d0 b2 01 00       	push   $0x1b2d0
   189db:	e8 80 10 00 00       	call   19a60 <_DbgPrint>
   189e0:	83 c4 10             	add    $0x10,%esp
   189e3:	83 ec 0c             	sub    $0xc,%esp
   189e6:	68 56 b4 01 00       	push   $0x1b456
   189eb:	e8 70 10 00 00       	call   19a60 <_DbgPrint>
   189f0:	83 c4 10             	add    $0x10,%esp
   189f3:	e9 26 01 00 00       	jmp    18b1e <_usb_show_device_descriptor+0x42d>
   189f8:	83 ec 04             	sub    $0x4,%esp
   189fb:	6a 62                	push   $0x62
   189fd:	68 c4 b2 01 00       	push   $0x1b2c4
   18a02:	68 d0 b2 01 00       	push   $0x1b2d0
   18a07:	e8 54 10 00 00       	call   19a60 <_DbgPrint>
   18a0c:	83 c4 10             	add    $0x10,%esp
   18a0f:	83 ec 0c             	sub    $0xc,%esp
   18a12:	68 6e b4 01 00       	push   $0x1b46e
   18a17:	e8 44 10 00 00       	call   19a60 <_DbgPrint>
   18a1c:	83 c4 10             	add    $0x10,%esp
   18a1f:	e9 fa 00 00 00       	jmp    18b1e <_usb_show_device_descriptor+0x42d>
   18a24:	83 ec 04             	sub    $0x4,%esp
   18a27:	6a 65                	push   $0x65
   18a29:	68 c4 b2 01 00       	push   $0x1b2c4
   18a2e:	68 d0 b2 01 00       	push   $0x1b2d0
   18a33:	e8 28 10 00 00       	call   19a60 <_DbgPrint>
   18a38:	83 c4 10             	add    $0x10,%esp
   18a3b:	83 ec 0c             	sub    $0xc,%esp
   18a3e:	68 88 b4 01 00       	push   $0x1b488
   18a43:	e8 18 10 00 00       	call   19a60 <_DbgPrint>
   18a48:	83 c4 10             	add    $0x10,%esp
   18a4b:	e9 ce 00 00 00       	jmp    18b1e <_usb_show_device_descriptor+0x42d>
   18a50:	83 ec 04             	sub    $0x4,%esp
   18a53:	6a 68                	push   $0x68
   18a55:	68 c4 b2 01 00       	push   $0x1b2c4
   18a5a:	68 d0 b2 01 00       	push   $0x1b2d0
   18a5f:	e8 fc 0f 00 00       	call   19a60 <_DbgPrint>
   18a64:	83 c4 10             	add    $0x10,%esp
   18a67:	83 ec 0c             	sub    $0xc,%esp
   18a6a:	68 ab b4 01 00       	push   $0x1b4ab
   18a6f:	e8 ec 0f 00 00       	call   19a60 <_DbgPrint>
   18a74:	83 c4 10             	add    $0x10,%esp
   18a77:	e9 a2 00 00 00       	jmp    18b1e <_usb_show_device_descriptor+0x42d>
   18a7c:	83 ec 04             	sub    $0x4,%esp
   18a7f:	6a 6b                	push   $0x6b
   18a81:	68 c4 b2 01 00       	push   $0x1b2c4
   18a86:	68 d0 b2 01 00       	push   $0x1b2d0
   18a8b:	e8 d0 0f 00 00       	call   19a60 <_DbgPrint>
   18a90:	83 c4 10             	add    $0x10,%esp
   18a93:	83 ec 0c             	sub    $0xc,%esp
   18a96:	68 c8 b4 01 00       	push   $0x1b4c8
   18a9b:	e8 c0 0f 00 00       	call   19a60 <_DbgPrint>
   18aa0:	83 c4 10             	add    $0x10,%esp
   18aa3:	eb 79                	jmp    18b1e <_usb_show_device_descriptor+0x42d>
   18aa5:	83 ec 04             	sub    $0x4,%esp
   18aa8:	6a 6e                	push   $0x6e
   18aaa:	68 c4 b2 01 00       	push   $0x1b2c4
   18aaf:	68 d0 b2 01 00       	push   $0x1b2d0
   18ab4:	e8 a7 0f 00 00       	call   19a60 <_DbgPrint>
   18ab9:	83 c4 10             	add    $0x10,%esp
   18abc:	83 ec 0c             	sub    $0xc,%esp
   18abf:	68 e7 b4 01 00       	push   $0x1b4e7
   18ac4:	e8 97 0f 00 00       	call   19a60 <_DbgPrint>
   18ac9:	83 c4 10             	add    $0x10,%esp
   18acc:	eb 50                	jmp    18b1e <_usb_show_device_descriptor+0x42d>
   18ace:	83 ec 04             	sub    $0x4,%esp
   18ad1:	6a 71                	push   $0x71
   18ad3:	68 c4 b2 01 00       	push   $0x1b2c4
   18ad8:	68 d0 b2 01 00       	push   $0x1b2d0
   18add:	e8 7e 0f 00 00       	call   19a60 <_DbgPrint>
   18ae2:	83 c4 10             	add    $0x10,%esp
   18ae5:	83 ec 0c             	sub    $0xc,%esp
   18ae8:	68 fd b4 01 00       	push   $0x1b4fd
   18aed:	e8 6e 0f 00 00       	call   19a60 <_DbgPrint>
   18af2:	83 c4 10             	add    $0x10,%esp
   18af5:	eb 27                	jmp    18b1e <_usb_show_device_descriptor+0x42d>
   18af7:	83 ec 04             	sub    $0x4,%esp
   18afa:	6a 74                	push   $0x74
   18afc:	68 c4 b2 01 00       	push   $0x1b2c4
   18b01:	68 d0 b2 01 00       	push   $0x1b2d0
   18b06:	e8 55 0f 00 00       	call   19a60 <_DbgPrint>
   18b0b:	83 c4 10             	add    $0x10,%esp
   18b0e:	83 ec 0c             	sub    $0xc,%esp
   18b11:	68 0f b5 01 00       	push   $0x1b50f
   18b16:	e8 45 0f 00 00       	call   19a60 <_DbgPrint>
   18b1b:	83 c4 10             	add    $0x10,%esp
   18b1e:	c9                   	leave  
   18b1f:	c3                   	ret    

00018b20 <_usb_show_config_descriptor>:
   18b20:	55                   	push   %ebp
   18b21:	89 e5                	mov    %esp,%ebp
   18b23:	83 ec 08             	sub    $0x8,%esp
   18b26:	83 ec 04             	sub    $0x4,%esp
   18b29:	6a 7a                	push   $0x7a
   18b2b:	68 c4 b2 01 00       	push   $0x1b2c4
   18b30:	68 d0 b2 01 00       	push   $0x1b2d0
   18b35:	e8 26 0f 00 00       	call   19a60 <_DbgPrint>
   18b3a:	83 c4 10             	add    $0x10,%esp
   18b3d:	83 ec 0c             	sub    $0xc,%esp
   18b40:	68 22 b5 01 00       	push   $0x1b522
   18b45:	e8 16 0f 00 00       	call   19a60 <_DbgPrint>
   18b4a:	83 c4 10             	add    $0x10,%esp
   18b4d:	83 ec 04             	sub    $0x4,%esp
   18b50:	6a 7c                	push   $0x7c
   18b52:	68 c4 b2 01 00       	push   $0x1b2c4
   18b57:	68 d0 b2 01 00       	push   $0x1b2d0
   18b5c:	e8 ff 0e 00 00       	call   19a60 <_DbgPrint>
   18b61:	83 c4 10             	add    $0x10,%esp
   18b64:	83 ec 04             	sub    $0x4,%esp
   18b67:	8b 45 08             	mov    0x8(%ebp),%eax
   18b6a:	80 38 09             	cmpb   $0x9,(%eax)
   18b6d:	75 09                	jne    18b78 <_usb_show_config_descriptor+0x58>
   18b6f:	c7 45 fc 1a b3 01 00 	movl   $0x1b31a,0xfffffffc(%ebp)
   18b76:	eb 07                	jmp    18b7f <_usb_show_config_descriptor+0x5f>
   18b78:	c7 45 fc 1b b3 01 00 	movl   $0x1b31b,0xfffffffc(%ebp)
   18b7f:	ff 75 fc             	pushl  0xfffffffc(%ebp)
   18b82:	8b 45 08             	mov    0x8(%ebp),%eax
   18b85:	8a 00                	mov    (%eax),%al
   18b87:	25 ff 00 00 00       	and    $0xff,%eax
   18b8c:	50                   	push   %eax
   18b8d:	68 34 b5 01 00       	push   $0x1b534
   18b92:	e8 c9 0e 00 00       	call   19a60 <_DbgPrint>
   18b97:	83 c4 10             	add    $0x10,%esp
   18b9a:	83 ec 04             	sub    $0x4,%esp
   18b9d:	6a 7d                	push   $0x7d
   18b9f:	68 c4 b2 01 00       	push   $0x1b2c4
   18ba4:	68 d0 b2 01 00       	push   $0x1b2d0
   18ba9:	e8 b2 0e 00 00       	call   19a60 <_DbgPrint>
   18bae:	83 c4 10             	add    $0x10,%esp
   18bb1:	83 ec 08             	sub    $0x8,%esp
   18bb4:	8b 45 08             	mov    0x8(%ebp),%eax
   18bb7:	8a 40 01             	mov    0x1(%eax),%al
   18bba:	25 ff 00 00 00       	and    $0xff,%eax
   18bbf:	50                   	push   %eax
   18bc0:	68 54 b5 01 00       	push   $0x1b554
   18bc5:	e8 96 0e 00 00       	call   19a60 <_DbgPrint>
   18bca:	83 c4 10             	add    $0x10,%esp
   18bcd:	83 ec 04             	sub    $0x4,%esp
   18bd0:	6a 7e                	push   $0x7e
   18bd2:	68 c4 b2 01 00       	push   $0x1b2c4
   18bd7:	68 d0 b2 01 00       	push   $0x1b2d0
   18bdc:	e8 7f 0e 00 00       	call   19a60 <_DbgPrint>
   18be1:	83 c4 10             	add    $0x10,%esp
   18be4:	83 ec 08             	sub    $0x8,%esp
   18be7:	8b 45 08             	mov    0x8(%ebp),%eax
   18bea:	66 8b 40 02          	mov    0x2(%eax),%ax
   18bee:	25 ff ff 00 00       	and    $0xffff,%eax
   18bf3:	50                   	push   %eax
   18bf4:	68 74 b5 01 00       	push   $0x1b574
   18bf9:	e8 62 0e 00 00       	call   19a60 <_DbgPrint>
   18bfe:	83 c4 10             	add    $0x10,%esp
   18c01:	83 ec 04             	sub    $0x4,%esp
   18c04:	6a 7f                	push   $0x7f
   18c06:	68 c4 b2 01 00       	push   $0x1b2c4
   18c0b:	68 d0 b2 01 00       	push   $0x1b2d0
   18c10:	e8 4b 0e 00 00       	call   19a60 <_DbgPrint>
   18c15:	83 c4 10             	add    $0x10,%esp
   18c18:	83 ec 08             	sub    $0x8,%esp
   18c1b:	8b 45 08             	mov    0x8(%ebp),%eax
   18c1e:	8a 40 04             	mov    0x4(%eax),%al
   18c21:	25 ff 00 00 00       	and    $0xff,%eax
   18c26:	50                   	push   %eax
   18c27:	68 94 b5 01 00       	push   $0x1b594
   18c2c:	e8 2f 0e 00 00       	call   19a60 <_DbgPrint>
   18c31:	83 c4 10             	add    $0x10,%esp
   18c34:	83 ec 04             	sub    $0x4,%esp
   18c37:	68 80 00 00 00       	push   $0x80
   18c3c:	68 c4 b2 01 00       	push   $0x1b2c4
   18c41:	68 d0 b2 01 00       	push   $0x1b2d0
   18c46:	e8 15 0e 00 00       	call   19a60 <_DbgPrint>
   18c4b:	83 c4 10             	add    $0x10,%esp
   18c4e:	83 ec 08             	sub    $0x8,%esp
   18c51:	8b 45 08             	mov    0x8(%ebp),%eax
   18c54:	8a 40 05             	mov    0x5(%eax),%al
   18c57:	25 ff 00 00 00       	and    $0xff,%eax
   18c5c:	50                   	push   %eax
   18c5d:	68 b4 b5 01 00       	push   $0x1b5b4
   18c62:	e8 f9 0d 00 00       	call   19a60 <_DbgPrint>
   18c67:	83 c4 10             	add    $0x10,%esp
   18c6a:	83 ec 04             	sub    $0x4,%esp
   18c6d:	68 81 00 00 00       	push   $0x81
   18c72:	68 c4 b2 01 00       	push   $0x1b2c4
   18c77:	68 d0 b2 01 00       	push   $0x1b2d0
   18c7c:	e8 df 0d 00 00       	call   19a60 <_DbgPrint>
   18c81:	83 c4 10             	add    $0x10,%esp
   18c84:	83 ec 08             	sub    $0x8,%esp
   18c87:	8b 45 08             	mov    0x8(%ebp),%eax
   18c8a:	8a 40 06             	mov    0x6(%eax),%al
   18c8d:	25 ff 00 00 00       	and    $0xff,%eax
   18c92:	50                   	push   %eax
   18c93:	68 d4 b5 01 00       	push   $0x1b5d4
   18c98:	e8 c3 0d 00 00       	call   19a60 <_DbgPrint>
   18c9d:	83 c4 10             	add    $0x10,%esp
   18ca0:	83 ec 04             	sub    $0x4,%esp
   18ca3:	68 82 00 00 00       	push   $0x82
   18ca8:	68 c4 b2 01 00       	push   $0x1b2c4
   18cad:	68 d0 b2 01 00       	push   $0x1b2d0
   18cb2:	e8 a9 0d 00 00       	call   19a60 <_DbgPrint>
   18cb7:	83 c4 10             	add    $0x10,%esp
   18cba:	83 ec 08             	sub    $0x8,%esp
   18cbd:	8b 45 08             	mov    0x8(%ebp),%eax
   18cc0:	8a 40 07             	mov    0x7(%eax),%al
   18cc3:	25 ff 00 00 00       	and    $0xff,%eax
   18cc8:	50                   	push   %eax
   18cc9:	68 f4 b5 01 00       	push   $0x1b5f4
   18cce:	e8 8d 0d 00 00       	call   19a60 <_DbgPrint>
   18cd3:	83 c4 10             	add    $0x10,%esp
   18cd6:	83 ec 04             	sub    $0x4,%esp
   18cd9:	68 83 00 00 00       	push   $0x83
   18cde:	68 c4 b2 01 00       	push   $0x1b2c4
   18ce3:	68 d0 b2 01 00       	push   $0x1b2d0
   18ce8:	e8 73 0d 00 00       	call   19a60 <_DbgPrint>
   18ced:	83 c4 10             	add    $0x10,%esp
   18cf0:	83 ec 08             	sub    $0x8,%esp
   18cf3:	8b 45 08             	mov    0x8(%ebp),%eax
   18cf6:	8a 40 08             	mov    0x8(%eax),%al
   18cf9:	25 ff 00 00 00       	and    $0xff,%eax
   18cfe:	01 c0                	add    %eax,%eax
   18d00:	50                   	push   %eax
   18d01:	68 14 b6 01 00       	push   $0x1b614
   18d06:	e8 55 0d 00 00       	call   19a60 <_DbgPrint>
   18d0b:	83 c4 10             	add    $0x10,%esp
   18d0e:	c9                   	leave  
   18d0f:	c3                   	ret    

00018d10 <_usb_show_interface_descriptor>:
   18d10:	55                   	push   %ebp
   18d11:	89 e5                	mov    %esp,%ebp
   18d13:	83 ec 08             	sub    $0x8,%esp
   18d16:	83 ec 04             	sub    $0x4,%esp
   18d19:	68 88 00 00 00       	push   $0x88
   18d1e:	68 c4 b2 01 00       	push   $0x1b2c4
   18d23:	68 d0 b2 01 00       	push   $0x1b2d0
   18d28:	e8 33 0d 00 00       	call   19a60 <_DbgPrint>
   18d2d:	83 c4 10             	add    $0x10,%esp
   18d30:	83 ec 08             	sub    $0x8,%esp
   18d33:	8b 45 08             	mov    0x8(%ebp),%eax
   18d36:	8a 40 03             	mov    0x3(%eax),%al
   18d39:	25 ff 00 00 00       	and    $0xff,%eax
   18d3e:	50                   	push   %eax
   18d3f:	68 34 b6 01 00       	push   $0x1b634
   18d44:	e8 17 0d 00 00       	call   19a60 <_DbgPrint>
   18d49:	83 c4 10             	add    $0x10,%esp
   18d4c:	83 ec 04             	sub    $0x4,%esp
   18d4f:	68 8a 00 00 00       	push   $0x8a
   18d54:	68 c4 b2 01 00       	push   $0x1b2c4
   18d59:	68 d0 b2 01 00       	push   $0x1b2d0
   18d5e:	e8 fd 0c 00 00       	call   19a60 <_DbgPrint>
   18d63:	83 c4 10             	add    $0x10,%esp
   18d66:	83 ec 04             	sub    $0x4,%esp
   18d69:	8b 45 08             	mov    0x8(%ebp),%eax
   18d6c:	80 38 09             	cmpb   $0x9,(%eax)
   18d6f:	75 09                	jne    18d7a <_usb_show_interface_descriptor+0x6a>
   18d71:	c7 45 fc 1a b3 01 00 	movl   $0x1b31a,0xfffffffc(%ebp)
   18d78:	eb 07                	jmp    18d81 <_usb_show_interface_descriptor+0x71>
   18d7a:	c7 45 fc 1b b3 01 00 	movl   $0x1b31b,0xfffffffc(%ebp)
   18d81:	ff 75 fc             	pushl  0xfffffffc(%ebp)
   18d84:	8b 45 08             	mov    0x8(%ebp),%eax
   18d87:	8a 00                	mov    (%eax),%al
   18d89:	25 ff 00 00 00       	and    $0xff,%eax
   18d8e:	50                   	push   %eax
   18d8f:	68 50 b6 01 00       	push   $0x1b650
   18d94:	e8 c7 0c 00 00       	call   19a60 <_DbgPrint>
   18d99:	83 c4 10             	add    $0x10,%esp
   18d9c:	83 ec 04             	sub    $0x4,%esp
   18d9f:	68 8b 00 00 00       	push   $0x8b
   18da4:	68 c4 b2 01 00       	push   $0x1b2c4
   18da9:	68 d0 b2 01 00       	push   $0x1b2d0
   18dae:	e8 ad 0c 00 00       	call   19a60 <_DbgPrint>
   18db3:	83 c4 10             	add    $0x10,%esp
   18db6:	83 ec 08             	sub    $0x8,%esp
   18db9:	8b 45 08             	mov    0x8(%ebp),%eax
   18dbc:	8a 40 01             	mov    0x1(%eax),%al
   18dbf:	25 ff 00 00 00       	and    $0xff,%eax
   18dc4:	50                   	push   %eax
   18dc5:	68 74 b6 01 00       	push   $0x1b674
   18dca:	e8 91 0c 00 00       	call   19a60 <_DbgPrint>
   18dcf:	83 c4 10             	add    $0x10,%esp
   18dd2:	83 ec 04             	sub    $0x4,%esp
   18dd5:	68 8c 00 00 00       	push   $0x8c
   18dda:	68 c4 b2 01 00       	push   $0x1b2c4
   18ddf:	68 d0 b2 01 00       	push   $0x1b2d0
   18de4:	e8 77 0c 00 00       	call   19a60 <_DbgPrint>
   18de9:	83 c4 10             	add    $0x10,%esp
   18dec:	83 ec 08             	sub    $0x8,%esp
   18def:	8b 45 08             	mov    0x8(%ebp),%eax
   18df2:	8a 40 02             	mov    0x2(%eax),%al
   18df5:	25 ff 00 00 00       	and    $0xff,%eax
   18dfa:	50                   	push   %eax
   18dfb:	68 98 b6 01 00       	push   $0x1b698
   18e00:	e8 5b 0c 00 00       	call   19a60 <_DbgPrint>
   18e05:	83 c4 10             	add    $0x10,%esp
   18e08:	83 ec 04             	sub    $0x4,%esp
   18e0b:	68 8d 00 00 00       	push   $0x8d
   18e10:	68 c4 b2 01 00       	push   $0x1b2c4
   18e15:	68 d0 b2 01 00       	push   $0x1b2d0
   18e1a:	e8 41 0c 00 00       	call   19a60 <_DbgPrint>
   18e1f:	83 c4 10             	add    $0x10,%esp
   18e22:	83 ec 08             	sub    $0x8,%esp
   18e25:	8b 45 08             	mov    0x8(%ebp),%eax
   18e28:	8a 40 03             	mov    0x3(%eax),%al
   18e2b:	25 ff 00 00 00       	and    $0xff,%eax
   18e30:	50                   	push   %eax
   18e31:	68 bc b6 01 00       	push   $0x1b6bc
   18e36:	e8 25 0c 00 00       	call   19a60 <_DbgPrint>
   18e3b:	83 c4 10             	add    $0x10,%esp
   18e3e:	83 ec 04             	sub    $0x4,%esp
   18e41:	68 8e 00 00 00       	push   $0x8e
   18e46:	68 c4 b2 01 00       	push   $0x1b2c4
   18e4b:	68 d0 b2 01 00       	push   $0x1b2d0
   18e50:	e8 0b 0c 00 00       	call   19a60 <_DbgPrint>
   18e55:	83 c4 10             	add    $0x10,%esp
   18e58:	83 ec 08             	sub    $0x8,%esp
   18e5b:	8b 45 08             	mov    0x8(%ebp),%eax
   18e5e:	8a 40 04             	mov    0x4(%eax),%al
   18e61:	25 ff 00 00 00       	and    $0xff,%eax
   18e66:	50                   	push   %eax
   18e67:	68 e0 b6 01 00       	push   $0x1b6e0
   18e6c:	e8 ef 0b 00 00       	call   19a60 <_DbgPrint>
   18e71:	83 c4 10             	add    $0x10,%esp
   18e74:	83 ec 04             	sub    $0x4,%esp
   18e77:	68 90 00 00 00       	push   $0x90
   18e7c:	68 c4 b2 01 00       	push   $0x1b2c4
   18e81:	68 d0 b2 01 00       	push   $0x1b2d0
   18e86:	e8 d5 0b 00 00       	call   19a60 <_DbgPrint>
   18e8b:	83 c4 10             	add    $0x10,%esp
   18e8e:	8b 45 08             	mov    0x8(%ebp),%eax
   18e91:	8a 40 07             	mov    0x7(%eax),%al
   18e94:	25 ff 00 00 00       	and    $0xff,%eax
   18e99:	50                   	push   %eax
   18e9a:	8b 45 08             	mov    0x8(%ebp),%eax
   18e9d:	8a 40 06             	mov    0x6(%eax),%al
   18ea0:	25 ff 00 00 00       	and    $0xff,%eax
   18ea5:	50                   	push   %eax
   18ea6:	8b 45 08             	mov    0x8(%ebp),%eax
   18ea9:	8a 40 05             	mov    0x5(%eax),%al
   18eac:	25 ff 00 00 00       	and    $0xff,%eax
   18eb1:	50                   	push   %eax
   18eb2:	68 04 b7 01 00       	push   $0x1b704
   18eb7:	e8 a4 0b 00 00       	call   19a60 <_DbgPrint>
   18ebc:	83 c4 10             	add    $0x10,%esp
   18ebf:	83 ec 04             	sub    $0x4,%esp
   18ec2:	68 91 00 00 00       	push   $0x91
   18ec7:	68 c4 b2 01 00       	push   $0x1b2c4
   18ecc:	68 d0 b2 01 00       	push   $0x1b2d0
   18ed1:	e8 8a 0b 00 00       	call   19a60 <_DbgPrint>
   18ed6:	83 c4 10             	add    $0x10,%esp
   18ed9:	83 ec 08             	sub    $0x8,%esp
   18edc:	8b 45 08             	mov    0x8(%ebp),%eax
   18edf:	8a 40 08             	mov    0x8(%eax),%al
   18ee2:	25 ff 00 00 00       	and    $0xff,%eax
   18ee7:	50                   	push   %eax
   18ee8:	68 40 b7 01 00       	push   $0x1b740
   18eed:	e8 6e 0b 00 00       	call   19a60 <_DbgPrint>
   18ef2:	83 c4 10             	add    $0x10,%esp
   18ef5:	c9                   	leave  
   18ef6:	c3                   	ret    

00018ef7 <_usb_show_endpoint_descriptor>:
   18ef7:	55                   	push   %ebp
   18ef8:	89 e5                	mov    %esp,%ebp
   18efa:	83 ec 38             	sub    $0x38,%esp
   18efd:	8b 45 08             	mov    0x8(%ebp),%eax
   18f00:	80 38 09             	cmpb   $0x9,(%eax)
   18f03:	74 1a                	je     18f1f <_usb_show_endpoint_descriptor+0x28>
   18f05:	8b 45 08             	mov    0x8(%ebp),%eax
   18f08:	80 38 07             	cmpb   $0x7,(%eax)
   18f0b:	75 09                	jne    18f16 <_usb_show_endpoint_descriptor+0x1f>
   18f0d:	c7 45 d4 1a b3 01 00 	movl   $0x1b31a,0xffffffd4(%ebp)
   18f14:	eb 10                	jmp    18f26 <_usb_show_endpoint_descriptor+0x2f>
   18f16:	c7 45 d4 1b b3 01 00 	movl   $0x1b31b,0xffffffd4(%ebp)
   18f1d:	eb 07                	jmp    18f26 <_usb_show_endpoint_descriptor+0x2f>
   18f1f:	c7 45 d4 62 b7 01 00 	movl   $0x1b762,0xffffffd4(%ebp)
   18f26:	8b 45 d4             	mov    0xffffffd4(%ebp),%eax
   18f29:	89 45 f4             	mov    %eax,0xfffffff4(%ebp)
   18f2c:	c7 45 d8 6b b7 01 00 	movl   $0x1b76b,0xffffffd8(%ebp)
   18f33:	c7 45 dc 73 b7 01 00 	movl   $0x1b773,0xffffffdc(%ebp)
   18f3a:	c7 45 e0 7f b7 01 00 	movl   $0x1b77f,0xffffffe0(%ebp)
   18f41:	c7 45 e4 84 b7 01 00 	movl   $0x1b784,0xffffffe4(%ebp)
   18f48:	83 ec 04             	sub    $0x4,%esp
   18f4b:	68 9b 00 00 00       	push   $0x9b
   18f50:	68 c4 b2 01 00       	push   $0x1b2c4
   18f55:	68 d0 b2 01 00       	push   $0x1b2d0
   18f5a:	e8 01 0b 00 00       	call   19a60 <_DbgPrint>
   18f5f:	83 c4 10             	add    $0x10,%esp
   18f62:	83 ec 0c             	sub    $0xc,%esp
   18f65:	68 8e b7 01 00       	push   $0x1b78e
   18f6a:	e8 f1 0a 00 00       	call   19a60 <_DbgPrint>
   18f6f:	83 c4 10             	add    $0x10,%esp
   18f72:	83 ec 04             	sub    $0x4,%esp
   18f75:	68 9d 00 00 00       	push   $0x9d
   18f7a:	68 c4 b2 01 00       	push   $0x1b2c4
   18f7f:	68 d0 b2 01 00       	push   $0x1b2d0
   18f84:	e8 d7 0a 00 00       	call   19a60 <_DbgPrint>
   18f89:	83 c4 10             	add    $0x10,%esp
   18f8c:	83 ec 04             	sub    $0x4,%esp
   18f8f:	ff 75 f4             	pushl  0xfffffff4(%ebp)
   18f92:	8b 45 08             	mov    0x8(%ebp),%eax
   18f95:	8a 00                	mov    (%eax),%al
   18f97:	25 ff 00 00 00       	and    $0xff,%eax
   18f9c:	50                   	push   %eax
   18f9d:	68 a0 b7 01 00       	push   $0x1b7a0
   18fa2:	e8 b9 0a 00 00       	call   19a60 <_DbgPrint>
   18fa7:	83 c4 10             	add    $0x10,%esp
   18faa:	83 ec 04             	sub    $0x4,%esp
   18fad:	68 9e 00 00 00       	push   $0x9e
   18fb2:	68 c4 b2 01 00       	push   $0x1b2c4
   18fb7:	68 d0 b2 01 00       	push   $0x1b2d0
   18fbc:	e8 9f 0a 00 00       	call   19a60 <_DbgPrint>
   18fc1:	83 c4 10             	add    $0x10,%esp
   18fc4:	83 ec 08             	sub    $0x8,%esp
   18fc7:	8b 45 08             	mov    0x8(%ebp),%eax
   18fca:	8a 40 01             	mov    0x1(%eax),%al
   18fcd:	25 ff 00 00 00       	and    $0xff,%eax
   18fd2:	50                   	push   %eax
   18fd3:	68 c4 b7 01 00       	push   $0x1b7c4
   18fd8:	e8 83 0a 00 00       	call   19a60 <_DbgPrint>
   18fdd:	83 c4 10             	add    $0x10,%esp
   18fe0:	83 ec 04             	sub    $0x4,%esp
   18fe3:	68 a2 00 00 00       	push   $0xa2
   18fe8:	68 c4 b2 01 00       	push   $0x1b2c4
   18fed:	68 d0 b2 01 00       	push   $0x1b2d0
   18ff2:	e8 69 0a 00 00       	call   19a60 <_DbgPrint>
   18ff7:	83 c4 10             	add    $0x10,%esp
   18ffa:	83 ec 04             	sub    $0x4,%esp
   18ffd:	8b 45 08             	mov    0x8(%ebp),%eax
   19000:	8a 40 03             	mov    0x3(%eax),%al
   19003:	25 ff 00 00 00       	and    $0xff,%eax
   19008:	83 e0 03             	and    $0x3,%eax
   1900b:	85 c0                	test   %eax,%eax
   1900d:	74 21                	je     19030 <_usb_show_endpoint_descriptor+0x139>
   1900f:	8b 45 08             	mov    0x8(%ebp),%eax
   19012:	80 78 02 00          	cmpb   $0x0,0x2(%eax)
   19016:	79 09                	jns    19021 <_usb_show_endpoint_descriptor+0x12a>
   19018:	c7 45 cc e8 b7 01 00 	movl   $0x1b7e8,0xffffffcc(%ebp)
   1901f:	eb 07                	jmp    19028 <_usb_show_endpoint_descriptor+0x131>
   19021:	c7 45 cc eb b7 01 00 	movl   $0x1b7eb,0xffffffcc(%ebp)
   19028:	8b 45 cc             	mov    0xffffffcc(%ebp),%eax
   1902b:	89 45 d0             	mov    %eax,0xffffffd0(%ebp)
   1902e:	eb 07                	jmp    19037 <_usb_show_endpoint_descriptor+0x140>
   19030:	c7 45 d0 ef b7 01 00 	movl   $0x1b7ef,0xffffffd0(%ebp)
   19037:	ff 75 d0             	pushl  0xffffffd0(%ebp)
   1903a:	8b 45 08             	mov    0x8(%ebp),%eax
   1903d:	8a 40 02             	mov    0x2(%eax),%al
   19040:	25 ff 00 00 00       	and    $0xff,%eax
   19045:	50                   	push   %eax
   19046:	68 f4 b7 01 00       	push   $0x1b7f4
   1904b:	e8 10 0a 00 00       	call   19a60 <_DbgPrint>
   19050:	83 c4 10             	add    $0x10,%esp
   19053:	83 ec 04             	sub    $0x4,%esp
   19056:	68 a4 00 00 00       	push   $0xa4
   1905b:	68 c4 b2 01 00       	push   $0x1b2c4
   19060:	68 d0 b2 01 00       	push   $0x1b2d0
   19065:	e8 f6 09 00 00       	call   19a60 <_DbgPrint>
   1906a:	83 c4 10             	add    $0x10,%esp
   1906d:	83 ec 04             	sub    $0x4,%esp
   19070:	8b 45 08             	mov    0x8(%ebp),%eax
   19073:	8a 40 03             	mov    0x3(%eax),%al
   19076:	25 ff 00 00 00       	and    $0xff,%eax
   1907b:	83 e0 03             	and    $0x3,%eax
   1907e:	ff 74 85 d8          	pushl  0xffffffd8(%ebp,%eax,4)
   19082:	8b 45 08             	mov    0x8(%ebp),%eax
   19085:	8a 40 03             	mov    0x3(%eax),%al
   19088:	25 ff 00 00 00       	and    $0xff,%eax
   1908d:	50                   	push   %eax
   1908e:	68 20 b8 01 00       	push   $0x1b820
   19093:	e8 c8 09 00 00       	call   19a60 <_DbgPrint>
   19098:	83 c4 10             	add    $0x10,%esp
   1909b:	83 ec 04             	sub    $0x4,%esp
   1909e:	68 a5 00 00 00       	push   $0xa5
   190a3:	68 c4 b2 01 00       	push   $0x1b2c4
   190a8:	68 d0 b2 01 00       	push   $0x1b2d0
   190ad:	e8 ae 09 00 00       	call   19a60 <_DbgPrint>
   190b2:	83 c4 10             	add    $0x10,%esp
   190b5:	83 ec 08             	sub    $0x8,%esp
   190b8:	8b 45 08             	mov    0x8(%ebp),%eax
   190bb:	66 8b 40 04          	mov    0x4(%eax),%ax
   190bf:	25 ff ff 00 00       	and    $0xffff,%eax
   190c4:	50                   	push   %eax
   190c5:	68 4c b8 01 00       	push   $0x1b84c
   190ca:	e8 91 09 00 00       	call   19a60 <_DbgPrint>
   190cf:	83 c4 10             	add    $0x10,%esp
   190d2:	83 ec 04             	sub    $0x4,%esp
   190d5:	68 a6 00 00 00       	push   $0xa6
   190da:	68 c4 b2 01 00       	push   $0x1b2c4
   190df:	68 d0 b2 01 00       	push   $0x1b2d0
   190e4:	e8 77 09 00 00       	call   19a60 <_DbgPrint>
   190e9:	83 c4 10             	add    $0x10,%esp
   190ec:	83 ec 08             	sub    $0x8,%esp
   190ef:	8b 45 08             	mov    0x8(%ebp),%eax
   190f2:	8a 40 06             	mov    0x6(%eax),%al
   190f5:	25 ff 00 00 00       	and    $0xff,%eax
   190fa:	50                   	push   %eax
   190fb:	68 70 b8 01 00       	push   $0x1b870
   19100:	e8 5b 09 00 00       	call   19a60 <_DbgPrint>
   19105:	83 c4 10             	add    $0x10,%esp
   19108:	8b 45 08             	mov    0x8(%ebp),%eax
   1910b:	80 38 09             	cmpb   $0x9,(%eax)
   1910e:	75 6c                	jne    1917c <_usb_show_endpoint_descriptor+0x285>
   19110:	83 ec 04             	sub    $0x4,%esp
   19113:	68 aa 00 00 00       	push   $0xaa
   19118:	68 c4 b2 01 00       	push   $0x1b2c4
   1911d:	68 d0 b2 01 00       	push   $0x1b2d0
   19122:	e8 39 09 00 00       	call   19a60 <_DbgPrint>
   19127:	83 c4 10             	add    $0x10,%esp
   1912a:	83 ec 08             	sub    $0x8,%esp
   1912d:	8b 45 08             	mov    0x8(%ebp),%eax
   19130:	8a 40 07             	mov    0x7(%eax),%al
   19133:	25 ff 00 00 00       	and    $0xff,%eax
   19138:	50                   	push   %eax
   19139:	68 94 b8 01 00       	push   $0x1b894
   1913e:	e8 1d 09 00 00       	call   19a60 <_DbgPrint>
   19143:	83 c4 10             	add    $0x10,%esp
   19146:	83 ec 04             	sub    $0x4,%esp
   19149:	68 ab 00 00 00       	push   $0xab
   1914e:	68 c4 b2 01 00       	push   $0x1b2c4
   19153:	68 d0 b2 01 00       	push   $0x1b2d0
   19158:	e8 03 09 00 00       	call   19a60 <_DbgPrint>
   1915d:	83 c4 10             	add    $0x10,%esp
   19160:	83 ec 08             	sub    $0x8,%esp
   19163:	8b 45 08             	mov    0x8(%ebp),%eax
   19166:	8a 40 08             	mov    0x8(%eax),%al
   19169:	25 ff 00 00 00       	and    $0xff,%eax
   1916e:	50                   	push   %eax
   1916f:	68 b8 b8 01 00       	push   $0x1b8b8
   19174:	e8 e7 08 00 00       	call   19a60 <_DbgPrint>
   19179:	83 c4 10             	add    $0x10,%esp
   1917c:	c9                   	leave  
   1917d:	c3                   	ret    

0001917e <_usb_show_string>:
   1917e:	55                   	push   %ebp
   1917f:	89 e5                	mov    %esp,%ebp
   19181:	83 ec 08             	sub    $0x8,%esp
   19184:	83 7d 10 00          	cmpl   $0x0,0x10(%ebp)
   19188:	75 02                	jne    1918c <_usb_show_string+0xe>
   1918a:	eb 42                	jmp    191ce <_usb_show_string+0x50>
   1918c:	83 ec 08             	sub    $0x8,%esp
   1918f:	68 00 01 00 00       	push   $0x100
   19194:	6a 01                	push   $0x1
   19196:	e8 95 08 00 00       	call   19a30 <_ExAllocatePool@8>
   1919b:	83 c4 08             	add    $0x8,%esp
   1919e:	89 45 fc             	mov    %eax,0xfffffffc(%ebp)
   191a1:	8b 45 fc             	mov    0xfffffffc(%ebp),%eax
   191a4:	85 c0                	test   %eax,%eax
   191a6:	75 02                	jne    191aa <_usb_show_string+0x2c>
   191a8:	eb 24                	jmp    191ce <_usb_show_string+0x50>
   191aa:	68 00 01 00 00       	push   $0x100
   191af:	ff 75 fc             	pushl  0xfffffffc(%ebp)
   191b2:	ff 75 10             	pushl  0x10(%ebp)
   191b5:	ff 75 08             	pushl  0x8(%ebp)
   191b8:	e8 26 8a ff ff       	call   11be3 <_usb_string>
   191bd:	83 c4 10             	add    $0x10,%esp
   191c0:	83 ec 0c             	sub    $0xc,%esp
   191c3:	ff 75 fc             	pushl  0xfffffffc(%ebp)
   191c6:	e8 75 08 00 00       	call   19a40 <_ExFreePool@4>
   191cb:	83 c4 0c             	add    $0xc,%esp
   191ce:	c9                   	leave  
   191cf:	c3                   	ret    

000191d0 <_usb_dump_urb>:
   191d0:	55                   	push   %ebp
   191d1:	89 e5                	mov    %esp,%ebp
   191d3:	83 ec 08             	sub    $0x8,%esp
   191d6:	83 ec 04             	sub    $0x4,%esp
   191d9:	68 be 00 00 00       	push   $0xbe
   191de:	68 c4 b2 01 00       	push   $0x1b2c4
   191e3:	68 d0 b2 01 00       	push   $0x1b2d0
   191e8:	e8 73 08 00 00       	call   19a60 <_DbgPrint>
   191ed:	83 c4 10             	add    $0x10,%esp
   191f0:	83 ec 08             	sub    $0x8,%esp
   191f3:	ff 75 08             	pushl  0x8(%ebp)
   191f6:	68 dc b8 01 00       	push   $0x1b8dc
   191fb:	e8 60 08 00 00       	call   19a60 <_DbgPrint>
   19200:	83 c4 10             	add    $0x10,%esp
   19203:	83 ec 04             	sub    $0x4,%esp
   19206:	68 bf 00 00 00       	push   $0xbf
   1920b:	68 c4 b2 01 00       	push   $0x1b2c4
   19210:	68 d0 b2 01 00       	push   $0x1b2d0
   19215:	e8 46 08 00 00       	call   19a60 <_DbgPrint>
   1921a:	83 c4 10             	add    $0x10,%esp
   1921d:	83 ec 08             	sub    $0x8,%esp
   19220:	8b 45 08             	mov    0x8(%ebp),%eax
   19223:	ff 70 14             	pushl  0x14(%eax)
   19226:	68 f7 b8 01 00       	push   $0x1b8f7
   1922b:	e8 30 08 00 00       	call   19a60 <_DbgPrint>
   19230:	83 c4 10             	add    $0x10,%esp
   19233:	83 ec 04             	sub    $0x4,%esp
   19236:	68 c0 00 00 00       	push   $0xc0
   1923b:	68 c4 b2 01 00       	push   $0x1b2c4
   19240:	68 d0 b2 01 00       	push   $0x1b2d0
   19245:	e8 16 08 00 00       	call   19a60 <_DbgPrint>
   1924a:	83 c4 10             	add    $0x10,%esp
   1924d:	83 ec 08             	sub    $0x8,%esp
   19250:	8b 45 08             	mov    0x8(%ebp),%eax
   19253:	ff 70 18             	pushl  0x18(%eax)
   19256:	68 12 b9 01 00       	push   $0x1b912
   1925b:	e8 00 08 00 00       	call   19a60 <_DbgPrint>
   19260:	83 c4 10             	add    $0x10,%esp
   19263:	83 ec 04             	sub    $0x4,%esp
   19266:	68 c1 00 00 00       	push   $0xc1
   1926b:	68 c4 b2 01 00       	push   $0x1b2c4
   19270:	68 d0 b2 01 00       	push   $0x1b2d0
   19275:	e8 e6 07 00 00       	call   19a60 <_DbgPrint>
   1927a:	83 c4 10             	add    $0x10,%esp
   1927d:	83 ec 08             	sub    $0x8,%esp
   19280:	8b 45 08             	mov    0x8(%ebp),%eax
   19283:	ff 70 1c             	pushl  0x1c(%eax)
   19286:	68 2f b9 01 00       	push   $0x1b92f
   1928b:	e8 d0 07 00 00       	call   19a60 <_DbgPrint>
   19290:	83 c4 10             	add    $0x10,%esp
   19293:	83 ec 04             	sub    $0x4,%esp
   19296:	68 c2 00 00 00       	push   $0xc2
   1929b:	68 c4 b2 01 00       	push   $0x1b2c4
   192a0:	68 d0 b2 01 00       	push   $0x1b2d0
   192a5:	e8 b6 07 00 00       	call   19a60 <_DbgPrint>
   192aa:	83 c4 10             	add    $0x10,%esp
   192ad:	83 ec 08             	sub    $0x8,%esp
   192b0:	8b 45 08             	mov    0x8(%ebp),%eax
   192b3:	ff 70 20             	pushl  0x20(%eax)
   192b6:	68 4a b9 01 00       	push   $0x1b94a
   192bb:	e8 a0 07 00 00       	call   19a60 <_DbgPrint>
   192c0:	83 c4 10             	add    $0x10,%esp
   192c3:	83 ec 04             	sub    $0x4,%esp
   192c6:	68 c3 00 00 00       	push   $0xc3
   192cb:	68 c4 b2 01 00       	push   $0x1b2c4
   192d0:	68 d0 b2 01 00       	push   $0x1b2d0
   192d5:	e8 86 07 00 00       	call   19a60 <_DbgPrint>
   192da:	83 c4 10             	add    $0x10,%esp
   192dd:	83 ec 08             	sub    $0x8,%esp
   192e0:	8b 45 08             	mov    0x8(%ebp),%eax
   192e3:	ff 70 24             	pushl  0x24(%eax)
   192e6:	68 67 b9 01 00       	push   $0x1b967
   192eb:	e8 70 07 00 00       	call   19a60 <_DbgPrint>
   192f0:	83 c4 10             	add    $0x10,%esp
   192f3:	83 ec 04             	sub    $0x4,%esp
   192f6:	68 c4 00 00 00       	push   $0xc4
   192fb:	68 c4 b2 01 00       	push   $0x1b2c4
   19300:	68 d0 b2 01 00       	push   $0x1b2d0
   19305:	e8 56 07 00 00       	call   19a60 <_DbgPrint>
   1930a:	83 c4 10             	add    $0x10,%esp
   1930d:	83 ec 08             	sub    $0x8,%esp
   19310:	8b 45 08             	mov    0x8(%ebp),%eax
   19313:	ff 70 2c             	pushl  0x2c(%eax)
   19316:	68 82 b9 01 00       	push   $0x1b982
   1931b:	e8 40 07 00 00       	call   19a60 <_DbgPrint>
   19320:	83 c4 10             	add    $0x10,%esp
   19323:	83 ec 04             	sub    $0x4,%esp
   19326:	68 c5 00 00 00       	push   $0xc5
   1932b:	68 c4 b2 01 00       	push   $0x1b2c4
   19330:	68 d0 b2 01 00       	push   $0x1b2d0
   19335:	e8 26 07 00 00       	call   19a60 <_DbgPrint>
   1933a:	83 c4 10             	add    $0x10,%esp
   1933d:	83 ec 08             	sub    $0x8,%esp
   19340:	8b 45 08             	mov    0x8(%ebp),%eax
   19343:	ff 70 30             	pushl  0x30(%eax)
   19346:	68 9d b9 01 00       	push   $0x1b99d
   1934b:	e8 10 07 00 00       	call   19a60 <_DbgPrint>
   19350:	83 c4 10             	add    $0x10,%esp
   19353:	83 ec 04             	sub    $0x4,%esp
   19356:	68 c6 00 00 00       	push   $0xc6
   1935b:	68 c4 b2 01 00       	push   $0x1b2c4
   19360:	68 d0 b2 01 00       	push   $0x1b2d0
   19365:	e8 f6 06 00 00       	call   19a60 <_DbgPrint>
   1936a:	83 c4 10             	add    $0x10,%esp
   1936d:	83 ec 08             	sub    $0x8,%esp
   19370:	8b 45 08             	mov    0x8(%ebp),%eax
   19373:	ff 70 38             	pushl  0x38(%eax)
   19376:	68 b8 b9 01 00       	push   $0x1b9b8
   1937b:	e8 e0 06 00 00       	call   19a60 <_DbgPrint>
   19380:	83 c4 10             	add    $0x10,%esp
   19383:	83 ec 04             	sub    $0x4,%esp
   19386:	68 c7 00 00 00       	push   $0xc7
   1938b:	68 c4 b2 01 00       	push   $0x1b2c4
   19390:	68 d0 b2 01 00       	push   $0x1b2d0
   19395:	e8 c6 06 00 00       	call   19a60 <_DbgPrint>
   1939a:	83 c4 10             	add    $0x10,%esp
   1939d:	83 ec 08             	sub    $0x8,%esp
   193a0:	8b 45 08             	mov    0x8(%ebp),%eax
   193a3:	ff 70 40             	pushl  0x40(%eax)
   193a6:	68 d3 b9 01 00       	push   $0x1b9d3
   193ab:	e8 b0 06 00 00       	call   19a60 <_DbgPrint>
   193b0:	83 c4 10             	add    $0x10,%esp
   193b3:	83 ec 04             	sub    $0x4,%esp
   193b6:	68 c8 00 00 00       	push   $0xc8
   193bb:	68 c4 b2 01 00       	push   $0x1b2c4
   193c0:	68 d0 b2 01 00       	push   $0x1b2d0
   193c5:	e8 96 06 00 00       	call   19a60 <_DbgPrint>
   193ca:	83 c4 10             	add    $0x10,%esp
   193cd:	83 ec 08             	sub    $0x8,%esp
   193d0:	8b 45 08             	mov    0x8(%ebp),%eax
   193d3:	ff 70 44             	pushl  0x44(%eax)
   193d6:	68 ee b9 01 00       	push   $0x1b9ee
   193db:	e8 80 06 00 00       	call   19a60 <_DbgPrint>
   193e0:	83 c4 10             	add    $0x10,%esp
   193e3:	83 ec 04             	sub    $0x4,%esp
   193e6:	68 c9 00 00 00       	push   $0xc9
   193eb:	68 c4 b2 01 00       	push   $0x1b2c4
   193f0:	68 d0 b2 01 00       	push   $0x1b2d0
   193f5:	e8 66 06 00 00       	call   19a60 <_DbgPrint>
   193fa:	83 c4 10             	add    $0x10,%esp
   193fd:	83 ec 08             	sub    $0x8,%esp
   19400:	8b 45 08             	mov    0x8(%ebp),%eax
   19403:	ff 70 48             	pushl  0x48(%eax)
   19406:	68 09 ba 01 00       	push   $0x1ba09
   1940b:	e8 50 06 00 00       	call   19a60 <_DbgPrint>
   19410:	83 c4 10             	add    $0x10,%esp
   19413:	83 ec 04             	sub    $0x4,%esp
   19416:	68 ca 00 00 00       	push   $0xca
   1941b:	68 c4 b2 01 00       	push   $0x1b2c4
   19420:	68 d0 b2 01 00       	push   $0x1b2d0
   19425:	e8 36 06 00 00       	call   19a60 <_DbgPrint>
   1942a:	83 c4 10             	add    $0x10,%esp
   1942d:	83 ec 08             	sub    $0x8,%esp
   19430:	8b 45 08             	mov    0x8(%ebp),%eax
   19433:	ff 70 4c             	pushl  0x4c(%eax)
   19436:	68 24 ba 01 00       	push   $0x1ba24
   1943b:	e8 20 06 00 00       	call   19a60 <_DbgPrint>
   19440:	83 c4 10             	add    $0x10,%esp
   19443:	83 ec 04             	sub    $0x4,%esp
   19446:	68 cb 00 00 00       	push   $0xcb
   1944b:	68 c4 b2 01 00       	push   $0x1b2c4
   19450:	68 d0 b2 01 00       	push   $0x1b2d0
   19455:	e8 06 06 00 00       	call   19a60 <_DbgPrint>
   1945a:	83 c4 10             	add    $0x10,%esp
   1945d:	83 ec 08             	sub    $0x8,%esp
   19460:	8b 45 08             	mov    0x8(%ebp),%eax
   19463:	ff 70 54             	pushl  0x54(%eax)
   19466:	68 3f ba 01 00       	push   $0x1ba3f
   1946b:	e8 f0 05 00 00       	call   19a60 <_DbgPrint>
   19470:	83 c4 10             	add    $0x10,%esp
   19473:	83 ec 04             	sub    $0x4,%esp
   19476:	68 cc 00 00 00       	push   $0xcc
   1947b:	68 c4 b2 01 00       	push   $0x1b2c4
   19480:	68 d0 b2 01 00       	push   $0x1b2d0
   19485:	e8 d6 05 00 00       	call   19a60 <_DbgPrint>
   1948a:	83 c4 10             	add    $0x10,%esp
   1948d:	83 ec 08             	sub    $0x8,%esp
   19490:	8b 45 08             	mov    0x8(%ebp),%eax
   19493:	ff 70 58             	pushl  0x58(%eax)
   19496:	68 5a ba 01 00       	push   $0x1ba5a
   1949b:	e8 c0 05 00 00       	call   19a60 <_DbgPrint>
   194a0:	83 c4 10             	add    $0x10,%esp
   194a3:	c9                   	leave  
   194a4:	c3                   	ret    
   194a5:	90                   	nop    
   194a6:	90                   	nop    
   194a7:	90                   	nop    
   194a8:	90                   	nop    
   194a9:	90                   	nop    
   194aa:	90                   	nop    
   194ab:	90                   	nop    
   194ac:	90                   	nop    
   194ad:	90                   	nop    
   194ae:	90                   	nop    
   194af:	90                   	nop    

000194b0 <_wait_ms>:
   194b0:	55                   	push   %ebp
   194b1:	89 e5                	mov    %esp,%ebp
   194b3:	83 ec 08             	sub    $0x8,%esp
   194b6:	8b 55 08             	mov    0x8(%ebp),%edx
   194b9:	89 d0                	mov    %edx,%eax
   194bb:	c1 e0 02             	shl    $0x2,%eax
   194be:	01 d0                	add    %edx,%eax
   194c0:	01 c0                	add    %eax,%eax
   194c2:	f7 d8                	neg    %eax
   194c4:	99                   	cltd   
   194c5:	89 45 f8             	mov    %eax,0xfffffff8(%ebp)
   194c8:	89 55 fc             	mov    %edx,0xfffffffc(%ebp)
   194cb:	83 ec 04             	sub    $0x4,%esp
   194ce:	8d 45 f8             	lea    0xfffffff8(%ebp),%eax
   194d1:	50                   	push   %eax
   194d2:	6a 00                	push   $0x0
   194d4:	6a 00                	push   $0x0
   194d6:	e8 f5 05 00 00       	call   19ad0 <_KeDelayExecutionThread@12>
   194db:	83 c4 04             	add    $0x4,%esp
   194de:	c9                   	leave  
   194df:	c3                   	ret    

000194e0 <_init_wrapper>:
   194e0:	55                   	push   %ebp
   194e1:	89 e5                	mov    %esp,%ebp
   194e3:	83 ec 04             	sub    $0x4,%esp
   194e6:	c7 45 fc 00 00 00 00 	movl   $0x0,0xfffffffc(%ebp)
   194ed:	83 7d fc 13          	cmpl   $0x13,0xfffffffc(%ebp)
   194f1:	7f 15                	jg     19508 <_init_wrapper+0x28>
   194f3:	8b 45 fc             	mov    0xfffffffc(%ebp),%eax
   194f6:	c7 04 85 60 c1 01 00 	movl   $0x0,0x1c160(,%eax,4)
   194fd:	00 00 00 00 
   19501:	8d 45 fc             	lea    0xfffffffc(%ebp),%eax
   19504:	ff 00                	incl   (%eax)
   19506:	eb e5                	jmp    194ed <_init_wrapper+0xd>
   19508:	c7 05 40 c2 01 00 00 	movl   $0x0,0x1c240
   1950f:	00 00 00 
   19512:	c7 05 40 c1 01 00 00 	movl   $0x0,0x1c140
   19519:	00 00 00 
   1951c:	c7 05 30 c2 01 00 80 	movl   $0x1c080,0x1c230
   19523:	c0 01 00 
   19526:	c7 05 88 c0 01 00 00 	movl   $0x0,0x1c088
   1952d:	00 00 00 
   19530:	c7 45 fc 00 00 00 00 	movl   $0x0,0xfffffffc(%ebp)
   19537:	83 7d fc 07          	cmpl   $0x7,0xfffffffc(%ebp)
   1953b:	7f 33                	jg     19570 <_init_wrapper+0x90>
   1953d:	8b 55 fc             	mov    0xfffffffc(%ebp),%edx
   19540:	89 d0                	mov    %edx,%eax
   19542:	01 c0                	add    %eax,%eax
   19544:	01 d0                	add    %edx,%eax
   19546:	c1 e0 02             	shl    $0x2,%eax
   19549:	c7 80 d0 c1 01 00 00 	movl   $0x0,0x1c1d0(%eax)
   19550:	00 00 00 
   19553:	8b 55 fc             	mov    0xfffffffc(%ebp),%edx
   19556:	89 d0                	mov    %edx,%eax
   19558:	01 c0                	add    %eax,%eax
   1955a:	01 d0                	add    %edx,%eax
   1955c:	c1 e0 02             	shl    $0x2,%eax
   1955f:	c7 80 d4 c1 01 00 ff 	movl   $0xffffffff,0x1c1d4(%eax)
   19566:	ff ff ff 
   19569:	8d 45 fc             	lea    0xfffffffc(%ebp),%eax
   1956c:	ff 00                	incl   (%eax)
   1956e:	eb c7                	jmp    19537 <_init_wrapper+0x57>
   19570:	c7 05 b8 c0 01 00 00 	movl   $0x0,0x1c0b8
   19577:	00 00 00 
   1957a:	c7 05 c0 c1 01 00 00 	movl   $0x0,0x1c1c0
   19581:	00 00 00 
   19584:	c7 45 fc 00 00 00 00 	movl   $0x0,0xfffffffc(%ebp)
   1958b:	83 7d fc 07          	cmpl   $0x7,0xfffffffc(%ebp)
   1958f:	7f 15                	jg     195a6 <_init_wrapper+0xc6>
   19591:	8b 45 fc             	mov    0xfffffffc(%ebp),%eax
   19594:	c7 04 85 98 c0 01 00 	movl   $0x0,0x1c098(,%eax,4)
   1959b:	00 00 00 00 
   1959f:	8d 45 fc             	lea    0xfffffffc(%ebp),%eax
   195a2:	ff 00                	incl   (%eax)
   195a4:	eb e5                	jmp    1958b <_init_wrapper+0xab>
   195a6:	c9                   	leave  
   195a7:	c3                   	ret    

000195a8 <_handle_irqs>:
   195a8:	55                   	push   %ebp
   195a9:	89 e5                	mov    %esp,%ebp
   195ab:	83 ec 08             	sub    $0x8,%esp
   195ae:	c7 45 fc 00 00 00 00 	movl   $0x0,0xfffffffc(%ebp)
   195b5:	83 7d fc 07          	cmpl   $0x7,0xfffffffc(%ebp)
   195b9:	0f 8f 86 00 00 00    	jg     19645 <_handle_irqs+0x9d>
   195bf:	8b 45 fc             	mov    0xfffffffc(%ebp),%eax
   195c2:	89 c2                	mov    %eax,%edx
   195c4:	01 d2                	add    %edx,%edx
   195c6:	01 c2                	add    %eax,%edx
   195c8:	8d 04 95 00 00 00 00 	lea    0x0(,%edx,4),%eax
   195cf:	83 b8 d0 c1 01 00 00 	cmpl   $0x0,0x1c1d0(%eax)
   195d6:	74 63                	je     1963b <_handle_irqs+0x93>
   195d8:	8b 55 fc             	mov    0xfffffffc(%ebp),%edx
   195db:	89 d0                	mov    %edx,%eax
   195dd:	01 c0                	add    %eax,%eax
   195df:	01 d0                	add    %edx,%eax
   195e1:	c1 e0 02             	shl    $0x2,%eax
   195e4:	8b 80 d4 c1 01 00    	mov    0x1c1d4(%eax),%eax
   195ea:	3b 45 08             	cmp    0x8(%ebp),%eax
   195ed:	74 08                	je     195f7 <_handle_irqs+0x4f>
   195ef:	83 7d 08 ff          	cmpl   $0xffffffff,0x8(%ebp)
   195f3:	74 02                	je     195f7 <_handle_irqs+0x4f>
   195f5:	eb 44                	jmp    1963b <_handle_irqs+0x93>
   195f7:	83 ec 04             	sub    $0x4,%esp
   195fa:	8b 55 fc             	mov    0xfffffffc(%ebp),%edx
   195fd:	89 d0                	mov    %edx,%eax
   195ff:	01 c0                	add    %eax,%eax
   19601:	01 d0                	add    %edx,%eax
   19603:	8d 0c 85 00 00 00 00 	lea    0x0(,%eax,4),%ecx
   1960a:	6a 00                	push   $0x0
   1960c:	8b 55 fc             	mov    0xfffffffc(%ebp),%edx
   1960f:	89 d0                	mov    %edx,%eax
   19611:	01 c0                	add    %eax,%eax
   19613:	01 d0                	add    %edx,%eax
   19615:	c1 e0 02             	shl    $0x2,%eax
   19618:	ff b0 d8 c1 01 00    	pushl  0x1c1d8(%eax)
   1961e:	8b 55 fc             	mov    0xfffffffc(%ebp),%edx
   19621:	89 d0                	mov    %edx,%eax
   19623:	01 c0                	add    %eax,%eax
   19625:	01 d0                	add    %edx,%eax
   19627:	c1 e0 02             	shl    $0x2,%eax
   1962a:	ff b0 d4 c1 01 00    	pushl  0x1c1d4(%eax)
   19630:	8b 81 d0 c1 01 00    	mov    0x1c1d0(%ecx),%eax
   19636:	ff d0                	call   *%eax
   19638:	83 c4 10             	add    $0x10,%esp
   1963b:	8d 45 fc             	lea    0xfffffffc(%ebp),%eax
   1963e:	ff 00                	incl   (%eax)
   19640:	e9 70 ff ff ff       	jmp    195b5 <_handle_irqs+0xd>
   19645:	c9                   	leave  
   19646:	c3                   	ret    

00019647 <_inc_jiffies>:
   19647:	55                   	push   %ebp
   19648:	89 e5                	mov    %esp,%ebp
   1964a:	8b 45 08             	mov    0x8(%ebp),%eax
   1964d:	01 05 40 c2 01 00    	add    %eax,0x1c240
   19653:	5d                   	pop    %ebp
   19654:	c3                   	ret    

00019655 <_do_all_timers>:
   19655:	55                   	push   %ebp
   19656:	89 e5                	mov    %esp,%ebp
   19658:	83 ec 18             	sub    $0x18,%esp
   1965b:	c7 45 fc 00 00 00 00 	movl   $0x0,0xfffffffc(%ebp)
   19662:	83 7d fc 13          	cmpl   $0x13,0xfffffffc(%ebp)
   19666:	0f 8f 82 00 00 00    	jg     196ee <_do_all_timers+0x99>
   1966c:	8b 45 fc             	mov    0xfffffffc(%ebp),%eax
   1966f:	83 3c 85 60 c1 01 00 	cmpl   $0x0,0x1c160(,%eax,4)
   19676:	00 
   19677:	74 6b                	je     196e4 <_do_all_timers+0x8f>
   19679:	8b 45 fc             	mov    0xfffffffc(%ebp),%eax
   1967c:	8b 04 85 60 c1 01 00 	mov    0x1c160(,%eax,4),%eax
   19683:	83 38 00             	cmpl   $0x0,(%eax)
   19686:	74 5c                	je     196e4 <_do_all_timers+0x8f>
   19688:	8b 45 fc             	mov    0xfffffffc(%ebp),%eax
   1968b:	8b 04 85 60 c1 01 00 	mov    0x1c160(,%eax,4),%eax
   19692:	83 78 08 00          	cmpl   $0x0,0x8(%eax)
   19696:	74 4c                	je     196e4 <_do_all_timers+0x8f>
   19698:	8b 45 fc             	mov    0xfffffffc(%ebp),%eax
   1969b:	8b 04 85 60 c1 01 00 	mov    0x1c160(,%eax,4),%eax
   196a2:	8b 00                	mov    (%eax),%eax
   196a4:	89 45 f8             	mov    %eax,0xfffffff8(%ebp)
   196a7:	8b 45 fc             	mov    0xfffffffc(%ebp),%eax
   196aa:	8b 04 85 60 c1 01 00 	mov    0x1c160(,%eax,4),%eax
   196b1:	8b 40 04             	mov    0x4(%eax),%eax
   196b4:	89 45 f4             	mov    %eax,0xfffffff4(%ebp)
   196b7:	8b 45 fc             	mov    0xfffffffc(%ebp),%eax
   196ba:	8b 04 85 60 c1 01 00 	mov    0x1c160(,%eax,4),%eax
   196c1:	c7 40 08 00 00 00 00 	movl   $0x0,0x8(%eax)
   196c8:	8b 45 fc             	mov    0xfffffffc(%ebp),%eax
   196cb:	c7 04 85 60 c1 01 00 	movl   $0x0,0x1c160(,%eax,4)
   196d2:	00 00 00 00 
   196d6:	83 ec 0c             	sub    $0xc,%esp
   196d9:	ff 75 f4             	pushl  0xfffffff4(%ebp)
   196dc:	8b 45 f8             	mov    0xfffffff8(%ebp),%eax
   196df:	ff d0                	call   *%eax
   196e1:	83 c4 10             	add    $0x10,%esp
   196e4:	8d 45 fc             	lea    0xfffffffc(%ebp),%eax
   196e7:	ff 00                	incl   (%eax)
   196e9:	e9 74 ff ff ff       	jmp    19662 <_do_all_timers+0xd>
   196ee:	c9                   	leave  
   196ef:	c3                   	ret    

000196f0 <_my_kernel_thread>:
   196f0:	55                   	push   %ebp
   196f1:	89 e5                	mov    %esp,%ebp
   196f3:	8b 45 08             	mov    0x8(%ebp),%eax
   196f6:	a3 50 c1 01 00       	mov    %eax,0x1c150
   196fb:	8b 45 0c             	mov    0xc(%ebp),%eax
   196fe:	a3 b0 c1 01 00       	mov    %eax,0x1c1b0
   19703:	b8 2a 00 00 00       	mov    $0x2a,%eax
   19708:	5d                   	pop    %ebp
   19709:	c3                   	ret    

0001970a <_my_device_add>:
   1970a:	55                   	push   %ebp
   1970b:	89 e5                	mov    %esp,%ebp
   1970d:	83 ec 18             	sub    $0x18,%esp
   19710:	c7 45 f8 00 00 00 00 	movl   $0x0,0xfffffff8(%ebp)
   19717:	8b 45 08             	mov    0x8(%ebp),%eax
   1971a:	83 b8 98 00 00 00 00 	cmpl   $0x0,0x98(%eax)
   19721:	74 32                	je     19755 <_my_device_add+0x4b>
   19723:	8b 45 08             	mov    0x8(%ebp),%eax
   19726:	8b 80 98 00 00 00    	mov    0x98(%eax),%eax
   1972c:	83 78 08 00          	cmpl   $0x0,0x8(%eax)
   19730:	0f 84 8d 00 00 00    	je     197c3 <_my_device_add+0xb9>
   19736:	83 ec 0c             	sub    $0xc,%esp
   19739:	8b 45 08             	mov    0x8(%ebp),%eax
   1973c:	8b 80 98 00 00 00    	mov    0x98(%eax),%eax
   19742:	ff 75 08             	pushl  0x8(%ebp)
   19745:	8b 40 08             	mov    0x8(%eax),%eax
   19748:	ff d0                	call   *%eax
   1974a:	83 c4 10             	add    $0x10,%esp
   1974d:	89 45 f4             	mov    %eax,0xfffffff4(%ebp)
   19750:	e9 82 00 00 00       	jmp    197d7 <_my_device_add+0xcd>
   19755:	c7 45 fc 00 00 00 00 	movl   $0x0,0xfffffffc(%ebp)
   1975c:	8b 45 fc             	mov    0xfffffffc(%ebp),%eax
   1975f:	3b 05 b8 c0 01 00    	cmp    0x1c0b8,%eax
   19765:	7d 4d                	jge    197b4 <_my_device_add+0xaa>
   19767:	8b 45 fc             	mov    0xfffffffc(%ebp),%eax
   1976a:	8b 04 85 98 c0 01 00 	mov    0x1c098(,%eax,4),%eax
   19771:	83 78 08 00          	cmpl   $0x0,0x8(%eax)
   19775:	74 36                	je     197ad <_my_device_add+0xa3>
   19777:	8b 55 08             	mov    0x8(%ebp),%edx
   1977a:	8b 45 fc             	mov    0xfffffffc(%ebp),%eax
   1977d:	8b 04 85 98 c0 01 00 	mov    0x1c098(,%eax,4),%eax
   19784:	89 82 98 00 00 00    	mov    %eax,0x98(%edx)
   1978a:	83 ec 0c             	sub    $0xc,%esp
   1978d:	8b 45 fc             	mov    0xfffffffc(%ebp),%eax
   19790:	8b 04 85 98 c0 01 00 	mov    0x1c098(,%eax,4),%eax
   19797:	ff 75 08             	pushl  0x8(%ebp)
   1979a:	8b 40 08             	mov    0x8(%eax),%eax
   1979d:	ff d0                	call   *%eax
   1979f:	83 c4 10             	add    $0x10,%esp
   197a2:	85 c0                	test   %eax,%eax
   197a4:	75 07                	jne    197ad <_my_device_add+0xa3>
   197a6:	c7 45 f8 01 00 00 00 	movl   $0x1,0xfffffff8(%ebp)
   197ad:	8d 45 fc             	lea    0xfffffffc(%ebp),%eax
   197b0:	ff 00                	incl   (%eax)
   197b2:	eb a8                	jmp    1975c <_my_device_add+0x52>
   197b4:	83 7d f8 00          	cmpl   $0x0,0xfffffff8(%ebp)
   197b8:	74 09                	je     197c3 <_my_device_add+0xb9>
   197ba:	c7 45 f4 00 00 00 00 	movl   $0x0,0xfffffff4(%ebp)
   197c1:	eb 14                	jmp    197d7 <_my_device_add+0xcd>
   197c3:	8b 45 08             	mov    0x8(%ebp),%eax
   197c6:	c7 80 98 00 00 00 00 	movl   $0x0,0x98(%eax)
   197cd:	00 00 00 
   197d0:	c7 45 f4 ed ff ff ff 	movl   $0xffffffed,0xfffffff4(%ebp)
   197d7:	8b 45 f4             	mov    0xfffffff4(%ebp),%eax
   197da:	c9                   	leave  
   197db:	c3                   	ret    

000197dc <_my_driver_register>:
   197dc:	55                   	push   %ebp
   197dd:	89 e5                	mov    %esp,%ebp
   197df:	83 ec 04             	sub    $0x4,%esp
   197e2:	83 3d b8 c0 01 00 07 	cmpl   $0x7,0x1c0b8
   197e9:	7f 20                	jg     1980b <_my_driver_register+0x2f>
   197eb:	a1 b8 c0 01 00       	mov    0x1c0b8,%eax
   197f0:	89 c2                	mov    %eax,%edx
   197f2:	8b 45 08             	mov    0x8(%ebp),%eax
   197f5:	89 04 95 98 c0 01 00 	mov    %eax,0x1c098(,%edx,4)
   197fc:	ff 05 b8 c0 01 00    	incl   0x1c0b8
   19802:	c7 45 fc 00 00 00 00 	movl   $0x0,0xfffffffc(%ebp)
   19809:	eb 07                	jmp    19812 <_my_driver_register+0x36>
   1980b:	c7 45 fc ff ff ff ff 	movl   $0xffffffff,0xfffffffc(%ebp)
   19812:	8b 45 fc             	mov    0xfffffffc(%ebp),%eax
   19815:	c9                   	leave  
   19816:	c3                   	ret    

00019817 <_my_device_unregister>:
   19817:	55                   	push   %ebp
   19818:	89 e5                	mov    %esp,%ebp
   1981a:	83 ec 08             	sub    $0x8,%esp
   1981d:	8b 45 08             	mov    0x8(%ebp),%eax
   19820:	83 b8 98 00 00 00 00 	cmpl   $0x0,0x98(%eax)
   19827:	74 26                	je     1984f <_my_device_unregister+0x38>
   19829:	8b 45 08             	mov    0x8(%ebp),%eax
   1982c:	8b 80 98 00 00 00    	mov    0x98(%eax),%eax
   19832:	83 78 0c 00          	cmpl   $0x0,0xc(%eax)
   19836:	74 17                	je     1984f <_my_device_unregister+0x38>
   19838:	83 ec 0c             	sub    $0xc,%esp
   1983b:	8b 45 08             	mov    0x8(%ebp),%eax
   1983e:	8b 80 98 00 00 00    	mov    0x98(%eax),%eax
   19844:	ff 75 08             	pushl  0x8(%ebp)
   19847:	8b 40 0c             	mov    0xc(%eax),%eax
   1984a:	ff d0                	call   *%eax
   1984c:	83 c4 10             	add    $0x10,%esp
   1984f:	b8 00 00 00 00       	mov    $0x0,%eax
   19854:	c9                   	leave  
   19855:	c3                   	ret    

00019856 <_my_get_device>:
   19856:	55                   	push   %ebp
   19857:	89 e5                	mov    %esp,%ebp
   19859:	b8 00 00 00 00       	mov    $0x0,%eax
   1985e:	5d                   	pop    %ebp
   1985f:	c3                   	ret    

00019860 <_my_device_initialize>:
   19860:	55                   	push   %ebp
   19861:	89 e5                	mov    %esp,%ebp
   19863:	5d                   	pop    %ebp
   19864:	c3                   	ret    

00019865 <_my_wake_up>:
   19865:	55                   	push   %ebp
   19866:	89 e5                	mov    %esp,%ebp
   19868:	c7 05 c0 c1 01 00 01 	movl   $0x1,0x1c1c0
   1986f:	00 00 00 
   19872:	5d                   	pop    %ebp
   19873:	c3                   	ret    

00019874 <_my_schedule_timeout>:
   19874:	55                   	push   %ebp
   19875:	89 e5                	mov    %esp,%ebp
   19877:	83 ec 08             	sub    $0x8,%esp
   1987a:	c7 45 fc 01 00 00 00 	movl   $0x1,0xfffffffc(%ebp)
   19881:	83 45 08 0a          	addl   $0xa,0x8(%ebp)
   19885:	83 7d 08 00          	cmpl   $0x0,0x8(%ebp)
   19889:	7e 3e                	jle    198c9 <_my_schedule_timeout+0x55>
   1988b:	e8 c5 fd ff ff       	call   19655 <_do_all_timers>
   19890:	83 ec 0c             	sub    $0xc,%esp
   19893:	6a ff                	push   $0xffffffff
   19895:	e8 0e fd ff ff       	call   195a8 <_handle_irqs>
   1989a:	83 c4 10             	add    $0x10,%esp
   1989d:	83 3d c0 c1 01 00 00 	cmpl   $0x0,0x1c1c0
   198a4:	74 02                	je     198a8 <_my_schedule_timeout+0x34>
   198a6:	eb 21                	jmp    198c9 <_my_schedule_timeout+0x55>
   198a8:	83 ec 0c             	sub    $0xc,%esp
   198ab:	ff 75 fc             	pushl  0xfffffffc(%ebp)
   198ae:	e8 fd fb ff ff       	call   194b0 <_wait_ms>
   198b3:	83 c4 10             	add    $0x10,%esp
   198b6:	ff 75 fc             	pushl  0xfffffffc(%ebp)
   198b9:	e8 89 fd ff ff       	call   19647 <_inc_jiffies>
   198be:	83 c4 04             	add    $0x4,%esp
   198c1:	8b 45 fc             	mov    0xfffffffc(%ebp),%eax
   198c4:	29 45 08             	sub    %eax,0x8(%ebp)
   198c7:	eb bc                	jmp    19885 <_my_schedule_timeout+0x11>
   198c9:	c7 05 c0 c1 01 00 00 	movl   $0x0,0x1c1c0
   198d0:	00 00 00 
   198d3:	8b 45 08             	mov    0x8(%ebp),%eax
   198d6:	c9                   	leave  
   198d7:	c3                   	ret    

000198d8 <_my_wait_for_completion>:
   198d8:	55                   	push   %ebp
   198d9:	89 e5                	mov    %esp,%ebp
   198db:	83 ec 08             	sub    $0x8,%esp
   198de:	c7 45 fc 64 00 00 00 	movl   $0x64,0xfffffffc(%ebp)
   198e5:	8b 45 08             	mov    0x8(%ebp),%eax
   198e8:	83 38 00             	cmpl   $0x0,(%eax)
   198eb:	75 2c                	jne    19919 <_my_wait_for_completion+0x41>
   198ed:	83 7d fc 00          	cmpl   $0x0,0xfffffffc(%ebp)
   198f1:	7e 26                	jle    19919 <_my_wait_for_completion+0x41>
   198f3:	e8 5d fd ff ff       	call   19655 <_do_all_timers>
   198f8:	83 ec 0c             	sub    $0xc,%esp
   198fb:	6a ff                	push   $0xffffffff
   198fd:	e8 a6 fc ff ff       	call   195a8 <_handle_irqs>
   19902:	83 c4 10             	add    $0x10,%esp
   19905:	83 ec 0c             	sub    $0xc,%esp
   19908:	6a 0a                	push   $0xa
   1990a:	e8 a1 fb ff ff       	call   194b0 <_wait_ms>
   1990f:	83 c4 10             	add    $0x10,%esp
   19912:	8d 45 fc             	lea    0xfffffffc(%ebp),%eax
   19915:	ff 08                	decl   (%eax)
   19917:	eb cc                	jmp    198e5 <_my_wait_for_completion+0xd>
   19919:	c9                   	leave  
   1991a:	c3                   	ret    

0001991b <_my_pci_module_init>:
   1991b:	55                   	push   %ebp
   1991c:	89 e5                	mov    %esp,%ebp
   1991e:	83 ec 18             	sub    $0x18,%esp
   19921:	a1 88 c0 01 00       	mov    0x1c088,%eax
   19926:	89 45 fc             	mov    %eax,0xfffffffc(%ebp)
   19929:	c7 45 f8 00 00 00 00 	movl   $0x0,0xfffffff8(%ebp)
   19930:	83 3d 88 c0 01 00 00 	cmpl   $0x0,0x1c088
   19937:	75 33                	jne    1996c <_my_pci_module_init+0x51>
   19939:	83 ec 04             	sub    $0x4,%esp
   1993c:	68 ef 00 00 00       	push   $0xef
   19941:	68 78 ba 01 00       	push   $0x1ba78
   19946:	68 8e ba 01 00       	push   $0x1ba8e
   1994b:	e8 10 01 00 00       	call   19a60 <_DbgPrint>
   19950:	83 c4 10             	add    $0x10,%esp
   19953:	83 ec 0c             	sub    $0xc,%esp
   19956:	68 97 ba 01 00       	push   $0x1ba97
   1995b:	e8 00 01 00 00       	call   19a60 <_DbgPrint>
   19960:	83 c4 10             	add    $0x10,%esp
   19963:	c7 45 f4 00 00 00 00 	movl   $0x0,0xfffffff4(%ebp)
   1996a:	eb 1b                	jmp    19987 <_my_pci_module_init+0x6c>
   1996c:	83 ec 08             	sub    $0x8,%esp
   1996f:	8b 45 08             	mov    0x8(%ebp),%eax
   19972:	ff 75 f8             	pushl  0xfffffff8(%ebp)
   19975:	ff 75 fc             	pushl  0xfffffffc(%ebp)
   19978:	8b 40 10             	mov    0x10(%eax),%eax
   1997b:	ff d0                	call   *%eax
   1997d:	83 c4 10             	add    $0x10,%esp
   19980:	c7 45 f4 00 00 00 00 	movl   $0x0,0xfffffff4(%ebp)
   19987:	8b 45 f4             	mov    0xfffffff4(%ebp),%eax
   1998a:	c9                   	leave  
   1998b:	c3                   	ret    

0001998c <_my_pci_find_slot>:
   1998c:	55                   	push   %ebp
   1998d:	89 e5                	mov    %esp,%ebp
   1998f:	b8 00 00 00 00       	mov    $0x0,%eax
   19994:	5d                   	pop    %ebp
   19995:	c3                   	ret    

00019996 <_my_request_irq>:
   19996:	55                   	push   %ebp
   19997:	89 e5                	mov    %esp,%ebp
   19999:	83 ec 04             	sub    $0x4,%esp
   1999c:	83 3d 40 c1 01 00 07 	cmpl   $0x7,0x1c140
   199a3:	7f 63                	jg     19a08 <_my_request_irq+0x72>
   199a5:	8b 15 40 c1 01 00    	mov    0x1c140,%edx
   199ab:	89 d0                	mov    %edx,%eax
   199ad:	01 c0                	add    %eax,%eax
   199af:	01 d0                	add    %edx,%eax
   199b1:	8d 14 85 00 00 00 00 	lea    0x0(,%eax,4),%edx
   199b8:	8b 45 0c             	mov    0xc(%ebp),%eax
   199bb:	89 82 d0 c1 01 00    	mov    %eax,0x1c1d0(%edx)
   199c1:	8b 15 40 c1 01 00    	mov    0x1c140,%edx
   199c7:	89 d0                	mov    %edx,%eax
   199c9:	01 c0                	add    %eax,%eax
   199cb:	01 d0                	add    %edx,%eax
   199cd:	8d 14 85 00 00 00 00 	lea    0x0(,%eax,4),%edx
   199d4:	8b 45 08             	mov    0x8(%ebp),%eax
   199d7:	89 82 d4 c1 01 00    	mov    %eax,0x1c1d4(%edx)
   199dd:	8b 15 40 c1 01 00    	mov    0x1c140,%edx
   199e3:	89 d0                	mov    %edx,%eax
   199e5:	01 c0                	add    %eax,%eax
   199e7:	01 d0                	add    %edx,%eax
   199e9:	8d 14 85 00 00 00 00 	lea    0x0(,%eax,4),%edx
   199f0:	8b 45 18             	mov    0x18(%ebp),%eax
   199f3:	89 82 d8 c1 01 00    	mov    %eax,0x1c1d8(%edx)
   199f9:	ff 05 40 c1 01 00    	incl   0x1c140
   199ff:	c7 45 fc 00 00 00 00 	movl   $0x0,0xfffffffc(%ebp)
   19a06:	eb 07                	jmp    19a0f <_my_request_irq+0x79>
   19a08:	c7 45 fc 01 00 00 00 	movl   $0x1,0xfffffffc(%ebp)
   19a0f:	8b 45 fc             	mov    0xfffffffc(%ebp),%eax
   19a12:	c9                   	leave  
   19a13:	c3                   	ret    

00019a14 <_my_free_irq>:
   19a14:	55                   	push   %ebp
   19a15:	89 e5                	mov    %esp,%ebp
   19a17:	b8 00 00 00 00       	mov    $0x0,%eax
   19a1c:	5d                   	pop    %ebp
   19a1d:	c3                   	ret    
   19a1e:	90                   	nop    
   19a1f:	90                   	nop    

00019a20 <_DriverEntry@8>:
   19a20:	55                   	push   %ebp
   19a21:	89 e5                	mov    %esp,%ebp
   19a23:	b8 00 00 00 00       	mov    $0x0,%eax
   19a28:	5d                   	pop    %ebp
   19a29:	c2 08 00             	ret    $0x8
   19a2c:	90                   	nop    
   19a2d:	90                   	nop    
   19a2e:	90                   	nop    
   19a2f:	90                   	nop    

00019a30 <_ExAllocatePool@8>:
   19a30:	ff 25 64 e0 01 00    	jmp    *0x1e064
   19a36:	90                   	nop    
   19a37:	90                   	nop    
	...

00019a40 <_ExFreePool@4>:
   19a40:	ff 25 68 e0 01 00    	jmp    *0x1e068
   19a46:	90                   	nop    
   19a47:	90                   	nop    
	...

00019a50 <_memset>:
   19a50:	ff 25 7c e0 01 00    	jmp    *0x1e07c
   19a56:	90                   	nop    
   19a57:	90                   	nop    
	...

00019a60 <_DbgPrint>:
   19a60:	ff 25 60 e0 01 00    	jmp    *0x1e060
   19a66:	90                   	nop    
   19a67:	90                   	nop    
	...

00019a70 <_memcpy>:
   19a70:	ff 25 78 e0 01 00    	jmp    *0x1e078
   19a76:	90                   	nop    
   19a77:	90                   	nop    
	...

00019a80 <_strlen>:
   19a80:	ff 25 88 e0 01 00    	jmp    *0x1e088
   19a86:	90                   	nop    
   19a87:	90                   	nop    
	...

00019a90 <_sprintf>:
   19a90:	ff 25 80 e0 01 00    	jmp    *0x1e080
   19a96:	90                   	nop    
   19a97:	90                   	nop    
	...

00019aa0 <_strcpy>:
   19aa0:	ff 25 84 e0 01 00    	jmp    *0x1e084
   19aa6:	90                   	nop    
   19aa7:	90                   	nop    
	...

00019ab0 <_RtlCompareMemory@12>:
   19ab0:	ff 25 70 e0 01 00    	jmp    *0x1e070
   19ab6:	90                   	nop    
   19ab7:	90                   	nop    
	...

00019ac0 <__snprintf>:
   19ac0:	ff 25 74 e0 01 00    	jmp    *0x1e074
   19ac6:	90                   	nop    
   19ac7:	90                   	nop    
	...

00019ad0 <_KeDelayExecutionThread@12>:
   19ad0:	ff 25 6c e0 01 00    	jmp    *0x1e06c
   19ad6:	90                   	nop    
   19ad7:	90                   	nop    
	...

00019ae0 <__CTOR_LIST__>:
   19ae0:	ff                   	(bad)  
   19ae1:	ff                   	(bad)  
   19ae2:	ff                   	(bad)  
   19ae3:	ff 00                	incl   (%eax)
   19ae5:	00 00                	add    %al,(%eax)
	...

00019ae8 <__DTOR_LIST__>:
   19ae8:	ff                   	(bad)  
   19ae9:	ff                   	(bad)  
   19aea:	ff                   	(bad)  
   19aeb:	ff 00                	incl   (%eax)
   19aed:	00 00                	add    %al,(%eax)
	...

00019af0 <etext>:
	...
